---
triple:          'arm64-apple-darwin'
binary-path:     RC.out
relocations:
  - { offset: 0x39, size: 0x8, addend: 0x0, symName: __ZN6parlay8internal19ThreadListChunkData22thread_list_chunk_sizeE, symObjAddr: 0xE028B8, symBinAddr: 0x1001141E8, symSize: 0x0 }
  - { offset: 0x104, size: 0x8, addend: 0x0, symName: __ZN6parlay8internal31default_allocator_max_pool_sizeE, symObjAddr: 0xE028C8, symBinAddr: 0x1001141F8, symSize: 0x0 }
  - { offset: 0x1E1, size: 0x8, addend: 0x0, symName: __ZN6parlay8internal21get_default_allocatorEv, symObjAddr: 0x0, symBinAddr: 0x1000025F0, symSize: 0xBC }
  - { offset: 0x200, size: 0x8, addend: 0x0, symName: __ZZN6parlay8internal21get_default_allocatorEvE17default_allocator, symObjAddr: 0xE028D8, symBinAddr: 0x100114208, symSize: 0x0 }
  - { offset: 0x14FF, size: 0x8, addend: 0x0, symName: __ZN6parlay8internal7get_keyE, symObjAddr: 0xE98FB, symBinAddr: 0x1000E394B, symSize: 0x0 }
  - { offset: 0x16D9, size: 0x8, addend: 0x0, symName: __ZN6parlay8internal5scan_INS_5sliceIPmS3_EES4_NS_4plusImEEEEDaRKT_T0_OT1_jb, symObjAddr: 0x2440, symBinAddr: 0x100004A30, symSize: 0x3E0 }
  - { offset: 0x2C0C, size: 0x8, addend: 0x0, symName: __ZN6parlay8internal6reduceINS_8sequenceImNS_9allocatorImEELb0EEERNS_7maximumImEEEEDaRKT_OT0_j, symObjAddr: 0xD2BAC, symBinAddr: 0x1000D4438, symSize: 0x2BC }
  - { offset: 0x32D0, size: 0x8, addend: 0x0, symName: __ZN6parlay8internal14integer_sort_rINSt3__117integral_constantIbLb0EEENS_22uninitialized_copy_tagEPNS2_4pairIllEES8_S8_NS0_7get_keyMUlOT_E_EEENS_8sequenceImNS_9allocatorImEELb0EEENS_5sliceIT1_SH_EENSG_IT2_SJ_EENSG_IT3_SL_EERKT4_mmf, symObjAddr: 0xAF2B0, symBinAddr: 0x1000B1534, symSize: 0x2164 }
  - { offset: 0x9199, size: 0x8, addend: 0x0, symName: __ZN6parlay8internal14integer_sort_rINSt3__117integral_constantIbLb1EEENS_26uninitialized_relocate_tagEPNS2_4pairIllEES8_S8_NS0_7get_keyMUlOT_E_EEENS_8sequenceImNS_9allocatorImEELb0EEENS_5sliceIT1_SH_EENSG_IT2_SJ_EENSG_IT3_SL_EERKT4_mmf, symObjAddr: 0xB38DC, symBinAddr: 0x1000B5B60, symSize: 0x2040 }
  - { offset: 0xEC7A, size: 0x8, addend: 0x0, symName: __ZN6parlay8internal14integer_sort_rINSt3__117integral_constantIbLb0EEENS_26uninitialized_relocate_tagEPNS2_4pairIllEES8_S8_NS0_7get_keyMUlOT_E_EEENS_8sequenceImNS_9allocatorImEELb0EEENS_5sliceIT1_SH_EENSG_IT2_SJ_EENSG_IT3_SL_EERKT4_mmf, symObjAddr: 0xB7D90, symBinAddr: 0x1000BA014, symSize: 0x20D8 }
  - { offset: 0x14F5F, size: 0x8, addend: 0x0, symName: __ZN6parlay8internal22collect_reduce_sparse_INS_26uninitialized_relocate_tagENS_5sliceIPlS4_EENS_24remove_duplicates_helperIlNS_4hashIlvEENSt3__18equal_toIvEEEEEEDaT0_RKT1_, symObjAddr: 0x9D4C4, symBinAddr: 0x10009F86C, symSize: 0x35E8 }
  - { offset: 0x1F887, size: 0x8, addend: 0x0, symName: __ZN6parlay8internal5scan_INS_5sliceIPlS3_EES4_NS_4plusIlEEEEDaRKT_T0_OT1_jb, symObjAddr: 0x7CEB0, symBinAddr: 0x10007F258, symSize: 0x3E4 }
  - { offset: 0x207C3, size: 0x8, addend: 0x0, symName: __ZN6parlay8internal11merge_sort_IPNSt3__15tupleIJdlllEEES5_NS2_4lessIvEEEEvNS_5sliceIT_S9_EENS8_IT0_SB_EERKT1_b, symObjAddr: 0x66424, symBinAddr: 0x1000687CC, symSize: 0x4B0 }
  - { offset: 0x214D3, size: 0x8, addend: 0x0, symName: __ZN6parlay8internal10merge_intoINS_26uninitialized_relocate_tagEPNSt3__15tupleIJdlllEEES6_S6_NS3_4lessIvEEEEvNS_5sliceIT0_SA_EENS9_IT1_SC_EENS9_IT2_SE_EERKT3_b, symObjAddr: 0x6A0CC, symBinAddr: 0x10006C474, symSize: 0xD44 }
  - { offset: 0x23704, size: 0x8, addend: 0x0, symName: __ZN6parlay8internal9quicksortIPmZNS0_11get_bucketsIPNSt3__15tupleIJdlllEEENS4_4lessIvEEEEbNS_5sliceIT_SB_EEPhT0_mEUlmmE_EEvSB_mRKSE_, symObjAddr: 0x670F4, symBinAddr: 0x10006949C, symSize: 0xF78 }
  - { offset: 0x269D9, size: 0x8, addend: 0x0, symName: __ZN6parlay8internal13bucket_sort_rIPNSt3__15tupleIJdlllEEES5_NS2_4lessIvEEEEvNS_5sliceIT_S9_EENS8_IT0_SB_EET1_bb, symObjAddr: 0x65438, symBinAddr: 0x1000677E0, symSize: 0xFEC }
  - { offset: 0x29014, size: 0x8, addend: 0x0, symName: __ZN6parlay8internal9quicksortIPNSt3__15tupleIJdlllEEENS2_4lessIvEEEEvT_mRKT0_, symObjAddr: 0x63B38, symBinAddr: 0x100065EE0, symSize: 0xF70 }
  - { offset: 0x2C470, size: 0x8, addend: 0x0, symName: __ZN6parlay8internal5scan_INS_5sliceIPjS3_EES4_RNS_4plusIjEEEEDaRKT_T0_OT1_jb, symObjAddr: 0x7300C, symBinAddr: 0x1000753B4, symSize: 0x3E0 }
  - { offset: 0x2D46C, size: 0x8, addend: 0x0, symName: __ZN6parlay8internal5scan_INS_5sliceIPmS3_EES4_RNS_4plusImEEEEDaRKT_T0_OT1_jb, symObjAddr: 0x6BE3C, symBinAddr: 0x10006E1E4, symSize: 0x3E0 }
  - { offset: 0x2F7F4, size: 0x8, addend: 0x0, symName: __ZN6parlay8internal23default_allocator_sizesEv, symObjAddr: 0xB498, symBinAddr: 0x10000D964, symSize: 0x280 }
  - { offset: 0x2FDC9, size: 0x8, addend: 0x0, symName: __ZN6parlay8internal16init_num_workersEv, symObjAddr: 0xBC, symBinAddr: 0x1000026AC, symSize: 0xF8 }
  - { offset: 0x30766, size: 0x8, addend: 0x0, symName: __ZN6parlay8internal13get_thread_idEv, symObjAddr: 0x7BD4, symBinAddr: 0x10000A1C4, symSize: 0x20C }
  - { offset: 0x329DE, size: 0x8, addend: 0x0, symName: __ZN6parlay8internal11sample_sortINS_16delayed_sequenceINSt3__15tupleIJdlllEEES5_Z19min_spanning_forestIldENS_8sequenceIlNS_9allocatorIlEELb0EEERKNS7_INS4_IJT_SB_T0_EEENS8_ISD_EEXsr3std7is_sameISD_cEE5valueEEElEUllE_E8iteratorENS3_4lessIvEEEEDaNS_5sliceISB_SB_EERKSC_b, symObjAddr: 0x5D714, symBinAddr: 0x10005FABC, symSize: 0x32CC }
  - { offset: 0x3DD4D, size: 0x8, addend: 0x0, symName: __ZN6parlay8internal11bucket_sortIPNSt3__15tupleIJdlllEEENS2_4lessIvEEEEvNS_5sliceIT_S9_EET0_b, symObjAddr: 0x64AA8, symBinAddr: 0x100066E50, symSize: 0x98 }
  - { offset: 0x3E096, size: 0x8, addend: 0x0, symName: __ZN6parlay8internal16quicksort_serialIPNSt3__15tupleIJdlllEEENS2_4lessIvEEEEvT_mRKT0_, symObjAddr: 0x71B40, symBinAddr: 0x100073EE8, symSize: 0x164 }
  - { offset: 0x3E2F2, size: 0x8, addend: 0x0, symName: __ZN6parlay8internal6split3IPNSt3__15tupleIJdlllEEENS2_4lessIvEEEENS3_IJT_S8_bEEES8_mRKT0_, symObjAddr: 0x71CA4, symBinAddr: 0x10007404C, symSize: 0xB08 }
  - { offset: 0x3FF68, size: 0x8, addend: 0x0, symName: __ZN6parlay7JobImplIZNS_8internal9quicksortIPNSt3__15tupleIJdlllEEENS3_4lessIvEEEEvT_mRKT0_EUlvE1_ED1Ev, symObjAddr: 0x727AC, symBinAddr: 0x100074B54, symSize: 0x4 }
  - { offset: 0x40175, size: 0x8, addend: 0x0, symName: __ZN6parlay8internal16to_balanced_treeINS_15copy_assign_tagEPmS3_EEvT0_T1_mmm, symObjAddr: 0x6806C, symBinAddr: 0x10006A414, symSize: 0x8C }
  - { offset: 0x40286, size: 0x8, addend: 0x0, symName: __ZN6parlay8internal16quicksort_serialIPmZNS0_11get_bucketsIPNSt3__15tupleIJdlllEEENS4_4lessIvEEEEbNS_5sliceIT_SB_EEPhT0_mEUlmmE_EEvSB_mRKSE_, symObjAddr: 0x68850, symBinAddr: 0x10006ABF8, symSize: 0x168 }
  - { offset: 0x404CF, size: 0x8, addend: 0x0, symName: __ZN6parlay8internal6split3IPmZNS0_11get_bucketsIPNSt3__15tupleIJdlllEEENS4_4lessIvEEEEbNS_5sliceIT_SB_EEPhT0_mEUlmmE_EENS5_IJSB_SB_bEEESB_mRKSE_, symObjAddr: 0x689B8, symBinAddr: 0x10006AD60, symSize: 0x91C }
  - { offset: 0x41213, size: 0x8, addend: 0x0, symName: __ZN6parlay7JobImplIZNS_8internal9quicksortIPmZNS1_11get_bucketsIPNSt3__15tupleIJdlllEEENS5_4lessIvEEEEbNS_5sliceIT_SC_EEPhT0_mEUlmmE_EEvSC_mRKSF_EUlvE1_ED1Ev, symObjAddr: 0x692D4, symBinAddr: 0x10006B67C, symSize: 0x4 }
  - { offset: 0x42C8E, size: 0x8, addend: 0x0, symName: __ZN6parlay8internal25seq_collect_reduce_sparseINS_26uninitialized_relocate_tagENS_5sliceIPlS4_EENS_24remove_duplicates_helperIlNS_4hashIlvEENSt3__18equal_toIvEEEEEEDaT0_RKT1_, symObjAddr: 0xA198C, symBinAddr: 0x1000A3D34, symSize: 0x23C }
  - { offset: 0x43556, size: 0x8, addend: 0x0, symName: __ZN6parlay8internal10seq_count_INS_5sliceIPlS3_EEPjNS2_INS_16delayed_sequenceImmZNS0_22collect_reduce_sparse_INS_26uninitialized_relocate_tagES4_NS_24remove_duplicates_helperIlNS_4hashIlvEENSt3__18equal_toIvEEEEEEDaT0_RKT1_EUlmE_E8iteratorESN_EEEEvT_SI_SH_m, symObjAddr: 0xA72AC, symBinAddr: 0x1000A9654, symSize: 0x250 }
  - { offset: 0x4398B, size: 0x8, addend: 0x0, symName: __ZN6parlay8internal10seq_count_INS_5sliceIPlS3_EEPmNS2_INS_16delayed_sequenceImmZNS0_22collect_reduce_sparse_INS_26uninitialized_relocate_tagES4_NS_24remove_duplicates_helperIlNS_4hashIlvEENSt3__18equal_toIvEEEEEEDaT0_RKT1_EUlmE_E8iteratorESN_EEEEvT_SI_SH_m, symObjAddr: 0xA5768, symBinAddr: 0x1000A7B10, symSize: 0x218 }
  - { offset: 0x43E9D, size: 0x8, addend: 0x0, symName: __ZN6parlay8internal15seq_count_sort_INS_26uninitialized_relocate_tagENS_5sliceIPlS4_EES5_PmNS3_INS_16delayed_sequenceImmZNS0_22collect_reduce_sparse_IS2_S5_NS_24remove_duplicates_helperIlNS_4hashIlvEENSt3__18equal_toIvEEEEEEDaT0_RKT1_EUlmE_E8iteratorESN_EEEEvSH_SI_T3_T2_m, symObjAddr: 0xA4040, symBinAddr: 0x1000A63E8, symSize: 0x15C }
  - { offset: 0x4418F, size: 0x8, addend: 0x0, symName: __ZN6parlay8internal10seq_write_INS_26uninitialized_relocate_tagENS_5sliceIPlS4_EEPS4_NS3_INS_16delayed_sequenceImmZNS0_22collect_reduce_sparse_IS2_S5_NS_24remove_duplicates_helperIlNS_4hashIlvEENSt3__18equal_toIvEEEEEEDaT0_RKT1_EUlmE_E8iteratorESN_EEEEvSH_T2_SI_m, symObjAddr: 0xA4320, symBinAddr: 0x1000A66C8, symSize: 0x184 }
  - { offset: 0x44AE4, size: 0x8, addend: 0x0, symName: __ZN6parlay8internal10seq_count_INS_5sliceIPNSt3__14pairIllEES6_EEPjNS2_INS_16delayed_sequenceImmZNS0_14integer_sort_rINS3_17integral_constantIbLb0EEENS_22uninitialized_copy_tagES6_S6_S6_NS0_7get_keyMUlOT_E_EEENS_8sequenceImNS_9allocatorImEELb0EEENS2_IT1_SL_EENS2_IT2_SN_EENS2_IT3_SP_EERKT4_mmfEUlmE1_E8iteratorESW_EEEEvSE_SL_T0_m, symObjAddr: 0xCE16C, symBinAddr: 0x1000CFD18, symSize: 0x19C }
  - { offset: 0x44E9F, size: 0x8, addend: 0x0, symName: __ZN6parlay8internal15seq_radix_sort_IPNSt3__14pairIllEES5_NS0_7get_keyMUlOT_E_EEEvNS_5sliceIS6_S6_EENS9_IT0_SB_EERKT1_mb, symObjAddr: 0xB1414, symBinAddr: 0x1000B3698, symSize: 0x42C }
  - { offset: 0x45907, size: 0x8, addend: 0x0, symName: __ZN6parlay8internal10count_sortINS_22uninitialized_copy_tagEPNSt3__14pairIllEES6_NS_16delayed_sequenceImmZNS0_14integer_sort_rINS3_17integral_constantIbLb0EEES2_S6_S6_S6_NS0_7get_keyMUlOT_E_EEENS_8sequenceImNS_9allocatorImEELb0EEENS_5sliceIT1_SJ_EENSI_IT2_SL_EENSI_IT3_SN_EERKT4_mmfEUlmE0_E8iteratorEEEDaNSI_IT0_SW_EESK_SM_mfb, symObjAddr: 0xB1840, symBinAddr: 0x1000B3AC4, symSize: 0x17AC }
  - { offset: 0x491D4, size: 0x8, addend: 0x0, symName: __ZN6parlay8internal10seq_count_INS_5sliceIPNSt3__14pairIllEES6_EEPmNS2_INS_16delayed_sequenceImmZNS0_14integer_sort_rINS3_17integral_constantIbLb0EEENS_22uninitialized_copy_tagES6_S6_S6_NS0_7get_keyMUlOT_E_EEENS_8sequenceImNS_9allocatorImEELb0EEENS2_IT1_SL_EENS2_IT2_SN_EENS2_IT3_SP_EERKT4_mmfEUlmE1_E8iteratorESW_EEEEvSE_SL_T0_m, symObjAddr: 0xCC694, symBinAddr: 0x1000CE240, symSize: 0x1AC }
  - { offset: 0x495DD, size: 0x8, addend: 0x0, symName: __ZN6parlay8internal14seq_count_sortINS_22uninitialized_copy_tagEPNSt3__14pairIllEES6_NS_16delayed_sequenceImmZNS0_14integer_sort_rINS3_17integral_constantIbLb0EEES2_S6_S6_S6_NS0_7get_keyMUlOT_E_EEENS_8sequenceImNS_9allocatorImEELb0EEENS_5sliceIT1_SJ_EENSI_IT2_SL_EENSI_IT3_SN_EERKT4_mmfEUlmE1_E8iteratorEEESH_NSI_IT0_SV_EESK_SM_m, symObjAddr: 0xCB15C, symBinAddr: 0x1000CCE1C, symSize: 0x160 }
  - { offset: 0x4A29C, size: 0x8, addend: 0x0, symName: __ZN6parlay8internal10seq_count_INS_5sliceIPNSt3__14pairIllEES6_EEPjNS2_INS_16delayed_sequenceImmZNS0_14integer_sort_rINS3_17integral_constantIbLb0EEENS_22uninitialized_copy_tagES6_S6_S6_NS0_7get_keyMUlOT_E_EEENS_8sequenceImNS_9allocatorImEELb0EEENS2_IT1_SL_EENS2_IT2_SN_EENS2_IT3_SP_EERKT4_mmfEUlmE0_E8iteratorESW_EEEEvSE_SL_T0_m, symObjAddr: 0xD1CD4, symBinAddr: 0x1000D3560, symSize: 0x190 }
  - { offset: 0x4A657, size: 0x8, addend: 0x0, symName: __ZN6parlay8internal10seq_count_INS_5sliceIPNSt3__14pairIllEES6_EEPmNS2_INS_16delayed_sequenceImmZNS0_14integer_sort_rINS3_17integral_constantIbLb0EEENS_22uninitialized_copy_tagES6_S6_S6_NS0_7get_keyMUlOT_E_EEENS_8sequenceImNS_9allocatorImEELb0EEENS2_IT1_SL_EENS2_IT2_SN_EENS2_IT3_SP_EERKT4_mmfEUlmE0_E8iteratorESW_EEEEvSE_SL_T0_m, symObjAddr: 0xCFFB4, symBinAddr: 0x1000D19D0, symSize: 0x1A0 }
  - { offset: 0x4AA5F, size: 0x8, addend: 0x0, symName: __ZN6parlay8internal14seq_count_sortINS_22uninitialized_copy_tagEPNSt3__14pairIllEES6_NS_16delayed_sequenceImmZNS0_14integer_sort_rINS3_17integral_constantIbLb0EEES2_S6_S6_S6_NS0_7get_keyMUlOT_E_EEENS_8sequenceImNS_9allocatorImEELb0EEENS_5sliceIT1_SJ_EENSI_IT2_SL_EENSI_IT3_SN_EERKT4_mmfEUlmE0_E8iteratorEEESH_NSI_IT0_SV_EESK_SM_m, symObjAddr: 0xCE940, symBinAddr: 0x1000D04EC, symSize: 0x15C }
  - { offset: 0x4B255, size: 0x8, addend: 0x0, symName: __ZN6parlay8internal10seq_count_INS_5sliceIPNSt3__14pairIllEES6_EEPjNS2_INS_16delayed_sequenceImmZNS0_14integer_sort_rINS3_17integral_constantIbLb1EEENS_26uninitialized_relocate_tagES6_S6_S6_NS0_7get_keyMUlOT_E_EEENS_8sequenceImNS_9allocatorImEELb0EEENS2_IT1_SL_EENS2_IT2_SN_EENS2_IT3_SP_EERKT4_mmfEUlmE0_E8iteratorESW_EEEEvSE_SL_T0_m, symObjAddr: 0xC65B8, symBinAddr: 0x1000C8598, symSize: 0x19C }
  - { offset: 0x4B610, size: 0x8, addend: 0x0, symName: __ZN6parlay8internal10count_sortINS_26uninitialized_relocate_tagEPNSt3__14pairIllEES6_NS_16delayed_sequenceImmZNS0_14integer_sort_rINS3_17integral_constantIbLb1EEES2_S6_S6_S6_NS0_7get_keyMUlOT_E_EEENS_8sequenceImNS_9allocatorImEELb0EEENS_5sliceIT1_SJ_EENSI_IT2_SL_EENSI_IT3_SN_EERKT4_mmfEUlmE_E8iteratorEEEDaNSI_IT0_SW_EESK_SM_mfb, symObjAddr: 0xB591C, symBinAddr: 0x1000B7BA0, symSize: 0x19CC }
  - { offset: 0x4F0E0, size: 0x8, addend: 0x0, symName: __ZN6parlay8internal10seq_count_INS_5sliceIPNSt3__14pairIllEES6_EEPmNS2_INS_16delayed_sequenceImmZNS0_14integer_sort_rINS3_17integral_constantIbLb1EEENS_26uninitialized_relocate_tagES6_S6_S6_NS0_7get_keyMUlOT_E_EEENS_8sequenceImNS_9allocatorImEELb0EEENS2_IT1_SL_EENS2_IT2_SN_EENS2_IT3_SP_EERKT4_mmfEUlmE0_E8iteratorESW_EEEEvSE_SL_T0_m, symObjAddr: 0xC4AE0, symBinAddr: 0x1000C6AC0, symSize: 0x1AC }
  - { offset: 0x4F4E9, size: 0x8, addend: 0x0, symName: __ZN6parlay8internal14seq_count_sortINS_26uninitialized_relocate_tagEPNSt3__14pairIllEES6_NS_16delayed_sequenceImmZNS0_14integer_sort_rINS3_17integral_constantIbLb1EEES2_S6_S6_S6_NS0_7get_keyMUlOT_E_EEENS_8sequenceImNS_9allocatorImEELb0EEENS_5sliceIT1_SJ_EENSI_IT2_SL_EENSI_IT3_SN_EERKT4_mmfEUlmE0_E8iteratorEEESH_NSI_IT0_SV_EESK_SM_m, symObjAddr: 0xC35A8, symBinAddr: 0x1000C569C, symSize: 0x160 }
  - { offset: 0x4FE66, size: 0x8, addend: 0x0, symName: __ZN6parlay8internal10seq_count_INS_5sliceIPNSt3__14pairIllEES6_EEPjNS2_INS_16delayed_sequenceImmZNS0_14integer_sort_rINS3_17integral_constantIbLb1EEENS_26uninitialized_relocate_tagES6_S6_S6_NS0_7get_keyMUlOT_E_EEENS_8sequenceImNS_9allocatorImEELb0EEENS2_IT1_SL_EENS2_IT2_SN_EENS2_IT3_SP_EERKT4_mmfEUlmE_E8iteratorESW_EEEEvSE_SL_T0_m, symObjAddr: 0xCA8B8, symBinAddr: 0x1000CC578, symSize: 0x190 }
  - { offset: 0x50221, size: 0x8, addend: 0x0, symName: __ZN6parlay8internal10seq_count_INS_5sliceIPNSt3__14pairIllEES6_EEPmNS2_INS_16delayed_sequenceImmZNS0_14integer_sort_rINS3_17integral_constantIbLb1EEENS_26uninitialized_relocate_tagES6_S6_S6_NS0_7get_keyMUlOT_E_EEENS_8sequenceImNS_9allocatorImEELb0EEENS2_IT1_SL_EENS2_IT2_SN_EENS2_IT3_SP_EERKT4_mmfEUlmE_E8iteratorESW_EEEEvSE_SL_T0_m, symObjAddr: 0xC8B98, symBinAddr: 0x1000CA9E8, symSize: 0x1A0 }
  - { offset: 0x50629, size: 0x8, addend: 0x0, symName: __ZN6parlay8internal14seq_count_sortINS_26uninitialized_relocate_tagEPNSt3__14pairIllEES6_NS_16delayed_sequenceImmZNS0_14integer_sort_rINS3_17integral_constantIbLb1EEES2_S6_S6_S6_NS0_7get_keyMUlOT_E_EEENS_8sequenceImNS_9allocatorImEELb0EEENS_5sliceIT1_SJ_EENSI_IT2_SL_EENSI_IT3_SN_EERKT4_mmfEUlmE_E8iteratorEEESH_NSI_IT0_SV_EESK_SM_m, symObjAddr: 0xC7524, symBinAddr: 0x1000C9504, symSize: 0x15C }
  - { offset: 0x50E37, size: 0x8, addend: 0x0, symName: __ZN6parlay8internal10seq_count_INS_5sliceIPNSt3__14pairIllEES6_EEPjNS2_INS_16delayed_sequenceImmZNS0_14integer_sort_rINS3_17integral_constantIbLb0EEENS_26uninitialized_relocate_tagES6_S6_S6_NS0_7get_keyMUlOT_E_EEENS_8sequenceImNS_9allocatorImEELb0EEENS2_IT1_SL_EENS2_IT2_SN_EENS2_IT3_SP_EERKT4_mmfEUlmE0_E8iteratorESW_EEEEvSE_SL_T0_m, symObjAddr: 0xBF19C, symBinAddr: 0x1000C1420, symSize: 0x19C }
  - { offset: 0x511F2, size: 0x8, addend: 0x0, symName: __ZN6parlay8internal10count_sortINS_26uninitialized_relocate_tagEPNSt3__14pairIllEES6_NS_16delayed_sequenceImmZNS0_14integer_sort_rINS3_17integral_constantIbLb0EEES2_S6_S6_S6_NS0_7get_keyMUlOT_E_EEENS_8sequenceImNS_9allocatorImEELb0EEENS_5sliceIT1_SJ_EENSI_IT2_SL_EENSI_IT3_SN_EERKT4_mmfEUlmE_E8iteratorEEEDaNSI_IT0_SW_EESK_SM_mfb, symObjAddr: 0xB9E68, symBinAddr: 0x1000BC0EC, symSize: 0x17D4 }
  - { offset: 0x54A6E, size: 0x8, addend: 0x0, symName: __ZN6parlay8internal10seq_count_INS_5sliceIPNSt3__14pairIllEES6_EEPmNS2_INS_16delayed_sequenceImmZNS0_14integer_sort_rINS3_17integral_constantIbLb0EEENS_26uninitialized_relocate_tagES6_S6_S6_NS0_7get_keyMUlOT_E_EEENS_8sequenceImNS_9allocatorImEELb0EEENS2_IT1_SL_EENS2_IT2_SN_EENS2_IT3_SP_EERKT4_mmfEUlmE0_E8iteratorESW_EEEEvSE_SL_T0_m, symObjAddr: 0xBD6C4, symBinAddr: 0x1000BF948, symSize: 0x1AC }
  - { offset: 0x54E77, size: 0x8, addend: 0x0, symName: __ZN6parlay8internal14seq_count_sortINS_26uninitialized_relocate_tagEPNSt3__14pairIllEES6_NS_16delayed_sequenceImmZNS0_14integer_sort_rINS3_17integral_constantIbLb0EEES2_S6_S6_S6_NS0_7get_keyMUlOT_E_EEENS_8sequenceImNS_9allocatorImEELb0EEENS_5sliceIT1_SJ_EENSI_IT2_SL_EENSI_IT3_SN_EERKT4_mmfEUlmE0_E8iteratorEEESH_NSI_IT0_SV_EESK_SM_m, symObjAddr: 0xBC008, symBinAddr: 0x1000BE28C, symSize: 0x160 }
  - { offset: 0x5534F, size: 0x8, addend: 0x0, symName: __ZN6parlay8internal10seq_write_INS_26uninitialized_relocate_tagENS_5sliceIPNSt3__14pairIllEES7_EEPS7_NS3_INS_16delayed_sequenceImmZNS0_14integer_sort_rINS4_17integral_constantIbLb0EEES2_S7_S7_S7_NS0_7get_keyMUlOT_E_EEENS_8sequenceImNS_9allocatorImEELb0EEENS3_IT1_SL_EENS3_IT2_SN_EENS3_IT3_SP_EERKT4_mmfEUlmE0_E8iteratorESW_EEEEvT0_SN_SL_m, symObjAddr: 0xBC2EC, symBinAddr: 0x1000BE570, symSize: 0x114 }
  - { offset: 0x55A0B, size: 0x8, addend: 0x0, symName: __ZN6parlay8internal10seq_count_INS_5sliceIPNSt3__14pairIllEES6_EEPjNS2_INS_16delayed_sequenceImmZNS0_14integer_sort_rINS3_17integral_constantIbLb0EEENS_26uninitialized_relocate_tagES6_S6_S6_NS0_7get_keyMUlOT_E_EEENS_8sequenceImNS_9allocatorImEELb0EEENS2_IT1_SL_EENS2_IT2_SN_EENS2_IT3_SP_EERKT4_mmfEUlmE_E8iteratorESW_EEEEvSE_SL_T0_m, symObjAddr: 0xC2D04, symBinAddr: 0x1000C4DF8, symSize: 0x190 }
  - { offset: 0x55DC6, size: 0x8, addend: 0x0, symName: __ZN6parlay8internal10seq_count_INS_5sliceIPNSt3__14pairIllEES6_EEPmNS2_INS_16delayed_sequenceImmZNS0_14integer_sort_rINS3_17integral_constantIbLb0EEENS_26uninitialized_relocate_tagES6_S6_S6_NS0_7get_keyMUlOT_E_EEENS_8sequenceImNS_9allocatorImEELb0EEENS2_IT1_SL_EENS2_IT2_SN_EENS2_IT3_SP_EERKT4_mmfEUlmE_E8iteratorESW_EEEEvSE_SL_T0_m, symObjAddr: 0xC0FE4, symBinAddr: 0x1000C3268, symSize: 0x1A0 }
  - { offset: 0x561CE, size: 0x8, addend: 0x0, symName: __ZN6parlay8internal14seq_count_sortINS_26uninitialized_relocate_tagEPNSt3__14pairIllEES6_NS_16delayed_sequenceImmZNS0_14integer_sort_rINS3_17integral_constantIbLb0EEES2_S6_S6_S6_NS0_7get_keyMUlOT_E_EEENS_8sequenceImNS_9allocatorImEELb0EEENS_5sliceIT1_SJ_EENSI_IT2_SL_EENSI_IT3_SN_EERKT4_mmfEUlmE_E8iteratorEEESH_NSI_IT0_SV_EESK_SM_m, symObjAddr: 0xBF970, symBinAddr: 0x1000C1BF4, symSize: 0x15C }
  - { offset: 0x82EC1, size: 0x8, addend: 0x0, symName: __ZN6parlay14group_by_indexImRNS_8sequenceINSt3__14pairIllEENS_9allocatorIS4_EELb0EEEEEDaOT0_T_, symObjAddr: 0x97764, symBinAddr: 0x100099B0C, symSize: 0x4B58 }
  - { offset: 0xA3F44, size: 0x8, addend: 0x0, symName: __ZN6parlay7flattenIP4nodeIldEEEDaONS_8sequenceINS5_IT_NS_9allocatorIS6_EEXsr3std7is_sameIS6_cEE5valueEEENS7_IS9_EEXsr3std7is_sameIS9_cEE5valueEEE, symObjAddr: 0x3763C, symBinAddr: 0x1000399E4, symSize: 0x1378 }
  - { offset: 0xAEB57, size: 0x8, addend: 0x0, symName: __ZN6parlay12parallel_forIZNS_17sequence_internal13sequence_baseINS_8sequenceIlNS_9allocatorIlEELb0EEENS4_IS6_EELb0EE12storage_impl11destroy_allEvEUlmE_EEvmmOT_lb, symObjAddr: 0x1D0D0, symBinAddr: 0x10001F478, symSize: 0xB58 }
  - { offset: 0xB042E, size: 0x8, addend: 0x0, symName: __ZN6parlay12parallel_forIZNS_17sequence_internal13sequence_baseINS_8sequenceINSt3__15tupleIJlldEEENS_9allocatorIS6_EELb0EEENS7_IS9_EELb0EE12storage_impl11destroy_allEvEUlmE_EEvmmOT_lb, symObjAddr: 0x86EE4, symBinAddr: 0x10008928C, symSize: 0xB64 }
  - { offset: 0xB1D05, size: 0x8, addend: 0x0, symName: __ZN6parlay12parallel_forIZNS_17sequence_internal13sequence_baseI7clusterIldENS_9allocatorIS4_EELb0EE12storage_impl11destroy_allEvEUlmE_EEvmmOT_lb, symObjAddr: 0x27928, symBinAddr: 0x100029CD0, symSize: 0xD14 }
  - { offset: 0xB3882, size: 0x8, addend: 0x0, symName: __ZN6parlay12parallel_forIZNS_24uninitialized_relocate_nIPNSt3__14pairIllEElS5_EENS3_IT_T1_EES6_T0_S7_EUlmE_EEvmmOS6_lb, symObjAddr: 0xB72E8, symBinAddr: 0x1000B956C, symSize: 0x1B8 }
  - { offset: 0xB3B0C, size: 0x8, addend: 0x0, symName: __ZN6parlay12parallel_forIZNS_17sequence_internal13sequence_baseINS_8sequenceINSt3__14pairIllEENS_9allocatorIS6_EELb0EEENS7_IS9_EELb0EE12storage_impl11destroy_allEvEUlmE_EEvmmOT_lb, symObjAddr: 0xD7498, symBinAddr: 0x1000D8D24, symSize: 0xB58 }
  - { offset: 0xB8A86, size: 0x8, addend: 0x0, symName: __ZN6parlay12parallel_forIZNS_17sequence_internal13sequence_baseINS_8sequenceIP4nodeIldENS_9allocatorIS6_EELb0EEENS7_IS9_EELb0EE12storage_impl11destroy_allEvEUlmE_EEvmmOT_lb, symObjAddr: 0x389B4, symBinAddr: 0x10003AD5C, symSize: 0xB58 }
  - { offset: 0xBA552, size: 0x8, addend: 0x0, symName: __ZN6parlay12parallel_forIZNS_24uninitialized_relocate_nIPP4nodeIldElS5_EENSt3__14pairIT_T1_EES8_T0_S9_EUlmE_EEvmmOS8_lb, symObjAddr: 0x5777C, symBinAddr: 0x100059B24, symSize: 0x1B8 }
  - { offset: 0xBC63F, size: 0x8, addend: 0x0, symName: __ZN6parlay12parallel_forIZNS_24uninitialized_relocate_nIPNSt3__15tupleIJdlllEEElS5_EENS2_4pairIT_T1_EES7_T0_S8_EUlmE_EEvmmOS7_lb, symObjAddr: 0x668D4, symBinAddr: 0x100068C7C, symSize: 0x1B8 }
  - { offset: 0xBE97D, size: 0x8, addend: 0x0, symName: __ZN6parlay14stream_delayed10filter_mapINS_5sliceINS_16delayed_sequenceImmZNS_14group_by_indexImRNS_8sequenceINSt3__14pairIllEENS_9allocatorIS8_EELb0EEEEEDaOT0_T_EUlmE_E8iteratorESJ_EEZNS4_ImSC_EESD_SF_SG_EUlmE0_ZNS_13block_delayed6filterISI_SL_EESD_RKSG_RKSE_EUlSG_E_EESD_SP_SE_T1_, symObjAddr: 0xAB06C, symBinAddr: 0x1000AD414, symSize: 0x2C4 }
  - { offset: 0xBF0C6, size: 0x8, addend: 0x0, symName: __ZN6parlay12parallel_forIZNS_17sequence_internal13sequence_baseINS_8sequenceImNS_9allocatorImEELb0EEENS4_IS6_EELb0EE12storage_impl11destroy_allEvEUlmE_EEvmmOT_lb, symObjAddr: 0xAB330, symBinAddr: 0x1000AD6D8, symSize: 0xB58 }
  - { offset: 0xC1323, size: 0x8, addend: 0x0, symName: __ZN6parlay12parallel_forIZNS_24uninitialized_relocate_nIPllS2_EENSt3__14pairIT_T1_EES5_T0_S6_EUlmE_EEvmmOS5_lb, symObjAddr: 0xA2070, symBinAddr: 0x1000A4418, symSize: 0x1B8 }
  - { offset: 0xC45E3, size: 0x8, addend: 0x0, symName: __ZN6parlay9schedulerINS_15WorkStealingJobEE11worker_infoE, symObjAddr: 0x1008CA, symBinAddr: 0x100114040, symSize: 0x0 }
  - { offset: 0xE33B5, size: 0x8, addend: 0x0, symName: __ZNSt3__124__put_character_sequenceB8ue170006IcNS_11char_traitsIcEEEERNS_13basic_ostreamIT_T0_EES7_PKS4_m, symObjAddr: 0x3234, symBinAddr: 0x100005824, symSize: 0x290 }
  - { offset: 0xEBDA7, size: 0x8, addend: 0x0, symName: __ZNSt3__1lsB8ue170006INS_11char_traitsIcEEEERNS_13basic_ostreamIcT_EES6_PKc, symObjAddr: 0x42D4, symBinAddr: 0x1000068C4, symSize: 0x34 }
  - { offset: 0xEBE20, size: 0x8, addend: 0x0, symName: __ZNSt3__14endlB8ue170006IcNS_11char_traitsIcEEEERNS_13basic_ostreamIT_T0_EES7_, symObjAddr: 0x4360, symBinAddr: 0x100006950, symSize: 0x90 }
  - { offset: 0xEBEE4, size: 0x8, addend: 0x0, symName: __ZNSt3__120__throw_length_errorB8ue170006EPKc, symObjAddr: 0x4404, symBinAddr: 0x1000069F4, symSize: 0x50 }
  - { offset: 0xED9D8, size: 0x8, addend: 0x0, symName: __ZNSt3__125__throw_bad_function_callB8ue170006Ev, symObjAddr: 0x7F24, symBinAddr: 0x10000A514, symSize: 0x30 }
  - { offset: 0xEDA6F, size: 0x8, addend: 0x0, symName: __ZNSt3__120__throw_bad_weak_ptrB8ue170006Ev, symObjAddr: 0x7FBC, symBinAddr: 0x10000A5AC, symSize: 0x34 }
  - { offset: 0xEF8FF, size: 0x8, addend: 0x0, symName: __ZNSt3__114__thread_proxyB8ue170006INS_5tupleIJNS_10unique_ptrINS_15__thread_structENS_14default_deleteIS3_EEEEZN6parlay9schedulerINS7_15WorkStealingJobEEC1EmEUlvE_EEEEEPvSD_, symObjAddr: 0xAD74, symBinAddr: 0x10000D240, symSize: 0x4DC }
  - { offset: 0xF94B9, size: 0x8, addend: 0x0, symName: __ZSt28__throw_bad_array_new_lengthB8ue170006v, symObjAddr: 0x9BBC, symBinAddr: 0x10000C1AC, symSize: 0x28 }
  - { offset: 0xFB0BD, size: 0x8, addend: 0x0, symName: __ZN6parlay8internal12ThreadIdPool7acquireEv, symObjAddr: 0x7FF0, symBinAddr: 0x10000A5E0, symSize: 0xE4 }
  - { offset: 0xFB0E0, size: 0x8, addend: 0x0, symName: __ZZN6parlay8internal12ThreadIdPool7acquireEvE2m_, symObjAddr: 0x105340, symBinAddr: 0x10010C000, symSize: 0x0 }
  - { offset: 0xFB54C, size: 0x8, addend: 0x0, symName: __ZZ19generate_tree_graphIlEN6parlay8sequenceIT_NS0_9allocatorIS2_EEXsr3std7is_sameIS2_cEE5valueEEES2_ENKUllE0_clEl, symObjAddr: 0xDDF3C, symBinAddr: 0x1000DF7C8, symSize: 0x31C }
  - { offset: 0xFB971, size: 0x8, addend: 0x0, symName: __Z24createCompressedPathTreeIldENSt3__14pairIN6parlay8sequenceINS0_5tupleIJT_S5_T0_EEENS2_9allocatorIS7_EEXsr3std7is_sameIS7_cEE5valueEEENS3_INS1_IS5_S5_EENS8_ISB_EEXsr3std7is_sameISB_cEE5valueEEEEERNS3_I7clusterIS5_S6_ENS8_ISG_EEXsr3std7is_sameISG_cEE5valueEEERKSA_, symObjAddr: 0x2A820, symBinAddr: 0x10002CBC8, symSize: 0x3FF4 }
  - { offset: 0x1066E6, size: 0x8, addend: 0x0, symName: __Z15batchInsertEdgeIldZ12incrementMSTIldEvRN6parlay8sequenceI7clusterIT_T0_ENS1_9allocatorIS6_EEXsr3std7is_sameIS6_cEE5valueEEERKNS2_INSt3__15tupleIJS4_S4_S5_EEENS7_ISD_EEXsr3std7is_sameISD_cEE5valueEEEEUlddE_EvRKNS2_INSB_4pairIS4_S4_EENS7_ISK_EEXsr3std7is_sameISK_cEE5valueEEESH_SA_S5_T1_, symObjAddr: 0x2F1FC, symBinAddr: 0x1000315A4, symSize: 0x83D8 }
  - { offset: 0x11CCB7, size: 0x8, addend: 0x0, symName: __ZN6parlay9schedulerINS_15WorkStealingJobEEC2Em, symObjAddr: 0x1B4, symBinAddr: 0x1000027A4, symSize: 0x460 }
  - { offset: 0x11E17B, size: 0x8, addend: 0x0, symName: __ZNSt3__124uniform_int_distributionIlEclINS_23mersenne_twister_engineIjLm32ELm624ELm397ELm31ELj2567483615ELm11ELj4294967295ELm7ELj2636928640ELm15ELj4022730752ELm18ELj1812433253EEEEElRT_RKNS1_10param_typeE, symObjAddr: 0x9DC, symBinAddr: 0x100002FCC, symSize: 0x1A0 }
  - { offset: 0x11E497, size: 0x8, addend: 0x0, symName: '__ZN6parlay19fork_join_scheduler7parfor_IZNS_8sequenceINSt3__15tupleIJlldEEENS_9allocatorIS5_EELb0EEC1IZ21insert_random_weightsRKNS2_IlNS6_IlEELb0EEERNS2_I7clusterIldENS6_ISF_EELb0EEEE3$_0EEmOT_NS8_18_from_function_tagEmEUlmE_EEvRNS_9schedulerINS_15WorkStealingJobEEEmmRSK_mb', symObjAddr: 0xE94, symBinAddr: 0x100003484, symSize: 0x5A8 }
  - { offset: 0x11FC3E, size: 0x8, addend: 0x0, symName: '__ZN6parlay19fork_join_scheduler7parfor_IZNS_8internal10sliced_forIZNS2_10filter_mapINS_5sliceIPNSt3__15tupleIJlldEEES9_EEZ21insert_random_weightsRKNS_8sequenceIlNS_9allocatorIlEELb0EEERNSB_I7clusterIldENSC_ISI_EELb0EEEE3$_1RZNS2_6filterISA_SM_EENSB_INT_10value_typeENSC_ISP_EEXsr3std7is_sameISP_cEE5valueEEERKSO_OT0_EUlOSO_E_EEDaST_SV_OT1_EUlmmmE_EEvmmST_jEUlmE_EEvRNS_9schedulerINS_15WorkStealingJobEEEmmRSO_mb', symObjAddr: 0x1AA8, symBinAddr: 0x100004098, symSize: 0x998 }
  - { offset: 0x120F1E, size: 0x8, addend: 0x0, symName: __ZN6parlay19fork_join_scheduler7parfor_IZNS_8internal10sliced_forIZNS2_5scan_INS_5sliceIPmS6_EES7_NS_4plusImEEEEDaRKT_T0_OT1_jbEUlmmmE_EEvmmSD_jEUlmE_EEvRNS_9schedulerINS_15WorkStealingJobEEEmmRSB_mb, symObjAddr: 0x4DC4, symBinAddr: 0x1000073B4, symSize: 0x678 }
  - { offset: 0x1221E6, size: 0x8, addend: 0x0, symName: __ZN6parlay19fork_join_scheduler7parfor_IZNS_8internal10sliced_forIZNS2_5scan_INS_5sliceIPmS6_EES7_NS_4plusImEEEEDaRKT_T0_OT1_jbEUlmmmE0_EEvmmSD_jEUlmE_EEvRNS_9schedulerINS_15WorkStealingJobEEEmmRSB_mb, symObjAddr: 0x4628, symBinAddr: 0x100006C18, symSize: 0x770 }
  - { offset: 0x123586, size: 0x8, addend: 0x0, symName: '__ZN6parlay19fork_join_scheduler7parfor_IZNS_8internal10sliced_forIZNS2_10filter_mapINS_5sliceIPNSt3__15tupleIJlldEEES9_EEZ21insert_random_weightsRKNS_8sequenceIlNS_9allocatorIlEELb0EEERNSB_I7clusterIldENSC_ISI_EELb0EEEE3$_1RZNS2_6filterISA_SM_EENSB_INT_10value_typeENSC_ISP_EEXsr3std7is_sameISP_cEE5valueEEERKSO_OT0_EUlOSO_E_EEDaST_SV_OT1_EUlmmmE0_EEvmmST_jEUlmE_EEvRNS_9schedulerINS_15WorkStealingJobEEEmmRSO_mb', symObjAddr: 0x29B0, symBinAddr: 0x100004FA0, symSize: 0x684 }
  - { offset: 0x124C79, size: 0x8, addend: 0x0, symName: '__ZN6parlay19fork_join_scheduler7parfor_IZNS_8sequenceINSt3__15tupleIJlldEEENS_9allocatorIS5_EELb0EEC1IZ21generate_random_edgesRKNS2_IlNS6_IlEELb0EEEbE3$_0EEmOT_NS8_18_from_function_tagEmEUlmE_EEvRNS_9schedulerINS_15WorkStealingJobEEEmmRSF_mb', symObjAddr: 0xE500, symBinAddr: 0x1000108A8, symSize: 0x638 }
  - { offset: 0x126190, size: 0x8, addend: 0x0, symName: '__ZN6parlay19fork_join_scheduler7parfor_IZNS_8internal10sliced_forIZNS2_10filter_mapINS_5sliceIPNSt3__15tupleIJlldEEES9_EEZ21generate_random_edgesRKNS_8sequenceIlNS_9allocatorIlEELb0EEEbE3$_1RZNS2_6filterISA_SH_EENSB_INT_10value_typeENSC_ISK_EEXsr3std7is_sameISK_cEE5valueEEERKSJ_OT0_EUlOSJ_E_EEDaSO_SQ_OT1_EUlmmmE_EEvmmSO_jEUlmE_EEvRNS_9schedulerINS_15WorkStealingJobEEEmmRSJ_mb', symObjAddr: 0xEB38, symBinAddr: 0x100010EE0, symSize: 0x960 }
  - { offset: 0x1274C2, size: 0x8, addend: 0x0, symName: '__ZN6parlay19fork_join_scheduler7parfor_IZNS_8internal10sliced_forIZNS2_10filter_mapINS_5sliceIPNSt3__15tupleIJlldEEES9_EEZ21generate_random_edgesRKNS_8sequenceIlNS_9allocatorIlEELb0EEEbE3$_1RZNS2_6filterISA_SH_EENSB_INT_10value_typeENSC_ISK_EEXsr3std7is_sameISK_cEE5valueEEERKSJ_OT0_EUlOSJ_E_EEDaSO_SQ_OT1_EUlmmmE0_EEvmmSO_jEUlmE_EEvRNS_9schedulerINS_15WorkStealingJobEEEmmRSJ_mb', symObjAddr: 0xF498, symBinAddr: 0x100011840, symSize: 0x684 }
  - { offset: 0x128B7F, size: 0x8, addend: 0x0, symName: __ZN6parlay19fork_join_scheduler7parfor_IZNS_17sequence_internal13sequence_baseINS_8sequenceIlNS_9allocatorIlEELb0EEENS5_IS7_EELb0EE12storage_impl11destroy_allEvEUlmE_EEvRNS_9schedulerINS_15WorkStealingJobEEEmmRT_mb, symObjAddr: 0x971A4, symBinAddr: 0x10009954C, symSize: 0x594 }
  - { offset: 0x12A697, size: 0x8, addend: 0x0, symName: __ZN6parlay19fork_join_scheduler7parfor_IZNS_17sequence_internal13sequence_baseI7clusterIldENS_9allocatorIS5_EELb0EE12storage_impl11destroy_allEvEUlmE_EEvRNS_9schedulerINS_15WorkStealingJobEEEmmRT_mb, symObjAddr: 0x287A8, symBinAddr: 0x10002AB50, symSize: 0xE9C }
  - { offset: 0x12CCEE, size: 0x8, addend: 0x0, symName: '__ZN6parlay19fork_join_scheduler7parfor_IZNS_8sequenceIP7clusterIldENS_9allocatorIS5_EELb0EEC1IZ22batchModifyEdgeWeightsIldZ21insert_random_weightsRKNS2_IlNS6_IlEELb0EEERNS2_IS4_NS6_IS4_EELb0EEEE3$_2EvRKNS2_INSt3__15tupleIJT_SL_T0_EEENS6_ISN_EEXsr3std7is_sameISN_cEE5valueEEET1_RNS2_IS3_ISL_SM_ENS6_IST_EEXsr3std7is_sameIST_cEE5valueEEERKSM_EUllE_EEmOSL_NS8_18_from_function_tagEmEUlmE_EEvRNS_9schedulerINS_15WorkStealingJobEEEmmRSL_mb', symObjAddr: 0x34C4, symBinAddr: 0x100005AB4, symSize: 0x60C }
  - { offset: 0x12E11A, size: 0x8, addend: 0x0, symName: '__ZN6parlay19fork_join_scheduler7parfor_IZ22batchModifyEdgeWeightsIldZ21insert_random_weightsRKNS_8sequenceIlNS_9allocatorIlEELb0EEERNS3_I7clusterIldENS4_ISA_EELb0EEEE3$_2EvRKNS3_INSt3__15tupleIJT_SH_T0_EEENS4_ISJ_EEXsr3std7is_sameISJ_cEE5valueEEET1_RNS3_IS9_ISH_SI_ENS4_ISP_EEXsr3std7is_sameISP_cEE5valueEEERKSI_EUllE0_EEvRNS_9schedulerINS_15WorkStealingJobEEEmmRSH_mb', symObjAddr: 0x3C38, symBinAddr: 0x100006228, symSize: 0x570 }
  - { offset: 0x12F414, size: 0x8, addend: 0x0, symName: '__ZN6parlay19fork_join_scheduler7parfor_IZ21generate_random_edgesRKNS_8sequenceIlNS_9allocatorIlEELb0EEEbE3$_2EEvRNS_9schedulerINS_15WorkStealingJobEEEmmRT_mb', symObjAddr: 0xD9BC, symBinAddr: 0x10000FD64, symSize: 0x580 }
  - { offset: 0x130725, size: 0x8, addend: 0x0, symName: '__ZN6parlay19fork_join_scheduler7parfor_IZ21generate_random_edgesRKNS_8sequenceIlNS_9allocatorIlEELb0EEEbE3$_3EEvRNS_9schedulerINS_15WorkStealingJobEEEmmRT_mb', symObjAddr: 0xDF3C, symBinAddr: 0x1000102E4, symSize: 0x5C4 }
  - { offset: 0x131BCA, size: 0x8, addend: 0x0, symName: __ZN6parlay19fork_join_scheduler7parfor_IZNS_24uninitialized_relocate_nIPNSt3__15tupleIJlldEEEmS6_EENS3_4pairIT_T1_EES8_T0_S9_EUlmE_EEvRNS_9schedulerINS_15WorkStealingJobEEEmmRS8_mb, symObjAddr: 0xFD78, symBinAddr: 0x100012120, symSize: 0x5B0 }
  - { offset: 0x133203, size: 0x8, addend: 0x0, symName: __ZN6parlay19fork_join_scheduler7parfor_IZ18degree_cap_parentsIlENS_8sequenceIT_NS_9allocatorIS4_EEXsr3std7is_sameIS4_cEE5valueEEERS7_S4_EUllE_EEvRNS_9schedulerINS_15WorkStealingJobEEEmmRS4_mb, symObjAddr: 0xDD250, symBinAddr: 0x1000DEADC, symSize: 0x5D4 }
  - { offset: 0x134706, size: 0x8, addend: 0x0, symName: __Z24convert_parents_to_graphIN6parlay8sequenceINS1_IlNS0_9allocatorIlEELb0EEENS2_IS4_EELb0EEElET_S7_NS1_IT0_NS2_IS8_EEXsr3std7is_sameIS8_cEE5valueEEE, symObjAddr: 0x19F14, symBinAddr: 0x10001C2BC, symSize: 0x31BC }
  - { offset: 0x13D486, size: 0x8, addend: 0x0, symName: __ZN6parlay19fork_join_scheduler7parfor_IZNS_7flattenINSt3__14pairIllEEEEDaONS_8sequenceINS7_IT_NS_9allocatorIS8_EEXsr3std7is_sameIS8_cEE5valueEEENS9_ISB_EEXsr3std7is_sameISB_cEE5valueEEEEUlmE0_EEvRNS_9schedulerINS_15WorkStealingJobEEEmmRS8_mb, symObjAddr: 0xD862C, symBinAddr: 0x1000D9EB8, symSize: 0x618 }
  - { offset: 0x13E9DE, size: 0x8, addend: 0x0, symName: __ZN6parlay19fork_join_scheduler7parfor_IZNS_17sequence_internal13sequence_baseINS_8sequenceINSt3__14pairIllEENS_9allocatorIS7_EELb0EEENS8_ISA_EELb0EE12storage_impl11destroy_allEvEUlmE_EEvRNS_9schedulerINS_15WorkStealingJobEEEmmRT_mb, symObjAddr: 0xD806C, symBinAddr: 0x1000D98F8, symSize: 0x594 }
  - { offset: 0x140132, size: 0x8, addend: 0x0, symName: __ZN6parlay8sequenceINSt3__14pairIllEENS_9allocatorIS3_EELb0EEC2IZNS_8internal3mapIRKNS0_IlNS4_IlEELb0EEEZZN11graph_utilsIlE9transposeERKNS0_ISB_NS4_ISB_EELb0EEEENKUllE_clElEUlT_E_EEDaOSL_OT0_mEUlmE_EEmSO_NS6_18_from_function_tagEm, symObjAddr: 0xD9770, symBinAddr: 0x1000DAFFC, symSize: 0x3CC }
  - { offset: 0x14099F, size: 0x8, addend: 0x0, symName: __ZN6parlay19fork_join_scheduler7parfor_IZNS_8sequenceINS2_INSt3__14pairIllEENS_9allocatorIS5_EELb0EEENS6_IS8_EELb0EE16initialize_rangeINS_16delayed_sequenceIS8_S8_ZN11graph_utilsIlE9transposeERKNS2_INS2_IlNS6_IlEELb0EEENS6_ISG_EELb0EEEEUllE_E8iteratorEEEvT_SO_EUlmE_EEvRNS_9schedulerINS_15WorkStealingJobEEEmmRSO_mb, symObjAddr: 0xD9B3C, symBinAddr: 0x1000DB3C8, symSize: 0x5E0 }
  - { offset: 0x1420B9, size: 0x8, addend: 0x0, symName: __ZN6parlay19fork_join_scheduler7parfor_IZNS_8internal10sliced_forIZNS2_18group_by_small_intINS_16delayed_sequenceIllZNS2_11delayed_mapIRNS_8sequenceINSt3__14pairIllEENS_9allocatorISA_EELb0EEEZNS_14group_by_indexImSE_EEDaOT0_T_EUlRKSJ_E0_Li0EEESG_OSJ_SH_EUlmE_E8iteratorENS5_IllZNS6_ISE_ZNSF_ImSE_EESG_SI_SJ_EUlSL_E_Li0EEESG_SN_SH_EUlmE_E8iteratorEEESG_NS_5sliceISJ_SJ_EENSV_ISH_SH_EEmEUlmmmE_EEvmmSL_jEUlmE_EEvRNS_9schedulerINS_15WorkStealingJobEEEmmRSJ_mb, symObjAddr: 0xD6DFC, symBinAddr: 0x1000D8688, symSize: 0x670 }
  - { offset: 0x143474, size: 0x8, addend: 0x0, symName: __ZN6parlay19fork_join_scheduler7parfor_IZNS_8internal10sliced_forIZNS2_18group_by_small_intINS_16delayed_sequenceIllZNS2_11delayed_mapIRNS_8sequenceINSt3__14pairIllEENS_9allocatorISA_EELb0EEEZNS_14group_by_indexImSE_EEDaOT0_T_EUlRKSJ_E0_Li0EEESG_OSJ_SH_EUlmE_E8iteratorENS5_IllZNS6_ISE_ZNSF_ImSE_EESG_SI_SJ_EUlSL_E_Li0EEESG_SN_SH_EUlmE_E8iteratorEEESG_NS_5sliceISJ_SJ_EENSV_ISH_SH_EEmEUlmmmE0_EEvmmSL_jEUlmE_EEvRNS_9schedulerINS_15WorkStealingJobEEEmmRSJ_mb, symObjAddr: 0xD6794, symBinAddr: 0x1000D8020, symSize: 0x63C }
  - { offset: 0x144A27, size: 0x8, addend: 0x0, symName: __ZN6parlay19fork_join_scheduler7parfor_IZNS_8internal18group_by_small_intINS_16delayed_sequenceIllZNS2_11delayed_mapIRNS_8sequenceINSt3__14pairIllEENS_9allocatorIS9_EELb0EEEZNS_14group_by_indexImSD_EEDaOT0_T_EUlRKSI_E0_Li0EEESF_OSI_SG_EUlmE_E8iteratorENS4_IllZNS5_ISD_ZNSE_ImSD_EESF_SH_SI_EUlSK_E_Li0EEESF_SM_SG_EUlmE_E8iteratorEEESF_NS_5sliceISI_SI_EENSU_ISG_SG_EEmEUlmE0_EEvRNS_9schedulerINS_15WorkStealingJobEEEmmRSI_mb, symObjAddr: 0xD5924, symBinAddr: 0x1000D71B0, symSize: 0x63C }
  - { offset: 0x145D92, size: 0x8, addend: 0x0, symName: __ZN6parlay19fork_join_scheduler7parfor_IZNS_8sequenceINS2_IlNS_9allocatorIlEELb0EEENS3_IS5_EELb0EEC1IZNS_8internal3mapIRNS2_ImNS3_ImEELb0EEEZNS9_18group_by_small_intINS_16delayed_sequenceIllZNS9_11delayed_mapIRNS2_INSt3__14pairIllEENS3_ISJ_EELb0EEEZNS_14group_by_indexImSM_EEDaOT0_T_EUlRKSR_E0_Li0EEESO_OSR_SP_EUlmE_E8iteratorENSF_IllZNSG_ISM_ZNSN_ImSM_EESO_SQ_SR_EUlST_E_Li0EEESO_SV_SP_EUlmE_E8iteratorEEESO_NS_5sliceISR_SR_EENS13_ISP_SP_EEmEUlmE1_EESO_SV_SQ_mEUlmE_EEmSV_NS7_18_from_function_tagEmEUlmE_EEvRNS_9schedulerINS_15WorkStealingJobEEEmmRSR_mb, symObjAddr: 0xD5358, symBinAddr: 0x1000D6BE4, symSize: 0x5A0 }
  - { offset: 0x147147, size: 0x8, addend: 0x0, symName: __ZN6parlay19fork_join_scheduler7parfor_IZNS_8internal18group_by_small_intINS_16delayed_sequenceIllZNS2_11delayed_mapIRNS_8sequenceINSt3__14pairIllEENS_9allocatorIS9_EELb0EEEZNS_14group_by_indexImSD_EEDaOT0_T_EUlRKSI_E0_Li0EEESF_OSI_SG_EUlmE_E8iteratorENS4_IllZNS5_ISD_ZNSE_ImSD_EESF_SH_SI_EUlSK_E_Li0EEESF_SM_SG_EUlmE_E8iteratorEEESF_NS_5sliceISI_SI_EENSU_ISG_SG_EEmEUlmE2_EEvRNS_9schedulerINS_15WorkStealingJobEEEmmRSI_mb, symObjAddr: 0xD4D2C, symBinAddr: 0x1000D65B8, symSize: 0x600 }
  - { offset: 0x148765, size: 0x8, addend: 0x0, symName: __ZN6parlay19fork_join_scheduler7parfor_IZNS_8internal10sliced_forIZNS2_6reduceINS_5sliceINS_16delayed_sequenceImmZNS2_13integer_sort_INSt3__117integral_constantIbLb0EEENS_22uninitialized_copy_tagEPNS8_4pairIllEESE_SE_NS2_7get_keyMUlOT_E_EEENS_8sequenceImNS_9allocatorImEELb0EEENS5_IT1_SM_EENS5_IT2_SO_EENS5_IT3_SQ_EERKT4_mmEUlmE_E8iteratorESX_EENS_7maximumImEEEEDaRKSF_OT0_jEUlmmmE_EEvmmS13_jEUlmE_EEvRNS_9schedulerINS_15WorkStealingJobEEEmmRSF_mb, symObjAddr: 0xD353C, symBinAddr: 0x1000D4DC8, symSize: 0x6D8 }
  - { offset: 0x149C48, size: 0x8, addend: 0x0, symName: __ZN6parlay19fork_join_scheduler7parfor_IZNS_8internal10sliced_forIZNS2_6reduceINS_8sequenceImNS_9allocatorImEELb0EEERNS_7maximumImEEEEDaRKT_OT0_jEUlmmmE_EEvmmSF_jEUlmE_EEvRNS_9schedulerINS_15WorkStealingJobEEEmmRSD_mb, symObjAddr: 0xD2E68, symBinAddr: 0x1000D46F4, symSize: 0x6A8 }
  - { offset: 0x14B3A4, size: 0x8, addend: 0x0, symName: __ZN6parlay19fork_join_scheduler7parfor_IZNS_8internal11count_sort_INS_22uninitialized_copy_tagEjPNSt3__14pairIllEES8_NS_16delayed_sequenceImmZNS2_14integer_sort_rINS5_17integral_constantIbLb0EEES4_S8_S8_S8_NS2_7get_keyMUlOT_E_EEENS_8sequenceImNS_9allocatorImEELb0EEENS_5sliceIT1_SL_EENSK_IT2_SN_EENSK_IT3_SP_EERKT4_mmfEUlmE0_E8iteratorEEENS6_ISJ_bEESM_SO_SQ_mfbEUlmE_EEvRNS_9schedulerINS_15WorkStealingJobEEEmmRSD_mb, symObjAddr: 0xD1E64, symBinAddr: 0x1000D36F0, symSize: 0x60C }
  - { offset: 0x14C7BF, size: 0x8, addend: 0x0, symName: __ZN6parlay19fork_join_scheduler7parfor_IZNS_8internal11count_sort_INS_22uninitialized_copy_tagEjPNSt3__14pairIllEES8_NS_16delayed_sequenceImmZNS2_14integer_sort_rINS5_17integral_constantIbLb0EEES4_S8_S8_S8_NS2_7get_keyMUlOT_E_EEENS_8sequenceImNS_9allocatorImEELb0EEENS_5sliceIT1_SL_EENSK_IT2_SN_EENSK_IT3_SP_EERKT4_mmfEUlmE0_E8iteratorEEENS6_ISJ_bEESM_SO_SQ_mfbEUlmE0_EEvRNS_9schedulerINS_15WorkStealingJobEEEmmRSD_mb, symObjAddr: 0xD163C, symBinAddr: 0x1000D2EC8, symSize: 0x66C }
  - { offset: 0x14DADA, size: 0x8, addend: 0x0, symName: __ZN6parlay19fork_join_scheduler7parfor_IZNS_8internal11count_sort_INS_22uninitialized_copy_tagEjPNSt3__14pairIllEES8_NS_16delayed_sequenceImmZNS2_14integer_sort_rINS5_17integral_constantIbLb0EEES4_S8_S8_S8_NS2_7get_keyMUlOT_E_EEENS_8sequenceImNS_9allocatorImEELb0EEENS_5sliceIT1_SL_EENSK_IT2_SN_EENSK_IT3_SP_EERKT4_mmfEUlmE0_E8iteratorEEENS6_ISJ_bEESM_SO_SQ_mfbEUlmE1_EEvRNS_9schedulerINS_15WorkStealingJobEEEmmRSD_mb, symObjAddr: 0xD1018, symBinAddr: 0x1000D28A4, symSize: 0x5F8 }
  - { offset: 0x14EF6B, size: 0x8, addend: 0x0, symName: __ZN6parlay19fork_join_scheduler7parfor_IZNS_8internal11count_sort_INS_22uninitialized_copy_tagEmPNSt3__14pairIllEES8_NS_16delayed_sequenceImmZNS2_14integer_sort_rINS5_17integral_constantIbLb0EEES4_S8_S8_S8_NS2_7get_keyMUlOT_E_EEENS_8sequenceImNS_9allocatorImEELb0EEENS_5sliceIT1_SL_EENSK_IT2_SN_EENSK_IT3_SP_EERKT4_mmfEUlmE0_E8iteratorEEENS6_ISJ_bEESM_SO_SQ_mfbEUlmE_EEvRNS_9schedulerINS_15WorkStealingJobEEEmmRSD_mb, symObjAddr: 0xD0154, symBinAddr: 0x1000D1B70, symSize: 0x60C }
  - { offset: 0x150386, size: 0x8, addend: 0x0, symName: __ZN6parlay19fork_join_scheduler7parfor_IZNS_8internal11count_sort_INS_22uninitialized_copy_tagEmPNSt3__14pairIllEES8_NS_16delayed_sequenceImmZNS2_14integer_sort_rINS5_17integral_constantIbLb0EEES4_S8_S8_S8_NS2_7get_keyMUlOT_E_EEENS_8sequenceImNS_9allocatorImEELb0EEENS_5sliceIT1_SL_EENSK_IT2_SN_EENSK_IT3_SP_EERKT4_mmfEUlmE0_E8iteratorEEENS6_ISJ_bEESM_SO_SQ_mfbEUlmE0_EEvRNS_9schedulerINS_15WorkStealingJobEEEmmRSD_mb, symObjAddr: 0xCF94C, symBinAddr: 0x1000D1368, symSize: 0x63C }
  - { offset: 0x15158D, size: 0x8, addend: 0x0, symName: __ZN6parlay19fork_join_scheduler7parfor_IZNS_8internal11count_sort_INS_22uninitialized_copy_tagEmPNSt3__14pairIllEES8_NS_16delayed_sequenceImmZNS2_14integer_sort_rINS5_17integral_constantIbLb0EEES4_S8_S8_S8_NS2_7get_keyMUlOT_E_EEENS_8sequenceImNS_9allocatorImEELb0EEENS_5sliceIT1_SL_EENSK_IT2_SN_EENSK_IT3_SP_EERKT4_mmfEUlmE0_E8iteratorEEENS6_ISJ_bEESM_SO_SQ_mfbEUlmE1_EEvRNS_9schedulerINS_15WorkStealingJobEEEmmRSD_mb, symObjAddr: 0xCF328, symBinAddr: 0x1000D0D44, symSize: 0x5F8 }
  - { offset: 0x152ABA, size: 0x8, addend: 0x0, symName: __ZN6parlay19fork_join_scheduler7parfor_IZNS_8internal11count_sort_INS_22uninitialized_copy_tagEjPNSt3__14pairIllEES8_NS_16delayed_sequenceImmZNS2_14integer_sort_rINS5_17integral_constantIbLb0EEES4_S8_S8_S8_NS2_7get_keyMUlOT_E_EEENS_8sequenceImNS_9allocatorImEELb0EEENS_5sliceIT1_SL_EENSK_IT2_SN_EENSK_IT3_SP_EERKT4_mmfEUlmE1_E8iteratorEEENS6_ISJ_bEESM_SO_SQ_mfbEUlmE_EEvRNS_9schedulerINS_15WorkStealingJobEEEmmRSD_mb, symObjAddr: 0xCE308, symBinAddr: 0x1000CFEB4, symSize: 0x60C }
  - { offset: 0x153ED5, size: 0x8, addend: 0x0, symName: __ZN6parlay19fork_join_scheduler7parfor_IZNS_8internal11count_sort_INS_22uninitialized_copy_tagEjPNSt3__14pairIllEES8_NS_16delayed_sequenceImmZNS2_14integer_sort_rINS5_17integral_constantIbLb0EEES4_S8_S8_S8_NS2_7get_keyMUlOT_E_EEENS_8sequenceImNS_9allocatorImEELb0EEENS_5sliceIT1_SL_EENSK_IT2_SN_EENSK_IT3_SP_EERKT4_mmfEUlmE1_E8iteratorEEENS6_ISJ_bEESM_SO_SQ_mfbEUlmE0_EEvRNS_9schedulerINS_15WorkStealingJobEEEmmRSD_mb, symObjAddr: 0xCDAD4, symBinAddr: 0x1000CF680, symSize: 0x66C }
  - { offset: 0x1550DC, size: 0x8, addend: 0x0, symName: __ZN6parlay19fork_join_scheduler7parfor_IZNS_8internal11count_sort_INS_22uninitialized_copy_tagEjPNSt3__14pairIllEES8_NS_16delayed_sequenceImmZNS2_14integer_sort_rINS5_17integral_constantIbLb0EEES4_S8_S8_S8_NS2_7get_keyMUlOT_E_EEENS_8sequenceImNS_9allocatorImEELb0EEENS_5sliceIT1_SL_EENSK_IT2_SN_EENSK_IT3_SP_EERKT4_mmfEUlmE1_E8iteratorEEENS6_ISJ_bEESM_SO_SQ_mfbEUlmE1_EEvRNS_9schedulerINS_15WorkStealingJobEEEmmRSD_mb, symObjAddr: 0xCD4B0, symBinAddr: 0x1000CF05C, symSize: 0x5F8 }
  - { offset: 0x1564F5, size: 0x8, addend: 0x0, symName: __ZN6parlay19fork_join_scheduler7parfor_IZNS_8internal11count_sort_INS_22uninitialized_copy_tagEjPNSt3__14pairIllEES8_NS_16delayed_sequenceImmZNS2_14integer_sort_rINS5_17integral_constantIbLb0EEES4_S8_S8_S8_NS2_7get_keyMUlOT_E_EEENS_8sequenceImNS_9allocatorImEELb0EEENS_5sliceIT1_SL_EENSK_IT2_SN_EENSK_IT3_SP_EERKT4_mmfEUlmE1_E8iteratorEEENS6_ISJ_bEESM_SO_SQ_mfbEUlmE2_EEvRNS_9schedulerINS_15WorkStealingJobEEEmmRSD_mb, symObjAddr: 0xCCE78, symBinAddr: 0x1000CEA24, symSize: 0x60C }
  - { offset: 0x1578CE, size: 0x8, addend: 0x0, symName: __ZN6parlay19fork_join_scheduler7parfor_IZNS_8internal11count_sort_INS_22uninitialized_copy_tagEmPNSt3__14pairIllEES8_NS_16delayed_sequenceImmZNS2_14integer_sort_rINS5_17integral_constantIbLb0EEES4_S8_S8_S8_NS2_7get_keyMUlOT_E_EEENS_8sequenceImNS_9allocatorImEELb0EEENS_5sliceIT1_SL_EENSK_IT2_SN_EENSK_IT3_SP_EERKT4_mmfEUlmE1_E8iteratorEEENS6_ISJ_bEESM_SO_SQ_mfbEUlmE_EEvRNS_9schedulerINS_15WorkStealingJobEEEmmRSD_mb, symObjAddr: 0xCC840, symBinAddr: 0x1000CE3EC, symSize: 0x60C }
  - { offset: 0x158CE9, size: 0x8, addend: 0x0, symName: __ZN6parlay19fork_join_scheduler7parfor_IZNS_8internal11count_sort_INS_22uninitialized_copy_tagEmPNSt3__14pairIllEES8_NS_16delayed_sequenceImmZNS2_14integer_sort_rINS5_17integral_constantIbLb0EEES4_S8_S8_S8_NS2_7get_keyMUlOT_E_EEENS_8sequenceImNS_9allocatorImEELb0EEENS_5sliceIT1_SL_EENSK_IT2_SN_EENSK_IT3_SP_EERKT4_mmfEUlmE1_E8iteratorEEENS6_ISJ_bEESM_SO_SQ_mfbEUlmE0_EEvRNS_9schedulerINS_15WorkStealingJobEEEmmRSD_mb, symObjAddr: 0xCC02C, symBinAddr: 0x1000CDBD8, symSize: 0x63C }
  - { offset: 0x159EF0, size: 0x8, addend: 0x0, symName: __ZN6parlay19fork_join_scheduler7parfor_IZNS_8internal11count_sort_INS_22uninitialized_copy_tagEmPNSt3__14pairIllEES8_NS_16delayed_sequenceImmZNS2_14integer_sort_rINS5_17integral_constantIbLb0EEES4_S8_S8_S8_NS2_7get_keyMUlOT_E_EEENS_8sequenceImNS_9allocatorImEELb0EEENS_5sliceIT1_SL_EENSK_IT2_SN_EENSK_IT3_SP_EERKT4_mmfEUlmE1_E8iteratorEEENS6_ISJ_bEESM_SO_SQ_mfbEUlmE1_EEvRNS_9schedulerINS_15WorkStealingJobEEEmmRSD_mb, symObjAddr: 0xCBA08, symBinAddr: 0x1000CD5B4, symSize: 0x5F8 }
  - { offset: 0x15B309, size: 0x8, addend: 0x0, symName: __ZN6parlay19fork_join_scheduler7parfor_IZNS_8internal11count_sort_INS_22uninitialized_copy_tagEmPNSt3__14pairIllEES8_NS_16delayed_sequenceImmZNS2_14integer_sort_rINS5_17integral_constantIbLb0EEES4_S8_S8_S8_NS2_7get_keyMUlOT_E_EEENS_8sequenceImNS_9allocatorImEELb0EEENS_5sliceIT1_SL_EENSK_IT2_SN_EENSK_IT3_SP_EERKT4_mmfEUlmE1_E8iteratorEEENS6_ISJ_bEESM_SO_SQ_mfbEUlmE2_EEvRNS_9schedulerINS_15WorkStealingJobEEEmmRSD_mb, symObjAddr: 0xCB3D0, symBinAddr: 0x1000CCF7C, symSize: 0x60C }
  - { offset: 0x15C77E, size: 0x8, addend: 0x0, symName: __ZN6parlay19fork_join_scheduler7parfor_IZNS_8internal11count_sort_INS_26uninitialized_relocate_tagEjPNSt3__14pairIllEES8_NS_16delayed_sequenceImmZNS2_14integer_sort_rINS5_17integral_constantIbLb1EEES4_S8_S8_S8_NS2_7get_keyMUlOT_E_EEENS_8sequenceImNS_9allocatorImEELb0EEENS_5sliceIT1_SL_EENSK_IT2_SN_EENSK_IT3_SP_EERKT4_mmfEUlmE_E8iteratorEEENS6_ISJ_bEESM_SO_SQ_mfbEUlmE_EEvRNS_9schedulerINS_15WorkStealingJobEEEmmRSD_mb, symObjAddr: 0xCAA48, symBinAddr: 0x1000CC708, symSize: 0x60C }
  - { offset: 0x15DB99, size: 0x8, addend: 0x0, symName: __ZN6parlay19fork_join_scheduler7parfor_IZNS_8internal11count_sort_INS_26uninitialized_relocate_tagEjPNSt3__14pairIllEES8_NS_16delayed_sequenceImmZNS2_14integer_sort_rINS5_17integral_constantIbLb1EEES4_S8_S8_S8_NS2_7get_keyMUlOT_E_EEENS_8sequenceImNS_9allocatorImEELb0EEENS_5sliceIT1_SL_EENSK_IT2_SN_EENSK_IT3_SP_EERKT4_mmfEUlmE_E8iteratorEEENS6_ISJ_bEESM_SO_SQ_mfbEUlmE0_EEvRNS_9schedulerINS_15WorkStealingJobEEEmmRSD_mb, symObjAddr: 0xCA220, symBinAddr: 0x1000CBEE0, symSize: 0x66C }
  - { offset: 0x15EDA0, size: 0x8, addend: 0x0, symName: __ZN6parlay19fork_join_scheduler7parfor_IZNS_8internal11count_sort_INS_26uninitialized_relocate_tagEjPNSt3__14pairIllEES8_NS_16delayed_sequenceImmZNS2_14integer_sort_rINS5_17integral_constantIbLb1EEES4_S8_S8_S8_NS2_7get_keyMUlOT_E_EEENS_8sequenceImNS_9allocatorImEELb0EEENS_5sliceIT1_SL_EENSK_IT2_SN_EENSK_IT3_SP_EERKT4_mmfEUlmE_E8iteratorEEENS6_ISJ_bEESM_SO_SQ_mfbEUlmE1_EEvRNS_9schedulerINS_15WorkStealingJobEEEmmRSD_mb, symObjAddr: 0xC9BFC, symBinAddr: 0x1000CB8BC, symSize: 0x5F8 }
  - { offset: 0x160231, size: 0x8, addend: 0x0, symName: __ZN6parlay19fork_join_scheduler7parfor_IZNS_8internal11count_sort_INS_26uninitialized_relocate_tagEmPNSt3__14pairIllEES8_NS_16delayed_sequenceImmZNS2_14integer_sort_rINS5_17integral_constantIbLb1EEES4_S8_S8_S8_NS2_7get_keyMUlOT_E_EEENS_8sequenceImNS_9allocatorImEELb0EEENS_5sliceIT1_SL_EENSK_IT2_SN_EENSK_IT3_SP_EERKT4_mmfEUlmE_E8iteratorEEENS6_ISJ_bEESM_SO_SQ_mfbEUlmE_EEvRNS_9schedulerINS_15WorkStealingJobEEEmmRSD_mb, symObjAddr: 0xC8D38, symBinAddr: 0x1000CAB88, symSize: 0x60C }
  - { offset: 0x16164C, size: 0x8, addend: 0x0, symName: __ZN6parlay19fork_join_scheduler7parfor_IZNS_8internal11count_sort_INS_26uninitialized_relocate_tagEmPNSt3__14pairIllEES8_NS_16delayed_sequenceImmZNS2_14integer_sort_rINS5_17integral_constantIbLb1EEES4_S8_S8_S8_NS2_7get_keyMUlOT_E_EEENS_8sequenceImNS_9allocatorImEELb0EEENS_5sliceIT1_SL_EENSK_IT2_SN_EENSK_IT3_SP_EERKT4_mmfEUlmE_E8iteratorEEENS6_ISJ_bEESM_SO_SQ_mfbEUlmE0_EEvRNS_9schedulerINS_15WorkStealingJobEEEmmRSD_mb, symObjAddr: 0xC8530, symBinAddr: 0x1000CA380, symSize: 0x63C }
  - { offset: 0x162853, size: 0x8, addend: 0x0, symName: __ZN6parlay19fork_join_scheduler7parfor_IZNS_8internal11count_sort_INS_26uninitialized_relocate_tagEmPNSt3__14pairIllEES8_NS_16delayed_sequenceImmZNS2_14integer_sort_rINS5_17integral_constantIbLb1EEES4_S8_S8_S8_NS2_7get_keyMUlOT_E_EEENS_8sequenceImNS_9allocatorImEELb0EEENS_5sliceIT1_SL_EENSK_IT2_SN_EENSK_IT3_SP_EERKT4_mmfEUlmE_E8iteratorEEENS6_ISJ_bEESM_SO_SQ_mfbEUlmE1_EEvRNS_9schedulerINS_15WorkStealingJobEEEmmRSD_mb, symObjAddr: 0xC7F0C, symBinAddr: 0x1000C9D5C, symSize: 0x5F8 }
  - { offset: 0x163D80, size: 0x8, addend: 0x0, symName: __ZN6parlay19fork_join_scheduler7parfor_IZNS_8internal11count_sort_INS_26uninitialized_relocate_tagEjPNSt3__14pairIllEES8_NS_16delayed_sequenceImmZNS2_14integer_sort_rINS5_17integral_constantIbLb1EEES4_S8_S8_S8_NS2_7get_keyMUlOT_E_EEENS_8sequenceImNS_9allocatorImEELb0EEENS_5sliceIT1_SL_EENSK_IT2_SN_EENSK_IT3_SP_EERKT4_mmfEUlmE0_E8iteratorEEENS6_ISJ_bEESM_SO_SQ_mfbEUlmE_EEvRNS_9schedulerINS_15WorkStealingJobEEEmmRSD_mb, symObjAddr: 0xC6754, symBinAddr: 0x1000C8734, symSize: 0x60C }
  - { offset: 0x16519B, size: 0x8, addend: 0x0, symName: __ZN6parlay19fork_join_scheduler7parfor_IZNS_8internal11count_sort_INS_26uninitialized_relocate_tagEjPNSt3__14pairIllEES8_NS_16delayed_sequenceImmZNS2_14integer_sort_rINS5_17integral_constantIbLb1EEES4_S8_S8_S8_NS2_7get_keyMUlOT_E_EEENS_8sequenceImNS_9allocatorImEELb0EEENS_5sliceIT1_SL_EENSK_IT2_SN_EENSK_IT3_SP_EERKT4_mmfEUlmE0_E8iteratorEEENS6_ISJ_bEESM_SO_SQ_mfbEUlmE0_EEvRNS_9schedulerINS_15WorkStealingJobEEEmmRSD_mb, symObjAddr: 0xC5F20, symBinAddr: 0x1000C7F00, symSize: 0x66C }
  - { offset: 0x1663A2, size: 0x8, addend: 0x0, symName: __ZN6parlay19fork_join_scheduler7parfor_IZNS_8internal11count_sort_INS_26uninitialized_relocate_tagEjPNSt3__14pairIllEES8_NS_16delayed_sequenceImmZNS2_14integer_sort_rINS5_17integral_constantIbLb1EEES4_S8_S8_S8_NS2_7get_keyMUlOT_E_EEENS_8sequenceImNS_9allocatorImEELb0EEENS_5sliceIT1_SL_EENSK_IT2_SN_EENSK_IT3_SP_EERKT4_mmfEUlmE0_E8iteratorEEENS6_ISJ_bEESM_SO_SQ_mfbEUlmE1_EEvRNS_9schedulerINS_15WorkStealingJobEEEmmRSD_mb, symObjAddr: 0xC58FC, symBinAddr: 0x1000C78DC, symSize: 0x5F8 }
  - { offset: 0x1677BB, size: 0x8, addend: 0x0, symName: __ZN6parlay19fork_join_scheduler7parfor_IZNS_8internal11count_sort_INS_26uninitialized_relocate_tagEjPNSt3__14pairIllEES8_NS_16delayed_sequenceImmZNS2_14integer_sort_rINS5_17integral_constantIbLb1EEES4_S8_S8_S8_NS2_7get_keyMUlOT_E_EEENS_8sequenceImNS_9allocatorImEELb0EEENS_5sliceIT1_SL_EENSK_IT2_SN_EENSK_IT3_SP_EERKT4_mmfEUlmE0_E8iteratorEEENS6_ISJ_bEESM_SO_SQ_mfbEUlmE2_EEvRNS_9schedulerINS_15WorkStealingJobEEEmmRSD_mb, symObjAddr: 0xC52C4, symBinAddr: 0x1000C72A4, symSize: 0x60C }
  - { offset: 0x168B94, size: 0x8, addend: 0x0, symName: __ZN6parlay19fork_join_scheduler7parfor_IZNS_8internal11count_sort_INS_26uninitialized_relocate_tagEmPNSt3__14pairIllEES8_NS_16delayed_sequenceImmZNS2_14integer_sort_rINS5_17integral_constantIbLb1EEES4_S8_S8_S8_NS2_7get_keyMUlOT_E_EEENS_8sequenceImNS_9allocatorImEELb0EEENS_5sliceIT1_SL_EENSK_IT2_SN_EENSK_IT3_SP_EERKT4_mmfEUlmE0_E8iteratorEEENS6_ISJ_bEESM_SO_SQ_mfbEUlmE_EEvRNS_9schedulerINS_15WorkStealingJobEEEmmRSD_mb, symObjAddr: 0xC4C8C, symBinAddr: 0x1000C6C6C, symSize: 0x60C }
  - { offset: 0x169FAF, size: 0x8, addend: 0x0, symName: __ZN6parlay19fork_join_scheduler7parfor_IZNS_8internal11count_sort_INS_26uninitialized_relocate_tagEmPNSt3__14pairIllEES8_NS_16delayed_sequenceImmZNS2_14integer_sort_rINS5_17integral_constantIbLb1EEES4_S8_S8_S8_NS2_7get_keyMUlOT_E_EEENS_8sequenceImNS_9allocatorImEELb0EEENS_5sliceIT1_SL_EENSK_IT2_SN_EENSK_IT3_SP_EERKT4_mmfEUlmE0_E8iteratorEEENS6_ISJ_bEESM_SO_SQ_mfbEUlmE0_EEvRNS_9schedulerINS_15WorkStealingJobEEEmmRSD_mb, symObjAddr: 0xC4478, symBinAddr: 0x1000C6458, symSize: 0x63C }
  - { offset: 0x16B1B6, size: 0x8, addend: 0x0, symName: __ZN6parlay19fork_join_scheduler7parfor_IZNS_8internal11count_sort_INS_26uninitialized_relocate_tagEmPNSt3__14pairIllEES8_NS_16delayed_sequenceImmZNS2_14integer_sort_rINS5_17integral_constantIbLb1EEES4_S8_S8_S8_NS2_7get_keyMUlOT_E_EEENS_8sequenceImNS_9allocatorImEELb0EEENS_5sliceIT1_SL_EENSK_IT2_SN_EENSK_IT3_SP_EERKT4_mmfEUlmE0_E8iteratorEEENS6_ISJ_bEESM_SO_SQ_mfbEUlmE1_EEvRNS_9schedulerINS_15WorkStealingJobEEEmmRSD_mb, symObjAddr: 0xC3E54, symBinAddr: 0x1000C5E34, symSize: 0x5F8 }
  - { offset: 0x16C5CF, size: 0x8, addend: 0x0, symName: __ZN6parlay19fork_join_scheduler7parfor_IZNS_8internal11count_sort_INS_26uninitialized_relocate_tagEmPNSt3__14pairIllEES8_NS_16delayed_sequenceImmZNS2_14integer_sort_rINS5_17integral_constantIbLb1EEES4_S8_S8_S8_NS2_7get_keyMUlOT_E_EEENS_8sequenceImNS_9allocatorImEELb0EEENS_5sliceIT1_SL_EENSK_IT2_SN_EENSK_IT3_SP_EERKT4_mmfEUlmE0_E8iteratorEEENS6_ISJ_bEESM_SO_SQ_mfbEUlmE2_EEvRNS_9schedulerINS_15WorkStealingJobEEEmmRSD_mb, symObjAddr: 0xC381C, symBinAddr: 0x1000C57FC, symSize: 0x60C }
  - { offset: 0x16DA44, size: 0x8, addend: 0x0, symName: __ZN6parlay19fork_join_scheduler7parfor_IZNS_8internal11count_sort_INS_26uninitialized_relocate_tagEjPNSt3__14pairIllEES8_NS_16delayed_sequenceImmZNS2_14integer_sort_rINS5_17integral_constantIbLb0EEES4_S8_S8_S8_NS2_7get_keyMUlOT_E_EEENS_8sequenceImNS_9allocatorImEELb0EEENS_5sliceIT1_SL_EENSK_IT2_SN_EENSK_IT3_SP_EERKT4_mmfEUlmE_E8iteratorEEENS6_ISJ_bEESM_SO_SQ_mfbEUlmE_EEvRNS_9schedulerINS_15WorkStealingJobEEEmmRSD_mb, symObjAddr: 0xC2E94, symBinAddr: 0x1000C4F88, symSize: 0x60C }
  - { offset: 0x16EE5F, size: 0x8, addend: 0x0, symName: __ZN6parlay19fork_join_scheduler7parfor_IZNS_8internal11count_sort_INS_26uninitialized_relocate_tagEjPNSt3__14pairIllEES8_NS_16delayed_sequenceImmZNS2_14integer_sort_rINS5_17integral_constantIbLb0EEES4_S8_S8_S8_NS2_7get_keyMUlOT_E_EEENS_8sequenceImNS_9allocatorImEELb0EEENS_5sliceIT1_SL_EENSK_IT2_SN_EENSK_IT3_SP_EERKT4_mmfEUlmE_E8iteratorEEENS6_ISJ_bEESM_SO_SQ_mfbEUlmE0_EEvRNS_9schedulerINS_15WorkStealingJobEEEmmRSD_mb, symObjAddr: 0xC266C, symBinAddr: 0x1000C4760, symSize: 0x66C }
  - { offset: 0x170066, size: 0x8, addend: 0x0, symName: __ZN6parlay19fork_join_scheduler7parfor_IZNS_8internal11count_sort_INS_26uninitialized_relocate_tagEjPNSt3__14pairIllEES8_NS_16delayed_sequenceImmZNS2_14integer_sort_rINS5_17integral_constantIbLb0EEES4_S8_S8_S8_NS2_7get_keyMUlOT_E_EEENS_8sequenceImNS_9allocatorImEELb0EEENS_5sliceIT1_SL_EENSK_IT2_SN_EENSK_IT3_SP_EERKT4_mmfEUlmE_E8iteratorEEENS6_ISJ_bEESM_SO_SQ_mfbEUlmE1_EEvRNS_9schedulerINS_15WorkStealingJobEEEmmRSD_mb, symObjAddr: 0xC2048, symBinAddr: 0x1000C413C, symSize: 0x5F8 }
  - { offset: 0x1714F7, size: 0x8, addend: 0x0, symName: __ZN6parlay19fork_join_scheduler7parfor_IZNS_8internal11count_sort_INS_26uninitialized_relocate_tagEmPNSt3__14pairIllEES8_NS_16delayed_sequenceImmZNS2_14integer_sort_rINS5_17integral_constantIbLb0EEES4_S8_S8_S8_NS2_7get_keyMUlOT_E_EEENS_8sequenceImNS_9allocatorImEELb0EEENS_5sliceIT1_SL_EENSK_IT2_SN_EENSK_IT3_SP_EERKT4_mmfEUlmE_E8iteratorEEENS6_ISJ_bEESM_SO_SQ_mfbEUlmE_EEvRNS_9schedulerINS_15WorkStealingJobEEEmmRSD_mb, symObjAddr: 0xC1184, symBinAddr: 0x1000C3408, symSize: 0x60C }
  - { offset: 0x172912, size: 0x8, addend: 0x0, symName: __ZN6parlay19fork_join_scheduler7parfor_IZNS_8internal11count_sort_INS_26uninitialized_relocate_tagEmPNSt3__14pairIllEES8_NS_16delayed_sequenceImmZNS2_14integer_sort_rINS5_17integral_constantIbLb0EEES4_S8_S8_S8_NS2_7get_keyMUlOT_E_EEENS_8sequenceImNS_9allocatorImEELb0EEENS_5sliceIT1_SL_EENSK_IT2_SN_EENSK_IT3_SP_EERKT4_mmfEUlmE_E8iteratorEEENS6_ISJ_bEESM_SO_SQ_mfbEUlmE0_EEvRNS_9schedulerINS_15WorkStealingJobEEEmmRSD_mb, symObjAddr: 0xC097C, symBinAddr: 0x1000C2C00, symSize: 0x63C }
  - { offset: 0x173B19, size: 0x8, addend: 0x0, symName: __ZN6parlay19fork_join_scheduler7parfor_IZNS_8internal11count_sort_INS_26uninitialized_relocate_tagEmPNSt3__14pairIllEES8_NS_16delayed_sequenceImmZNS2_14integer_sort_rINS5_17integral_constantIbLb0EEES4_S8_S8_S8_NS2_7get_keyMUlOT_E_EEENS_8sequenceImNS_9allocatorImEELb0EEENS_5sliceIT1_SL_EENSK_IT2_SN_EENSK_IT3_SP_EERKT4_mmfEUlmE_E8iteratorEEENS6_ISJ_bEESM_SO_SQ_mfbEUlmE1_EEvRNS_9schedulerINS_15WorkStealingJobEEEmmRSD_mb, symObjAddr: 0xC0358, symBinAddr: 0x1000C25DC, symSize: 0x5F8 }
  - { offset: 0x175046, size: 0x8, addend: 0x0, symName: __ZN6parlay19fork_join_scheduler7parfor_IZNS_8internal11count_sort_INS_26uninitialized_relocate_tagEjPNSt3__14pairIllEES8_NS_16delayed_sequenceImmZNS2_14integer_sort_rINS5_17integral_constantIbLb0EEES4_S8_S8_S8_NS2_7get_keyMUlOT_E_EEENS_8sequenceImNS_9allocatorImEELb0EEENS_5sliceIT1_SL_EENSK_IT2_SN_EENSK_IT3_SP_EERKT4_mmfEUlmE0_E8iteratorEEENS6_ISJ_bEESM_SO_SQ_mfbEUlmE_EEvRNS_9schedulerINS_15WorkStealingJobEEEmmRSD_mb, symObjAddr: 0xBF338, symBinAddr: 0x1000C15BC, symSize: 0x60C }
  - { offset: 0x176461, size: 0x8, addend: 0x0, symName: __ZN6parlay19fork_join_scheduler7parfor_IZNS_8internal11count_sort_INS_26uninitialized_relocate_tagEjPNSt3__14pairIllEES8_NS_16delayed_sequenceImmZNS2_14integer_sort_rINS5_17integral_constantIbLb0EEES4_S8_S8_S8_NS2_7get_keyMUlOT_E_EEENS_8sequenceImNS_9allocatorImEELb0EEENS_5sliceIT1_SL_EENSK_IT2_SN_EENSK_IT3_SP_EERKT4_mmfEUlmE0_E8iteratorEEENS6_ISJ_bEESM_SO_SQ_mfbEUlmE0_EEvRNS_9schedulerINS_15WorkStealingJobEEEmmRSD_mb, symObjAddr: 0xBEB04, symBinAddr: 0x1000C0D88, symSize: 0x66C }
  - { offset: 0x177668, size: 0x8, addend: 0x0, symName: __ZN6parlay19fork_join_scheduler7parfor_IZNS_8internal11count_sort_INS_26uninitialized_relocate_tagEjPNSt3__14pairIllEES8_NS_16delayed_sequenceImmZNS2_14integer_sort_rINS5_17integral_constantIbLb0EEES4_S8_S8_S8_NS2_7get_keyMUlOT_E_EEENS_8sequenceImNS_9allocatorImEELb0EEENS_5sliceIT1_SL_EENSK_IT2_SN_EENSK_IT3_SP_EERKT4_mmfEUlmE0_E8iteratorEEENS6_ISJ_bEESM_SO_SQ_mfbEUlmE1_EEvRNS_9schedulerINS_15WorkStealingJobEEEmmRSD_mb, symObjAddr: 0xBE4E0, symBinAddr: 0x1000C0764, symSize: 0x5F8 }
  - { offset: 0x178A81, size: 0x8, addend: 0x0, symName: __ZN6parlay19fork_join_scheduler7parfor_IZNS_8internal11count_sort_INS_26uninitialized_relocate_tagEjPNSt3__14pairIllEES8_NS_16delayed_sequenceImmZNS2_14integer_sort_rINS5_17integral_constantIbLb0EEES4_S8_S8_S8_NS2_7get_keyMUlOT_E_EEENS_8sequenceImNS_9allocatorImEELb0EEENS_5sliceIT1_SL_EENSK_IT2_SN_EENSK_IT3_SP_EERKT4_mmfEUlmE0_E8iteratorEEENS6_ISJ_bEESM_SO_SQ_mfbEUlmE2_EEvRNS_9schedulerINS_15WorkStealingJobEEEmmRSD_mb, symObjAddr: 0xBDEA8, symBinAddr: 0x1000C012C, symSize: 0x60C }
  - { offset: 0x179E5A, size: 0x8, addend: 0x0, symName: __ZN6parlay19fork_join_scheduler7parfor_IZNS_8internal11count_sort_INS_26uninitialized_relocate_tagEmPNSt3__14pairIllEES8_NS_16delayed_sequenceImmZNS2_14integer_sort_rINS5_17integral_constantIbLb0EEES4_S8_S8_S8_NS2_7get_keyMUlOT_E_EEENS_8sequenceImNS_9allocatorImEELb0EEENS_5sliceIT1_SL_EENSK_IT2_SN_EENSK_IT3_SP_EERKT4_mmfEUlmE0_E8iteratorEEENS6_ISJ_bEESM_SO_SQ_mfbEUlmE_EEvRNS_9schedulerINS_15WorkStealingJobEEEmmRSD_mb, symObjAddr: 0xBD870, symBinAddr: 0x1000BFAF4, symSize: 0x60C }
  - { offset: 0x17B275, size: 0x8, addend: 0x0, symName: __ZN6parlay19fork_join_scheduler7parfor_IZNS_8internal11count_sort_INS_26uninitialized_relocate_tagEmPNSt3__14pairIllEES8_NS_16delayed_sequenceImmZNS2_14integer_sort_rINS5_17integral_constantIbLb0EEES4_S8_S8_S8_NS2_7get_keyMUlOT_E_EEENS_8sequenceImNS_9allocatorImEELb0EEENS_5sliceIT1_SL_EENSK_IT2_SN_EENSK_IT3_SP_EERKT4_mmfEUlmE0_E8iteratorEEENS6_ISJ_bEESM_SO_SQ_mfbEUlmE0_EEvRNS_9schedulerINS_15WorkStealingJobEEEmmRSD_mb, symObjAddr: 0xBD05C, symBinAddr: 0x1000BF2E0, symSize: 0x63C }
  - { offset: 0x17C47C, size: 0x8, addend: 0x0, symName: __ZN6parlay19fork_join_scheduler7parfor_IZNS_8internal11count_sort_INS_26uninitialized_relocate_tagEmPNSt3__14pairIllEES8_NS_16delayed_sequenceImmZNS2_14integer_sort_rINS5_17integral_constantIbLb0EEES4_S8_S8_S8_NS2_7get_keyMUlOT_E_EEENS_8sequenceImNS_9allocatorImEELb0EEENS_5sliceIT1_SL_EENSK_IT2_SN_EENSK_IT3_SP_EERKT4_mmfEUlmE0_E8iteratorEEENS6_ISJ_bEESM_SO_SQ_mfbEUlmE1_EEvRNS_9schedulerINS_15WorkStealingJobEEEmmRSD_mb, symObjAddr: 0xBCA38, symBinAddr: 0x1000BECBC, symSize: 0x5F8 }
  - { offset: 0x17D895, size: 0x8, addend: 0x0, symName: __ZN6parlay19fork_join_scheduler7parfor_IZNS_8internal11count_sort_INS_26uninitialized_relocate_tagEmPNSt3__14pairIllEES8_NS_16delayed_sequenceImmZNS2_14integer_sort_rINS5_17integral_constantIbLb0EEES4_S8_S8_S8_NS2_7get_keyMUlOT_E_EEENS_8sequenceImNS_9allocatorImEELb0EEENS_5sliceIT1_SL_EENSK_IT2_SN_EENSK_IT3_SP_EERKT4_mmfEUlmE0_E8iteratorEEENS6_ISJ_bEESM_SO_SQ_mfbEUlmE2_EEvRNS_9schedulerINS_15WorkStealingJobEEEmmRSD_mb, symObjAddr: 0xBC400, symBinAddr: 0x1000BE684, symSize: 0x60C }
  - { offset: 0x17EFDC, size: 0x8, addend: 0x0, symName: __ZN6parlay19fork_join_scheduler7parfor_IZNS_8sequenceINS_5sliceINS_16delayed_sequenceImmZNS_14group_by_indexImRNS2_INSt3__14pairIllEENS_9allocatorIS8_EELb0EEEEEDaOT0_T_EUlmE_E8iteratorESJ_EENS9_ISK_EELb0EEC1IZNS_13block_delayed14make_iteratorsISI_EESD_RKSG_EUlmE_EEmOSG_NSM_18_from_function_tagEmEUlmE_EEvRNS_9schedulerINS_15WorkStealingJobEEEmmRSG_mb, symObjAddr: 0xAEB54, symBinAddr: 0x1000B0DD8, symSize: 0x5DC }
  - { offset: 0x180487, size: 0x8, addend: 0x0, symName: __ZN6parlay19fork_join_scheduler7parfor_IZNS_17sequence_internal13sequence_baseINS_8sequenceImNS_9allocatorImEELb0EEENS5_IS7_EELb0EE12storage_impl11destroy_allEvEUlmE_EEvRNS_9schedulerINS_15WorkStealingJobEEEmmRT_mb, symObjAddr: 0xABF04, symBinAddr: 0x1000AE2AC, symSize: 0x594 }
  - { offset: 0x18180E, size: 0x8, addend: 0x0, symName: __ZN6parlay19fork_join_scheduler7parfor_IZNS_8sequenceINS2_ImNS_9allocatorImEELb0EEENS3_IS5_EELb0EEC1IZNS_13block_delayed10filter_mapINS_16delayed_sequenceImmZNS_14group_by_indexImRNS2_INSt3__14pairIllEENS3_ISF_EELb0EEEEEDaOT0_T_EUlmE_EEZNSC_ImSI_EESJ_SL_SM_EUlmE0_ZNS9_6filterISO_SP_EESJ_RKSM_RKSK_EUlSM_E_EESJ_SM_SU_RKT1_EUlmE_EEmOSM_NS7_18_from_function_tagEmEUlmE_EEvRNS_9schedulerINS_15WorkStealingJobEEEmmRSM_mb, symObjAddr: 0xAE418, symBinAddr: 0x1000B07C0, symSize: 0x5BC }
  - { offset: 0x182CE1, size: 0x8, addend: 0x0, symName: __ZN6parlay19fork_join_scheduler7parfor_IZNS_8internal10sliced_forIZNS2_5scan_INS_8sequenceImNS_9allocatorImEELb0EEENS_5sliceIPmSA_EENS_4plusImEEEEDaRKT_T0_OT1_jbEUlmmmE_EEvmmSH_jEUlmE_EEvRNS_9schedulerINS_15WorkStealingJobEEEmmRSF_mb, symObjAddr: 0xAD268, symBinAddr: 0x1000AF610, symSize: 0x684 }
  - { offset: 0x183FA3, size: 0x8, addend: 0x0, symName: __ZN6parlay19fork_join_scheduler7parfor_IZNS_8internal10sliced_forIZNS2_5scan_INS_8sequenceImNS_9allocatorImEELb0EEENS_5sliceIPmSA_EENS_4plusImEEEEDaRKT_T0_OT1_jbEUlmmmE0_EEvmmSH_jEUlmE_EEvRNS_9schedulerINS_15WorkStealingJobEEEmmRSF_mb, symObjAddr: 0xACAC0, symBinAddr: 0x1000AEE68, symSize: 0x77C }
  - { offset: 0x1852AD, size: 0x8, addend: 0x0, symName: __ZN6parlay19fork_join_scheduler7parfor_IZNS_13block_delayed10filter_mapINS_16delayed_sequenceImmZNS_14group_by_indexImRNS_8sequenceINSt3__14pairIllEENS_9allocatorIS9_EELb0EEEEEDaOT0_T_EUlmE_EEZNS5_ImSD_EESE_SG_SH_EUlmE0_ZNS2_6filterISJ_SK_EESE_RKSH_RKSF_EUlSH_E_EESE_SH_SP_RKT1_EUlmE0_EEvRNS_9schedulerINS_15WorkStealingJobEEEmmRSH_mb, symObjAddr: 0xAC4C4, symBinAddr: 0x1000AE86C, symSize: 0x5D0 }
  - { offset: 0x18657A, size: 0x8, addend: 0x0, symName: __ZN6parlay8sequenceIlNS_9allocatorIlEELb0EEC2IZNS_8internal3mapINS_5sliceIPNSt3__14pairIllEESB_EEZZNS_14group_by_indexImRNS0_ISA_NS1_ISA_EELb0EEEEEDaOT0_T_ENKUlmE1_clEmEUlSK_E_EESH_OSK_SJ_mEUlmE_EEmSN_NS3_18_from_function_tagEm, symObjAddr: 0xA95E0, symBinAddr: 0x1000AB988, symSize: 0x3B4 }
  - { offset: 0x186CD9, size: 0x8, addend: 0x0, symName: __ZN6parlay19fork_join_scheduler7parfor_IZNS_14group_by_indexImRNS_8sequenceINSt3__14pairIllEENS_9allocatorIS6_EELb0EEEEEDaOT0_T_EUlmE1_EEvRNS_9schedulerINS_15WorkStealingJobEEEmmRSE_mb, symObjAddr: 0xA9994, symBinAddr: 0x1000ABD3C, symSize: 0x6C8 }
  - { offset: 0x1884FC, size: 0x8, addend: 0x0, symName: __ZZN11graph_utilsIlE10symmetrizeERKN6parlay8sequenceINS2_IlNS1_9allocatorIlEELb0EEENS3_IS5_EELb0EEEENKUllE_clEl, symObjAddr: 0x9C3B4, symBinAddr: 0x10009E75C, symSize: 0xB3C }
  - { offset: 0x18A6B6, size: 0x8, addend: 0x0, symName: __ZN6parlay19fork_join_scheduler7parfor_IZNS_8internal10sliced_forIZNS2_10filter_mapINS_5sliceIPlS6_EEZZN11graph_utilsIlE10symmetrizeERKNS_8sequenceINSA_IlNS_9allocatorIlEELb0EEENSB_ISD_EELb0EEEENKUllE_clElEUlT_E_RZNS2_6filterIS7_SK_EENSA_INSJ_10value_typeENSB_ISM_EEXsr3std7is_sameISM_cEE5valueEEERKSJ_OT0_EUlOSJ_E_EEDaSQ_SS_OT1_EUlmmmE_EEvmmSQ_jEUlmE_EEvRNS_9schedulerINS_15WorkStealingJobEEEmmRSJ_mb, symObjAddr: 0xA1140, symBinAddr: 0x1000A34E8, symSize: 0x820 }
  - { offset: 0x18B9E5, size: 0x8, addend: 0x0, symName: __ZN6parlay19fork_join_scheduler7parfor_IZNS_8internal10sliced_forIZNS2_10filter_mapINS_5sliceIPlS6_EEZZN11graph_utilsIlE10symmetrizeERKNS_8sequenceINSA_IlNS_9allocatorIlEELb0EEENSB_ISD_EELb0EEEENKUllE_clElEUlT_E_RZNS2_6filterIS7_SK_EENSA_INSJ_10value_typeENSB_ISM_EEXsr3std7is_sameISM_cEE5valueEEERKSJ_OT0_EUlOSJ_E_EEDaSQ_SS_OT1_EUlmmmE0_EEvmmSQ_jEUlmE_EEvRNS_9schedulerINS_15WorkStealingJobEEEmmRSJ_mb, symObjAddr: 0xA0AAC, symBinAddr: 0x1000A2E54, symSize: 0x668 }
  - { offset: 0x18D3FA, size: 0x8, addend: 0x0, symName: __ZN6parlay19fork_join_scheduler7parfor_IZNS_8internal11count_sort_INS_26uninitialized_relocate_tagEjPlS5_NS_16delayed_sequenceImmZNS2_22collect_reduce_sparse_IS4_NS_5sliceIS5_S5_EENS_24remove_duplicates_helperIlNS_4hashIlvEENSt3__18equal_toIvEEEEEEDaT0_RKT1_EUlmE_E8iteratorEEENSD_4pairINS_8sequenceImNS_9allocatorImEELb0EEEbEENS8_ISJ_SJ_EENS8_IT2_SW_EENS8_IT3_SY_EEmfbEUlmE_EEvRNS_9schedulerINS_15WorkStealingJobEEEmmRT_mb, symObjAddr: 0xA74FC, symBinAddr: 0x1000A98A4, symSize: 0x60C }
  - { offset: 0x18E815, size: 0x8, addend: 0x0, symName: __ZN6parlay19fork_join_scheduler7parfor_IZNS_8internal11count_sort_INS_26uninitialized_relocate_tagEjPlS5_NS_16delayed_sequenceImmZNS2_22collect_reduce_sparse_IS4_NS_5sliceIS5_S5_EENS_24remove_duplicates_helperIlNS_4hashIlvEENSt3__18equal_toIvEEEEEEDaT0_RKT1_EUlmE_E8iteratorEEENSD_4pairINS_8sequenceImNS_9allocatorImEELb0EEEbEENS8_ISJ_SJ_EENS8_IT2_SW_EENS8_IT3_SY_EEmfbEUlmE0_EEvRNS_9schedulerINS_15WorkStealingJobEEEmmRT_mb, symObjAddr: 0xA6C14, symBinAddr: 0x1000A8FBC, symSize: 0x66C }
  - { offset: 0x18FA1C, size: 0x8, addend: 0x0, symName: __ZN6parlay19fork_join_scheduler7parfor_IZNS_8internal11count_sort_INS_26uninitialized_relocate_tagEjPlS5_NS_16delayed_sequenceImmZNS2_22collect_reduce_sparse_IS4_NS_5sliceIS5_S5_EENS_24remove_duplicates_helperIlNS_4hashIlvEENSt3__18equal_toIvEEEEEEDaT0_RKT1_EUlmE_E8iteratorEEENSD_4pairINS_8sequenceImNS_9allocatorImEELb0EEEbEENS8_ISJ_SJ_EENS8_IT2_SW_EENS8_IT3_SY_EEmfbEUlmE1_EEvRNS_9schedulerINS_15WorkStealingJobEEEmmRT_mb, symObjAddr: 0xA65F0, symBinAddr: 0x1000A8998, symSize: 0x5F8 }
  - { offset: 0x190E35, size: 0x8, addend: 0x0, symName: __ZN6parlay19fork_join_scheduler7parfor_IZNS_8internal11count_sort_INS_26uninitialized_relocate_tagEjPlS5_NS_16delayed_sequenceImmZNS2_22collect_reduce_sparse_IS4_NS_5sliceIS5_S5_EENS_24remove_duplicates_helperIlNS_4hashIlvEENSt3__18equal_toIvEEEEEEDaT0_RKT1_EUlmE_E8iteratorEEENSD_4pairINS_8sequenceImNS_9allocatorImEELb0EEEbEENS8_ISJ_SJ_EENS8_IT2_SW_EENS8_IT3_SY_EEmfbEUlmE2_EEvRNS_9schedulerINS_15WorkStealingJobEEEmmRT_mb, symObjAddr: 0xA5FB8, symBinAddr: 0x1000A8360, symSize: 0x60C }
  - { offset: 0x19220E, size: 0x8, addend: 0x0, symName: __ZN6parlay19fork_join_scheduler7parfor_IZNS_8internal11count_sort_INS_26uninitialized_relocate_tagEmPlS5_NS_16delayed_sequenceImmZNS2_22collect_reduce_sparse_IS4_NS_5sliceIS5_S5_EENS_24remove_duplicates_helperIlNS_4hashIlvEENSt3__18equal_toIvEEEEEEDaT0_RKT1_EUlmE_E8iteratorEEENSD_4pairINS_8sequenceImNS_9allocatorImEELb0EEEbEENS8_ISJ_SJ_EENS8_IT2_SW_EENS8_IT3_SY_EEmfbEUlmE_EEvRNS_9schedulerINS_15WorkStealingJobEEEmmRT_mb, symObjAddr: 0xA5980, symBinAddr: 0x1000A7D28, symSize: 0x60C }
  - { offset: 0x193629, size: 0x8, addend: 0x0, symName: __ZN6parlay19fork_join_scheduler7parfor_IZNS_8internal11count_sort_INS_26uninitialized_relocate_tagEmPlS5_NS_16delayed_sequenceImmZNS2_22collect_reduce_sparse_IS4_NS_5sliceIS5_S5_EENS_24remove_duplicates_helperIlNS_4hashIlvEENSt3__18equal_toIvEEEEEEDaT0_RKT1_EUlmE_E8iteratorEEENSD_4pairINS_8sequenceImNS_9allocatorImEELb0EEEbEENS8_ISJ_SJ_EENS8_IT2_SW_EENS8_IT3_SY_EEmfbEUlmE0_EEvRNS_9schedulerINS_15WorkStealingJobEEEmmRT_mb, symObjAddr: 0xA5100, symBinAddr: 0x1000A74A8, symSize: 0x63C }
  - { offset: 0x194830, size: 0x8, addend: 0x0, symName: __ZN6parlay19fork_join_scheduler7parfor_IZNS_8internal11count_sort_INS_26uninitialized_relocate_tagEmPlS5_NS_16delayed_sequenceImmZNS2_22collect_reduce_sparse_IS4_NS_5sliceIS5_S5_EENS_24remove_duplicates_helperIlNS_4hashIlvEENSt3__18equal_toIvEEEEEEDaT0_RKT1_EUlmE_E8iteratorEEENSD_4pairINS_8sequenceImNS_9allocatorImEELb0EEEbEENS8_ISJ_SJ_EENS8_IT2_SW_EENS8_IT3_SY_EEmfbEUlmE1_EEvRNS_9schedulerINS_15WorkStealingJobEEEmmRT_mb, symObjAddr: 0xA4ADC, symBinAddr: 0x1000A6E84, symSize: 0x5F8 }
  - { offset: 0x195C49, size: 0x8, addend: 0x0, symName: __ZN6parlay19fork_join_scheduler7parfor_IZNS_8internal11count_sort_INS_26uninitialized_relocate_tagEmPlS5_NS_16delayed_sequenceImmZNS2_22collect_reduce_sparse_IS4_NS_5sliceIS5_S5_EENS_24remove_duplicates_helperIlNS_4hashIlvEENSt3__18equal_toIvEEEEEEDaT0_RKT1_EUlmE_E8iteratorEEENSD_4pairINS_8sequenceImNS_9allocatorImEELb0EEEbEENS8_ISJ_SJ_EENS8_IT2_SW_EENS8_IT3_SY_EEmfbEUlmE2_EEvRNS_9schedulerINS_15WorkStealingJobEEEmmRT_mb, symObjAddr: 0xA44A4, symBinAddr: 0x1000A684C, symSize: 0x60C }
  - { offset: 0x1971A0, size: 0x8, addend: 0x0, symName: __ZN6parlay19fork_join_scheduler7parfor_IZNS_8sequenceINS2_IlNS_9allocatorIlEELb0EEENS3_IS5_EELb0EEC1IZNS_8internal22collect_reduce_sparse_INS_26uninitialized_relocate_tagENS_5sliceIPlSD_EENS_24remove_duplicates_helperIlNS_4hashIlvEENSt3__18equal_toIvEEEEEEDaT0_RKT1_EUlmE0_EEmOT_NS7_18_from_function_tagEmEUlmE_EEvRNS_9schedulerINS_15WorkStealingJobEEEmmRSS_mb, symObjAddr: 0xA3A0C, symBinAddr: 0x1000A5DB4, symSize: 0x608 }
  - { offset: 0x1988B1, size: 0x8, addend: 0x0, symName: __ZN6parlay19fork_join_scheduler7parfor_IZNS_7flattenIlEEDaONS_8sequenceINS4_IT_NS_9allocatorIS5_EEXsr3std7is_sameIS5_cEE5valueEEENS6_IS8_EEXsr3std7is_sameIS8_cEE5valueEEEEUlmE0_EEvRNS_9schedulerINS_15WorkStealingJobEEEmmRS5_mb, symObjAddr: 0xA2228, symBinAddr: 0x1000A45D0, symSize: 0x618 }
  - { offset: 0x199E26, size: 0x8, addend: 0x0, symName: __ZN6parlay19fork_join_scheduler7parfor_IZNS_8sequenceIlNS_9allocatorIlEELb0EEC1IZNS_6appendIRS5_RKS5_EEDaOT_OT0_EUlmE_EEmSD_NS5_18_from_function_tagEmEUlmE_EEvRNS_9schedulerINS_15WorkStealingJobEEEmmRSC_mb, symObjAddr: 0xA900C, symBinAddr: 0x1000AB3B4, symSize: 0x5A8 }
  - { offset: 0x19B0CF, size: 0x8, addend: 0x0, symName: __ZN6parlay19fork_join_scheduler7parfor_IZNS_8sequenceINS2_IlNS_9allocatorIlEELb0EEENS3_IS5_EELb0EEC1IZN11graph_utilsIlE10symmetrizeERKS7_EUllE_EEmOT_NS7_18_from_function_tagEmEUlmE_EEvRNS_9schedulerINS_15WorkStealingJobEEEmmRSE_mb, symObjAddr: 0x9CEF0, symBinAddr: 0x10009F298, symSize: 0x5A8 }
  - { offset: 0x19C4B7, size: 0x8, addend: 0x0, symName: __ZN6parlay17sequence_internal13sequence_baseIlNS_9allocatorIlEELb0EE12storage_implC2ERKS5_, symObjAddr: 0x19C48, symBinAddr: 0x10001BFF0, symSize: 0x2CC }
  - { offset: 0x19CAEF, size: 0x8, addend: 0x0, symName: __Z20create_base_clustersIldEvRN6parlay8sequenceINS1_IT_NS0_9allocatorIS2_EEXsr3std7is_sameIS2_cEE5valueEEENS3_IS5_EEXsr3std7is_sameIS5_cEE5valueEEERNS1_I7clusterIS2_T0_ENS3_ISB_EEXsr3std7is_sameISB_cEE5valueEEES2_SA_, symObjAddr: 0x1DC28, symBinAddr: 0x10001FFD0, symSize: 0x47C8 }
  - { offset: 0x1A4739, size: 0x8, addend: 0x0, symName: __ZN6parlay19fork_join_scheduler7parfor_IZ20create_base_clustersIldEvRNS_8sequenceINS3_IT_NS_9allocatorIS4_EEXsr3std7is_sameIS4_cEE5valueEEENS5_IS7_EEXsr3std7is_sameIS7_cEE5valueEEERNS3_I7clusterIS4_T0_ENS5_ISD_EEXsr3std7is_sameISD_cEE5valueEEES4_SC_EUllE0_EEvRNS_9schedulerINS_15WorkStealingJobEEEmmRS4_mb, symObjAddr: 0x961D4, symBinAddr: 0x10009857C, symSize: 0x5F8 }
  - { offset: 0x1A5F42, size: 0x8, addend: 0x0, symName: __Z20recreate_last_levelsIldEvRN6parlay8sequenceIP4nodeIT_T0_ENS0_9allocatorIS6_EEXsr3std7is_sameIS6_cEE5valueEEE, symObjAddr: 0x8A908, symBinAddr: 0x10008CCB0, symSize: 0x688 }
  - { offset: 0x1A6DE6, size: 0x8, addend: 0x0, symName: __ZN6parlay19fork_join_scheduler7parfor_IZNS_8internal10sliced_forIZNS2_10filter_mapINS_5sliceIPP4nodeIldES9_EEZ14create_RC_treeIldEvRNS_8sequenceI7clusterIT_T0_ENS_9allocatorISG_EEXsr3std7is_sameISG_cEE5valueEEESE_bSF_EUlSE_E_RZNS2_6filterISA_SL_EENSC_INSE_10value_typeENSH_ISN_EEXsr3std7is_sameISN_cEE5valueEEERKSE_OSF_EUlOSE_E_EEDaSR_SS_OT1_EUlmmmE_EEvmmSR_jEUlmE_EEvRNS_9schedulerINS_15WorkStealingJobEEEmmRSE_mb, symObjAddr: 0x8DF38, symBinAddr: 0x1000902E0, symSize: 0x660 }
  - { offset: 0x1A817D, size: 0x8, addend: 0x0, symName: __ZN6parlay19fork_join_scheduler7parfor_IZNS_8internal10sliced_forIZNS2_10filter_mapINS_5sliceIPP4nodeIldES9_EEZ14create_RC_treeIldEvRNS_8sequenceI7clusterIT_T0_ENS_9allocatorISG_EEXsr3std7is_sameISG_cEE5valueEEESE_bSF_EUlSE_E_RZNS2_6filterISA_SL_EENSC_INSE_10value_typeENSH_ISN_EEXsr3std7is_sameISN_cEE5valueEEERKSE_OSF_EUlOSE_E_EEDaSR_SS_OT1_EUlmmmE0_EEvmmSR_jEUlmE_EEvRNS_9schedulerINS_15WorkStealingJobEEEmmRSE_mb, symObjAddr: 0x8D8A4, symBinAddr: 0x10008FC4C, symSize: 0x668 }
  - { offset: 0x1A97DB, size: 0x8, addend: 0x0, symName: __Z7set_MISIldEvRN6parlay8sequenceIP4nodeIT_T0_ENS0_9allocatorIS6_EEXsr3std7is_sameIS6_cEE5valueEEEb, symObjAddr: 0x3B3EC, symBinAddr: 0x10003D794, symSize: 0x219C }
  - { offset: 0x1AE981, size: 0x8, addend: 0x0, symName: __ZN6parlay17sequence_internal13sequence_baseIP4nodeIldENS_9allocatorIS4_EELb0EE12storage_implC2ERKS8_, symObjAddr: 0x3D588, symBinAddr: 0x10003F930, symSize: 0x26C }
  - { offset: 0x1AF008, size: 0x8, addend: 0x0, symName: __ZN6parlay19fork_join_scheduler7parfor_IZ7set_MISIldEvRNS_8sequenceIP4nodeIT_T0_ENS_9allocatorIS8_EEXsr3std7is_sameIS8_cEE5valueEEEbEUllE0_EEvRNS_9schedulerINS_15WorkStealingJobEEEmmRS5_mb, symObjAddr: 0x465CC, symBinAddr: 0x100048974, symSize: 0x5B8 }
  - { offset: 0x1B07CB, size: 0x8, addend: 0x0, symName: __ZN6parlay19fork_join_scheduler7parfor_IZNS_8sequenceImNS_9allocatorImEELb0EEC1IZ13counting_sortIPlS8_S8_ES5_RKT_SB_T0_RKT1_lEUllE1_EEmOS9_NS5_18_from_function_tagEmEUlmE_EEvRNS_9schedulerINS_15WorkStealingJobEEEmmRS9_mb, symObjAddr: 0x44D80, symBinAddr: 0x100047128, symSize: 0x5A8 }
  - { offset: 0x1B1ABF, size: 0x8, addend: 0x0, symName: __ZN6parlay19fork_join_scheduler7parfor_IZ7set_MISIldEvRNS_8sequenceIP4nodeIT_T0_ENS_9allocatorIS8_EEXsr3std7is_sameIS8_cEE5valueEEEbEUllE3_EEvRNS_9schedulerINS_15WorkStealingJobEEEmmRS5_mb, symObjAddr: 0x4381C, symBinAddr: 0x100045BC4, symSize: 0x5EC }
  - { offset: 0x1B2DDC, size: 0x8, addend: 0x0, symName: __ZN6parlay19fork_join_scheduler7parfor_IZNS_8internal10sliced_forIZNS2_10filter_mapINS_5sliceIPP4nodeIldES9_EEZ14create_RC_treeIldEvRNS_8sequenceI7clusterIT_T0_ENS_9allocatorISG_EEXsr3std7is_sameISG_cEE5valueEEESE_bSF_EUlSE_E0_RZNS2_6filterISA_SL_EENSC_INSE_10value_typeENSH_ISN_EEXsr3std7is_sameISN_cEE5valueEEERKSE_OSF_EUlOSE_E_EEDaSR_SS_OT1_EUlmmmE_EEvmmSR_jEUlmE_EEvRNS_9schedulerINS_15WorkStealingJobEEEmmRSE_mb, symObjAddr: 0x8D1C8, symBinAddr: 0x10008F570, symSize: 0x6B0 }
  - { offset: 0x1B4105, size: 0x8, addend: 0x0, symName: __ZN6parlay19fork_join_scheduler7parfor_IZNS_8internal10sliced_forIZNS2_10filter_mapINS_5sliceIPP4nodeIldES9_EEZ14create_RC_treeIldEvRNS_8sequenceI7clusterIT_T0_ENS_9allocatorISG_EEXsr3std7is_sameISG_cEE5valueEEESE_bSF_EUlSE_E0_RZNS2_6filterISA_SL_EENSC_INSE_10value_typeENSH_ISN_EEXsr3std7is_sameISN_cEE5valueEEERKSE_OSF_EUlOSE_E_EEDaSR_SS_OT1_EUlmmmE0_EEvmmSR_jEUlmE_EEvRNS_9schedulerINS_15WorkStealingJobEEEmmRSE_mb, symObjAddr: 0x8CB34, symBinAddr: 0x10008EEDC, symSize: 0x668 }
  - { offset: 0x1B580B, size: 0x8, addend: 0x0, symName: __ZN6parlay19fork_join_scheduler7parfor_IZ14create_RC_treeIldEvRNS_8sequenceI7clusterIT_T0_ENS_9allocatorIS7_EEXsr3std7is_sameIS7_cEE5valueEEES5_bS6_EUllE0_EEvRNS_9schedulerINS_15WorkStealingJobEEEmmRS5_mb, symObjAddr: 0x8BCF4, symBinAddr: 0x10008E09C, symSize: 0x594 }
  - { offset: 0x1B6AC6, size: 0x8, addend: 0x0, symName: __ZN6parlay19fork_join_scheduler7parfor_IZNS_8internal10sliced_forIZNS2_10filter_mapINS_5sliceIPP4nodeIldES9_EEZ14create_RC_treeIldEvRNS_8sequenceI7clusterIT_T0_ENS_9allocatorISG_EEXsr3std7is_sameISG_cEE5valueEEESE_bSF_EUlSE_E1_RZNS2_6filterISA_SL_EENSC_INSE_10value_typeENSH_ISN_EEXsr3std7is_sameISN_cEE5valueEEERKSE_OSF_EUlOSE_E_EEDaSR_SS_OT1_EUlmmmE_EEvmmSR_jEUlmE_EEvRNS_9schedulerINS_15WorkStealingJobEEEmmRSE_mb, symObjAddr: 0x8B624, symBinAddr: 0x10008D9CC, symSize: 0x6A4 }
  - { offset: 0x1B7DD8, size: 0x8, addend: 0x0, symName: __ZN6parlay19fork_join_scheduler7parfor_IZNS_8internal10sliced_forIZNS2_10filter_mapINS_5sliceIPP4nodeIldES9_EEZ14create_RC_treeIldEvRNS_8sequenceI7clusterIT_T0_ENS_9allocatorISG_EEXsr3std7is_sameISG_cEE5valueEEESE_bSF_EUlSE_E1_RZNS2_6filterISA_SL_EENSC_INSE_10value_typeENSH_ISN_EEXsr3std7is_sameISN_cEE5valueEEERKSE_OSF_EUlOSE_E_EEDaSR_SS_OT1_EUlmmmE0_EEvmmSR_jEUlmE_EEvRNS_9schedulerINS_15WorkStealingJobEEEmmRSE_mb, symObjAddr: 0x8AF90, symBinAddr: 0x10008D338, symSize: 0x668 }
  - { offset: 0x1B9466, size: 0x8, addend: 0x0, symName: __ZN6parlay19fork_join_scheduler7parfor_IZ17checkEdgePtrValidIldEvRNS_8sequenceI7clusterIT_T0_ENS_9allocatorIS7_EEXsr3std7is_sameIS7_cEE5valueEEEEUllE_EEvRNS_9schedulerINS_15WorkStealingJobEEEmmRS5_mb, symObjAddr: 0x8A304, symBinAddr: 0x10008C6AC, symSize: 0x5D8 }
  - { offset: 0x1BA855, size: 0x8, addend: 0x0, symName: __ZN6parlay19fork_join_scheduler7parfor_IZNS_24uninitialized_relocate_nIPNSt3__15tupleIJlldEEElS6_EENS3_4pairIT_T1_EES8_T0_S9_EUlmE_EEvRNS_9schedulerINS_15WorkStealingJobEEEmmRS8_mb, symObjAddr: 0x88DD8, symBinAddr: 0x10008B180, symSize: 0x100 }
  - { offset: 0x1BA9DD, size: 0x8, addend: 0x0, symName: __ZN6parlay19fork_join_scheduler7parfor_IZNS_7flattenINSt3__15tupleIJlldEEEEEDaONS_8sequenceINS7_IT_NS_9allocatorIS8_EEXsr3std7is_sameIS8_cEE5valueEEENS9_ISB_EEXsr3std7is_sameISB_cEE5valueEEEEUlmE0_EEvRNS_9schedulerINS_15WorkStealingJobEEEmmRS8_mb, symObjAddr: 0x88088, symBinAddr: 0x10008A430, symSize: 0x814 }
  - { offset: 0x1BC222, size: 0x8, addend: 0x0, symName: __ZN6parlay19fork_join_scheduler7parfor_IZNS_17sequence_internal13sequence_baseINS_8sequenceINSt3__15tupleIJlldEEENS_9allocatorIS7_EELb0EEENS8_ISA_EELb0EE12storage_impl11destroy_allEvEUlmE_EEvRNS_9schedulerINS_15WorkStealingJobEEEmmRT_mb, symObjAddr: 0x87AC4, symBinAddr: 0x100089E6C, symSize: 0x598 }
  - { offset: 0x1BD562, size: 0x8, addend: 0x0, symName: __ZN6parlay19fork_join_scheduler7parfor_IZNS_8sequenceINS2_INSt3__15tupleIJlldEEENS_9allocatorIS5_EELb0EEENS6_IS8_EELb0EEC1IZ24convertClustersToTruplesIldENS2_INS4_IJT_SD_T0_EEENS6_ISF_EEXsr3std7is_sameISF_cEE5valueEEERKNS2_I7clusterISD_SE_ENS6_ISJ_EEXsr3std7is_sameISJ_cEE5valueEEEEUllE_EEmOSD_NSA_18_from_function_tagEmEUlmE_EEvRNS_9schedulerINS_15WorkStealingJobEEEmmRSD_mb, symObjAddr: 0x89D3C, symBinAddr: 0x10008C0E4, symSize: 0x59C }
  - { offset: 0x1BE9C0, size: 0x8, addend: 0x0, symName: __Z11top_down_ctIldEvRP7clusterIT_T0_ERN6parlay8sequenceIS3_NS6_9allocatorIS3_EEXsr3std7is_sameIS3_cEE5valueEEE, symObjAddr: 0x84B28, symBinAddr: 0x100086ED0, symSize: 0xC14 }
  - { offset: 0x1C01EB, size: 0x8, addend: 0x0, symName: __ZN6parlay19fork_join_scheduler7parfor_IZNS_8internal10sliced_forIZNS2_10filter_mapINS_5sliceIPP7clusterIldES9_EEZ24createCompressedPathTreeIldENSt3__14pairINS_8sequenceINSC_5tupleIJT_SG_T0_EEENS_9allocatorISI_EEXsr3std7is_sameISI_cEE5valueEEENSE_INSD_ISG_SG_EENSJ_ISM_EEXsr3std7is_sameISM_cEE5valueEEEEERNSE_IS6_ISG_SH_ENSJ_ISQ_EEXsr3std7is_sameISQ_cEE5valueEEERKSL_EUlS8_E_RZNS2_6filterISA_SW_EENSE_INSG_10value_typeENSJ_ISY_EEXsr3std7is_sameISY_cEE5valueEEERKSG_OSH_EUlOSG_E_EEDaS12_S13_OT1_EUlmmmE_EEvmmS12_jEUlmE_EEvRNS_9schedulerINS_15WorkStealingJobEEEmmRSG_mb, symObjAddr: 0x83ADC, symBinAddr: 0x100085E84, symSize: 0x924 }
  - { offset: 0x1C151A, size: 0x8, addend: 0x0, symName: __ZN6parlay19fork_join_scheduler7parfor_IZNS_8internal10sliced_forIZNS2_10filter_mapINS_5sliceIPP7clusterIldES9_EEZ24createCompressedPathTreeIldENSt3__14pairINS_8sequenceINSC_5tupleIJT_SG_T0_EEENS_9allocatorISI_EEXsr3std7is_sameISI_cEE5valueEEENSE_INSD_ISG_SG_EENSJ_ISM_EEXsr3std7is_sameISM_cEE5valueEEEEERNSE_IS6_ISG_SH_ENSJ_ISQ_EEXsr3std7is_sameISQ_cEE5valueEEERKSL_EUlS8_E_RZNS2_6filterISA_SW_EENSE_INSG_10value_typeENSJ_ISY_EEXsr3std7is_sameISY_cEE5valueEEERKSG_OSH_EUlOSG_E_EEDaS12_S13_OT1_EUlmmmE0_EEvmmS12_jEUlmE_EEvRNS_9schedulerINS_15WorkStealingJobEEEmmRSG_mb, symObjAddr: 0x83448, symBinAddr: 0x1000857F0, symSize: 0x668 }
  - { offset: 0x1C2B77, size: 0x8, addend: 0x0, symName: __Z26sum_up_child_vertex_countsIldEvP7clusterIT_T0_E, symObjAddr: 0x820CC, symBinAddr: 0x100084474, symSize: 0x160 }
  - { offset: 0x1C2E54, size: 0x8, addend: 0x0, symName: __ZN6parlay19fork_join_scheduler7parfor_IZNS_8internal10sliced_forIZNS2_5scan_INS_5sliceIPlS6_EES7_NS_4plusIlEEEEDaRKT_T0_OT1_jbEUlmmmE_EEvmmSD_jEUlmE_EEvRNS_9schedulerINS_15WorkStealingJobEEEmmRSB_mb, symObjAddr: 0x7DA30, symBinAddr: 0x10007FDD8, symSize: 0x678 }
  - { offset: 0x1C4116, size: 0x8, addend: 0x0, symName: __ZN6parlay19fork_join_scheduler7parfor_IZNS_8internal10sliced_forIZNS2_5scan_INS_5sliceIPlS6_EES7_NS_4plusIlEEEEDaRKT_T0_OT1_jbEUlmmmE0_EEvmmSD_jEUlmE_EEvRNS_9schedulerINS_15WorkStealingJobEEEmmRSB_mb, symObjAddr: 0x7D294, symBinAddr: 0x10007F63C, symSize: 0x770 }
  - { offset: 0x1C54E1, size: 0x8, addend: 0x0, symName: __Z14write_verticesIldEvP7clusterIT_T0_ERKS1_RN6parlay8sequenceIS1_NS7_9allocatorIS1_EEXsr3std7is_sameIS1_cEE5valueEEERNS8_IS3_NS9_IS3_EEXsr3std7is_sameIS3_cEE5valueEEE, symObjAddr: 0x800C4, symBinAddr: 0x10008246C, symSize: 0x1C4 }
  - { offset: 0x1C5840, size: 0x8, addend: 0x0, symName: __ZN6parlay19fork_join_scheduler7parfor_IZ14write_verticesIldEvP7clusterIT_T0_ERKS4_RNS_8sequenceIS4_NS_9allocatorIS4_EEXsr3std7is_sameIS4_cEE5valueEEERNSA_IS6_NSB_IS6_EEXsr3std7is_sameIS6_cEE5valueEEEEUllE_EEvRNS_9schedulerINS_15WorkStealingJobEEEmmRS4_mb, symObjAddr: 0x81098, symBinAddr: 0x100083440, symSize: 0xD0 }
  - { offset: 0x1C5979, size: 0x8, addend: 0x0, symName: __ZN6parlay19fork_join_scheduler7parfor_IZ24createCompressedPathTreeIldENSt3__14pairINS_8sequenceINS3_5tupleIJT_S7_T0_EEENS_9allocatorIS9_EEXsr3std7is_sameIS9_cEE5valueEEENS5_INS4_IS7_S7_EENSA_ISD_EEXsr3std7is_sameISD_cEE5valueEEEEERNS5_I7clusterIS7_S8_ENSA_ISI_EEXsr3std7is_sameISI_cEE5valueEEERKSC_EUllE3_EEvRNS_9schedulerINS_15WorkStealingJobEEEmmRS7_mb, symObjAddr: 0x80288, symBinAddr: 0x100082630, symSize: 0x59C }
  - { offset: 0x1C72B5, size: 0x8, addend: 0x0, symName: __ZN6parlay19fork_join_scheduler7parfor_IZNS_8sequenceIlNS_9allocatorIlEELb0EEC1IZ24createCompressedPathTreeIldENSt3__14pairINS2_INS8_5tupleIJT_SB_T0_EEENS3_ISD_EEXsr3std7is_sameISD_cEE5valueEEENS2_INS9_ISB_SB_EENS3_ISG_EEXsr3std7is_sameISG_cEE5valueEEEEERNS2_I7clusterISB_SC_ENS3_ISL_EEXsr3std7is_sameISL_cEE5valueEEERKSF_EUllE4_EEmOSB_NS5_18_from_function_tagEmEUlmE_EEvRNS_9schedulerINS_15WorkStealingJobEEEmmRSB_mb, symObjAddr: 0x7E0D4, symBinAddr: 0x10008047C, symSize: 0x648 }
  - { offset: 0x1C8902, size: 0x8, addend: 0x0, symName: __ZN6parlay17sequence_internal13sequence_baseINSt3__15tupleIJlldEEENS_9allocatorIS4_EELb0EE12storage_implC2ERKS8_, symObjAddr: 0x2E814, symBinAddr: 0x100030BBC, symSize: 0x324 }
  - { offset: 0x1C9060, size: 0x8, addend: 0x0, symName: __ZN6parlay17sequence_internal13sequence_baseINSt3__14pairIllEENS_9allocatorIS4_EELb0EE12storage_implC2ERKS8_, symObjAddr: 0x2EB38, symBinAddr: 0x100030EE0, symSize: 0x2F8 }
  - { offset: 0x1C981C, size: 0x8, addend: 0x0, symName: __ZN6parlay19fork_join_scheduler7parfor_IZNS_8sequenceINSt3__15tupleIJlldEEENS_9allocatorIS5_EELb0EEC1IZNS_6appendIRS8_RKS8_EEDaOT_OT0_EUlmE_EEmSG_NS8_18_from_function_tagEmEUlmE_EEvRNS_9schedulerINS_15WorkStealingJobEEEmmRSF_mb, symObjAddr: 0x79B6C, symBinAddr: 0x10007BF14, symSize: 0x5C4 }
  - { offset: 0x1CB3B8, size: 0x8, addend: 0x0, symName: __ZN6parlay19fork_join_scheduler7parfor_IZNS_8sequenceImNS_9allocatorImEELb0EEC1IZNS_8internal11get_bucketsIPNSt3__15tupleIJdlllEEENS9_4lessIvEEEEbNS_5sliceIT_SG_EEPhT0_mEUlmE_EEmOSG_NS5_18_from_function_tagEmEUlmE_EEvRNS_9schedulerINS_15WorkStealingJobEEEmmRSG_mb, symObjAddr: 0x69328, symBinAddr: 0x10006B6D0, symSize: 0x5E0 }
  - { offset: 0x1CC6F0, size: 0x8, addend: 0x0, symName: __ZN6parlay19fork_join_scheduler7parfor_IZNS_8internal13bucket_sort_rIPNSt3__15tupleIJdlllEEES7_NS4_4lessIvEEEEvNS_5sliceIT_SB_EENSA_IT0_SD_EET1_bbEUlmE_EEvRNS_9schedulerINS_15WorkStealingJobEEEmmRSB_mb, symObjAddr: 0x66F9C, symBinAddr: 0x100069344, symSize: 0x12C }
  - { offset: 0x1CCAE8, size: 0x8, addend: 0x0, symName: __ZN6parlay19fork_join_scheduler7parfor_IZNS_8sequenceINSt3__15tupleIJdlllEEENS_9allocatorIS5_EELb0EEC1IZNS_8internal12sample_sort_IjNS_16delayed_sequenceIS5_S5_Z19min_spanning_forestIldENS2_IlNS6_IlEELb0EEERKNS2_INS4_IJT_SG_T0_EEENS6_ISI_EEXsr3std7is_sameISI_cEE5valueEEElEUllE_E8iteratorEPS5_NS3_4lessIvEEEEvNS_5sliceISH_SH_EENST_IT1_SV_EERKT2_bEUlmE_EEmOSG_NS8_18_from_function_tagEmEUlmE_EEvRNS_9schedulerINS_15WorkStealingJobEEEmmRSG_mb, symObjAddr: 0x78730, symBinAddr: 0x10007AAD8, symSize: 0x61C }
  - { offset: 0x1CDF2B, size: 0x8, addend: 0x0, symName: __ZN6parlay19fork_join_scheduler7parfor_IZNS_8internal10sliced_forIZNS2_12sample_sort_IjNS_16delayed_sequenceINSt3__15tupleIJdlllEEES8_Z19min_spanning_forestIldENS_8sequenceIlNS_9allocatorIlEELb0EEERKNSA_INS7_IJT_SE_T0_EEENSB_ISG_EEXsr3std7is_sameISG_cEE5valueEEElEUllE_E8iteratorEPS8_NS6_4lessIvEEEEvNS_5sliceISF_SF_EENSR_IT1_ST_EERKT2_bEUlmmmE_EEvmmRKSE_jEUlmE_EEvRNS_9schedulerINS_15WorkStealingJobEEEmmRSE_mb, symObjAddr: 0x77A20, symBinAddr: 0x100079DC8, symSize: 0x58C }
  - { offset: 0x1CF1E2, size: 0x8, addend: 0x0, symName: __ZN6parlay19fork_join_scheduler7parfor_IZNS_8sequenceIjNS_9allocatorIjEELb0EEC1IRZNS_8internal17transpose_bucketsINS_26uninitialized_relocate_tagEPNSt3__15tupleIJdlllEEESD_jEENS2_ImNS3_ImEELb0EEET0_T1_RNS2_IT2_NS3_ISI_EEXsr3std7is_sameISI_cEE5valueEEEmmmmEUlmE_EEmOT_NS5_18_from_function_tagEmEUlmE_EEvRNS_9schedulerINS_15WorkStealingJobEEEmmRSO_mb, symObjAddr: 0x77030, symBinAddr: 0x1000793D8, symSize: 0x5A0 }
  - { offset: 0x1D046A, size: 0x8, addend: 0x0, symName: __ZN6parlay19fork_join_scheduler7parfor_IZNS_8internal10sliced_forIZNS2_5scan_INS_5sliceIPjS6_EES7_RNS_4plusIjEEEEDaRKT_T0_OT1_jbEUlmmmE_EEvmmSE_jEUlmE_EEvRNS_9schedulerINS_15WorkStealingJobEEEmmRSC_mb, symObjAddr: 0x76988, symBinAddr: 0x100078D30, symSize: 0x67C }
  - { offset: 0x1D16EE, size: 0x8, addend: 0x0, symName: __ZN6parlay19fork_join_scheduler7parfor_IZNS_8internal10sliced_forIZNS2_5scan_INS_5sliceIPjS6_EES7_RNS_4plusIjEEEEDaRKT_T0_OT1_jbEUlmmmE0_EEvmmSE_jEUlmE_EEvRNS_9schedulerINS_15WorkStealingJobEEEmmRSC_mb, symObjAddr: 0x76258, symBinAddr: 0x100078600, symSize: 0x704 }
  - { offset: 0x1D29C0, size: 0x8, addend: 0x0, symName: __ZN6parlay19fork_join_scheduler7parfor_IZNS_8internal17transpose_bucketsINS_26uninitialized_relocate_tagEPNSt3__15tupleIJdlllEEES8_jEENS_8sequenceImNS_9allocatorImEELb0EEET0_T1_RNS9_IT2_NSA_ISF_EEXsr3std7is_sameISF_cEE5valueEEEmmmmEUlmE0_EEvRNS_9schedulerINS_15WorkStealingJobEEEmmRT_mb, symObjAddr: 0x75C18, symBinAddr: 0x100077FC0, symSize: 0x614 }
  - { offset: 0x1D3D61, size: 0x8, addend: 0x0, symName: __ZN6parlay8internal9transposeINS_22uninitialized_copy_tagEPjS3_E6transREmmmmmm, symObjAddr: 0x733EC, symBinAddr: 0x100075794, symSize: 0xD4C }
  - { offset: 0x1D6185, size: 0x8, addend: 0x0, symName: __ZN6parlay8internal10blockTransINS_26uninitialized_relocate_tagEPNSt3__15tupleIJdlllEEES6_PjS7_E6transREmmmmmm, symObjAddr: 0x74138, symBinAddr: 0x1000764E0, symSize: 0xDD0 }
  - { offset: 0x1D61B4, size: 0x8, addend: 0x0, symName: __ZN6parlay8internal10blockTransINS_26uninitialized_relocate_tagEPNSt3__15tupleIJdlllEEES6_PjS7_E6transREmmmmmm, symObjAddr: 0x74138, symBinAddr: 0x1000764E0, symSize: 0xDD0 }
  - { offset: 0x1D8986, size: 0x8, addend: 0x0, symName: __ZN6parlay19fork_join_scheduler7parfor_IZNS_8internal10blockTransINS_26uninitialized_relocate_tagEPNSt3__15tupleIJdlllEEES8_PjS9_E6transREmmmmmmEUlmE_EEvRNS_9schedulerINS_15WorkStealingJobEEEmmRT_mb, symObjAddr: 0x7555C, symBinAddr: 0x100077904, symSize: 0x610 }
  - { offset: 0x1D9C4F, size: 0x8, addend: 0x0, symName: __ZN6parlay19fork_join_scheduler7parfor_IZNS_8sequenceImNS_9allocatorImEELb0EEC1IZNS_8internal17transpose_bucketsINS_26uninitialized_relocate_tagEPNSt3__15tupleIJdlllEEESD_jEES5_T0_T1_RNS2_IT2_NS3_ISG_EEXsr3std7is_sameISG_cEE5valueEEEmmmmEUlmE1_EEmOT_NS5_18_from_function_tagEmEUlmE_EEvRNS_9schedulerINS_15WorkStealingJobEEEmmRSL_mb, symObjAddr: 0x74F08, symBinAddr: 0x1000772B0, symSize: 0x5A8 }
  - { offset: 0x1DAF45, size: 0x8, addend: 0x0, symName: __ZN6parlay19fork_join_scheduler7parfor_IZNS_8internal12sample_sort_IjNS_16delayed_sequenceINSt3__15tupleIJdlllEEES7_Z19min_spanning_forestIldENS_8sequenceIlNS_9allocatorIlEELb0EEERKNS9_INS6_IJT_SD_T0_EEENSA_ISF_EEXsr3std7is_sameISF_cEE5valueEEElEUllE_E8iteratorEPS7_NS5_4lessIvEEEEvNS_5sliceISE_SE_EENSQ_IT1_SS_EERKT2_bEUlmE1_EEvRNS_9schedulerINS_15WorkStealingJobEEEmmRSD_mb, symObjAddr: 0x72984, symBinAddr: 0x100074D2C, symSize: 0x65C }
  - { offset: 0x1DC4A5, size: 0x8, addend: 0x0, symName: __ZN6parlay19fork_join_scheduler7parfor_IZNS_8sequenceINSt3__15tupleIJdlllEEENS_9allocatorIS5_EELb0EEC1IZNS_8internal12sample_sort_ImNS_16delayed_sequenceIS5_S5_Z19min_spanning_forestIldENS2_IlNS6_IlEELb0EEERKNS2_INS4_IJT_SG_T0_EEENS6_ISI_EEXsr3std7is_sameISI_cEE5valueEEElEUllE_E8iteratorEPS5_NS3_4lessIvEEEEvNS_5sliceISH_SH_EENST_IT1_SV_EERKT2_bEUlmE_EEmOSG_NS8_18_from_function_tagEmEUlmE_EEvRNS_9schedulerINS_15WorkStealingJobEEEmmRSG_mb, symObjAddr: 0x714F8, symBinAddr: 0x1000738A0, symSize: 0x61C }
  - { offset: 0x1DD8D0, size: 0x8, addend: 0x0, symName: __ZN6parlay19fork_join_scheduler7parfor_IZNS_8internal10sliced_forIZNS2_12sample_sort_ImNS_16delayed_sequenceINSt3__15tupleIJdlllEEES8_Z19min_spanning_forestIldENS_8sequenceIlNS_9allocatorIlEELb0EEERKNSA_INS7_IJT_SE_T0_EEENSB_ISG_EEXsr3std7is_sameISG_cEE5valueEEElEUllE_E8iteratorEPS8_NS6_4lessIvEEEEvNS_5sliceISF_SF_EENSR_IT1_ST_EERKT2_bEUlmmmE_EEvmmRKSE_jEUlmE_EEvRNS_9schedulerINS_15WorkStealingJobEEEmmRSE_mb, symObjAddr: 0x707E8, symBinAddr: 0x100072B90, symSize: 0x58C }
  - { offset: 0x1DEB81, size: 0x8, addend: 0x0, symName: __ZN6parlay19fork_join_scheduler7parfor_IZNS_8sequenceImNS_9allocatorImEELb0EEC1IRZNS_8internal17transpose_bucketsINS_26uninitialized_relocate_tagEPNSt3__15tupleIJdlllEEESD_mEES5_T0_T1_RNS2_IT2_NS3_ISG_EEXsr3std7is_sameISG_cEE5valueEEEmmmmEUlmE_EEmOT_NS5_18_from_function_tagEmEUlmE_EEvRNS_9schedulerINS_15WorkStealingJobEEEmmRSM_mb, symObjAddr: 0x6FDF8, symBinAddr: 0x1000721A0, symSize: 0x5A0 }
  - { offset: 0x1DFDDF, size: 0x8, addend: 0x0, symName: __ZN6parlay19fork_join_scheduler7parfor_IZNS_8internal10sliced_forIZNS2_5scan_INS_5sliceIPmS6_EES7_RNS_4plusImEEEEDaRKT_T0_OT1_jbEUlmmmE_EEvmmSE_jEUlmE_EEvRNS_9schedulerINS_15WorkStealingJobEEEmmRSC_mb, symObjAddr: 0x6F754, symBinAddr: 0x100071AFC, symSize: 0x678 }
  - { offset: 0x1E10A1, size: 0x8, addend: 0x0, symName: __ZN6parlay19fork_join_scheduler7parfor_IZNS_8internal10sliced_forIZNS2_5scan_INS_5sliceIPmS6_EES7_RNS_4plusImEEEEDaRKT_T0_OT1_jbEUlmmmE0_EEvmmSE_jEUlmE_EEvRNS_9schedulerINS_15WorkStealingJobEEEmmRSC_mb, symObjAddr: 0x6EFB8, symBinAddr: 0x100071360, symSize: 0x770 }
  - { offset: 0x1E23AB, size: 0x8, addend: 0x0, symName: __ZN6parlay19fork_join_scheduler7parfor_IZNS_8internal17transpose_bucketsINS_26uninitialized_relocate_tagEPNSt3__15tupleIJdlllEEES8_mEENS_8sequenceImNS_9allocatorImEELb0EEET0_T1_RNS9_IT2_NSA_ISF_EEXsr3std7is_sameISF_cEE5valueEEEmmmmEUlmE0_EEvRNS_9schedulerINS_15WorkStealingJobEEEmmRT_mb, symObjAddr: 0x6E978, symBinAddr: 0x100070D20, symSize: 0x614 }
  - { offset: 0x1E374C, size: 0x8, addend: 0x0, symName: __ZN6parlay8internal9transposeINS_22uninitialized_copy_tagEPmS3_E6transREmmmmmm, symObjAddr: 0x6C21C, symBinAddr: 0x10006E5C4, symSize: 0xCA0 }
  - { offset: 0x1E5B70, size: 0x8, addend: 0x0, symName: __ZN6parlay8internal10blockTransINS_26uninitialized_relocate_tagEPNSt3__15tupleIJdlllEEES6_PmS7_E6transREmmmmmm, symObjAddr: 0x6CEBC, symBinAddr: 0x10006F264, symSize: 0xDB8 }
  - { offset: 0x1E5B9F, size: 0x8, addend: 0x0, symName: __ZN6parlay8internal10blockTransINS_26uninitialized_relocate_tagEPNSt3__15tupleIJdlllEEES6_PmS7_E6transREmmmmmm, symObjAddr: 0x6CEBC, symBinAddr: 0x10006F264, symSize: 0xDB8 }
  - { offset: 0x1E8371, size: 0x8, addend: 0x0, symName: __ZN6parlay19fork_join_scheduler7parfor_IZNS_8internal10blockTransINS_26uninitialized_relocate_tagEPNSt3__15tupleIJdlllEEES8_PmS9_E6transREmmmmmmEUlmE_EEvRNS_9schedulerINS_15WorkStealingJobEEEmmRT_mb, symObjAddr: 0x6E2C8, symBinAddr: 0x100070670, symSize: 0x604 }
  - { offset: 0x1E963A, size: 0x8, addend: 0x0, symName: __ZN6parlay19fork_join_scheduler7parfor_IZNS_8sequenceImNS_9allocatorImEELb0EEC1IZNS_8internal17transpose_bucketsINS_26uninitialized_relocate_tagEPNSt3__15tupleIJdlllEEESD_mEES5_T0_T1_RNS2_IT2_NS3_ISG_EEXsr3std7is_sameISG_cEE5valueEEEmmmmEUlmE1_EEmOT_NS5_18_from_function_tagEmEUlmE_EEvRNS_9schedulerINS_15WorkStealingJobEEEmmRSL_mb, symObjAddr: 0x6DC74, symBinAddr: 0x10007001C, symSize: 0x5A8 }
  - { offset: 0x1EA92E, size: 0x8, addend: 0x0, symName: __ZN6parlay19fork_join_scheduler7parfor_IZNS_8internal12sample_sort_ImNS_16delayed_sequenceINSt3__15tupleIJdlllEEES7_Z19min_spanning_forestIldENS_8sequenceIlNS_9allocatorIlEELb0EEERKNS9_INS6_IJT_SD_T0_EEENSA_ISF_EEXsr3std7is_sameISF_cEE5valueEEElEUllE_E8iteratorEPS7_NS5_4lessIvEEEEvNS_5sliceISE_SE_EENSQ_IT1_SS_EERKT2_bEUlmE1_EEvRNS_9schedulerINS_15WorkStealingJobEEEmmRSD_mb, symObjAddr: 0x64DB0, symBinAddr: 0x100067158, symSize: 0x65C }
  - { offset: 0x1EC08B, size: 0x8, addend: 0x0, symName: __ZN6parlay19fork_join_scheduler7parfor_IZNS_8sequenceI6statusNS_9allocatorIS3_EELb0EEC1IZ15speculative_forIlZ19min_spanning_forestIldENS2_IlNS4_IlEELb0EEERKNS2_INSt3__15tupleIJT_SE_T0_EEENS4_ISG_EEXsr3std7is_sameISG_cEE5valueEEElEUllE0_ZS9_IldESB_SK_lEUllE1_EvSE_SE_SF_T1_lEUllE_EEmOSE_NS6_18_from_function_tagEmEUlmE_EEvRNS_9schedulerINS_15WorkStealingJobEEEmmRSE_mb, symObjAddr: 0x63558, symBinAddr: 0x100065900, symSize: 0x5B4 }
  - { offset: 0x1ED3E9, size: 0x8, addend: 0x0, symName: __ZN6parlay19fork_join_scheduler7parfor_IZNS_8sequenceIlNS_9allocatorIlEELb0EEC1IZ15speculative_forIlZ19min_spanning_forestIldES5_RKNS2_INSt3__15tupleIJT_SB_T0_EEENS3_ISD_EEXsr3std7is_sameISD_cEE5valueEEElEUllE0_ZS8_IldES5_SH_lEUllE1_EvSB_SB_SC_T1_lEUllE0_EEmOSB_NS5_18_from_function_tagEmEUlmE_EEvRNS_9schedulerINS_15WorkStealingJobEEEmmRSB_mb, symObjAddr: 0x62D20, symBinAddr: 0x1000650C8, symSize: 0x600 }
  - { offset: 0x1EE923, size: 0x8, addend: 0x0, symName: __ZN6parlay19fork_join_scheduler7parfor_IZNS_8internal10sliced_forIZNS2_4packINS_5sliceIPlS6_EENS5_INS_16delayed_sequenceIbbZNS2_11delayed_mapIRNS_8sequenceI6statusNS_9allocatorISB_EELb0EEEZ15speculative_forIlZ19min_spanning_forestIldENSA_IlNSC_IlEELb0EEERKNSA_INSt3__15tupleIJT_SM_T0_EEENSC_ISO_EEXsr3std7is_sameISO_cEE5valueEEElEUllE0_ZSH_IldESJ_SS_lEUllE1_EvSM_SM_SN_T1_lEUlSB_E_Li0EEEDaOSM_SN_EUlmE_E8iteratorES11_EEEENSA_INSM_10value_typeENSC_IS13_EEXsr3std7is_sameIS13_cEE5valueEEERKSM_RKSN_jEUlmmmE_EEvmmS17_jEUlmE_EEvRNS_9schedulerINS_15WorkStealingJobEEEmmRSM_mb, symObjAddr: 0x621B8, symBinAddr: 0x100064560, symSize: 0x900 }
  - { offset: 0x1EFD3C, size: 0x8, addend: 0x0, symName: __ZN6parlay19fork_join_scheduler7parfor_IZNS_8internal10sliced_forIZNS2_4packINS_5sliceIPlS6_EENS5_INS_16delayed_sequenceIbbZNS2_11delayed_mapIRNS_8sequenceI6statusNS_9allocatorISB_EELb0EEEZ15speculative_forIlZ19min_spanning_forestIldENSA_IlNSC_IlEELb0EEERKNSA_INSt3__15tupleIJT_SM_T0_EEENSC_ISO_EEXsr3std7is_sameISO_cEE5valueEEElEUllE0_ZSH_IldESJ_SS_lEUllE1_EvSM_SM_SN_T1_lEUlSB_E_Li0EEEDaOSM_SN_EUlmE_E8iteratorES11_EEEENSA_INSM_10value_typeENSC_IS13_EEXsr3std7is_sameIS13_cEE5valueEEERKSM_RKSN_jEUlmmmE0_EEvmmS17_jEUlmE_EEvRNS_9schedulerINS_15WorkStealingJobEEEmmRSM_mb, symObjAddr: 0x61B30, symBinAddr: 0x100063ED8, symSize: 0x65C }
  - { offset: 0x1F12F6, size: 0x8, addend: 0x0, symName: __ZN6parlay19fork_join_scheduler7parfor_IZNS_8internal10sliced_forIZNS2_4packINS_16delayed_sequenceIllZNS2_10pack_indexIlNS_5sliceIPbS8_EEEEDaRKT0_jEUlmE_EES9_EENS_8sequenceINT_10value_typeENS_9allocatorISI_EEXsr3std7is_sameISI_cEE5valueEEERKSH_SD_jEUlmmmE_EEvmmSN_jEUlmE_EEvRNS_9schedulerINS_15WorkStealingJobEEEmmRSH_mb, symObjAddr: 0x611DC, symBinAddr: 0x100063584, symSize: 0x804 }
  - { offset: 0x1F2648, size: 0x8, addend: 0x0, symName: __ZN6parlay19fork_join_scheduler7parfor_IZNS_8internal10sliced_forIZNS2_4packINS_16delayed_sequenceIllZNS2_10pack_indexIlNS_5sliceIPbS8_EEEEDaRKT0_jEUlmE_EES9_EENS_8sequenceINT_10value_typeENS_9allocatorISI_EEXsr3std7is_sameISI_cEE5valueEEERKSH_SD_jEUlmmmE0_EEvmmSN_jEUlmE_EEvRNS_9schedulerINS_15WorkStealingJobEEEmmRSH_mb, symObjAddr: 0x60B64, symBinAddr: 0x100062F0C, symSize: 0x64C }
  - { offset: 0x1F3B1D, size: 0x8, addend: 0x0, symName: __Z12incrementMSTIldEvRN6parlay8sequenceI7clusterIT_T0_ENS0_9allocatorIS5_EEXsr3std7is_sameIS5_cEE5valueEEERKNS1_INSt3__15tupleIJS3_S3_S4_EEENS6_ISC_EEXsr3std7is_sameISC_cEE5valueEEE, symObjAddr: 0x2246C, symBinAddr: 0x100024814, symSize: 0x4BB4 }
  - { offset: 0x202E9F, size: 0x8, addend: 0x0, symName: __ZN6parlay19fork_join_scheduler7parfor_IZNS_8internal10sliced_forIZNS2_10filter_mapINS_5sliceIPNSt3__15tupleIJlldEEES9_EEZ12incrementMSTIldEvRNS_8sequenceI7clusterIT_T0_ENS_9allocatorISG_EEXsr3std7is_sameISG_cEE5valueEEERKNSC_INS7_IJSE_SE_SF_EEENSH_ISL_EEXsr3std7is_sameISL_cEE5valueEEEEUlSE_E_RZNS2_6filterISA_SQ_EENSC_INSE_10value_typeENSH_ISS_EEXsr3std7is_sameISS_cEE5valueEEERKSE_OSF_EUlOSE_E_EEDaSW_SX_OT1_EUlmmmE_EEvmmSW_jEUlmE_EEvRNS_9schedulerINS_15WorkStealingJobEEEmmRSE_mb, symObjAddr: 0x5B650, symBinAddr: 0x10005D9F8, symSize: 0x994 }
  - { offset: 0x2041DB, size: 0x8, addend: 0x0, symName: __ZN6parlay19fork_join_scheduler7parfor_IZNS_8internal10sliced_forIZNS2_10filter_mapINS_5sliceIPNSt3__15tupleIJlldEEES9_EEZ12incrementMSTIldEvRNS_8sequenceI7clusterIT_T0_ENS_9allocatorISG_EEXsr3std7is_sameISG_cEE5valueEEERKNSC_INS7_IJSE_SE_SF_EEENSH_ISL_EEXsr3std7is_sameISL_cEE5valueEEEEUlSE_E_RZNS2_6filterISA_SQ_EENSC_INSE_10value_typeENSH_ISS_EEXsr3std7is_sameISS_cEE5valueEEERKSE_OSF_EUlOSE_E_EEDaSW_SX_OT1_EUlmmmE0_EEvmmSW_jEUlmE_EEvRNS_9schedulerINS_15WorkStealingJobEEEmmRSE_mb, symObjAddr: 0x5AFA0, symBinAddr: 0x10005D348, symSize: 0x684 }
  - { offset: 0x2058D1, size: 0x8, addend: 0x0, symName: __ZN6parlay19fork_join_scheduler7parfor_IZNS_8sequenceINSt3__15tupleIJlldEEENS_9allocatorIS5_EELb0EEC1IZ12incrementMSTIldEvRNS2_I7clusterIT_T0_ENS6_ISE_EEXsr3std7is_sameISE_cEE5valueEEERKNS2_INS4_IJSC_SC_SD_EEENS6_ISI_EEXsr3std7is_sameISI_cEE5valueEEEEUllE0_EEmOSC_NS8_18_from_function_tagEmEUlmE_EEvRNS_9schedulerINS_15WorkStealingJobEEEmmRSC_mb, symObjAddr: 0x5C010, symBinAddr: 0x10005E3B8, symSize: 0x5E8 }
  - { offset: 0x206D52, size: 0x8, addend: 0x0, symName: __ZN6parlay19fork_join_scheduler7parfor_IZNS_8internal10sliced_forIZNS2_10filter_mapINS_5sliceIPNSt3__14pairIllEES9_EEZ12incrementMSTIldEvRNS_8sequenceI7clusterIT_T0_ENS_9allocatorISG_EEXsr3std7is_sameISG_cEE5valueEEERKNSC_INS6_5tupleIJSE_SE_SF_EEENSH_ISM_EEXsr3std7is_sameISM_cEE5valueEEEEUlSE_E0_RZNS2_6filterISA_SR_EENSC_INSE_10value_typeENSH_IST_EEXsr3std7is_sameIST_cEE5valueEEERKSE_OSF_EUlOSE_E_EEDaSX_SY_OT1_EUlmmmE_EEvmmSX_jEUlmE_EEvRNS_9schedulerINS_15WorkStealingJobEEEmmRSE_mb, symObjAddr: 0x5A134, symBinAddr: 0x10005C4DC, symSize: 0x86C }
  - { offset: 0x208083, size: 0x8, addend: 0x0, symName: __ZN6parlay19fork_join_scheduler7parfor_IZNS_8internal10sliced_forIZNS2_10filter_mapINS_5sliceIPNSt3__14pairIllEES9_EEZ12incrementMSTIldEvRNS_8sequenceI7clusterIT_T0_ENS_9allocatorISG_EEXsr3std7is_sameISG_cEE5valueEEERKNSC_INS6_5tupleIJSE_SE_SF_EEENSH_ISM_EEXsr3std7is_sameISM_cEE5valueEEEEUlSE_E0_RZNS2_6filterISA_SR_EENSC_INSE_10value_typeENSH_IST_EEXsr3std7is_sameIST_cEE5valueEEERKSE_OSF_EUlOSE_E_EEDaSX_SY_OT1_EUlmmmE0_EEvmmSX_jEUlmE_EEvRNS_9schedulerINS_15WorkStealingJobEEEmmRSE_mb, symObjAddr: 0x59AA0, symBinAddr: 0x10005BE48, symSize: 0x668 }
  - { offset: 0x209718, size: 0x8, addend: 0x0, symName: __ZN6parlay19fork_join_scheduler7parfor_IZNS_8sequenceINSt3__14pairIllEENS_9allocatorIS5_EELb0EEC1IZ12incrementMSTIldEvRNS2_I7clusterIT_T0_ENS6_ISE_EEXsr3std7is_sameISE_cEE5valueEEERKNS2_INS3_5tupleIJSC_SC_SD_EEENS6_ISJ_EEXsr3std7is_sameISJ_cEE5valueEEEEUllE1_EEmOSC_NS8_18_from_function_tagEmEUlmE_EEvRNS_9schedulerINS_15WorkStealingJobEEEmmRSC_mb, symObjAddr: 0x5A9CC, symBinAddr: 0x10005CD74, symSize: 0x5A8 }
  - { offset: 0x20AC5D, size: 0x8, addend: 0x0, symName: __ZN6parlay19fork_join_scheduler7parfor_IZNS_7flattenIP4nodeIldEEEDaONS_8sequenceINS7_IT_NS_9allocatorIS8_EEXsr3std7is_sameIS8_cEE5valueEEENS9_ISB_EEXsr3std7is_sameISB_cEE5valueEEEEUlmE0_EEvRNS_9schedulerINS_15WorkStealingJobEEEmmRS8_mb, symObjAddr: 0x57934, symBinAddr: 0x100059CDC, symSize: 0x618 }
  - { offset: 0x20C1B5, size: 0x8, addend: 0x0, symName: __ZN6parlay19fork_join_scheduler7parfor_IZNS_17sequence_internal13sequence_baseINS_8sequenceIP4nodeIldENS_9allocatorIS7_EELb0EEENS8_ISA_EELb0EE12storage_impl11destroy_allEvEUlmE_EEvRNS_9schedulerINS_15WorkStealingJobEEEmmRT_mb, symObjAddr: 0x571BC, symBinAddr: 0x100059564, symSize: 0x594 }
  - { offset: 0x20D51A, size: 0x8, addend: 0x0, symName: __ZN6parlay19fork_join_scheduler7parfor_IZNS_8sequenceINS2_IP4nodeIldENS_9allocatorIS5_EELb0EEENS6_IS8_EELb0EEC1IZ15batchInsertEdgeIldZ12incrementMSTIldEvRNS2_I7clusterIT_T0_ENS6_ISH_EEXsr3std7is_sameISH_cEE5valueEEERKNS2_INSt3__15tupleIJSF_SF_SG_EEENS6_ISN_EEXsr3std7is_sameISN_cEE5valueEEEEUlddE_EvRKNS2_INSL_4pairISF_SF_EENS6_ISU_EEXsr3std7is_sameISU_cEE5valueEEESR_SK_SG_T1_EUllE_EEmOSF_NSA_18_from_function_tagEmEUlmE_EEvRNS_9schedulerINS_15WorkStealingJobEEEmmRSF_mb, symObjAddr: 0x59354, symBinAddr: 0x10005B6FC, symSize: 0x59C }
  - { offset: 0x20E8D5, size: 0x8, addend: 0x0, symName: __ZN6parlay19fork_join_scheduler7parfor_IZNS_8internal10sliced_forIZNS2_10filter_mapINS_5sliceIPP4nodeIldES9_EEZ15batchInsertEdgeIldZ12incrementMSTIldEvRNS_8sequenceI7clusterIT_T0_ENS_9allocatorISH_EEXsr3std7is_sameISH_cEE5valueEEERKNSD_INSt3__15tupleIJSF_SF_SG_EEENSI_ISO_EEXsr3std7is_sameISO_cEE5valueEEEEUlddE_EvRKNSD_INSM_4pairISF_SF_EENSI_ISV_EEXsr3std7is_sameISV_cEE5valueEEESS_SL_SG_T1_EUlSF_E_RZNS2_6filterISA_S11_EENSD_INSF_10value_typeENSI_IS13_EEXsr3std7is_sameIS13_cEE5valueEEERKSF_OSG_EUlOSF_E_EEDaS17_S18_OS10_EUlmmmE_EEvmmS17_jEUlmE_EEvRNS_9schedulerINS_15WorkStealingJobEEEmmRSF_mb, symObjAddr: 0x56408, symBinAddr: 0x1000587B0, symSize: 0x630 }
  - { offset: 0x20FC04, size: 0x8, addend: 0x0, symName: __ZN6parlay19fork_join_scheduler7parfor_IZNS_8internal10sliced_forIZNS2_10filter_mapINS_5sliceIPP4nodeIldES9_EEZ15batchInsertEdgeIldZ12incrementMSTIldEvRNS_8sequenceI7clusterIT_T0_ENS_9allocatorISH_EEXsr3std7is_sameISH_cEE5valueEEERKNSD_INSt3__15tupleIJSF_SF_SG_EEENSI_ISO_EEXsr3std7is_sameISO_cEE5valueEEEEUlddE_EvRKNSD_INSM_4pairISF_SF_EENSI_ISV_EEXsr3std7is_sameISV_cEE5valueEEESS_SL_SG_T1_EUlSF_E_RZNS2_6filterISA_S11_EENSD_INSF_10value_typeENSI_IS13_EEXsr3std7is_sameIS13_cEE5valueEEERKSF_OSG_EUlOSF_E_EEDaS17_S18_OS10_EUlmmmE0_EEvmmS17_jEUlmE_EEvRNS_9schedulerINS_15WorkStealingJobEEEmmRSF_mb, symObjAddr: 0x55D74, symBinAddr: 0x10005811C, symSize: 0x668 }
  - { offset: 0x2112AB, size: 0x8, addend: 0x0, symName: __Z8get_3dp1IldEN6parlay8sequenceIP4nodeIT_T0_ENS0_9allocatorIS6_EEXsr3std7is_sameIS6_cEE5valueEEERS9_, symObjAddr: 0x39588, symBinAddr: 0x10003B930, symSize: 0x15EC }
  - { offset: 0x214E14, size: 0x8, addend: 0x0, symName: __ZN6parlay19fork_join_scheduler7parfor_IZNS_8sequenceINS2_IP4nodeIldENS_9allocatorIS5_EELb0EEENS6_IS8_EELb0EEC1IZ8get_3dp1IldENS2_IPS3_IT_T0_ENS6_ISG_EEXsr3std7is_sameISG_cEE5valueEEERSI_EUllE_EEmOSD_NSA_18_from_function_tagEmEUlmE_EEvRNS_9schedulerINS_15WorkStealingJobEEEmmRSD_mb, symObjAddr: 0x557A4, symBinAddr: 0x100057B4C, symSize: 0x5A4 }
  - { offset: 0x216195, size: 0x8, addend: 0x0, symName: __ZN6parlay19fork_join_scheduler7parfor_IZNS_8sequenceINS2_IP4nodeIldENS_9allocatorIS5_EELb0EEENS6_IS8_EELb0EEC1IZ8get_3dp1IldENS2_IPS3_IT_T0_ENS6_ISG_EEXsr3std7is_sameISG_cEE5valueEEERSI_EUllE0_EEmOSD_NSA_18_from_function_tagEmEUlmE_EEvRNS_9schedulerINS_15WorkStealingJobEEEmmRSD_mb, symObjAddr: 0x54E68, symBinAddr: 0x100057210, symSize: 0x5A4 }
  - { offset: 0x21763A, size: 0x8, addend: 0x0, symName: __ZN6parlay19fork_join_scheduler7parfor_IZNS_8internal10sliced_forIZNS2_10filter_mapINS_5sliceIPP4nodeIldES9_EEZ8tiebreakIldENS_8sequenceIPS6_IT_T0_ENS_9allocatorISG_EEXsr3std7is_sameISG_cEE5valueEEERSJ_EUlSD_E_RZNS2_6filterISA_SL_EENSC_INSD_10value_typeENSH_ISN_EEXsr3std7is_sameISN_cEE5valueEEERKSD_OSE_EUlOSD_E_EEDaSR_SS_OT1_EUlmmmE_EEvmmSR_jEUlmE_EEvRNS_9schedulerINS_15WorkStealingJobEEEmmRSD_mb, symObjAddr: 0x533D4, symBinAddr: 0x10005577C, symSize: 0x924 }
  - { offset: 0x218969, size: 0x8, addend: 0x0, symName: __ZN6parlay19fork_join_scheduler7parfor_IZNS_8internal10sliced_forIZNS2_10filter_mapINS_5sliceIPP4nodeIldES9_EEZ8tiebreakIldENS_8sequenceIPS6_IT_T0_ENS_9allocatorISG_EEXsr3std7is_sameISG_cEE5valueEEERSJ_EUlSD_E_RZNS2_6filterISA_SL_EENSC_INSD_10value_typeENSH_ISN_EEXsr3std7is_sameISN_cEE5valueEEERKSD_OSE_EUlOSD_E_EEDaSR_SS_OT1_EUlmmmE0_EEvmmSR_jEUlmE_EEvRNS_9schedulerINS_15WorkStealingJobEEEmmRSD_mb, symObjAddr: 0x52D40, symBinAddr: 0x1000550E8, symSize: 0x668 }
  - { offset: 0x21A1F2, size: 0x8, addend: 0x0, symName: __ZN6parlay19fork_join_scheduler7parfor_IZNS_8sequenceI14edge_with_flagINSt3__15tupleIJlldEEEENS_9allocatorIS7_EELb0EEC1IZ15batchInsertEdgeIldZ12incrementMSTIldEvRNS2_I7clusterIT_T0_ENS8_ISH_EEXsr3std7is_sameISH_cEE5valueEEERKNS2_INS5_IJSF_SF_SG_EEENS8_ISL_EEXsr3std7is_sameISL_cEE5valueEEEEUlddE_EvRKNS2_INS4_4pairISF_SF_EENS8_ISS_EEXsr3std7is_sameISS_cEE5valueEEESP_SK_SG_T1_EUllE2_EEmOSF_NSA_18_from_function_tagEmEUlmE_EEvRNS_9schedulerINS_15WorkStealingJobEEEmmRSF_mb, symObjAddr: 0x5206C, symBinAddr: 0x100054414, symSize: 0x5AC }
  - { offset: 0x21B5D2, size: 0x8, addend: 0x0, symName: __ZN6parlay19fork_join_scheduler7parfor_IZ15batchInsertEdgeIldZ12incrementMSTIldEvRNS_8sequenceI7clusterIT_T0_ENS_9allocatorIS8_EEXsr3std7is_sameIS8_cEE5valueEEERKNS4_INSt3__15tupleIJS6_S6_S7_EEENS9_ISF_EEXsr3std7is_sameISF_cEE5valueEEEEUlddE_EvRKNS4_INSD_4pairIS6_S6_EENS9_ISM_EEXsr3std7is_sameISM_cEE5valueEEESJ_SC_S7_T1_EUllE3_EEvRNS_9schedulerINS_15WorkStealingJobEEEmmRS6_mb, symObjAddr: 0x51364, symBinAddr: 0x10005370C, symSize: 0x5B4 }
  - { offset: 0x21C888, size: 0x8, addend: 0x0, symName: __ZN6parlay19fork_join_scheduler7parfor_IZNS_8internal10sliced_forIZNS2_10filter_mapINS_5sliceIP14edge_with_flagINSt3__15tupleIJlldEEEESB_EEZ15batchInsertEdgeIldZ12incrementMSTIldEvRNS_8sequenceI7clusterIT_T0_ENS_9allocatorISJ_EEXsr3std7is_sameISJ_cEE5valueEEERKNSF_INS8_IJSH_SH_SI_EEENSK_ISO_EEXsr3std7is_sameISO_cEE5valueEEEEUlddE_EvRKNSF_INS7_4pairISH_SH_EENSK_ISV_EEXsr3std7is_sameISV_cEE5valueEEESS_SN_SI_T1_EUlSH_E0_RZNS2_6filterISC_S11_EENSF_INSH_10value_typeENSK_IS13_EEXsr3std7is_sameIS13_cEE5valueEEERKSH_OSI_EUlOSH_E_EEDaS17_S18_OS10_EUlmmmE_EEvmmS17_jEUlmE_EEvRNS_9schedulerINS_15WorkStealingJobEEEmmRSH_mb, symObjAddr: 0x501E0, symBinAddr: 0x100052588, symSize: 0x99C }
  - { offset: 0x21DBBD, size: 0x8, addend: 0x0, symName: __ZN6parlay19fork_join_scheduler7parfor_IZNS_8internal10sliced_forIZNS2_10filter_mapINS_5sliceIP14edge_with_flagINSt3__15tupleIJlldEEEESB_EEZ15batchInsertEdgeIldZ12incrementMSTIldEvRNS_8sequenceI7clusterIT_T0_ENS_9allocatorISJ_EEXsr3std7is_sameISJ_cEE5valueEEERKNSF_INS8_IJSH_SH_SI_EEENSK_ISO_EEXsr3std7is_sameISO_cEE5valueEEEEUlddE_EvRKNSF_INS7_4pairISH_SH_EENSK_ISV_EEXsr3std7is_sameISV_cEE5valueEEESS_SN_SI_T1_EUlSH_E0_RZNS2_6filterISC_S11_EENSF_INSH_10value_typeENSK_IS13_EEXsr3std7is_sameIS13_cEE5valueEEERKSH_OSI_EUlOSH_E_EEDaS17_S18_OS10_EUlmmmE0_EEvmmS17_jEUlmE_EEvRNS_9schedulerINS_15WorkStealingJobEEEmmRSH_mb, symObjAddr: 0x4FB44, symBinAddr: 0x100051EEC, symSize: 0x670 }
  - { offset: 0x21F26B, size: 0x8, addend: 0x0, symName: __ZN6parlay19fork_join_scheduler7parfor_IZ15batchInsertEdgeIldZ12incrementMSTIldEvRNS_8sequenceI7clusterIT_T0_ENS_9allocatorIS8_EEXsr3std7is_sameIS8_cEE5valueEEERKNS4_INSt3__15tupleIJS6_S6_S7_EEENS9_ISF_EEXsr3std7is_sameISF_cEE5valueEEEEUlddE_EvRKNS4_INSD_4pairIS6_S6_EENS9_ISM_EEXsr3std7is_sameISM_cEE5valueEEESJ_SC_S7_T1_EUllE5_EEvRNS_9schedulerINS_15WorkStealingJobEEEmmRS6_mb, symObjAddr: 0x4F564, symBinAddr: 0x10005190C, symSize: 0x5B4 }
  - { offset: 0x2204FD, size: 0x8, addend: 0x0, symName: __ZN6parlay19fork_join_scheduler7parfor_IZNS_8internal10sliced_forIZNS2_10filter_mapINS_5sliceIP14edge_with_flagINSt3__15tupleIJlldEEEESB_EEZ15batchInsertEdgeIldZ12incrementMSTIldEvRNS_8sequenceI7clusterIT_T0_ENS_9allocatorISJ_EEXsr3std7is_sameISJ_cEE5valueEEERKNSF_INS8_IJSH_SH_SI_EEENSK_ISO_EEXsr3std7is_sameISO_cEE5valueEEEEUlddE_EvRKNSF_INS7_4pairISH_SH_EENSK_ISV_EEXsr3std7is_sameISV_cEE5valueEEESS_SN_SI_T1_EUlSH_E1_RZNS2_6filterISC_S11_EENSF_INSH_10value_typeENSK_IS13_EEXsr3std7is_sameIS13_cEE5valueEEERKSH_OSI_EUlOSH_E_EEDaS17_S18_OS10_EUlmmmE_EEvmmS17_jEUlmE_EEvRNS_9schedulerINS_15WorkStealingJobEEEmmRSH_mb, symObjAddr: 0x4E4A0, symBinAddr: 0x100050848, symSize: 0x99C }
  - { offset: 0x22182C, size: 0x8, addend: 0x0, symName: __ZN6parlay19fork_join_scheduler7parfor_IZNS_8internal10sliced_forIZNS2_10filter_mapINS_5sliceIP14edge_with_flagINSt3__15tupleIJlldEEEESB_EEZ15batchInsertEdgeIldZ12incrementMSTIldEvRNS_8sequenceI7clusterIT_T0_ENS_9allocatorISJ_EEXsr3std7is_sameISJ_cEE5valueEEERKNSF_INS8_IJSH_SH_SI_EEENSK_ISO_EEXsr3std7is_sameISO_cEE5valueEEEEUlddE_EvRKNSF_INS7_4pairISH_SH_EENSK_ISV_EEXsr3std7is_sameISV_cEE5valueEEESS_SN_SI_T1_EUlSH_E1_RZNS2_6filterISC_S11_EENSF_INSH_10value_typeENSK_IS13_EEXsr3std7is_sameIS13_cEE5valueEEERKSH_OSI_EUlOSH_E_EEDaS17_S18_OS10_EUlmmmE0_EEvmmS17_jEUlmE_EEvRNS_9schedulerINS_15WorkStealingJobEEEmmRSH_mb, symObjAddr: 0x4DE04, symBinAddr: 0x1000501AC, symSize: 0x670 }
  - { offset: 0x222EEC, size: 0x8, addend: 0x0, symName: __ZN6parlay19fork_join_scheduler7parfor_IZNS_8internal10sliced_forIZNS2_10filter_mapINS_5sliceIPP4nodeIldES9_EEZ15batchInsertEdgeIldZ12incrementMSTIldEvRNS_8sequenceI7clusterIT_T0_ENS_9allocatorISH_EEXsr3std7is_sameISH_cEE5valueEEERKNSD_INSt3__15tupleIJSF_SF_SG_EEENSI_ISO_EEXsr3std7is_sameISO_cEE5valueEEEEUlddE_EvRKNSD_INSM_4pairISF_SF_EENSI_ISV_EEXsr3std7is_sameISV_cEE5valueEEESS_SL_SG_T1_EUlSF_E2_RZNS2_6filterISA_S11_EENSD_INSF_10value_typeENSI_IS13_EEXsr3std7is_sameIS13_cEE5valueEEERKSF_OSG_EUlOSF_E_EEDaS17_S18_OS10_EUlmmmE_EEvmmS17_jEUlmE_EEvRNS_9schedulerINS_15WorkStealingJobEEEmmRSF_mb, symObjAddr: 0x4D4D4, symBinAddr: 0x10004F87C, symSize: 0x780 }
  - { offset: 0x2244C9, size: 0x8, addend: 0x0, symName: __ZN6parlay19fork_join_scheduler7parfor_IZNS_8internal10sliced_forIZNS2_10filter_mapINS_5sliceIPP4nodeIldES9_EEZ15batchInsertEdgeIldZ12incrementMSTIldEvRNS_8sequenceI7clusterIT_T0_ENS_9allocatorISH_EEXsr3std7is_sameISH_cEE5valueEEERKNSD_INSt3__15tupleIJSF_SF_SG_EEENSI_ISO_EEXsr3std7is_sameISO_cEE5valueEEEEUlddE_EvRKNSD_INSM_4pairISF_SF_EENSI_ISV_EEXsr3std7is_sameISV_cEE5valueEEESS_SL_SG_T1_EUlSF_E2_RZNS2_6filterISA_S11_EENSD_INSF_10value_typeENSI_IS13_EEXsr3std7is_sameIS13_cEE5valueEEERKSF_OSG_EUlOSF_E_EEDaS17_S18_OS10_EUlmmmE0_EEvmmS17_jEUlmE_EEvRNS_9schedulerINS_15WorkStealingJobEEEmmRSF_mb, symObjAddr: 0x4CE40, symBinAddr: 0x10004F1E8, symSize: 0x668 }
  - { offset: 0x225D7B, size: 0x8, addend: 0x0, symName: __ZN6parlay19fork_join_scheduler7parfor_IZ28create_decompressed_affectedIldEvRNS_8sequenceIP4nodeIT_T0_ENS_9allocatorIS8_EEXsr3std7is_sameIS8_cEE5valueEEEEUllE2_EEvRNS_9schedulerINS_15WorkStealingJobEEEmmRS5_mb, symObjAddr: 0x4B2F4, symBinAddr: 0x10004D69C, symSize: 0x608 }
  - { offset: 0x22709C, size: 0x8, addend: 0x0, symName: __ZN6parlay19fork_join_scheduler7parfor_IZNS_8internal10sliced_forIZNS2_10filter_mapINS_5sliceIPP4nodeIldES9_EEZ15batchInsertEdgeIldZ12incrementMSTIldEvRNS_8sequenceI7clusterIT_T0_ENS_9allocatorISH_EEXsr3std7is_sameISH_cEE5valueEEERKNSD_INSt3__15tupleIJSF_SF_SG_EEENSI_ISO_EEXsr3std7is_sameISO_cEE5valueEEEEUlddE_EvRKNSD_INSM_4pairISF_SF_EENSI_ISV_EEXsr3std7is_sameISV_cEE5valueEEESS_SL_SG_T1_EUlSF_E3_RZNS2_6filterISA_S11_EENSD_INSF_10value_typeENSI_IS13_EEXsr3std7is_sameIS13_cEE5valueEEERKSF_OSG_EUlOSF_E_EEDaS17_S18_OS10_EUlmmmE_EEvmmS17_jEUlmE_EEvRNS_9schedulerINS_15WorkStealingJobEEEmmRSF_mb, symObjAddr: 0x49078, symBinAddr: 0x10004B420, symSize: 0x740 }
  - { offset: 0x22847A, size: 0x8, addend: 0x0, symName: __ZN6parlay19fork_join_scheduler7parfor_IZNS_8internal10sliced_forIZNS2_10filter_mapINS_5sliceIPP4nodeIldES9_EEZ15batchInsertEdgeIldZ12incrementMSTIldEvRNS_8sequenceI7clusterIT_T0_ENS_9allocatorISH_EEXsr3std7is_sameISH_cEE5valueEEERKNSD_INSt3__15tupleIJSF_SF_SG_EEENSI_ISO_EEXsr3std7is_sameISO_cEE5valueEEEEUlddE_EvRKNSD_INSM_4pairISF_SF_EENSI_ISV_EEXsr3std7is_sameISV_cEE5valueEEESS_SL_SG_T1_EUlSF_E3_RZNS2_6filterISA_S11_EENSD_INSF_10value_typeENSI_IS13_EEXsr3std7is_sameIS13_cEE5valueEEERKSF_OSG_EUlOSF_E_EEDaS17_S18_OS10_EUlmmmE0_EEvmmS17_jEUlmE_EEvRNS_9schedulerINS_15WorkStealingJobEEEmmRSF_mb, symObjAddr: 0x488B4, symBinAddr: 0x10004AC5C, symSize: 0x668 }
  - { offset: 0x229AF0, size: 0x8, addend: 0x0, symName: __ZN6parlay19fork_join_scheduler7parfor_IZNS_8internal10sliced_forIZNS2_10filter_mapINS_5sliceIPP4nodeIldES9_EEZ15batchInsertEdgeIldZ12incrementMSTIldEvRNS_8sequenceI7clusterIT_T0_ENS_9allocatorISH_EEXsr3std7is_sameISH_cEE5valueEEERKNSD_INSt3__15tupleIJSF_SF_SG_EEENSI_ISO_EEXsr3std7is_sameISO_cEE5valueEEEEUlddE_EvRKNSD_INSM_4pairISF_SF_EENSI_ISV_EEXsr3std7is_sameISV_cEE5valueEEESS_SL_SG_T1_EUlSF_E4_RZNS2_6filterISA_S11_EENSD_INSF_10value_typeENSI_IS13_EEXsr3std7is_sameIS13_cEE5valueEEERKSF_OSG_EUlOSF_E_EEDaS17_S18_OS10_EUlmmmE_EEvmmS17_jEUlmE_EEvRNS_9schedulerINS_15WorkStealingJobEEEmmRSF_mb, symObjAddr: 0x48228, symBinAddr: 0x10004A5D0, symSize: 0x660 }
  - { offset: 0x22AE87, size: 0x8, addend: 0x0, symName: __ZN6parlay19fork_join_scheduler7parfor_IZNS_8internal10sliced_forIZNS2_10filter_mapINS_5sliceIPP4nodeIldES9_EEZ15batchInsertEdgeIldZ12incrementMSTIldEvRNS_8sequenceI7clusterIT_T0_ENS_9allocatorISH_EEXsr3std7is_sameISH_cEE5valueEEERKNSD_INSt3__15tupleIJSF_SF_SG_EEENSI_ISO_EEXsr3std7is_sameISO_cEE5valueEEEEUlddE_EvRKNSD_INSM_4pairISF_SF_EENSI_ISV_EEXsr3std7is_sameISV_cEE5valueEEESS_SL_SG_T1_EUlSF_E4_RZNS2_6filterISA_S11_EENSD_INSF_10value_typeENSI_IS13_EEXsr3std7is_sameIS13_cEE5valueEEERKSF_OSG_EUlOSF_E_EEDaS17_S18_OS10_EUlmmmE0_EEvmmS17_jEUlmE_EEvRNS_9schedulerINS_15WorkStealingJobEEEmmRSF_mb, symObjAddr: 0x47B94, symBinAddr: 0x100049F3C, symSize: 0x668 }
  - { offset: 0x22C4FD, size: 0x8, addend: 0x0, symName: __ZN6parlay19fork_join_scheduler7parfor_IZNS_8internal10sliced_forIZNS2_10filter_mapINS_5sliceIPP4nodeIldES9_EEZ15batchInsertEdgeIldZ12incrementMSTIldEvRNS_8sequenceI7clusterIT_T0_ENS_9allocatorISH_EEXsr3std7is_sameISH_cEE5valueEEERKNSD_INSt3__15tupleIJSF_SF_SG_EEENSI_ISO_EEXsr3std7is_sameISO_cEE5valueEEEEUlddE_EvRKNSD_INSM_4pairISF_SF_EENSI_ISV_EEXsr3std7is_sameISV_cEE5valueEEESS_SL_SG_T1_EUlSF_E5_RZNS2_6filterISA_S11_EENSD_INSF_10value_typeENSI_IS13_EEXsr3std7is_sameIS13_cEE5valueEEERKSF_OSG_EUlOSF_E_EEDaS17_S18_OS10_EUlmmmE_EEvmmS17_jEUlmE_EEvRNS_9schedulerINS_15WorkStealingJobEEEmmRSF_mb, symObjAddr: 0x43020, symBinAddr: 0x1000453C8, symSize: 0x6B0 }
  - { offset: 0x22D826, size: 0x8, addend: 0x0, symName: __ZN6parlay19fork_join_scheduler7parfor_IZNS_8internal10sliced_forIZNS2_10filter_mapINS_5sliceIPP4nodeIldES9_EEZ15batchInsertEdgeIldZ12incrementMSTIldEvRNS_8sequenceI7clusterIT_T0_ENS_9allocatorISH_EEXsr3std7is_sameISH_cEE5valueEEERKNSD_INSt3__15tupleIJSF_SF_SG_EEENSI_ISO_EEXsr3std7is_sameISO_cEE5valueEEEEUlddE_EvRKNSD_INSM_4pairISF_SF_EENSI_ISV_EEXsr3std7is_sameISV_cEE5valueEEESS_SL_SG_T1_EUlSF_E5_RZNS2_6filterISA_S11_EENSD_INSF_10value_typeENSI_IS13_EEXsr3std7is_sameIS13_cEE5valueEEERKSF_OSG_EUlOSF_E_EEDaS17_S18_OS10_EUlmmmE0_EEvmmS17_jEUlmE_EEvRNS_9schedulerINS_15WorkStealingJobEEEmmRSF_mb, symObjAddr: 0x4298C, symBinAddr: 0x100044D34, symSize: 0x668 }
  - { offset: 0x22EE90, size: 0x8, addend: 0x0, symName: __ZN6parlay19fork_join_scheduler7parfor_IZ15batchInsertEdgeIldZ12incrementMSTIldEvRNS_8sequenceI7clusterIT_T0_ENS_9allocatorIS8_EEXsr3std7is_sameIS8_cEE5valueEEERKNS4_INSt3__15tupleIJS6_S6_S7_EEENS9_ISF_EEXsr3std7is_sameISF_cEE5valueEEEEUlddE_EvRKNS4_INSD_4pairIS6_S6_EENS9_ISM_EEXsr3std7is_sameISM_cEE5valueEEESJ_SC_S7_T1_EUllE9_EEvRNS_9schedulerINS_15WorkStealingJobEEEmmRS6_mb, symObjAddr: 0x42358, symBinAddr: 0x100044700, symSize: 0x608 }
  - { offset: 0x230245, size: 0x8, addend: 0x0, symName: __ZN6parlay19fork_join_scheduler7parfor_IZ15batchInsertEdgeIldZ12incrementMSTIldEvRNS_8sequenceI7clusterIT_T0_ENS_9allocatorIS8_EEXsr3std7is_sameIS8_cEE5valueEEERKNS4_INSt3__15tupleIJS6_S6_S7_EEENS9_ISF_EEXsr3std7is_sameISF_cEE5valueEEEEUlddE_EvRKNS4_INSD_4pairIS6_S6_EENS9_ISM_EEXsr3std7is_sameISM_cEE5valueEEESJ_SC_S7_T1_EUllE11_EEvRNS_9schedulerINS_15WorkStealingJobEEEmmRS6_mb, symObjAddr: 0x40CC8, symBinAddr: 0x100043070, symSize: 0x5D8 }
  - { offset: 0x23162B, size: 0x8, addend: 0x0, symName: __ZN6parlay19fork_join_scheduler7parfor_IZNS_8internal10sliced_forIZNS2_10filter_mapINS_5sliceIPP4nodeIldES9_EEZ15batchInsertEdgeIldZ12incrementMSTIldEvRNS_8sequenceI7clusterIT_T0_ENS_9allocatorISH_EEXsr3std7is_sameISH_cEE5valueEEERKNSD_INSt3__15tupleIJSF_SF_SG_EEENSI_ISO_EEXsr3std7is_sameISO_cEE5valueEEEEUlddE_EvRKNSD_INSM_4pairISF_SF_EENSI_ISV_EEXsr3std7is_sameISV_cEE5valueEEESS_SL_SG_T1_EUlSF_E6_RZNS2_6filterISA_S11_EENSD_INSF_10value_typeENSI_IS13_EEXsr3std7is_sameIS13_cEE5valueEEERKSF_OSG_EUlOSF_E_EEDaS17_S18_OS10_EUlmmmE_EEvmmS17_jEUlmE_EEvRNS_9schedulerINS_15WorkStealingJobEEEmmRSF_mb, symObjAddr: 0x405E0, symBinAddr: 0x100042988, symSize: 0x6BC }
  - { offset: 0x23294A, size: 0x8, addend: 0x0, symName: __ZN6parlay19fork_join_scheduler7parfor_IZNS_8internal10sliced_forIZNS2_10filter_mapINS_5sliceIPP4nodeIldES9_EEZ15batchInsertEdgeIldZ12incrementMSTIldEvRNS_8sequenceI7clusterIT_T0_ENS_9allocatorISH_EEXsr3std7is_sameISH_cEE5valueEEERKNSD_INSt3__15tupleIJSF_SF_SG_EEENSI_ISO_EEXsr3std7is_sameISO_cEE5valueEEEEUlddE_EvRKNSD_INSM_4pairISF_SF_EENSI_ISV_EEXsr3std7is_sameISV_cEE5valueEEESS_SL_SG_T1_EUlSF_E6_RZNS2_6filterISA_S11_EENSD_INSF_10value_typeENSI_IS13_EEXsr3std7is_sameIS13_cEE5valueEEERKSF_OSG_EUlOSF_E_EEDaS17_S18_OS10_EUlmmmE0_EEvmmS17_jEUlmE_EEvRNS_9schedulerINS_15WorkStealingJobEEEmmRSF_mb, symObjAddr: 0x3FF4C, symBinAddr: 0x1000422F4, symSize: 0x668 }
  - { offset: 0x233FC0, size: 0x8, addend: 0x0, symName: __ZN6parlay19fork_join_scheduler7parfor_IZNS_8internal10sliced_forIZNS2_10filter_mapINS_5sliceIPP4nodeIldES9_EEZ15batchInsertEdgeIldZ12incrementMSTIldEvRNS_8sequenceI7clusterIT_T0_ENS_9allocatorISH_EEXsr3std7is_sameISH_cEE5valueEEERKNSD_INSt3__15tupleIJSF_SF_SG_EEENSI_ISO_EEXsr3std7is_sameISO_cEE5valueEEEEUlddE_EvRKNSD_INSM_4pairISF_SF_EENSI_ISV_EEXsr3std7is_sameISV_cEE5valueEEESS_SL_SG_T1_EUlSF_E7_RZNS2_6filterISA_S11_EENSD_INSF_10value_typeENSI_IS13_EEXsr3std7is_sameIS13_cEE5valueEEERKSF_OSG_EUlOSF_E_EEDaS17_S18_OS10_EUlmmmE_EEvmmS17_jEUlmE_EEvRNS_9schedulerINS_15WorkStealingJobEEEmmRSF_mb, symObjAddr: 0x3F7A0, symBinAddr: 0x100041B48, symSize: 0x780 }
  - { offset: 0x23559D, size: 0x8, addend: 0x0, symName: __ZN6parlay19fork_join_scheduler7parfor_IZNS_8internal10sliced_forIZNS2_10filter_mapINS_5sliceIPP4nodeIldES9_EEZ15batchInsertEdgeIldZ12incrementMSTIldEvRNS_8sequenceI7clusterIT_T0_ENS_9allocatorISH_EEXsr3std7is_sameISH_cEE5valueEEERKNSD_INSt3__15tupleIJSF_SF_SG_EEENSI_ISO_EEXsr3std7is_sameISO_cEE5valueEEEEUlddE_EvRKNSD_INSM_4pairISF_SF_EENSI_ISV_EEXsr3std7is_sameISV_cEE5valueEEESS_SL_SG_T1_EUlSF_E7_RZNS2_6filterISA_S11_EENSD_INSF_10value_typeENSI_IS13_EEXsr3std7is_sameIS13_cEE5valueEEERKSF_OSG_EUlOSF_E_EEDaS17_S18_OS10_EUlmmmE0_EEvmmS17_jEUlmE_EEvRNS_9schedulerINS_15WorkStealingJobEEEmmRSF_mb, symObjAddr: 0x3EFC0, symBinAddr: 0x100041368, symSize: 0x668 }
  - { offset: 0x236C01, size: 0x8, addend: 0x0, symName: __ZN6parlay19fork_join_scheduler7parfor_IZ15batchInsertEdgeIldZ12incrementMSTIldEvRNS_8sequenceI7clusterIT_T0_ENS_9allocatorIS8_EEXsr3std7is_sameIS8_cEE5valueEEERKNS4_INSt3__15tupleIJS6_S6_S7_EEENS9_ISF_EEXsr3std7is_sameISF_cEE5valueEEEEUlddE_EvRKNS4_INSD_4pairIS6_S6_EENS9_ISM_EEXsr3std7is_sameISM_cEE5valueEEESJ_SC_S7_T1_EUllE12_EEvRNS_9schedulerINS_15WorkStealingJobEEEmmRS6_mb, symObjAddr: 0x3E048, symBinAddr: 0x1000403F0, symSize: 0xDC8 }
  - { offset: 0x23904C, size: 0x8, addend: 0x0, symName: __ZN6parlay8internal14pool_allocatorC2ERKNSt3__16vectorImNS2_9allocatorImEEEE, symObjAddr: 0xB718, symBinAddr: 0x10000DBE4, symSize: 0x4E8 }
  - { offset: 0x23A08E, size: 0x8, addend: 0x0, symName: __ZNKSt3__112basic_stringIcNS_11char_traitsIcEENS_9allocatorIcEEE20__throw_length_errorB8ue170006Ev, symObjAddr: 0x43F0, symBinAddr: 0x1000069E0, symSize: 0x14 }
  - { offset: 0x23A0B3, size: 0x8, addend: 0x0, symName: __ZNSt3__120__throw_length_errorB8ue170006EPKc, symObjAddr: 0x4404, symBinAddr: 0x1000069F4, symSize: 0x50 }
  - { offset: 0x23B072, size: 0x8, addend: 0x0, symName: __ZNSt3__16threadC2IZN6parlay9schedulerINS2_15WorkStealingJobEEC1EmEUlvE_JEvEEOT_DpOT0_, symObjAddr: 0xABBC, symBinAddr: 0x10000D09C, symSize: 0xC4 }
  - { offset: 0x23B3DE, size: 0x8, addend: 0x0, symName: __ZNSt3__114__split_bufferINS_6threadERNS_9allocatorIS1_EEED1Ev, symObjAddr: 0xAD24, symBinAddr: 0x10000D1F0, symSize: 0x50 }
  - { offset: 0x23B3E9, size: 0x8, addend: 0x0, symName: __ZNKSt3__16vectorIN6parlay8internal5DequeINS1_15WorkStealingJobEEENS_9allocatorIS5_EEE20__throw_length_errorB8ue170006Ev, symObjAddr: 0xABA8, symBinAddr: 0x10000D088, symSize: 0x14 }
  - { offset: 0x23B40E, size: 0x8, addend: 0x0, symName: __ZNSt3__16threadC2IZN6parlay9schedulerINS2_15WorkStealingJobEEC1EmEUlvE_JEvEEOT_DpOT0_, symObjAddr: 0xABBC, symBinAddr: 0x10000D09C, symSize: 0xC4 }
  - { offset: 0x23B419, size: 0x8, addend: 0x0, symName: __ZNSt3__114__split_bufferINS_6threadERNS_9allocatorIS1_EEED1Ev, symObjAddr: 0xAD24, symBinAddr: 0x10000D1F0, symSize: 0x50 }
  - { offset: 0x23B58B, size: 0x8, addend: 0x0, symName: __ZNSt3__16vectorINS_6threadENS_9allocatorIS1_EEED1B8ue170006Ev, symObjAddr: 0xAC80, symBinAddr: 0x10000D160, symSize: 0x90 }
  - { offset: 0x23B9F0, size: 0x8, addend: 0x0, symName: __ZN6parlay9schedulerINS_15WorkStealingJobEED1Ev, symObjAddr: 0x614, symBinAddr: 0x100002C04, symSize: 0x1DC }
  - { offset: 0x23C300, size: 0x8, addend: 0x0, symName: __ZNSt3__116allocator_traitsIN6parlay9allocatorISt4byteEEE10deallocateB8ue170006ERS4_PS3_m, symObjAddr: 0x7F0, symBinAddr: 0x100002DE0, symSize: 0xF4 }
  - { offset: 0x23C522, size: 0x8, addend: 0x0, symName: __ZN6parlay8internal15block_allocator4freeEPv, symObjAddr: 0xAAC0, symBinAddr: 0x10000CFA0, symSize: 0xE8 }
  - { offset: 0x23C6CB, size: 0x8, addend: 0x0, symName: __ZN6parlay8internal12hazptr_stackIPvE4pushES2_, symObjAddr: 0xA8D8, symBinAddr: 0x10000CDB8, symSize: 0x1E8 }
  - { offset: 0x23CE6E, size: 0x8, addend: 0x0, symName: __ZN6parlay9allocatorISt4byteE8allocateEm, symObjAddr: 0x8E4, symBinAddr: 0x100002ED4, symSize: 0xF8 }
  - { offset: 0x23D0C1, size: 0x8, addend: 0x0, symName: __ZN6parlay8internal12hazptr_stackIPvE3popEv, symObjAddr: 0x62F4, symBinAddr: 0x1000088E4, symSize: 0xB30 }
  - { offset: 0x23FA82, size: 0x8, addend: 0x0, symName: __ZN6parlay8internal15block_allocator5allocEv, symObjAddr: 0x6E24, symBinAddr: 0x100009414, symSize: 0x1C0 }
  - { offset: 0x23FD84, size: 0x8, addend: 0x0, symName: __ZN6parlay14ThreadSpecificINS_8internal15block_allocator10local_listEE3getEv, symObjAddr: 0x6FE4, symBinAddr: 0x1000095D4, symSize: 0x174 }
  - { offset: 0x23FE3F, size: 0x8, addend: 0x0, symName: __ZNSt3__125__independent_bits_engineINS_23mersenne_twister_engineIjLm32ELm624ELm397ELm31ELj2567483615ELm11ELj4294967295ELm7ELj2636928640ELm15ELj4022730752ELm18ELj1812433253EEEmE6__evalENS_17integral_constantIbLb1EEE, symObjAddr: 0xB7C, symBinAddr: 0x10000316C, symSize: 0x318 }
  - { offset: 0x240C47, size: 0x8, addend: 0x0, symName: __ZN6parlay9schedulerINS_15WorkStealingJobEE5spawnEPS1_, symObjAddr: 0x41A8, symBinAddr: 0x100006798, symSize: 0x12C }
  - { offset: 0x240FCA, size: 0x8, addend: 0x0, symName: __ZNSt3__1lsB8ue170006INS_11char_traitsIcEEEERNS_13basic_ostreamIcT_EES6_PKc, symObjAddr: 0x42D4, symBinAddr: 0x1000068C4, symSize: 0x34 }
  - { offset: 0x2414AC, size: 0x8, addend: 0x0, symName: __ZN6parlay8sequenceImNS_9allocatorImEELb0EEC2Em, symObjAddr: 0x143C, symBinAddr: 0x100003A2C, symSize: 0x338 }
  - { offset: 0x241B66, size: 0x8, addend: 0x0, symName: __ZN6parlay19fork_join_scheduler5pardoIZNS0_7parfor_IZNS_8sequenceImNS_9allocatorImEELb0EE18initialize_defaultEmEUlmE_EEvRNS_9schedulerINS_15WorkStealingJobEEEmmRT_mbEUlvE_ZNS2_IS7_EEvSB_mmSD_mbEUlvE0_EEvSB_OSC_OT0_b, symObjAddr: 0x5B70, symBinAddr: 0x100008160, symSize: 0x688 }
  - { offset: 0x2431DE, size: 0x8, addend: 0x0, symName: __ZN6parlay8sequenceIbNS_9allocatorIbEELb0EEC2Em, symObjAddr: 0x1774, symBinAddr: 0x100003D64, symSize: 0x334 }
  - { offset: 0x243898, size: 0x8, addend: 0x0, symName: __ZN6parlay19fork_join_scheduler5pardoIZNS0_7parfor_IZNS_8sequenceIbNS_9allocatorIbEELb0EE18initialize_defaultEmEUlmE_EEvRNS_9schedulerINS_15WorkStealingJobEEEmmRT_mbEUlvE_ZNS2_IS7_EEvSB_mmSD_mbEUlvE0_EEvSB_OSC_OT0_b, symObjAddr: 0x5494, symBinAddr: 0x100007A84, symSize: 0x610 }
  - { offset: 0x2452F8, size: 0x8, addend: 0x0, symName: __ZN6parlay8sequenceImNS_9allocatorImEELb0EEC2EmNS3_18_uninitialized_tagE, symObjAddr: 0x44A4, symBinAddr: 0x100006A94, symSize: 0x184 }
  - { offset: 0x2458D8, size: 0x8, addend: 0x0, symName: __ZN6parlay8sequenceINSt3__15tupleIJlldEEENS_9allocatorIS3_EELb0EEC2EmNS6_18_uninitialized_tagE, symObjAddr: 0x2820, symBinAddr: 0x100004E10, symSize: 0x190 }
  - { offset: 0x246297, size: 0x8, addend: 0x0, symName: __Z8get_edgeIldEP4nodeIT_T0_ES1_S1_RN6parlay8sequenceI7clusterIS1_S2_ENS5_9allocatorIS8_EEXsr3std7is_sameIS8_cEE5valueEEEh, symObjAddr: 0x3044, symBinAddr: 0x100005634, symSize: 0x1F0 }
  - { offset: 0x246F0F, size: 0x8, addend: 0x0, symName: '__ZZ22batchModifyEdgeWeightsIldZ21insert_random_weightsRKN6parlay8sequenceIlNS0_9allocatorIlEELb0EEERNS1_I7clusterIldENS2_IS8_EELb0EEEE3$_2EvRKNS1_INSt3__15tupleIJT_SF_T0_EEENS2_ISH_EEXsr3std7is_sameISH_cEE5valueEEET1_RNS1_IS7_ISF_SG_ENS2_ISN_EEXsr3std7is_sameISN_cEE5valueEEERKSG_ENKUllE0_clEl', symObjAddr: 0x3AD0, symBinAddr: 0x1000060C0, symSize: 0x168 }
  - { offset: 0x247477, size: 0x8, addend: 0x0, symName: '__ZN6parlay7JobImplIZNS_19fork_join_scheduler7parfor_IZ22batchModifyEdgeWeightsIldZ21insert_random_weightsRKNS_8sequenceIlNS_9allocatorIlEELb0EEERNS4_I7clusterIldENS5_ISB_EELb0EEEE3$_2EvRKNS4_INSt3__15tupleIJT_SI_T0_EEENS5_ISK_EEXsr3std7is_sameISK_cEE5valueEEET1_RNS4_ISA_ISI_SJ_ENS5_ISQ_EEXsr3std7is_sameISQ_cEE5valueEEERKSJ_EUllE0_EEvRNS_9schedulerINS_15WorkStealingJobEEEmmRSI_mbEUlvE0_ED1Ev', symObjAddr: 0x4308, symBinAddr: 0x1000068F8, symSize: 0x4 }
  - { offset: 0x2474A2, size: 0x8, addend: 0x0, symName: '__ZN6parlay7JobImplIZNS_19fork_join_scheduler7parfor_IZ22batchModifyEdgeWeightsIldZ21insert_random_weightsRKNS_8sequenceIlNS_9allocatorIlEELb0EEERNS4_I7clusterIldENS5_ISB_EELb0EEEE3$_2EvRKNS4_INSt3__15tupleIJT_SI_T0_EEENS5_ISK_EEXsr3std7is_sameISK_cEE5valueEEET1_RNS4_ISA_ISI_SJ_ENS5_ISQ_EEXsr3std7is_sameISQ_cEE5valueEEERKSJ_EUllE0_EEvRNS_9schedulerINS_15WorkStealingJobEEEmmRSI_mbEUlvE0_ED0Ev', symObjAddr: 0x430C, symBinAddr: 0x1000068FC, symSize: 0x4 }
  - { offset: 0x2474CD, size: 0x8, addend: 0x0, symName: '__ZN6parlay7JobImplIZNS_19fork_join_scheduler7parfor_IZ22batchModifyEdgeWeightsIldZ21insert_random_weightsRKNS_8sequenceIlNS_9allocatorIlEELb0EEERNS4_I7clusterIldENS5_ISB_EELb0EEEE3$_2EvRKNS4_INSt3__15tupleIJT_SI_T0_EEENS5_ISK_EEXsr3std7is_sameISK_cEE5valueEEET1_RNS4_ISA_ISI_SJ_ENS5_ISQ_EEXsr3std7is_sameISQ_cEE5valueEEERKSJ_EUllE0_EEvRNS_9schedulerINS_15WorkStealingJobEEEmmRSI_mbEUlvE0_E7executeEv', symObjAddr: 0x4310, symBinAddr: 0x100006900, symSize: 0x24 }
  - { offset: 0x24751F, size: 0x8, addend: 0x0, symName: '__ZN6parlay7JobImplIZNS_19fork_join_scheduler7parfor_IZNS_8sequenceIP7clusterIldENS_9allocatorIS6_EELb0EEC1IZ22batchModifyEdgeWeightsIldZ21insert_random_weightsRKNS3_IlNS7_IlEELb0EEERNS3_IS5_NS7_IS5_EELb0EEEE3$_2EvRKNS3_INSt3__15tupleIJT_SM_T0_EEENS7_ISO_EEXsr3std7is_sameISO_cEE5valueEEET1_RNS3_IS4_ISM_SN_ENS7_ISU_EEXsr3std7is_sameISU_cEE5valueEEERKSN_EUllE_EEmOSM_NS9_18_from_function_tagEmEUlmE_EEvRNS_9schedulerINS_15WorkStealingJobEEEmmRSM_mbEUlvE0_ED1Ev', symObjAddr: 0x4334, symBinAddr: 0x100006924, symSize: 0x4 }
  - { offset: 0x24754A, size: 0x8, addend: 0x0, symName: '__ZN6parlay7JobImplIZNS_19fork_join_scheduler7parfor_IZNS_8sequenceIP7clusterIldENS_9allocatorIS6_EELb0EEC1IZ22batchModifyEdgeWeightsIldZ21insert_random_weightsRKNS3_IlNS7_IlEELb0EEERNS3_IS5_NS7_IS5_EELb0EEEE3$_2EvRKNS3_INSt3__15tupleIJT_SM_T0_EEENS7_ISO_EEXsr3std7is_sameISO_cEE5valueEEET1_RNS3_IS4_ISM_SN_ENS7_ISU_EEXsr3std7is_sameISU_cEE5valueEEERKSN_EUllE_EEmOSM_NS9_18_from_function_tagEmEUlmE_EEvRNS_9schedulerINS_15WorkStealingJobEEEmmRSM_mbEUlvE0_ED0Ev', symObjAddr: 0x4338, symBinAddr: 0x100006928, symSize: 0x4 }
  - { offset: 0x247575, size: 0x8, addend: 0x0, symName: '__ZN6parlay7JobImplIZNS_19fork_join_scheduler7parfor_IZNS_8sequenceIP7clusterIldENS_9allocatorIS6_EELb0EEC1IZ22batchModifyEdgeWeightsIldZ21insert_random_weightsRKNS3_IlNS7_IlEELb0EEERNS3_IS5_NS7_IS5_EELb0EEEE3$_2EvRKNS3_INSt3__15tupleIJT_SM_T0_EEENS7_ISO_EEXsr3std7is_sameISO_cEE5valueEEET1_RNS3_IS4_ISM_SN_ENS7_ISU_EEXsr3std7is_sameISU_cEE5valueEEERKSN_EUllE_EEmOSM_NS9_18_from_function_tagEmEUlmE_EEvRNS_9schedulerINS_15WorkStealingJobEEEmmRSM_mbEUlvE0_E7executeEv', symObjAddr: 0x433C, symBinAddr: 0x10000692C, symSize: 0x24 }
  - { offset: 0x2475C7, size: 0x8, addend: 0x0, symName: __ZNSt12length_errorC1B8ue170006EPKc, symObjAddr: 0x4454, symBinAddr: 0x100006A44, symSize: 0x24 }
  - { offset: 0x24764F, size: 0x8, addend: 0x0, symName: '__ZN6parlay7JobImplIZNS_19fork_join_scheduler7parfor_IZNS_8internal10sliced_forIZNS3_10filter_mapINS_5sliceIPNSt3__15tupleIJlldEEESA_EEZ21insert_random_weightsRKNS_8sequenceIlNS_9allocatorIlEELb0EEERNSC_I7clusterIldENSD_ISJ_EELb0EEEE3$_1RZNS3_6filterISB_SN_EENSC_INT_10value_typeENSD_ISQ_EEXsr3std7is_sameISQ_cEE5valueEEERKSP_OT0_EUlOSP_E_EEDaSU_SW_OT1_EUlmmmE0_EEvmmSU_jEUlmE_EEvRNS_9schedulerINS_15WorkStealingJobEEEmmRSP_mbEUlvE0_ED1Ev', symObjAddr: 0x4478, symBinAddr: 0x100006A68, symSize: 0x4 }
  - { offset: 0x24767A, size: 0x8, addend: 0x0, symName: '__ZN6parlay7JobImplIZNS_19fork_join_scheduler7parfor_IZNS_8internal10sliced_forIZNS3_10filter_mapINS_5sliceIPNSt3__15tupleIJlldEEESA_EEZ21insert_random_weightsRKNS_8sequenceIlNS_9allocatorIlEELb0EEERNSC_I7clusterIldENSD_ISJ_EELb0EEEE3$_1RZNS3_6filterISB_SN_EENSC_INT_10value_typeENSD_ISQ_EEXsr3std7is_sameISQ_cEE5valueEEERKSP_OT0_EUlOSP_E_EEDaSU_SW_OT1_EUlmmmE0_EEvmmSU_jEUlmE_EEvRNS_9schedulerINS_15WorkStealingJobEEEmmRSP_mbEUlvE0_ED0Ev', symObjAddr: 0x447C, symBinAddr: 0x100006A6C, symSize: 0x4 }
  - { offset: 0x2476A5, size: 0x8, addend: 0x0, symName: '__ZN6parlay7JobImplIZNS_19fork_join_scheduler7parfor_IZNS_8internal10sliced_forIZNS3_10filter_mapINS_5sliceIPNSt3__15tupleIJlldEEESA_EEZ21insert_random_weightsRKNS_8sequenceIlNS_9allocatorIlEELb0EEERNSC_I7clusterIldENSD_ISJ_EELb0EEEE3$_1RZNS3_6filterISB_SN_EENSC_INT_10value_typeENSD_ISQ_EEXsr3std7is_sameISQ_cEE5valueEEERKSP_OT0_EUlOSP_E_EEDaSU_SW_OT1_EUlmmmE0_EEvmmSU_jEUlmE_EEvRNS_9schedulerINS_15WorkStealingJobEEEmmRSP_mbEUlvE0_E7executeEv', symObjAddr: 0x4480, symBinAddr: 0x100006A70, symSize: 0x24 }
  - { offset: 0x247A16, size: 0x8, addend: 0x0, symName: __ZN6parlay7JobImplIZNS_19fork_join_scheduler7parfor_IZNS_8internal10sliced_forIZNS3_5scan_INS_5sliceIPmS7_EES8_NS_4plusImEEEEDaRKT_T0_OT1_jbEUlmmmE0_EEvmmSE_jEUlmE_EEvRNS_9schedulerINS_15WorkStealingJobEEEmmRSC_mbEUlvE0_ED1Ev, symObjAddr: 0x4D98, symBinAddr: 0x100007388, symSize: 0x4 }
  - { offset: 0x247A41, size: 0x8, addend: 0x0, symName: __ZN6parlay7JobImplIZNS_19fork_join_scheduler7parfor_IZNS_8internal10sliced_forIZNS3_5scan_INS_5sliceIPmS7_EES8_NS_4plusImEEEEDaRKT_T0_OT1_jbEUlmmmE0_EEvmmSE_jEUlmE_EEvRNS_9schedulerINS_15WorkStealingJobEEEmmRSC_mbEUlvE0_ED0Ev, symObjAddr: 0x4D9C, symBinAddr: 0x10000738C, symSize: 0x4 }
  - { offset: 0x247A6C, size: 0x8, addend: 0x0, symName: __ZN6parlay7JobImplIZNS_19fork_join_scheduler7parfor_IZNS_8internal10sliced_forIZNS3_5scan_INS_5sliceIPmS7_EES8_NS_4plusImEEEEDaRKT_T0_OT1_jbEUlmmmE0_EEvmmSE_jEUlmE_EEvRNS_9schedulerINS_15WorkStealingJobEEEmmRSC_mbEUlvE0_E7executeEv, symObjAddr: 0x4DA0, symBinAddr: 0x100007390, symSize: 0x24 }
  - { offset: 0x247E4B, size: 0x8, addend: 0x0, symName: __ZN6parlay7JobImplIZNS_19fork_join_scheduler7parfor_IZNS_8internal10sliced_forIZNS3_5scan_INS_5sliceIPmS7_EES8_NS_4plusImEEEEDaRKT_T0_OT1_jbEUlmmmE_EEvmmSE_jEUlmE_EEvRNS_9schedulerINS_15WorkStealingJobEEEmmRSC_mbEUlvE0_ED1Ev, symObjAddr: 0x543C, symBinAddr: 0x100007A2C, symSize: 0x4 }
  - { offset: 0x247E76, size: 0x8, addend: 0x0, symName: __ZN6parlay7JobImplIZNS_19fork_join_scheduler7parfor_IZNS_8internal10sliced_forIZNS3_5scan_INS_5sliceIPmS7_EES8_NS_4plusImEEEEDaRKT_T0_OT1_jbEUlmmmE_EEvmmSE_jEUlmE_EEvRNS_9schedulerINS_15WorkStealingJobEEEmmRSC_mbEUlvE0_ED0Ev, symObjAddr: 0x5440, symBinAddr: 0x100007A30, symSize: 0x4 }
  - { offset: 0x247EA1, size: 0x8, addend: 0x0, symName: __ZN6parlay7JobImplIZNS_19fork_join_scheduler7parfor_IZNS_8internal10sliced_forIZNS3_5scan_INS_5sliceIPmS7_EES8_NS_4plusImEEEEDaRKT_T0_OT1_jbEUlmmmE_EEvmmSE_jEUlmE_EEvRNS_9schedulerINS_15WorkStealingJobEEEmmRSC_mbEUlvE0_E7executeEv, symObjAddr: 0x5444, symBinAddr: 0x100007A34, symSize: 0x24 }
  - { offset: 0x247EF3, size: 0x8, addend: 0x0, symName: '__ZN6parlay7JobImplIZNS_19fork_join_scheduler7parfor_IZNS_8internal10sliced_forIZNS3_10filter_mapINS_5sliceIPNSt3__15tupleIJlldEEESA_EEZ21insert_random_weightsRKNS_8sequenceIlNS_9allocatorIlEELb0EEERNSC_I7clusterIldENSD_ISJ_EELb0EEEE3$_1RZNS3_6filterISB_SN_EENSC_INT_10value_typeENSD_ISQ_EEXsr3std7is_sameISQ_cEE5valueEEERKSP_OT0_EUlOSP_E_EEDaSU_SW_OT1_EUlmmmE_EEvmmSU_jEUlmE_EEvRNS_9schedulerINS_15WorkStealingJobEEEmmRSP_mbEUlvE0_ED1Ev', symObjAddr: 0x5468, symBinAddr: 0x100007A58, symSize: 0x4 }
  - { offset: 0x247F1E, size: 0x8, addend: 0x0, symName: '__ZN6parlay7JobImplIZNS_19fork_join_scheduler7parfor_IZNS_8internal10sliced_forIZNS3_10filter_mapINS_5sliceIPNSt3__15tupleIJlldEEESA_EEZ21insert_random_weightsRKNS_8sequenceIlNS_9allocatorIlEELb0EEERNSC_I7clusterIldENSD_ISJ_EELb0EEEE3$_1RZNS3_6filterISB_SN_EENSC_INT_10value_typeENSD_ISQ_EEXsr3std7is_sameISQ_cEE5valueEEERKSP_OT0_EUlOSP_E_EEDaSU_SW_OT1_EUlmmmE_EEvmmSU_jEUlmE_EEvRNS_9schedulerINS_15WorkStealingJobEEEmmRSP_mbEUlvE0_ED0Ev', symObjAddr: 0x546C, symBinAddr: 0x100007A5C, symSize: 0x4 }
  - { offset: 0x247F49, size: 0x8, addend: 0x0, symName: '__ZN6parlay7JobImplIZNS_19fork_join_scheduler7parfor_IZNS_8internal10sliced_forIZNS3_10filter_mapINS_5sliceIPNSt3__15tupleIJlldEEESA_EEZ21insert_random_weightsRKNS_8sequenceIlNS_9allocatorIlEELb0EEERNSC_I7clusterIldENSD_ISJ_EELb0EEEE3$_1RZNS3_6filterISB_SN_EENSC_INT_10value_typeENSD_ISQ_EEXsr3std7is_sameISQ_cEE5valueEEERKSP_OT0_EUlOSP_E_EEDaSU_SW_OT1_EUlmmmE_EEvmmSU_jEUlmE_EEvRNS_9schedulerINS_15WorkStealingJobEEEmmRSP_mbEUlvE0_E7executeEv', symObjAddr: 0x5470, symBinAddr: 0x100007A60, symSize: 0x24 }
  - { offset: 0x2481BA, size: 0x8, addend: 0x0, symName: __ZN6parlay7JobImplIZNS_19fork_join_scheduler7parfor_IZNS_8sequenceIbNS_9allocatorIbEELb0EE18initialize_defaultEmEUlmE_EEvRNS_9schedulerINS_15WorkStealingJobEEEmmRT_mbEUlvE0_ED1Ev, symObjAddr: 0x5AA4, symBinAddr: 0x100008094, symSize: 0x4 }
  - { offset: 0x2481E5, size: 0x8, addend: 0x0, symName: __ZN6parlay7JobImplIZNS_19fork_join_scheduler7parfor_IZNS_8sequenceIbNS_9allocatorIbEELb0EE18initialize_defaultEmEUlmE_EEvRNS_9schedulerINS_15WorkStealingJobEEEmmRT_mbEUlvE0_ED0Ev, symObjAddr: 0x5AA8, symBinAddr: 0x100008098, symSize: 0x4 }
  - { offset: 0x248210, size: 0x8, addend: 0x0, symName: __ZN6parlay7JobImplIZNS_19fork_join_scheduler7parfor_IZNS_8sequenceIbNS_9allocatorIbEELb0EE18initialize_defaultEmEUlmE_EEvRNS_9schedulerINS_15WorkStealingJobEEEmmRT_mbEUlvE0_E7executeEv, symObjAddr: 0x5AAC, symBinAddr: 0x10000809C, symSize: 0xC4 }
  - { offset: 0x248518, size: 0x8, addend: 0x0, symName: __ZN6parlay7JobImplIZNS_19fork_join_scheduler7parfor_IZNS_8sequenceImNS_9allocatorImEELb0EE18initialize_defaultEmEUlmE_EEvRNS_9schedulerINS_15WorkStealingJobEEEmmRT_mbEUlvE0_ED1Ev, symObjAddr: 0x61F8, symBinAddr: 0x1000087E8, symSize: 0x4 }
  - { offset: 0x248543, size: 0x8, addend: 0x0, symName: __ZN6parlay7JobImplIZNS_19fork_join_scheduler7parfor_IZNS_8sequenceImNS_9allocatorImEELb0EE18initialize_defaultEmEUlmE_EEvRNS_9schedulerINS_15WorkStealingJobEEEmmRT_mbEUlvE0_ED0Ev, symObjAddr: 0x61FC, symBinAddr: 0x1000087EC, symSize: 0x4 }
  - { offset: 0x24856E, size: 0x8, addend: 0x0, symName: __ZN6parlay7JobImplIZNS_19fork_join_scheduler7parfor_IZNS_8sequenceImNS_9allocatorImEELb0EE18initialize_defaultEmEUlmE_EEvRNS_9schedulerINS_15WorkStealingJobEEEmmRT_mbEUlvE0_E7executeEv, symObjAddr: 0x6200, symBinAddr: 0x1000087F0, symSize: 0xC8 }
  - { offset: 0x248657, size: 0x8, addend: 0x0, symName: '__ZN6parlay7JobImplIZNS_19fork_join_scheduler7parfor_IZNS_8sequenceINSt3__15tupleIJlldEEENS_9allocatorIS6_EELb0EEC1IZ21insert_random_weightsRKNS3_IlNS7_IlEELb0EEERNS3_I7clusterIldENS7_ISG_EELb0EEEE3$_0EEmOT_NS9_18_from_function_tagEmEUlmE_EEvRNS_9schedulerINS_15WorkStealingJobEEEmmRSL_mbEUlvE0_ED1Ev', symObjAddr: 0x62C8, symBinAddr: 0x1000088B8, symSize: 0x4 }
  - { offset: 0x248682, size: 0x8, addend: 0x0, symName: '__ZN6parlay7JobImplIZNS_19fork_join_scheduler7parfor_IZNS_8sequenceINSt3__15tupleIJlldEEENS_9allocatorIS6_EELb0EEC1IZ21insert_random_weightsRKNS3_IlNS7_IlEELb0EEERNS3_I7clusterIldENS7_ISG_EELb0EEEE3$_0EEmOT_NS9_18_from_function_tagEmEUlmE_EEvRNS_9schedulerINS_15WorkStealingJobEEEmmRSL_mbEUlvE0_ED0Ev', symObjAddr: 0x62CC, symBinAddr: 0x1000088BC, symSize: 0x4 }
  - { offset: 0x2486AD, size: 0x8, addend: 0x0, symName: '__ZN6parlay7JobImplIZNS_19fork_join_scheduler7parfor_IZNS_8sequenceINSt3__15tupleIJlldEEENS_9allocatorIS6_EELb0EEC1IZ21insert_random_weightsRKNS3_IlNS7_IlEELb0EEERNS3_I7clusterIldENS7_ISG_EELb0EEEE3$_0EEmOT_NS9_18_from_function_tagEmEUlmE_EEvRNS_9schedulerINS_15WorkStealingJobEEEmmRSL_mbEUlvE0_E7executeEv', symObjAddr: 0x62D0, symBinAddr: 0x1000088C0, symSize: 0x24 }
  - { offset: 0x24A0E2, size: 0x8, addend: 0x0, symName: __ZN6parlay14ThreadSpecificINS_8internal24intrusive_acquire_retireINS1_12hazptr_stackIPvE4NodeENSt3__114default_deleteIS6_EELm1EE10ThreadDataEE3getEv, symObjAddr: 0xA440, symBinAddr: 0x10000CA30, symSize: 0x17C }
  - { offset: 0x24A370, size: 0x8, addend: 0x0, symName: __ZN6parlay14ThreadSpecificINS_8internal24intrusive_acquire_retireINS1_12hazptr_stackIPvE4NodeENSt3__114default_deleteIS6_EELm1EE10ThreadDataEE10initializeEv, symObjAddr: 0x9D28, symBinAddr: 0x10000C318, symSize: 0x25C }
  - { offset: 0x24A631, size: 0x8, addend: 0x0, symName: __ZNK6parlay14ThreadSpecificINS_8internal24intrusive_acquire_retireINS1_12hazptr_stackIPvE4NodeENSt3__114default_deleteIS6_EELm1EE10ThreadDataEE19ensure_chunk_existsEm, symObjAddr: 0xA6CC, symBinAddr: 0x10000CBAC, symSize: 0x144 }
  - { offset: 0x24A9E6, size: 0x8, addend: 0x0, symName: __ZN6parlay14ThreadSpecificINS_8internal15block_allocator10local_listEE3getEv, symObjAddr: 0x6FE4, symBinAddr: 0x1000095D4, symSize: 0x174 }
  - { offset: 0x24AC7D, size: 0x8, addend: 0x0, symName: __ZN6parlay8internal12hazptr_stackIPNS0_15block_allocator5blockEE3popEv, symObjAddr: 0x82F4, symBinAddr: 0x10000A8E4, symSize: 0xB30 }
  - { offset: 0x24D63E, size: 0x8, addend: 0x0, symName: __ZN6parlay8internal12hazptr_stackIPSt4byteE4pushES3_, symObjAddr: 0x8E24, symBinAddr: 0x10000B414, symSize: 0x1E8 }
  - { offset: 0x24DCE5, size: 0x8, addend: 0x0, symName: __ZN6parlay8internal12hazptr_stackIPNS0_15block_allocator5blockEE4pushES4_, symObjAddr: 0x7158, symBinAddr: 0x100009748, symSize: 0x1E8 }
  - { offset: 0x24E4EC, size: 0x8, addend: 0x0, symName: __ZNK6parlay14ThreadSpecificINS_8internal15block_allocator10local_listEE19ensure_chunk_existsEm, symObjAddr: 0x9BE4, symBinAddr: 0x10000C1D4, symSize: 0x144 }
  - { offset: 0x24EAF7, size: 0x8, addend: 0x0, symName: __ZN6parlay14ThreadSpecificINS_8internal24intrusive_acquire_retireINS1_12hazptr_stackIPNS1_15block_allocator5blockEE4NodeENSt3__114default_deleteIS8_EELm1EE10ThreadDataEE10initializeEv, symObjAddr: 0x7340, symBinAddr: 0x100009930, symSize: 0x25C }
  - { offset: 0x24EDB8, size: 0x8, addend: 0x0, symName: __ZN6parlay14ThreadSpecificINS_8internal24intrusive_acquire_retireINS1_12hazptr_stackIPNS1_15block_allocator5blockEE4NodeENSt3__114default_deleteIS8_EELm1EE10ThreadDataEE3getEv, symObjAddr: 0x7A58, symBinAddr: 0x10000A048, symSize: 0x17C }
  - { offset: 0x24F55D, size: 0x8, addend: 0x0, symName: __ZN6parlay8internal24intrusive_acquire_retireINS0_12hazptr_stackIPNS0_15block_allocator5blockEE4NodeENSt3__114default_deleteIS7_EELm1EED1Ev, symObjAddr: 0x759C, symBinAddr: 0x100009B8C, symSize: 0x4BC }
  - { offset: 0x2505CA, size: 0x8, addend: 0x0, symName: __ZNK6parlay14ThreadSpecificINS_8internal24intrusive_acquire_retireINS1_12hazptr_stackIPNS1_15block_allocator5blockEE4NodeENSt3__114default_deleteIS8_EELm1EE10ThreadDataEE19ensure_chunk_existsEm, symObjAddr: 0x7DE0, symBinAddr: 0x10000A3D0, symSize: 0x144 }
  - { offset: 0x250A15, size: 0x8, addend: 0x0, symName: __ZNSt3__117bad_function_callD1Ev, symObjAddr: 0x7F54, symBinAddr: 0x10000A544, symSize: 0x4 }
  - { offset: 0x250A37, size: 0x8, addend: 0x0, symName: __ZNSt3__117bad_function_callD1Ev, symObjAddr: 0x7F54, symBinAddr: 0x10000A544, symSize: 0x4 }
  - { offset: 0x250A6B, size: 0x8, addend: 0x0, symName: __ZNSt3__117bad_function_callD0Ev, symObjAddr: 0x7F58, symBinAddr: 0x10000A548, symSize: 0x14 }
  - { offset: 0x250ACC, size: 0x8, addend: 0x0, symName: __ZNSt3__110shared_ptrIN6parlay8internal12ThreadIdPoolEED1B8ue170006Ev, symObjAddr: 0x7F6C, symBinAddr: 0x10000A55C, symSize: 0x50 }
  - { offset: 0x250CC9, size: 0x8, addend: 0x0, symName: __ZN6parlay8internal12ThreadIdPool13ThreadIdOwnerD1Ev, symObjAddr: 0x80D4, symBinAddr: 0x10000A6C4, symSize: 0x8C }
  - { offset: 0x250EAF, size: 0x8, addend: 0x0, symName: __ZNSt3__120__shared_ptr_emplaceIN6parlay8internal12ThreadIdPoolENS_9allocatorIS3_EEED1Ev, symObjAddr: 0x8160, symBinAddr: 0x10000A750, symSize: 0x10 }
  - { offset: 0x250ED1, size: 0x8, addend: 0x0, symName: __ZNSt3__120__shared_ptr_emplaceIN6parlay8internal12ThreadIdPoolENS_9allocatorIS3_EEED1Ev, symObjAddr: 0x8160, symBinAddr: 0x10000A750, symSize: 0x10 }
  - { offset: 0x250F09, size: 0x8, addend: 0x0, symName: __ZNSt3__120__shared_ptr_emplaceIN6parlay8internal12ThreadIdPoolENS_9allocatorIS3_EEED0Ev, symObjAddr: 0x8170, symBinAddr: 0x10000A760, symSize: 0x20 }
  - { offset: 0x25101C, size: 0x8, addend: 0x0, symName: __ZNSt3__120__shared_ptr_emplaceIN6parlay8internal12ThreadIdPoolENS_9allocatorIS3_EEE16__on_zero_sharedEv, symObjAddr: 0x8190, symBinAddr: 0x10000A780, symSize: 0x98 }
  - { offset: 0x251223, size: 0x8, addend: 0x0, symName: __ZNSt3__120__shared_ptr_emplaceIN6parlay8internal12ThreadIdPoolENS_9allocatorIS3_EEE21__on_zero_shared_weakEv, symObjAddr: 0x8228, symBinAddr: 0x10000A818, symSize: 0x4 }
  - { offset: 0x251256, size: 0x8, addend: 0x0, symName: __ZNSt3__120__shared_ptr_emplaceIN6parlay8internal12ThreadIdPoolENS_9allocatorIS3_EEE21__on_zero_shared_weakEv, symObjAddr: 0x8228, symBinAddr: 0x10000A818, symSize: 0x4 }
  - { offset: 0x251278, size: 0x8, addend: 0x0, symName: __ZNSt3__120__shared_ptr_emplaceIN6parlay8internal12ThreadIdPoolENS_9allocatorIS3_EEE21__on_zero_shared_weakEv, symObjAddr: 0x8228, symBinAddr: 0x10000A818, symSize: 0x4 }
  - { offset: 0x25129A, size: 0x8, addend: 0x0, symName: __ZNSt3__120__shared_ptr_emplaceIN6parlay8internal12ThreadIdPoolENS_9allocatorIS3_EEE21__on_zero_shared_weakEv, symObjAddr: 0x8228, symBinAddr: 0x10000A818, symSize: 0x4 }
  - { offset: 0x2512C6, size: 0x8, addend: 0x0, symName: __ZNSt3__120__shared_ptr_emplaceIN6parlay8internal12ThreadIdPoolENS_9allocatorIS3_EEE21__on_zero_shared_weakEv, symObjAddr: 0x8228, symBinAddr: 0x10000A818, symSize: 0x4 }
  - { offset: 0x2512ED, size: 0x8, addend: 0x0, symName: __ZNSt3__120__shared_ptr_emplaceIN6parlay8internal12ThreadIdPoolENS_9allocatorIS3_EEE21__on_zero_shared_weakEv, symObjAddr: 0x8228, symBinAddr: 0x10000A818, symSize: 0x4 }
  - { offset: 0x251319, size: 0x8, addend: 0x0, symName: __ZNSt3__110__function6__funcIZN6parlay14ThreadSpecificINS2_8internal24intrusive_acquire_retireINS4_12hazptr_stackIPNS4_15block_allocator5blockEE4NodeENS_14default_deleteISB_EELm1EE10ThreadDataEEC1EvEUlmE_NS_9allocatorISH_EEFSF_jEED1Ev, symObjAddr: 0x822C, symBinAddr: 0x10000A81C, symSize: 0x4 }
  - { offset: 0x251345, size: 0x8, addend: 0x0, symName: __ZNSt3__110__function6__funcIZN6parlay14ThreadSpecificINS2_8internal24intrusive_acquire_retireINS4_12hazptr_stackIPNS4_15block_allocator5blockEE4NodeENS_14default_deleteISB_EELm1EE10ThreadDataEEC1EvEUlmE_NS_9allocatorISH_EEFSF_jEED0Ev, symObjAddr: 0x8230, symBinAddr: 0x10000A820, symSize: 0x4 }
  - { offset: 0x2513FC, size: 0x8, addend: 0x0, symName: __ZNKSt3__110__function6__funcIZN6parlay14ThreadSpecificINS2_8internal24intrusive_acquire_retireINS4_12hazptr_stackIPNS4_15block_allocator5blockEE4NodeENS_14default_deleteISB_EELm1EE10ThreadDataEEC1EvEUlmE_NS_9allocatorISH_EEFSF_jEE7__cloneEv, symObjAddr: 0x8234, symBinAddr: 0x10000A824, symSize: 0x24 }
  - { offset: 0x251541, size: 0x8, addend: 0x0, symName: __ZNKSt3__110__function6__funcIZN6parlay14ThreadSpecificINS2_8internal24intrusive_acquire_retireINS4_12hazptr_stackIPNS4_15block_allocator5blockEE4NodeENS_14default_deleteISB_EELm1EE10ThreadDataEEC1EvEUlmE_NS_9allocatorISH_EEFSF_jEE7__cloneEPNS0_6__baseISK_EE, symObjAddr: 0x8258, symBinAddr: 0x10000A848, symSize: 0x10 }
  - { offset: 0x251576, size: 0x8, addend: 0x0, symName: __ZNKSt3__110__function6__funcIZN6parlay14ThreadSpecificINS2_8internal24intrusive_acquire_retireINS4_12hazptr_stackIPNS4_15block_allocator5blockEE4NodeENS_14default_deleteISB_EELm1EE10ThreadDataEEC1EvEUlmE_NS_9allocatorISH_EEFSF_jEE7__cloneEPNS0_6__baseISK_EE, symObjAddr: 0x8258, symBinAddr: 0x10000A848, symSize: 0x10 }
  - { offset: 0x251592, size: 0x8, addend: 0x0, symName: __ZNKSt3__110__function6__funcIZN6parlay14ThreadSpecificINS2_8internal24intrusive_acquire_retireINS4_12hazptr_stackIPNS4_15block_allocator5blockEE4NodeENS_14default_deleteISB_EELm1EE10ThreadDataEEC1EvEUlmE_NS_9allocatorISH_EEFSF_jEE7__cloneEPNS0_6__baseISK_EE, symObjAddr: 0x8258, symBinAddr: 0x10000A848, symSize: 0x10 }
  - { offset: 0x2515AE, size: 0x8, addend: 0x0, symName: __ZNSt3__110__function6__funcIZN6parlay14ThreadSpecificINS2_8internal24intrusive_acquire_retireINS4_12hazptr_stackIPNS4_15block_allocator5blockEE4NodeENS_14default_deleteISB_EELm1EE10ThreadDataEEC1EvEUlmE_NS_9allocatorISH_EEFSF_jEE7destroyEv, symObjAddr: 0x8268, symBinAddr: 0x10000A858, symSize: 0x4 }
  - { offset: 0x2515FF, size: 0x8, addend: 0x0, symName: __ZNSt3__110__function6__funcIZN6parlay14ThreadSpecificINS2_8internal24intrusive_acquire_retireINS4_12hazptr_stackIPNS4_15block_allocator5blockEE4NodeENS_14default_deleteISB_EELm1EE10ThreadDataEEC1EvEUlmE_NS_9allocatorISH_EEFSF_jEE18destroy_deallocateEv, symObjAddr: 0x826C, symBinAddr: 0x10000A85C, symSize: 0x4 }
  - { offset: 0x251634, size: 0x8, addend: 0x0, symName: __ZNSt3__110__function6__funcIZN6parlay14ThreadSpecificINS2_8internal24intrusive_acquire_retireINS4_12hazptr_stackIPNS4_15block_allocator5blockEE4NodeENS_14default_deleteISB_EELm1EE10ThreadDataEEC1EvEUlmE_NS_9allocatorISH_EEFSF_jEE18destroy_deallocateEv, symObjAddr: 0x826C, symBinAddr: 0x10000A85C, symSize: 0x4 }
  - { offset: 0x251656, size: 0x8, addend: 0x0, symName: __ZNSt3__110__function6__funcIZN6parlay14ThreadSpecificINS2_8internal24intrusive_acquire_retireINS4_12hazptr_stackIPNS4_15block_allocator5blockEE4NodeENS_14default_deleteISB_EELm1EE10ThreadDataEEC1EvEUlmE_NS_9allocatorISH_EEFSF_jEE18destroy_deallocateEv, symObjAddr: 0x826C, symBinAddr: 0x10000A85C, symSize: 0x4 }
  - { offset: 0x251681, size: 0x8, addend: 0x0, symName: __ZNSt3__110__function6__funcIZN6parlay14ThreadSpecificINS2_8internal24intrusive_acquire_retireINS4_12hazptr_stackIPNS4_15block_allocator5blockEE4NodeENS_14default_deleteISB_EELm1EE10ThreadDataEEC1EvEUlmE_NS_9allocatorISH_EEFSF_jEE18destroy_deallocateEv, symObjAddr: 0x826C, symBinAddr: 0x10000A85C, symSize: 0x4 }
  - { offset: 0x2516A7, size: 0x8, addend: 0x0, symName: __ZNSt3__110__function6__funcIZN6parlay14ThreadSpecificINS2_8internal24intrusive_acquire_retireINS4_12hazptr_stackIPNS4_15block_allocator5blockEE4NodeENS_14default_deleteISB_EELm1EE10ThreadDataEEC1EvEUlmE_NS_9allocatorISH_EEFSF_jEE18destroy_deallocateEv, symObjAddr: 0x826C, symBinAddr: 0x10000A85C, symSize: 0x4 }
  - { offset: 0x25183A, size: 0x8, addend: 0x0, symName: __ZNSt3__110__function6__funcIZN6parlay14ThreadSpecificINS2_8internal24intrusive_acquire_retireINS4_12hazptr_stackIPNS4_15block_allocator5blockEE4NodeENS_14default_deleteISB_EELm1EE10ThreadDataEEC1EvEUlmE_NS_9allocatorISH_EEFSF_jEEclEOj, symObjAddr: 0x8270, symBinAddr: 0x10000A860, symSize: 0x14 }
  - { offset: 0x25186D, size: 0x8, addend: 0x0, symName: __ZNSt3__110__function6__funcIZN6parlay14ThreadSpecificINS2_8internal24intrusive_acquire_retireINS4_12hazptr_stackIPNS4_15block_allocator5blockEE4NodeENS_14default_deleteISB_EELm1EE10ThreadDataEEC1EvEUlmE_NS_9allocatorISH_EEFSF_jEEclEOj, symObjAddr: 0x8270, symBinAddr: 0x10000A860, symSize: 0x14 }
  - { offset: 0x251882, size: 0x8, addend: 0x0, symName: __ZNSt3__110__function6__funcIZN6parlay14ThreadSpecificINS2_8internal24intrusive_acquire_retireINS4_12hazptr_stackIPNS4_15block_allocator5blockEE4NodeENS_14default_deleteISB_EELm1EE10ThreadDataEEC1EvEUlmE_NS_9allocatorISH_EEFSF_jEEclEOj, symObjAddr: 0x8270, symBinAddr: 0x10000A860, symSize: 0x14 }
  - { offset: 0x251896, size: 0x8, addend: 0x0, symName: __ZNSt3__110__function6__funcIZN6parlay14ThreadSpecificINS2_8internal24intrusive_acquire_retireINS4_12hazptr_stackIPNS4_15block_allocator5blockEE4NodeENS_14default_deleteISB_EELm1EE10ThreadDataEEC1EvEUlmE_NS_9allocatorISH_EEFSF_jEEclEOj, symObjAddr: 0x8270, symBinAddr: 0x10000A860, symSize: 0x14 }
  - { offset: 0x2518AB, size: 0x8, addend: 0x0, symName: __ZNSt3__110__function6__funcIZN6parlay14ThreadSpecificINS2_8internal24intrusive_acquire_retireINS4_12hazptr_stackIPNS4_15block_allocator5blockEE4NodeENS_14default_deleteISB_EELm1EE10ThreadDataEEC1EvEUlmE_NS_9allocatorISH_EEFSF_jEEclEOj, symObjAddr: 0x8270, symBinAddr: 0x10000A860, symSize: 0x14 }
  - { offset: 0x2518C0, size: 0x8, addend: 0x0, symName: __ZNSt3__110__function6__funcIZN6parlay14ThreadSpecificINS2_8internal24intrusive_acquire_retireINS4_12hazptr_stackIPNS4_15block_allocator5blockEE4NodeENS_14default_deleteISB_EELm1EE10ThreadDataEEC1EvEUlmE_NS_9allocatorISH_EEFSF_jEEclEOj, symObjAddr: 0x8270, symBinAddr: 0x10000A860, symSize: 0x14 }
  - { offset: 0x2518E1, size: 0x8, addend: 0x0, symName: __ZNSt3__110__function6__funcIZN6parlay14ThreadSpecificINS2_8internal24intrusive_acquire_retireINS4_12hazptr_stackIPNS4_15block_allocator5blockEE4NodeENS_14default_deleteISB_EELm1EE10ThreadDataEEC1EvEUlmE_NS_9allocatorISH_EEFSF_jEEclEOj, symObjAddr: 0x8270, symBinAddr: 0x10000A860, symSize: 0x14 }
  - { offset: 0x251902, size: 0x8, addend: 0x0, symName: __ZNSt3__110__function6__funcIZN6parlay14ThreadSpecificINS2_8internal24intrusive_acquire_retireINS4_12hazptr_stackIPNS4_15block_allocator5blockEE4NodeENS_14default_deleteISB_EELm1EE10ThreadDataEEC1EvEUlmE_NS_9allocatorISH_EEFSF_jEEclEOj, symObjAddr: 0x8270, symBinAddr: 0x10000A860, symSize: 0x14 }
  - { offset: 0x251923, size: 0x8, addend: 0x0, symName: __ZNSt3__110__function6__funcIZN6parlay14ThreadSpecificINS2_8internal24intrusive_acquire_retireINS4_12hazptr_stackIPNS4_15block_allocator5blockEE4NodeENS_14default_deleteISB_EELm1EE10ThreadDataEEC1EvEUlmE_NS_9allocatorISH_EEFSF_jEEclEOj, symObjAddr: 0x8270, symBinAddr: 0x10000A860, symSize: 0x14 }
  - { offset: 0x251944, size: 0x8, addend: 0x0, symName: __ZNSt3__110__function6__funcIZN6parlay14ThreadSpecificINS2_8internal24intrusive_acquire_retireINS4_12hazptr_stackIPNS4_15block_allocator5blockEE4NodeENS_14default_deleteISB_EELm1EE10ThreadDataEEC1EvEUlmE_NS_9allocatorISH_EEFSF_jEEclEOj, symObjAddr: 0x8270, symBinAddr: 0x10000A860, symSize: 0x14 }
  - { offset: 0x251966, size: 0x8, addend: 0x0, symName: __ZNSt3__110__function6__funcIZN6parlay14ThreadSpecificINS2_8internal24intrusive_acquire_retireINS4_12hazptr_stackIPNS4_15block_allocator5blockEE4NodeENS_14default_deleteISB_EELm1EE10ThreadDataEEC1EvEUlmE_NS_9allocatorISH_EEFSF_jEEclEOj, symObjAddr: 0x8270, symBinAddr: 0x10000A860, symSize: 0x14 }
  - { offset: 0x2519EB, size: 0x8, addend: 0x0, symName: __ZNKSt3__110__function6__funcIZN6parlay14ThreadSpecificINS2_8internal24intrusive_acquire_retireINS4_12hazptr_stackIPNS4_15block_allocator5blockEE4NodeENS_14default_deleteISB_EELm1EE10ThreadDataEEC1EvEUlmE_NS_9allocatorISH_EEFSF_jEE6targetERKSt9type_info, symObjAddr: 0x8284, symBinAddr: 0x10000A874, symSize: 0x64 }
  - { offset: 0x251A9C, size: 0x8, addend: 0x0, symName: __ZNKSt3__110__function6__funcIZN6parlay14ThreadSpecificINS2_8internal24intrusive_acquire_retireINS4_12hazptr_stackIPNS4_15block_allocator5blockEE4NodeENS_14default_deleteISB_EELm1EE10ThreadDataEEC1EvEUlmE_NS_9allocatorISH_EEFSF_jEE11target_typeEv, symObjAddr: 0x82E8, symBinAddr: 0x10000A8D8, symSize: 0xC }
  - { offset: 0x252994, size: 0x8, addend: 0x0, symName: __ZNKSt3__112__hash_tableIPN6parlay8internal12hazptr_stackIPNS2_15block_allocator5blockEE4NodeENS_4hashIS9_EENS_8equal_toIS9_EENS_9allocatorIS9_EEE4findIS9_EENS_21__hash_const_iteratorIPNS_11__hash_nodeIS9_PvEEEERKT_, symObjAddr: 0x9AAC, symBinAddr: 0x10000C09C, symSize: 0x110 }
  - { offset: 0x2529EB, size: 0x8, addend: 0x0, symName: __ZNKSt3__112__hash_tableIPN6parlay8internal12hazptr_stackIPNS2_15block_allocator5blockEE4NodeENS_4hashIS9_EENS_8equal_toIS9_EENS_9allocatorIS9_EEE4findIS9_EENS_21__hash_const_iteratorIPNS_11__hash_nodeIS9_PvEEEERKT_, symObjAddr: 0x9AAC, symBinAddr: 0x10000C09C, symSize: 0x110 }
  - { offset: 0x252A07, size: 0x8, addend: 0x0, symName: __ZNKSt3__112__hash_tableIPN6parlay8internal12hazptr_stackIPNS2_15block_allocator5blockEE4NodeENS_4hashIS9_EENS_8equal_toIS9_EENS_9allocatorIS9_EEE4findIS9_EENS_21__hash_const_iteratorIPNS_11__hash_nodeIS9_PvEEEERKT_, symObjAddr: 0x9AAC, symBinAddr: 0x10000C09C, symSize: 0x110 }
  - { offset: 0x252F18, size: 0x8, addend: 0x0, symName: __ZN6parlay14ThreadSpecificINS_8internal24intrusive_acquire_retireINS1_12hazptr_stackIPSt4byteE4NodeENSt3__114default_deleteIS7_EELm1EE10ThreadDataEE10initializeEv, symObjAddr: 0x900C, symBinAddr: 0x10000B5FC, symSize: 0x25C }
  - { offset: 0x2531D9, size: 0x8, addend: 0x0, symName: __ZN6parlay14ThreadSpecificINS_8internal24intrusive_acquire_retireINS1_12hazptr_stackIPSt4byteE4NodeENSt3__114default_deleteIS7_EELm1EE10ThreadDataEE3getEv, symObjAddr: 0x9724, symBinAddr: 0x10000BD14, symSize: 0x17C }
  - { offset: 0x253972, size: 0x8, addend: 0x0, symName: __ZN6parlay8internal24intrusive_acquire_retireINS0_12hazptr_stackIPSt4byteE4NodeENSt3__114default_deleteIS6_EELm1EED1Ev, symObjAddr: 0x9268, symBinAddr: 0x10000B858, symSize: 0x4BC }
  - { offset: 0x2549DF, size: 0x8, addend: 0x0, symName: __ZNK6parlay14ThreadSpecificINS_8internal24intrusive_acquire_retireINS1_12hazptr_stackIPSt4byteE4NodeENSt3__114default_deleteIS7_EELm1EE10ThreadDataEE19ensure_chunk_existsEm, symObjAddr: 0x98A0, symBinAddr: 0x10000BE90, symSize: 0x144 }
  - { offset: 0x254C3F, size: 0x8, addend: 0x0, symName: __ZNSt3__110__function6__funcIZN6parlay14ThreadSpecificINS2_8internal24intrusive_acquire_retireINS4_12hazptr_stackIPSt4byteE4NodeENS_14default_deleteISA_EELm1EE10ThreadDataEEC1EvEUlmE_NS_9allocatorISG_EEFSE_jEED1Ev, symObjAddr: 0x99E4, symBinAddr: 0x10000BFD4, symSize: 0x4 }
  - { offset: 0x254C6B, size: 0x8, addend: 0x0, symName: __ZNSt3__110__function6__funcIZN6parlay14ThreadSpecificINS2_8internal24intrusive_acquire_retireINS4_12hazptr_stackIPSt4byteE4NodeENS_14default_deleteISA_EELm1EE10ThreadDataEEC1EvEUlmE_NS_9allocatorISG_EEFSE_jEED0Ev, symObjAddr: 0x99E8, symBinAddr: 0x10000BFD8, symSize: 0x4 }
  - { offset: 0x254D22, size: 0x8, addend: 0x0, symName: __ZNKSt3__110__function6__funcIZN6parlay14ThreadSpecificINS2_8internal24intrusive_acquire_retireINS4_12hazptr_stackIPSt4byteE4NodeENS_14default_deleteISA_EELm1EE10ThreadDataEEC1EvEUlmE_NS_9allocatorISG_EEFSE_jEE7__cloneEv, symObjAddr: 0x99EC, symBinAddr: 0x10000BFDC, symSize: 0x24 }
  - { offset: 0x254E67, size: 0x8, addend: 0x0, symName: __ZNKSt3__110__function6__funcIZN6parlay14ThreadSpecificINS2_8internal24intrusive_acquire_retireINS4_12hazptr_stackIPSt4byteE4NodeENS_14default_deleteISA_EELm1EE10ThreadDataEEC1EvEUlmE_NS_9allocatorISG_EEFSE_jEE7__cloneEPNS0_6__baseISJ_EE, symObjAddr: 0x9A10, symBinAddr: 0x10000C000, symSize: 0x10 }
  - { offset: 0x254E9C, size: 0x8, addend: 0x0, symName: __ZNKSt3__110__function6__funcIZN6parlay14ThreadSpecificINS2_8internal24intrusive_acquire_retireINS4_12hazptr_stackIPSt4byteE4NodeENS_14default_deleteISA_EELm1EE10ThreadDataEEC1EvEUlmE_NS_9allocatorISG_EEFSE_jEE7__cloneEPNS0_6__baseISJ_EE, symObjAddr: 0x9A10, symBinAddr: 0x10000C000, symSize: 0x10 }
  - { offset: 0x254EB8, size: 0x8, addend: 0x0, symName: __ZNKSt3__110__function6__funcIZN6parlay14ThreadSpecificINS2_8internal24intrusive_acquire_retireINS4_12hazptr_stackIPSt4byteE4NodeENS_14default_deleteISA_EELm1EE10ThreadDataEEC1EvEUlmE_NS_9allocatorISG_EEFSE_jEE7__cloneEPNS0_6__baseISJ_EE, symObjAddr: 0x9A10, symBinAddr: 0x10000C000, symSize: 0x10 }
  - { offset: 0x254ED4, size: 0x8, addend: 0x0, symName: __ZNSt3__110__function6__funcIZN6parlay14ThreadSpecificINS2_8internal24intrusive_acquire_retireINS4_12hazptr_stackIPSt4byteE4NodeENS_14default_deleteISA_EELm1EE10ThreadDataEEC1EvEUlmE_NS_9allocatorISG_EEFSE_jEE7destroyEv, symObjAddr: 0x9A20, symBinAddr: 0x10000C010, symSize: 0x4 }
  - { offset: 0x254F25, size: 0x8, addend: 0x0, symName: __ZNSt3__110__function6__funcIZN6parlay14ThreadSpecificINS2_8internal24intrusive_acquire_retireINS4_12hazptr_stackIPSt4byteE4NodeENS_14default_deleteISA_EELm1EE10ThreadDataEEC1EvEUlmE_NS_9allocatorISG_EEFSE_jEE18destroy_deallocateEv, symObjAddr: 0x9A24, symBinAddr: 0x10000C014, symSize: 0x4 }
  - { offset: 0x254F5A, size: 0x8, addend: 0x0, symName: __ZNSt3__110__function6__funcIZN6parlay14ThreadSpecificINS2_8internal24intrusive_acquire_retireINS4_12hazptr_stackIPSt4byteE4NodeENS_14default_deleteISA_EELm1EE10ThreadDataEEC1EvEUlmE_NS_9allocatorISG_EEFSE_jEE18destroy_deallocateEv, symObjAddr: 0x9A24, symBinAddr: 0x10000C014, symSize: 0x4 }
  - { offset: 0x254F7C, size: 0x8, addend: 0x0, symName: __ZNSt3__110__function6__funcIZN6parlay14ThreadSpecificINS2_8internal24intrusive_acquire_retireINS4_12hazptr_stackIPSt4byteE4NodeENS_14default_deleteISA_EELm1EE10ThreadDataEEC1EvEUlmE_NS_9allocatorISG_EEFSE_jEE18destroy_deallocateEv, symObjAddr: 0x9A24, symBinAddr: 0x10000C014, symSize: 0x4 }
  - { offset: 0x254FA7, size: 0x8, addend: 0x0, symName: __ZNSt3__110__function6__funcIZN6parlay14ThreadSpecificINS2_8internal24intrusive_acquire_retireINS4_12hazptr_stackIPSt4byteE4NodeENS_14default_deleteISA_EELm1EE10ThreadDataEEC1EvEUlmE_NS_9allocatorISG_EEFSE_jEE18destroy_deallocateEv, symObjAddr: 0x9A24, symBinAddr: 0x10000C014, symSize: 0x4 }
  - { offset: 0x254FCD, size: 0x8, addend: 0x0, symName: __ZNSt3__110__function6__funcIZN6parlay14ThreadSpecificINS2_8internal24intrusive_acquire_retireINS4_12hazptr_stackIPSt4byteE4NodeENS_14default_deleteISA_EELm1EE10ThreadDataEEC1EvEUlmE_NS_9allocatorISG_EEFSE_jEE18destroy_deallocateEv, symObjAddr: 0x9A24, symBinAddr: 0x10000C014, symSize: 0x4 }
  - { offset: 0x255160, size: 0x8, addend: 0x0, symName: __ZNSt3__110__function6__funcIZN6parlay14ThreadSpecificINS2_8internal24intrusive_acquire_retireINS4_12hazptr_stackIPSt4byteE4NodeENS_14default_deleteISA_EELm1EE10ThreadDataEEC1EvEUlmE_NS_9allocatorISG_EEFSE_jEEclEOj, symObjAddr: 0x9A28, symBinAddr: 0x10000C018, symSize: 0x14 }
  - { offset: 0x255193, size: 0x8, addend: 0x0, symName: __ZNSt3__110__function6__funcIZN6parlay14ThreadSpecificINS2_8internal24intrusive_acquire_retireINS4_12hazptr_stackIPSt4byteE4NodeENS_14default_deleteISA_EELm1EE10ThreadDataEEC1EvEUlmE_NS_9allocatorISG_EEFSE_jEEclEOj, symObjAddr: 0x9A28, symBinAddr: 0x10000C018, symSize: 0x14 }
  - { offset: 0x2551A8, size: 0x8, addend: 0x0, symName: __ZNSt3__110__function6__funcIZN6parlay14ThreadSpecificINS2_8internal24intrusive_acquire_retireINS4_12hazptr_stackIPSt4byteE4NodeENS_14default_deleteISA_EELm1EE10ThreadDataEEC1EvEUlmE_NS_9allocatorISG_EEFSE_jEEclEOj, symObjAddr: 0x9A28, symBinAddr: 0x10000C018, symSize: 0x14 }
  - { offset: 0x2551BC, size: 0x8, addend: 0x0, symName: __ZNSt3__110__function6__funcIZN6parlay14ThreadSpecificINS2_8internal24intrusive_acquire_retireINS4_12hazptr_stackIPSt4byteE4NodeENS_14default_deleteISA_EELm1EE10ThreadDataEEC1EvEUlmE_NS_9allocatorISG_EEFSE_jEEclEOj, symObjAddr: 0x9A28, symBinAddr: 0x10000C018, symSize: 0x14 }
  - { offset: 0x2551D1, size: 0x8, addend: 0x0, symName: __ZNSt3__110__function6__funcIZN6parlay14ThreadSpecificINS2_8internal24intrusive_acquire_retireINS4_12hazptr_stackIPSt4byteE4NodeENS_14default_deleteISA_EELm1EE10ThreadDataEEC1EvEUlmE_NS_9allocatorISG_EEFSE_jEEclEOj, symObjAddr: 0x9A28, symBinAddr: 0x10000C018, symSize: 0x14 }
  - { offset: 0x2551E6, size: 0x8, addend: 0x0, symName: __ZNSt3__110__function6__funcIZN6parlay14ThreadSpecificINS2_8internal24intrusive_acquire_retireINS4_12hazptr_stackIPSt4byteE4NodeENS_14default_deleteISA_EELm1EE10ThreadDataEEC1EvEUlmE_NS_9allocatorISG_EEFSE_jEEclEOj, symObjAddr: 0x9A28, symBinAddr: 0x10000C018, symSize: 0x14 }
  - { offset: 0x255207, size: 0x8, addend: 0x0, symName: __ZNSt3__110__function6__funcIZN6parlay14ThreadSpecificINS2_8internal24intrusive_acquire_retireINS4_12hazptr_stackIPSt4byteE4NodeENS_14default_deleteISA_EELm1EE10ThreadDataEEC1EvEUlmE_NS_9allocatorISG_EEFSE_jEEclEOj, symObjAddr: 0x9A28, symBinAddr: 0x10000C018, symSize: 0x14 }
  - { offset: 0x255228, size: 0x8, addend: 0x0, symName: __ZNSt3__110__function6__funcIZN6parlay14ThreadSpecificINS2_8internal24intrusive_acquire_retireINS4_12hazptr_stackIPSt4byteE4NodeENS_14default_deleteISA_EELm1EE10ThreadDataEEC1EvEUlmE_NS_9allocatorISG_EEFSE_jEEclEOj, symObjAddr: 0x9A28, symBinAddr: 0x10000C018, symSize: 0x14 }
  - { offset: 0x255249, size: 0x8, addend: 0x0, symName: __ZNSt3__110__function6__funcIZN6parlay14ThreadSpecificINS2_8internal24intrusive_acquire_retireINS4_12hazptr_stackIPSt4byteE4NodeENS_14default_deleteISA_EELm1EE10ThreadDataEEC1EvEUlmE_NS_9allocatorISG_EEFSE_jEEclEOj, symObjAddr: 0x9A28, symBinAddr: 0x10000C018, symSize: 0x14 }
  - { offset: 0x25526A, size: 0x8, addend: 0x0, symName: __ZNSt3__110__function6__funcIZN6parlay14ThreadSpecificINS2_8internal24intrusive_acquire_retireINS4_12hazptr_stackIPSt4byteE4NodeENS_14default_deleteISA_EELm1EE10ThreadDataEEC1EvEUlmE_NS_9allocatorISG_EEFSE_jEEclEOj, symObjAddr: 0x9A28, symBinAddr: 0x10000C018, symSize: 0x14 }
  - { offset: 0x25528C, size: 0x8, addend: 0x0, symName: __ZNSt3__110__function6__funcIZN6parlay14ThreadSpecificINS2_8internal24intrusive_acquire_retireINS4_12hazptr_stackIPSt4byteE4NodeENS_14default_deleteISA_EELm1EE10ThreadDataEEC1EvEUlmE_NS_9allocatorISG_EEFSE_jEEclEOj, symObjAddr: 0x9A28, symBinAddr: 0x10000C018, symSize: 0x14 }
  - { offset: 0x2552B6, size: 0x8, addend: 0x0, symName: __ZNKSt3__110__function6__funcIZN6parlay14ThreadSpecificINS2_8internal24intrusive_acquire_retireINS4_12hazptr_stackIPSt4byteE4NodeENS_14default_deleteISA_EELm1EE10ThreadDataEEC1EvEUlmE_NS_9allocatorISG_EEFSE_jEE6targetERKSt9type_info, symObjAddr: 0x9A3C, symBinAddr: 0x10000C02C, symSize: 0x64 }
  - { offset: 0x255350, size: 0x8, addend: 0x0, symName: __ZNKSt3__110__function6__funcIZN6parlay14ThreadSpecificINS2_8internal24intrusive_acquire_retireINS4_12hazptr_stackIPSt4byteE4NodeENS_14default_deleteISA_EELm1EE10ThreadDataEEC1EvEUlmE_NS_9allocatorISG_EEFSE_jEE11target_typeEv, symObjAddr: 0x9AA0, symBinAddr: 0x10000C090, symSize: 0xC }
  - { offset: 0x25585B, size: 0x8, addend: 0x0, symName: __ZN6parlay8internal24intrusive_acquire_retireINS0_12hazptr_stackIPvE4NodeENSt3__114default_deleteIS5_EELm1EED1Ev, symObjAddr: 0x9F84, symBinAddr: 0x10000C574, symSize: 0x4BC }
  - { offset: 0x256924, size: 0x8, addend: 0x0, symName: __ZNSt3__110__function6__funcIZN6parlay14ThreadSpecificINS2_8internal24intrusive_acquire_retireINS4_12hazptr_stackIPvE4NodeENS_14default_deleteIS9_EELm1EE10ThreadDataEEC1EvEUlmE_NS_9allocatorISF_EEFSD_jEED1Ev, symObjAddr: 0xA810, symBinAddr: 0x10000CCF0, symSize: 0x4 }
  - { offset: 0x256950, size: 0x8, addend: 0x0, symName: __ZNSt3__110__function6__funcIZN6parlay14ThreadSpecificINS2_8internal24intrusive_acquire_retireINS4_12hazptr_stackIPvE4NodeENS_14default_deleteIS9_EELm1EE10ThreadDataEEC1EvEUlmE_NS_9allocatorISF_EEFSD_jEED0Ev, symObjAddr: 0xA814, symBinAddr: 0x10000CCF4, symSize: 0x4 }
  - { offset: 0x256A07, size: 0x8, addend: 0x0, symName: __ZNKSt3__110__function6__funcIZN6parlay14ThreadSpecificINS2_8internal24intrusive_acquire_retireINS4_12hazptr_stackIPvE4NodeENS_14default_deleteIS9_EELm1EE10ThreadDataEEC1EvEUlmE_NS_9allocatorISF_EEFSD_jEE7__cloneEv, symObjAddr: 0xA818, symBinAddr: 0x10000CCF8, symSize: 0x24 }
  - { offset: 0x256B4C, size: 0x8, addend: 0x0, symName: __ZNKSt3__110__function6__funcIZN6parlay14ThreadSpecificINS2_8internal24intrusive_acquire_retireINS4_12hazptr_stackIPvE4NodeENS_14default_deleteIS9_EELm1EE10ThreadDataEEC1EvEUlmE_NS_9allocatorISF_EEFSD_jEE7__cloneEPNS0_6__baseISI_EE, symObjAddr: 0xA83C, symBinAddr: 0x10000CD1C, symSize: 0x10 }
  - { offset: 0x256B81, size: 0x8, addend: 0x0, symName: __ZNKSt3__110__function6__funcIZN6parlay14ThreadSpecificINS2_8internal24intrusive_acquire_retireINS4_12hazptr_stackIPvE4NodeENS_14default_deleteIS9_EELm1EE10ThreadDataEEC1EvEUlmE_NS_9allocatorISF_EEFSD_jEE7__cloneEPNS0_6__baseISI_EE, symObjAddr: 0xA83C, symBinAddr: 0x10000CD1C, symSize: 0x10 }
  - { offset: 0x256B9D, size: 0x8, addend: 0x0, symName: __ZNKSt3__110__function6__funcIZN6parlay14ThreadSpecificINS2_8internal24intrusive_acquire_retireINS4_12hazptr_stackIPvE4NodeENS_14default_deleteIS9_EELm1EE10ThreadDataEEC1EvEUlmE_NS_9allocatorISF_EEFSD_jEE7__cloneEPNS0_6__baseISI_EE, symObjAddr: 0xA83C, symBinAddr: 0x10000CD1C, symSize: 0x10 }
  - { offset: 0x256BB9, size: 0x8, addend: 0x0, symName: __ZNSt3__110__function6__funcIZN6parlay14ThreadSpecificINS2_8internal24intrusive_acquire_retireINS4_12hazptr_stackIPvE4NodeENS_14default_deleteIS9_EELm1EE10ThreadDataEEC1EvEUlmE_NS_9allocatorISF_EEFSD_jEE7destroyEv, symObjAddr: 0xA84C, symBinAddr: 0x10000CD2C, symSize: 0x4 }
  - { offset: 0x256C0A, size: 0x8, addend: 0x0, symName: __ZNSt3__110__function6__funcIZN6parlay14ThreadSpecificINS2_8internal24intrusive_acquire_retireINS4_12hazptr_stackIPvE4NodeENS_14default_deleteIS9_EELm1EE10ThreadDataEEC1EvEUlmE_NS_9allocatorISF_EEFSD_jEE18destroy_deallocateEv, symObjAddr: 0xA850, symBinAddr: 0x10000CD30, symSize: 0x4 }
  - { offset: 0x256C3F, size: 0x8, addend: 0x0, symName: __ZNSt3__110__function6__funcIZN6parlay14ThreadSpecificINS2_8internal24intrusive_acquire_retireINS4_12hazptr_stackIPvE4NodeENS_14default_deleteIS9_EELm1EE10ThreadDataEEC1EvEUlmE_NS_9allocatorISF_EEFSD_jEE18destroy_deallocateEv, symObjAddr: 0xA850, symBinAddr: 0x10000CD30, symSize: 0x4 }
  - { offset: 0x256C61, size: 0x8, addend: 0x0, symName: __ZNSt3__110__function6__funcIZN6parlay14ThreadSpecificINS2_8internal24intrusive_acquire_retireINS4_12hazptr_stackIPvE4NodeENS_14default_deleteIS9_EELm1EE10ThreadDataEEC1EvEUlmE_NS_9allocatorISF_EEFSD_jEE18destroy_deallocateEv, symObjAddr: 0xA850, symBinAddr: 0x10000CD30, symSize: 0x4 }
  - { offset: 0x256C8C, size: 0x8, addend: 0x0, symName: __ZNSt3__110__function6__funcIZN6parlay14ThreadSpecificINS2_8internal24intrusive_acquire_retireINS4_12hazptr_stackIPvE4NodeENS_14default_deleteIS9_EELm1EE10ThreadDataEEC1EvEUlmE_NS_9allocatorISF_EEFSD_jEE18destroy_deallocateEv, symObjAddr: 0xA850, symBinAddr: 0x10000CD30, symSize: 0x4 }
  - { offset: 0x256CB2, size: 0x8, addend: 0x0, symName: __ZNSt3__110__function6__funcIZN6parlay14ThreadSpecificINS2_8internal24intrusive_acquire_retireINS4_12hazptr_stackIPvE4NodeENS_14default_deleteIS9_EELm1EE10ThreadDataEEC1EvEUlmE_NS_9allocatorISF_EEFSD_jEE18destroy_deallocateEv, symObjAddr: 0xA850, symBinAddr: 0x10000CD30, symSize: 0x4 }
  - { offset: 0x256E45, size: 0x8, addend: 0x0, symName: __ZNSt3__110__function6__funcIZN6parlay14ThreadSpecificINS2_8internal24intrusive_acquire_retireINS4_12hazptr_stackIPvE4NodeENS_14default_deleteIS9_EELm1EE10ThreadDataEEC1EvEUlmE_NS_9allocatorISF_EEFSD_jEEclEOj, symObjAddr: 0xA854, symBinAddr: 0x10000CD34, symSize: 0x14 }
  - { offset: 0x256E78, size: 0x8, addend: 0x0, symName: __ZNSt3__110__function6__funcIZN6parlay14ThreadSpecificINS2_8internal24intrusive_acquire_retireINS4_12hazptr_stackIPvE4NodeENS_14default_deleteIS9_EELm1EE10ThreadDataEEC1EvEUlmE_NS_9allocatorISF_EEFSD_jEEclEOj, symObjAddr: 0xA854, symBinAddr: 0x10000CD34, symSize: 0x14 }
  - { offset: 0x256E8D, size: 0x8, addend: 0x0, symName: __ZNSt3__110__function6__funcIZN6parlay14ThreadSpecificINS2_8internal24intrusive_acquire_retireINS4_12hazptr_stackIPvE4NodeENS_14default_deleteIS9_EELm1EE10ThreadDataEEC1EvEUlmE_NS_9allocatorISF_EEFSD_jEEclEOj, symObjAddr: 0xA854, symBinAddr: 0x10000CD34, symSize: 0x14 }
  - { offset: 0x256EA1, size: 0x8, addend: 0x0, symName: __ZNSt3__110__function6__funcIZN6parlay14ThreadSpecificINS2_8internal24intrusive_acquire_retireINS4_12hazptr_stackIPvE4NodeENS_14default_deleteIS9_EELm1EE10ThreadDataEEC1EvEUlmE_NS_9allocatorISF_EEFSD_jEEclEOj, symObjAddr: 0xA854, symBinAddr: 0x10000CD34, symSize: 0x14 }
  - { offset: 0x256EB6, size: 0x8, addend: 0x0, symName: __ZNSt3__110__function6__funcIZN6parlay14ThreadSpecificINS2_8internal24intrusive_acquire_retireINS4_12hazptr_stackIPvE4NodeENS_14default_deleteIS9_EELm1EE10ThreadDataEEC1EvEUlmE_NS_9allocatorISF_EEFSD_jEEclEOj, symObjAddr: 0xA854, symBinAddr: 0x10000CD34, symSize: 0x14 }
  - { offset: 0x256ECB, size: 0x8, addend: 0x0, symName: __ZNSt3__110__function6__funcIZN6parlay14ThreadSpecificINS2_8internal24intrusive_acquire_retireINS4_12hazptr_stackIPvE4NodeENS_14default_deleteIS9_EELm1EE10ThreadDataEEC1EvEUlmE_NS_9allocatorISF_EEFSD_jEEclEOj, symObjAddr: 0xA854, symBinAddr: 0x10000CD34, symSize: 0x14 }
  - { offset: 0x256EEC, size: 0x8, addend: 0x0, symName: __ZNSt3__110__function6__funcIZN6parlay14ThreadSpecificINS2_8internal24intrusive_acquire_retireINS4_12hazptr_stackIPvE4NodeENS_14default_deleteIS9_EELm1EE10ThreadDataEEC1EvEUlmE_NS_9allocatorISF_EEFSD_jEEclEOj, symObjAddr: 0xA854, symBinAddr: 0x10000CD34, symSize: 0x14 }
  - { offset: 0x256F0D, size: 0x8, addend: 0x0, symName: __ZNSt3__110__function6__funcIZN6parlay14ThreadSpecificINS2_8internal24intrusive_acquire_retireINS4_12hazptr_stackIPvE4NodeENS_14default_deleteIS9_EELm1EE10ThreadDataEEC1EvEUlmE_NS_9allocatorISF_EEFSD_jEEclEOj, symObjAddr: 0xA854, symBinAddr: 0x10000CD34, symSize: 0x14 }
  - { offset: 0x256F2E, size: 0x8, addend: 0x0, symName: __ZNSt3__110__function6__funcIZN6parlay14ThreadSpecificINS2_8internal24intrusive_acquire_retireINS4_12hazptr_stackIPvE4NodeENS_14default_deleteIS9_EELm1EE10ThreadDataEEC1EvEUlmE_NS_9allocatorISF_EEFSD_jEEclEOj, symObjAddr: 0xA854, symBinAddr: 0x10000CD34, symSize: 0x14 }
  - { offset: 0x256F4F, size: 0x8, addend: 0x0, symName: __ZNSt3__110__function6__funcIZN6parlay14ThreadSpecificINS2_8internal24intrusive_acquire_retireINS4_12hazptr_stackIPvE4NodeENS_14default_deleteIS9_EELm1EE10ThreadDataEEC1EvEUlmE_NS_9allocatorISF_EEFSD_jEEclEOj, symObjAddr: 0xA854, symBinAddr: 0x10000CD34, symSize: 0x14 }
  - { offset: 0x256F71, size: 0x8, addend: 0x0, symName: __ZNSt3__110__function6__funcIZN6parlay14ThreadSpecificINS2_8internal24intrusive_acquire_retireINS4_12hazptr_stackIPvE4NodeENS_14default_deleteIS9_EELm1EE10ThreadDataEEC1EvEUlmE_NS_9allocatorISF_EEFSD_jEEclEOj, symObjAddr: 0xA854, symBinAddr: 0x10000CD34, symSize: 0x14 }
  - { offset: 0x256F9B, size: 0x8, addend: 0x0, symName: __ZNKSt3__110__function6__funcIZN6parlay14ThreadSpecificINS2_8internal24intrusive_acquire_retireINS4_12hazptr_stackIPvE4NodeENS_14default_deleteIS9_EELm1EE10ThreadDataEEC1EvEUlmE_NS_9allocatorISF_EEFSD_jEE6targetERKSt9type_info, symObjAddr: 0xA868, symBinAddr: 0x10000CD48, symSize: 0x64 }
  - { offset: 0x257035, size: 0x8, addend: 0x0, symName: __ZNKSt3__110__function6__funcIZN6parlay14ThreadSpecificINS2_8internal24intrusive_acquire_retireINS4_12hazptr_stackIPvE4NodeENS_14default_deleteIS9_EELm1EE10ThreadDataEEC1EvEUlmE_NS_9allocatorISF_EEFSD_jEE11target_typeEv, symObjAddr: 0xA8CC, symBinAddr: 0x10000CDAC, symSize: 0xC }
  - { offset: 0x257668, size: 0x8, addend: 0x0, symName: __ZNSt3__110unique_ptrINS_5tupleIJNS0_INS_15__thread_structENS_14default_deleteIS2_EEEEZN6parlay9schedulerINS6_15WorkStealingJobEEC1EmEUlvE_EEENS3_ISB_EEED1B8ue170006Ev, symObjAddr: 0xB250, symBinAddr: 0x10000D71C, symSize: 0x48 }
  - { offset: 0x257811, size: 0x8, addend: 0x0, symName: __ZNSt3__110unique_ptrINS_15__thread_structENS_14default_deleteIS1_EEED1B8ue170006Ev, symObjAddr: 0xB298, symBinAddr: 0x10000D764, symSize: 0x34 }
  - { offset: 0x257D8A, size: 0x8, addend: 0x0, symName: __Z17__cxx_atomic_waitImEvPKT_S0_i, symObjAddr: 0xB2CC, symBinAddr: 0x10000D798, symSize: 0x160 }
  - { offset: 0x257E3C, size: 0x8, addend: 0x0, symName: __Z26__cxx_atomic_try_wait_slowImEvPVKT_S0_i, symObjAddr: 0xB42C, symBinAddr: 0x10000D8F8, symSize: 0x6C }
  - { offset: 0x25830C, size: 0x8, addend: 0x0, symName: __ZN6parlay8sequenceINSt3__15tupleIJlldEEENS_9allocatorIS3_EELb0EEC2Ev, symObjAddr: 0xD894, symBinAddr: 0x10000FC3C, symSize: 0x128 }
  - { offset: 0x25899C, size: 0x8, addend: 0x0, symName: __ZN6parlay8internal15block_allocatorC2Emmmmm, symObjAddr: 0xD258, symBinAddr: 0x10000F614, symSize: 0x568 }
  - { offset: 0x259604, size: 0x8, addend: 0x0, symName: __ZN6parlay8internal15block_allocatorD2Ev, symObjAddr: 0xBD40, symBinAddr: 0x10000E20C, symSize: 0x115C }
  - { offset: 0x25D636, size: 0x8, addend: 0x0, symName: __ZN6parlay8internal14pool_allocatorD1Ev, symObjAddr: 0xBC00, symBinAddr: 0x10000E0CC, symSize: 0x140 }
  - { offset: 0x25ED6A, size: 0x8, addend: 0x0, symName: __ZN6parlay14ThreadSpecificINS_8internal15block_allocator10local_listEED1Ev, symObjAddr: 0xCE9C, symBinAddr: 0x10000F368, symSize: 0x2AC }
  - { offset: 0x25F24E, size: 0x8, addend: 0x0, symName: __ZNSt3__110__function6__funcIZN6parlay14ThreadSpecificINS2_8internal15block_allocator10local_listEEC1EvEUlmE_NS_9allocatorIS8_EEFS6_jEED1Ev, symObjAddr: 0xD7C0, symBinAddr: 0x10000FB7C, symSize: 0x4 }
  - { offset: 0x25F27A, size: 0x8, addend: 0x0, symName: __ZNSt3__110__function6__funcIZN6parlay14ThreadSpecificINS2_8internal15block_allocator10local_listEEC1EvEUlmE_NS_9allocatorIS8_EEFS6_jEED0Ev, symObjAddr: 0xD7C4, symBinAddr: 0x10000FB80, symSize: 0x4 }
  - { offset: 0x25F331, size: 0x8, addend: 0x0, symName: __ZNKSt3__110__function6__funcIZN6parlay14ThreadSpecificINS2_8internal15block_allocator10local_listEEC1EvEUlmE_NS_9allocatorIS8_EEFS6_jEE7__cloneEv, symObjAddr: 0xD7C8, symBinAddr: 0x10000FB84, symSize: 0x24 }
  - { offset: 0x25F476, size: 0x8, addend: 0x0, symName: __ZNKSt3__110__function6__funcIZN6parlay14ThreadSpecificINS2_8internal15block_allocator10local_listEEC1EvEUlmE_NS_9allocatorIS8_EEFS6_jEE7__cloneEPNS0_6__baseISB_EE, symObjAddr: 0xD7EC, symBinAddr: 0x10000FBA8, symSize: 0x10 }
  - { offset: 0x25F4AB, size: 0x8, addend: 0x0, symName: __ZNKSt3__110__function6__funcIZN6parlay14ThreadSpecificINS2_8internal15block_allocator10local_listEEC1EvEUlmE_NS_9allocatorIS8_EEFS6_jEE7__cloneEPNS0_6__baseISB_EE, symObjAddr: 0xD7EC, symBinAddr: 0x10000FBA8, symSize: 0x10 }
  - { offset: 0x25F4C7, size: 0x8, addend: 0x0, symName: __ZNKSt3__110__function6__funcIZN6parlay14ThreadSpecificINS2_8internal15block_allocator10local_listEEC1EvEUlmE_NS_9allocatorIS8_EEFS6_jEE7__cloneEPNS0_6__baseISB_EE, symObjAddr: 0xD7EC, symBinAddr: 0x10000FBA8, symSize: 0x10 }
  - { offset: 0x25F4E3, size: 0x8, addend: 0x0, symName: __ZNSt3__110__function6__funcIZN6parlay14ThreadSpecificINS2_8internal15block_allocator10local_listEEC1EvEUlmE_NS_9allocatorIS8_EEFS6_jEE7destroyEv, symObjAddr: 0xD7FC, symBinAddr: 0x10000FBB8, symSize: 0x4 }
  - { offset: 0x25F534, size: 0x8, addend: 0x0, symName: __ZNSt3__110__function6__funcIZN6parlay14ThreadSpecificINS2_8internal15block_allocator10local_listEEC1EvEUlmE_NS_9allocatorIS8_EEFS6_jEE18destroy_deallocateEv, symObjAddr: 0xD800, symBinAddr: 0x10000FBBC, symSize: 0x4 }
  - { offset: 0x25F569, size: 0x8, addend: 0x0, symName: __ZNSt3__110__function6__funcIZN6parlay14ThreadSpecificINS2_8internal15block_allocator10local_listEEC1EvEUlmE_NS_9allocatorIS8_EEFS6_jEE18destroy_deallocateEv, symObjAddr: 0xD800, symBinAddr: 0x10000FBBC, symSize: 0x4 }
  - { offset: 0x25F58B, size: 0x8, addend: 0x0, symName: __ZNSt3__110__function6__funcIZN6parlay14ThreadSpecificINS2_8internal15block_allocator10local_listEEC1EvEUlmE_NS_9allocatorIS8_EEFS6_jEE18destroy_deallocateEv, symObjAddr: 0xD800, symBinAddr: 0x10000FBBC, symSize: 0x4 }
  - { offset: 0x25F5B6, size: 0x8, addend: 0x0, symName: __ZNSt3__110__function6__funcIZN6parlay14ThreadSpecificINS2_8internal15block_allocator10local_listEEC1EvEUlmE_NS_9allocatorIS8_EEFS6_jEE18destroy_deallocateEv, symObjAddr: 0xD800, symBinAddr: 0x10000FBBC, symSize: 0x4 }
  - { offset: 0x25F5DC, size: 0x8, addend: 0x0, symName: __ZNSt3__110__function6__funcIZN6parlay14ThreadSpecificINS2_8internal15block_allocator10local_listEEC1EvEUlmE_NS_9allocatorIS8_EEFS6_jEE18destroy_deallocateEv, symObjAddr: 0xD800, symBinAddr: 0x10000FBBC, symSize: 0x4 }
  - { offset: 0x25F6B6, size: 0x8, addend: 0x0, symName: __ZNSt3__110__function6__funcIZN6parlay14ThreadSpecificINS2_8internal15block_allocator10local_listEEC1EvEUlmE_NS_9allocatorIS8_EEFS6_jEEclEOj, symObjAddr: 0xD804, symBinAddr: 0x10000FBC0, symSize: 0xC }
  - { offset: 0x25F6E9, size: 0x8, addend: 0x0, symName: __ZNSt3__110__function6__funcIZN6parlay14ThreadSpecificINS2_8internal15block_allocator10local_listEEC1EvEUlmE_NS_9allocatorIS8_EEFS6_jEEclEOj, symObjAddr: 0xD804, symBinAddr: 0x10000FBC0, symSize: 0xC }
  - { offset: 0x25F6FE, size: 0x8, addend: 0x0, symName: __ZNSt3__110__function6__funcIZN6parlay14ThreadSpecificINS2_8internal15block_allocator10local_listEEC1EvEUlmE_NS_9allocatorIS8_EEFS6_jEEclEOj, symObjAddr: 0xD804, symBinAddr: 0x10000FBC0, symSize: 0xC }
  - { offset: 0x25F712, size: 0x8, addend: 0x0, symName: __ZNSt3__110__function6__funcIZN6parlay14ThreadSpecificINS2_8internal15block_allocator10local_listEEC1EvEUlmE_NS_9allocatorIS8_EEFS6_jEEclEOj, symObjAddr: 0xD804, symBinAddr: 0x10000FBC0, symSize: 0xC }
  - { offset: 0x25F727, size: 0x8, addend: 0x0, symName: __ZNSt3__110__function6__funcIZN6parlay14ThreadSpecificINS2_8internal15block_allocator10local_listEEC1EvEUlmE_NS_9allocatorIS8_EEFS6_jEEclEOj, symObjAddr: 0xD804, symBinAddr: 0x10000FBC0, symSize: 0xC }
  - { offset: 0x25F73C, size: 0x8, addend: 0x0, symName: __ZNSt3__110__function6__funcIZN6parlay14ThreadSpecificINS2_8internal15block_allocator10local_listEEC1EvEUlmE_NS_9allocatorIS8_EEFS6_jEEclEOj, symObjAddr: 0xD804, symBinAddr: 0x10000FBC0, symSize: 0xC }
  - { offset: 0x25F757, size: 0x8, addend: 0x0, symName: __ZNSt3__110__function6__funcIZN6parlay14ThreadSpecificINS2_8internal15block_allocator10local_listEEC1EvEUlmE_NS_9allocatorIS8_EEFS6_jEEclEOj, symObjAddr: 0xD804, symBinAddr: 0x10000FBC0, symSize: 0xC }
  - { offset: 0x25F776, size: 0x8, addend: 0x0, symName: __ZNKSt3__110__function6__funcIZN6parlay14ThreadSpecificINS2_8internal15block_allocator10local_listEEC1EvEUlmE_NS_9allocatorIS8_EEFS6_jEE6targetERKSt9type_info, symObjAddr: 0xD810, symBinAddr: 0x10000FBCC, symSize: 0x64 }
  - { offset: 0x25F810, size: 0x8, addend: 0x0, symName: __ZNKSt3__110__function6__funcIZN6parlay14ThreadSpecificINS2_8internal15block_allocator10local_listEEC1EvEUlmE_NS_9allocatorIS8_EEFS6_jEE11target_typeEv, symObjAddr: 0xD874, symBinAddr: 0x10000FC30, symSize: 0xC }
  - { offset: 0x25F8E6, size: 0x8, addend: 0x0, symName: __ZN6parlay8sequenceINSt3__15tupleIJlldEEENS_9allocatorIS3_EELb0EEC2Ev, symObjAddr: 0xD894, symBinAddr: 0x10000FC3C, symSize: 0x128 }
  - { offset: 0x26100E, size: 0x8, addend: 0x0, symName: __ZN6parlay17sequence_internal13sequence_baseINSt3__15tupleIJlldEEENS_9allocatorIS4_EELb0EE12storage_impl15ensure_capacityEm, symObjAddr: 0xFB1C, symBinAddr: 0x100011EC4, symSize: 0x25C }
  - { offset: 0x261847, size: 0x8, addend: 0x0, symName: __ZN6parlay7JobImplIZNS_19fork_join_scheduler7parfor_IZNS_24uninitialized_relocate_nIPNSt3__15tupleIJlldEEEmS7_EENS4_4pairIT_T1_EES9_T0_SA_EUlmE_EEvRNS_9schedulerINS_15WorkStealingJobEEEmmRS9_mbEUlvE0_ED1Ev, symObjAddr: 0x10328, symBinAddr: 0x1000126D0, symSize: 0x4 }
  - { offset: 0x261872, size: 0x8, addend: 0x0, symName: __ZN6parlay7JobImplIZNS_19fork_join_scheduler7parfor_IZNS_24uninitialized_relocate_nIPNSt3__15tupleIJlldEEEmS7_EENS4_4pairIT_T1_EES9_T0_SA_EUlmE_EEvRNS_9schedulerINS_15WorkStealingJobEEEmmRS9_mbEUlvE0_ED0Ev, symObjAddr: 0x1032C, symBinAddr: 0x1000126D4, symSize: 0x4 }
  - { offset: 0x26189D, size: 0x8, addend: 0x0, symName: __ZN6parlay7JobImplIZNS_19fork_join_scheduler7parfor_IZNS_24uninitialized_relocate_nIPNSt3__15tupleIJlldEEEmS7_EENS4_4pairIT_T1_EES9_T0_SA_EUlmE_EEvRNS_9schedulerINS_15WorkStealingJobEEEmmRS9_mbEUlvE0_E7executeEv, symObjAddr: 0x10330, symBinAddr: 0x1000126D8, symSize: 0x24 }
  - { offset: 0x2618EF, size: 0x8, addend: 0x0, symName: '__ZN6parlay7JobImplIZNS_19fork_join_scheduler7parfor_IZNS_8internal10sliced_forIZNS3_10filter_mapINS_5sliceIPNSt3__15tupleIJlldEEESA_EEZ21generate_random_edgesRKNS_8sequenceIlNS_9allocatorIlEELb0EEEbE3$_1RZNS3_6filterISB_SI_EENSC_INT_10value_typeENSD_ISL_EEXsr3std7is_sameISL_cEE5valueEEERKSK_OT0_EUlOSK_E_EEDaSP_SR_OT1_EUlmmmE0_EEvmmSP_jEUlmE_EEvRNS_9schedulerINS_15WorkStealingJobEEEmmRSK_mbEUlvE0_ED1Ev', symObjAddr: 0x10354, symBinAddr: 0x1000126FC, symSize: 0x4 }
  - { offset: 0x26191A, size: 0x8, addend: 0x0, symName: '__ZN6parlay7JobImplIZNS_19fork_join_scheduler7parfor_IZNS_8internal10sliced_forIZNS3_10filter_mapINS_5sliceIPNSt3__15tupleIJlldEEESA_EEZ21generate_random_edgesRKNS_8sequenceIlNS_9allocatorIlEELb0EEEbE3$_1RZNS3_6filterISB_SI_EENSC_INT_10value_typeENSD_ISL_EEXsr3std7is_sameISL_cEE5valueEEERKSK_OT0_EUlOSK_E_EEDaSP_SR_OT1_EUlmmmE0_EEvmmSP_jEUlmE_EEvRNS_9schedulerINS_15WorkStealingJobEEEmmRSK_mbEUlvE0_ED0Ev', symObjAddr: 0x10358, symBinAddr: 0x100012700, symSize: 0x4 }
  - { offset: 0x261945, size: 0x8, addend: 0x0, symName: '__ZN6parlay7JobImplIZNS_19fork_join_scheduler7parfor_IZNS_8internal10sliced_forIZNS3_10filter_mapINS_5sliceIPNSt3__15tupleIJlldEEESA_EEZ21generate_random_edgesRKNS_8sequenceIlNS_9allocatorIlEELb0EEEbE3$_1RZNS3_6filterISB_SI_EENSC_INT_10value_typeENSD_ISL_EEXsr3std7is_sameISL_cEE5valueEEERKSK_OT0_EUlOSK_E_EEDaSP_SR_OT1_EUlmmmE0_EEvmmSP_jEUlmE_EEvRNS_9schedulerINS_15WorkStealingJobEEEmmRSK_mbEUlvE0_E7executeEv', symObjAddr: 0x1035C, symBinAddr: 0x100012704, symSize: 0x24 }
  - { offset: 0x261997, size: 0x8, addend: 0x0, symName: '__ZN6parlay7JobImplIZNS_19fork_join_scheduler7parfor_IZNS_8internal10sliced_forIZNS3_10filter_mapINS_5sliceIPNSt3__15tupleIJlldEEESA_EEZ21generate_random_edgesRKNS_8sequenceIlNS_9allocatorIlEELb0EEEbE3$_1RZNS3_6filterISB_SI_EENSC_INT_10value_typeENSD_ISL_EEXsr3std7is_sameISL_cEE5valueEEERKSK_OT0_EUlOSK_E_EEDaSP_SR_OT1_EUlmmmE_EEvmmSP_jEUlmE_EEvRNS_9schedulerINS_15WorkStealingJobEEEmmRSK_mbEUlvE0_ED1Ev', symObjAddr: 0x10380, symBinAddr: 0x100012728, symSize: 0x4 }
  - { offset: 0x2619C2, size: 0x8, addend: 0x0, symName: '__ZN6parlay7JobImplIZNS_19fork_join_scheduler7parfor_IZNS_8internal10sliced_forIZNS3_10filter_mapINS_5sliceIPNSt3__15tupleIJlldEEESA_EEZ21generate_random_edgesRKNS_8sequenceIlNS_9allocatorIlEELb0EEEbE3$_1RZNS3_6filterISB_SI_EENSC_INT_10value_typeENSD_ISL_EEXsr3std7is_sameISL_cEE5valueEEERKSK_OT0_EUlOSK_E_EEDaSP_SR_OT1_EUlmmmE_EEvmmSP_jEUlmE_EEvRNS_9schedulerINS_15WorkStealingJobEEEmmRSK_mbEUlvE0_ED0Ev', symObjAddr: 0x10384, symBinAddr: 0x10001272C, symSize: 0x4 }
  - { offset: 0x2619ED, size: 0x8, addend: 0x0, symName: '__ZN6parlay7JobImplIZNS_19fork_join_scheduler7parfor_IZNS_8internal10sliced_forIZNS3_10filter_mapINS_5sliceIPNSt3__15tupleIJlldEEESA_EEZ21generate_random_edgesRKNS_8sequenceIlNS_9allocatorIlEELb0EEEbE3$_1RZNS3_6filterISB_SI_EENSC_INT_10value_typeENSD_ISL_EEXsr3std7is_sameISL_cEE5valueEEERKSK_OT0_EUlOSK_E_EEDaSP_SR_OT1_EUlmmmE_EEvmmSP_jEUlmE_EEvRNS_9schedulerINS_15WorkStealingJobEEEmmRSK_mbEUlvE0_E7executeEv', symObjAddr: 0x10388, symBinAddr: 0x100012730, symSize: 0x24 }
  - { offset: 0x261A3F, size: 0x8, addend: 0x0, symName: '__ZN6parlay7JobImplIZNS_19fork_join_scheduler7parfor_IZNS_8sequenceINSt3__15tupleIJlldEEENS_9allocatorIS6_EELb0EEC1IZ21generate_random_edgesRKNS3_IlNS7_IlEELb0EEEbE3$_0EEmOT_NS9_18_from_function_tagEmEUlmE_EEvRNS_9schedulerINS_15WorkStealingJobEEEmmRSG_mbEUlvE0_ED1Ev', symObjAddr: 0x103AC, symBinAddr: 0x100012754, symSize: 0x4 }
  - { offset: 0x261A6A, size: 0x8, addend: 0x0, symName: '__ZN6parlay7JobImplIZNS_19fork_join_scheduler7parfor_IZNS_8sequenceINSt3__15tupleIJlldEEENS_9allocatorIS6_EELb0EEC1IZ21generate_random_edgesRKNS3_IlNS7_IlEELb0EEEbE3$_0EEmOT_NS9_18_from_function_tagEmEUlmE_EEvRNS_9schedulerINS_15WorkStealingJobEEEmmRSG_mbEUlvE0_ED0Ev', symObjAddr: 0x103B0, symBinAddr: 0x100012758, symSize: 0x4 }
  - { offset: 0x261A95, size: 0x8, addend: 0x0, symName: '__ZN6parlay7JobImplIZNS_19fork_join_scheduler7parfor_IZNS_8sequenceINSt3__15tupleIJlldEEENS_9allocatorIS6_EELb0EEC1IZ21generate_random_edgesRKNS3_IlNS7_IlEELb0EEEbE3$_0EEmOT_NS9_18_from_function_tagEmEUlmE_EEvRNS_9schedulerINS_15WorkStealingJobEEEmmRSG_mbEUlvE0_E7executeEv', symObjAddr: 0x103B4, symBinAddr: 0x10001275C, symSize: 0x24 }
  - { offset: 0x261AE7, size: 0x8, addend: 0x0, symName: '__ZN6parlay7JobImplIZNS_19fork_join_scheduler7parfor_IZ21generate_random_edgesRKNS_8sequenceIlNS_9allocatorIlEELb0EEEbE3$_3EEvRNS_9schedulerINS_15WorkStealingJobEEEmmRT_mbEUlvE0_ED1Ev', symObjAddr: 0x103D8, symBinAddr: 0x100012780, symSize: 0x4 }
  - { offset: 0x261B12, size: 0x8, addend: 0x0, symName: '__ZN6parlay7JobImplIZNS_19fork_join_scheduler7parfor_IZ21generate_random_edgesRKNS_8sequenceIlNS_9allocatorIlEELb0EEEbE3$_3EEvRNS_9schedulerINS_15WorkStealingJobEEEmmRT_mbEUlvE0_ED0Ev', symObjAddr: 0x103DC, symBinAddr: 0x100012784, symSize: 0x4 }
  - { offset: 0x261B3D, size: 0x8, addend: 0x0, symName: '__ZN6parlay7JobImplIZNS_19fork_join_scheduler7parfor_IZ21generate_random_edgesRKNS_8sequenceIlNS_9allocatorIlEELb0EEEbE3$_3EEvRNS_9schedulerINS_15WorkStealingJobEEEmmRT_mbEUlvE0_E7executeEv', symObjAddr: 0x103E0, symBinAddr: 0x100012788, symSize: 0x24 }
  - { offset: 0x261B8F, size: 0x8, addend: 0x0, symName: '__ZN6parlay7JobImplIZNS_19fork_join_scheduler7parfor_IZ21generate_random_edgesRKNS_8sequenceIlNS_9allocatorIlEELb0EEEbE3$_2EEvRNS_9schedulerINS_15WorkStealingJobEEEmmRT_mbEUlvE0_ED1Ev', symObjAddr: 0x10404, symBinAddr: 0x1000127AC, symSize: 0x4 }
  - { offset: 0x261BBA, size: 0x8, addend: 0x0, symName: '__ZN6parlay7JobImplIZNS_19fork_join_scheduler7parfor_IZ21generate_random_edgesRKNS_8sequenceIlNS_9allocatorIlEELb0EEEbE3$_2EEvRNS_9schedulerINS_15WorkStealingJobEEEmmRT_mbEUlvE0_ED0Ev', symObjAddr: 0x10408, symBinAddr: 0x1000127B0, symSize: 0x4 }
  - { offset: 0x261BE5, size: 0x8, addend: 0x0, symName: '__ZN6parlay7JobImplIZNS_19fork_join_scheduler7parfor_IZ21generate_random_edgesRKNS_8sequenceIlNS_9allocatorIlEELb0EEEbE3$_2EEvRNS_9schedulerINS_15WorkStealingJobEEEmmRT_mbEUlvE0_E7executeEv', symObjAddr: 0x1040C, symBinAddr: 0x1000127B4, symSize: 0x24 }
  - { offset: 0x261DFC, size: 0x8, addend: 0x0, symName: __ZN6parlay19fork_join_scheduler5pardoIZNS0_7parfor_IZNS_8sequenceINSt3__16atomicIhEENS_9allocatorIS6_EELb0EE18initialize_defaultEmEUlmE_EEvRNS_9schedulerINS_15WorkStealingJobEEEmmRT_mbEUlvE_ZNS2_ISA_EEvSE_mmSG_mbEUlvE0_EEvSE_OSF_OT0_b, symObjAddr: 0x10430, symBinAddr: 0x1000127D8, symSize: 0x620 }
  - { offset: 0x2631DD, size: 0x8, addend: 0x0, symName: __ZN6parlay7JobImplIZNS_19fork_join_scheduler7parfor_IZNS_8sequenceINSt3__16atomicIhEENS_9allocatorIS6_EELb0EE18initialize_defaultEmEUlmE_EEvRNS_9schedulerINS_15WorkStealingJobEEEmmRT_mbEUlvE0_ED1Ev, symObjAddr: 0x10A50, symBinAddr: 0x100012DF8, symSize: 0x4 }
  - { offset: 0x263208, size: 0x8, addend: 0x0, symName: __ZN6parlay7JobImplIZNS_19fork_join_scheduler7parfor_IZNS_8sequenceINSt3__16atomicIhEENS_9allocatorIS6_EELb0EE18initialize_defaultEmEUlmE_EEvRNS_9schedulerINS_15WorkStealingJobEEEmmRT_mbEUlvE0_ED0Ev, symObjAddr: 0x10A54, symBinAddr: 0x100012DFC, symSize: 0x4 }
  - { offset: 0x263233, size: 0x8, addend: 0x0, symName: __ZN6parlay7JobImplIZNS_19fork_join_scheduler7parfor_IZNS_8sequenceINSt3__16atomicIhEENS_9allocatorIS6_EELb0EE18initialize_defaultEmEUlmE_EEvRNS_9schedulerINS_15WorkStealingJobEEEmmRT_mbEUlvE0_E7executeEv, symObjAddr: 0x10A58, symBinAddr: 0x100012E00, symSize: 0xC4 }
  - { offset: 0x26A2A9, size: 0x8, addend: 0x0, symName: _main, symObjAddr: 0x10B1C, symBinAddr: 0x100012EC4, symSize: 0x912C }
  - { offset: 0x2854F5, size: 0x8, addend: 0x0, symName: __ZN6parlay19fork_join_scheduler5pardoIZNS0_7parfor_IZNS_8sequenceIlNS_9allocatorIlEELb0EEC1IZ19generate_tree_graphIlENS3_IT_NS4_IS9_EEXsr3std7is_sameIS9_cEE5valueEEES9_EUllE_EEmOS9_NS6_18_from_function_tagEmEUlmE_EEvRNS_9schedulerINS_15WorkStealingJobEEEmmRS9_mbEUlvE_ZNS2_ISF_EEvSJ_mmSK_mbEUlvE0_EEvSJ_SD_OT0_b, symObjAddr: 0xDE954, symBinAddr: 0x1000E01E0, symSize: 0x688 }
  - { offset: 0x28671D, size: 0x8, addend: 0x0, symName: __ZN6parlay19fork_join_scheduler5pardoIZNS0_7parfor_IZ19generate_tree_graphIlENS_8sequenceIT_NS_9allocatorIS5_EEXsr3std7is_sameIS5_cEE5valueEEES5_EUllE0_EEvRNS_9schedulerINS_15WorkStealingJobEEEmmRS5_mbEUlvE_ZNS2_IS9_EEvSD_mmSE_mbEUlvE0_EEvSD_OS5_OT0_b, symObjAddr: 0xDE258, symBinAddr: 0x1000DFAE4, symSize: 0x620 }
  - { offset: 0x2878E3, size: 0x8, addend: 0x0, symName: __ZN6parlay19fork_join_scheduler5pardoIZNS0_7parfor_IZNS_8sequenceINSt3__16atomicIlEENS_9allocatorIS6_EELb0EEC1IZ18degree_cap_parentsIlENS3_IT_NS7_ISC_EEXsr3std7is_sameISC_cEE5valueEEERSE_SC_EUlmE_EEmOSC_NS9_18_from_function_tagEmEUlmE_EEvRNS_9schedulerINS_15WorkStealingJobEEEmmRSC_mbEUlvE_ZNS2_ISJ_EEvSN_mmSO_mbEUlvE0_EEvSN_SH_OT0_b, symObjAddr: 0xDD850, symBinAddr: 0x1000DF0DC, symSize: 0x620 }
  - { offset: 0x288B11, size: 0x8, addend: 0x0, symName: __ZN6parlay19fork_join_scheduler5pardoIZNS0_7parfor_IZNS_8sequenceIlNS_9allocatorIlEELb0EEC1IZ18degree_cap_parentsIlENS3_IT_NS4_IS9_EEXsr3std7is_sameIS9_cEE5valueEEERSB_S9_EUllE0_EEmOS9_NS6_18_from_function_tagEmEUlmE_EEvRNS_9schedulerINS_15WorkStealingJobEEEmmRS9_mbEUlvE_ZNS2_ISG_EEvSK_mmSL_mbEUlvE0_EEvSK_SE_OT0_b, symObjAddr: 0xDCAF8, symBinAddr: 0x1000DE384, symSize: 0x668 }
  - { offset: 0x289FB1, size: 0x8, addend: 0x0, symName: __ZN6parlay19fork_join_scheduler5pardoIZNS0_7parfor_IZNS_17sequence_internal13sequence_baseINS_8sequenceIlNS_9allocatorIlEELb0EEENS6_IS8_EELb0EE12storage_implC1ERKSB_EUlmE_EEvRNS_9schedulerINS_15WorkStealingJobEEEmmRT_mbEUlvE_ZNS2_ISE_EEvSI_mmSK_mbEUlvE0_EEvSI_OSJ_OT0_b, symObjAddr: 0xDC3CC, symBinAddr: 0x1000DDC58, symSize: 0x640 }
  - { offset: 0x28B2A9, size: 0x8, addend: 0x0, symName: __ZN6parlay19fork_join_scheduler5pardoIZNS0_7parfor_IZNS_8sequenceIP4nodeIldENS_9allocatorIS6_EELb0EEC1IZ14create_RC_treeIldEvRNS3_I7clusterIT_T0_ENS7_ISF_EEXsr3std7is_sameISF_cEE5valueEEESD_bSE_EUllE_EEmOSD_NS9_18_from_function_tagEmEUlmE_EEvRNS_9schedulerINS_15WorkStealingJobEEEmmRSD_mbEUlvE_ZNS2_ISM_EEvSQ_mmSR_mbEUlvE0_EEvSQ_SK_OSE_b, symObjAddr: 0x90AF8, symBinAddr: 0x100092EA0, symSize: 0x670 }
  - { offset: 0x28C6D1, size: 0x8, addend: 0x0, symName: __ZZ17check_consistencyIldEvRN6parlay8sequenceIP4nodeIT_T0_ENS0_9allocatorIS6_EEXsr3std7is_sameIS6_cEE5valueEEEENKUllE_clEl, symObjAddr: 0x8E5C4, symBinAddr: 0x10009096C, symSize: 0x230 }
  - { offset: 0x28C8A9, size: 0x8, addend: 0x0, symName: __ZN6parlay19fork_join_scheduler5pardoIZNS0_7parfor_IZ17check_consistencyIldEvRNS_8sequenceIP4nodeIT_T0_ENS_9allocatorIS9_EEXsr3std7is_sameIS9_cEE5valueEEEEUllE_EEvRNS_9schedulerINS_15WorkStealingJobEEEmmRS6_mbEUlvE_ZNS2_ISE_EEvSI_mmSJ_mbEUlvE0_EEvSI_OS6_OS7_b, symObjAddr: 0x8E7F4, symBinAddr: 0x100090B9C, symSize: 0x628 }
  - { offset: 0x28C8C0, size: 0x8, addend: 0x0, symName: __ZN6parlay19fork_join_scheduler5pardoIZNS0_7parfor_IZ17check_consistencyIldEvRNS_8sequenceIP4nodeIT_T0_ENS_9allocatorIS9_EEXsr3std7is_sameIS9_cEE5valueEEEEUllE_EEvRNS_9schedulerINS_15WorkStealingJobEEEmmRS6_mbEUlvE_ZNS2_ISE_EEvSI_mmSJ_mbEUlvE0_EEvSI_OS6_OS7_b, symObjAddr: 0x8E7F4, symBinAddr: 0x100090B9C, symSize: 0x628 }
  - { offset: 0x28DA6A, size: 0x8, addend: 0x0, symName: __ZN6parlay8sequenceIP4nodeIldENS_9allocatorIS3_EELb0EEC2EmNS6_18_uninitialized_tagE, symObjAddr: 0x3EE3C, symBinAddr: 0x1000411E4, symSize: 0x184 }
  - { offset: 0x28DE10, size: 0x8, addend: 0x0, symName: __ZZ9check_misIldEvRN6parlay8sequenceIP4nodeIT_T0_ENS0_9allocatorIS6_EEXsr3std7is_sameIS6_cEE5valueEEEENKUllE_clEl, symObjAddr: 0x8C2B4, symBinAddr: 0x10008E65C, symSize: 0x178 }
  - { offset: 0x28DFB7, size: 0x8, addend: 0x0, symName: __ZN6parlay19fork_join_scheduler5pardoIZNS0_7parfor_IZ9check_misIldEvRNS_8sequenceIP4nodeIT_T0_ENS_9allocatorIS9_EEXsr3std7is_sameIS9_cEE5valueEEEEUllE_EEvRNS_9schedulerINS_15WorkStealingJobEEEmmRS6_mbEUlvE_ZNS2_ISE_EEvSI_mmSJ_mbEUlvE0_EEvSI_OS6_OS7_b, symObjAddr: 0x8C42C, symBinAddr: 0x10008E7D4, symSize: 0x628 }
  - { offset: 0x28DFCE, size: 0x8, addend: 0x0, symName: __ZN6parlay19fork_join_scheduler5pardoIZNS0_7parfor_IZ9check_misIldEvRNS_8sequenceIP4nodeIT_T0_ENS_9allocatorIS9_EEXsr3std7is_sameIS9_cEE5valueEEEEUllE_EEvRNS_9schedulerINS_15WorkStealingJobEEEmmRS6_mbEUlvE_ZNS2_ISE_EEvSI_mmSJ_mbEUlvE0_EEvSI_OS6_OS7_b, symObjAddr: 0x8C42C, symBinAddr: 0x10008E7D4, symSize: 0x628 }
  - { offset: 0x28F178, size: 0x8, addend: 0x0, symName: __Z8contractIldEvP4nodeIT_T0_Eb, symObjAddr: 0x419DC, symBinAddr: 0x100043D84, symSize: 0x80C }
  - { offset: 0x28FDC8, size: 0x8, addend: 0x0, symName: __ZN7clusterIldE5printEh, symObjAddr: 0x27020, symBinAddr: 0x1000293C8, symSize: 0x908 }
  - { offset: 0x290D29, size: 0x8, addend: 0x0, symName: __ZZ24convertClustersToTruplesIldEN6parlay8sequenceINSt3__15tupleIJT_S4_T0_EEENS0_9allocatorIS6_EEXsr3std7is_sameIS6_cEE5valueEEERKNS1_I7clusterIS4_S5_ENS7_ISB_EEXsr3std7is_sameISB_cEE5valueEEEENKUllE_clEl, symObjAddr: 0x89A04, symBinAddr: 0x10008BDAC, symSize: 0x338 }
  - { offset: 0x2913A1, size: 0x8, addend: 0x0, symName: __ZN6parlay19fork_join_scheduler5pardoIZNS0_7parfor_IZNS_8sequenceImNS_9allocatorImEELb0EEC1IZNS_7flattenINSt3__15tupleIJlldEEEEEDaONS3_INS3_IT_NS4_ISD_EEXsr3std7is_sameISD_cEE5valueEEENS4_ISF_EEXsr3std7is_sameISF_cEE5valueEEEEUlmE_EEmOSD_NS6_18_from_function_tagEmEUlmE_EEvRNS_9schedulerINS_15WorkStealingJobEEEmmRSD_mbEUlvE_ZNS2_ISM_EEvSQ_mmSR_mbEUlvE0_EEvSQ_SK_OT0_b, symObjAddr: 0x88F04, symBinAddr: 0x10008B2AC, symSize: 0x830 }
  - { offset: 0x292667, size: 0x8, addend: 0x0, symName: __ZN6parlay19fork_join_scheduler5pardoIZNS0_7parfor_IZNS_24uninitialized_relocate_nIPNSt3__15tupleIJlldEEElS7_EENS4_4pairIT_T1_EES9_T0_SA_EUlmE_EEvRNS_9schedulerINS_15WorkStealingJobEEEmmRS9_mbEUlvE_ZNS2_ISD_EEvSH_mmSI_mbEUlvE0_EEvSH_OS9_OSC_b, symObjAddr: 0x888C8, symBinAddr: 0x10008AC70, symSize: 0x510 }
  - { offset: 0x29376B, size: 0x8, addend: 0x0, symName: __ZZ12deleteRCtreeIldEvRN6parlay8sequenceI7clusterIT_T0_ENS0_9allocatorIS5_EEXsr3std7is_sameIS5_cEE5valueEEEENKUllE_clEl, symObjAddr: 0x29670, symBinAddr: 0x10002BA18, symSize: 0x9E4 }
  - { offset: 0x294959, size: 0x8, addend: 0x0, symName: __ZN6parlay19fork_join_scheduler5pardoIZNS0_7parfor_IZ12deleteRCtreeIldEvRNS_8sequenceI7clusterIT_T0_ENS_9allocatorIS8_EEXsr3std7is_sameIS8_cEE5valueEEEEUllE_EEvRNS_9schedulerINS_15WorkStealingJobEEEmmRS6_mbEUlvE_ZNS2_ISD_EEvSH_mmSI_mbEUlvE0_EEvSH_OS6_OS7_b, symObjAddr: 0x2A054, symBinAddr: 0x10002C3FC, symSize: 0x628 }
  - { offset: 0x295B03, size: 0x8, addend: 0x0, symName: __ZN6parlay17sequence_internal13sequence_baseINS_8sequenceINSt3__15tupleIJlldEEENS_9allocatorIS5_EELb0EEENS6_IS8_EELb0EE12storage_implD1Ev, symObjAddr: 0x8990C, symBinAddr: 0x10008BCB4, symSize: 0x7C }
  - { offset: 0x295CA3, size: 0x8, addend: 0x0, symName: __ZN6parlay8sequenceINS0_IlNS_9allocatorIlEELb0EEENS1_IS3_EELb0EED1Ev, symObjAddr: 0x223F0, symBinAddr: 0x100024798, symSize: 0x7C }
  - { offset: 0x295E86, size: 0x8, addend: 0x0, symName: __ZN6parlay8sequenceINS0_INSt3__15tupleIJlldEEENS_9allocatorIS3_EELb0EEENS4_IS6_EELb0EED1Ev, symObjAddr: 0x87A48, symBinAddr: 0x100089DF0, symSize: 0x7C }
  - { offset: 0x296069, size: 0x8, addend: 0x0, symName: __ZN6parlay17sequence_internal13sequence_baseINS_8sequenceINSt3__15tupleIJlldEEENS_9allocatorIS5_EELb0EEENS6_IS8_EELb0EED2Ev, symObjAddr: 0x89988, symBinAddr: 0x10008BD30, symSize: 0x7C }
  - { offset: 0x296220, size: 0x8, addend: 0x0, symName: __ZN6parlay8sequenceI7clusterIldENS_9allocatorIS2_EELb0EED1Ev, symObjAddr: 0x2863C, symBinAddr: 0x10002A9E4, symSize: 0x80 }
  - { offset: 0x296609, size: 0x8, addend: 0x0, symName: __ZN6parlay19fork_join_scheduler5pardoIZNS0_7parfor_IZNS_17sequence_internal13sequence_baseIlNS_9allocatorIlEELb0EE12storage_implC1ERKS8_EUlmE_EEvRNS_9schedulerINS_15WorkStealingJobEEEmmRT_mbEUlvE_ZNS2_ISB_EEvSF_mmSH_mbEUlvE0_EEvSF_OSG_OT0_b, symObjAddr: 0xDBBAC, symBinAddr: 0x1000DD438, symSize: 0x6E8 }
  - { offset: 0x299702, size: 0x8, addend: 0x0, symName: __ZN6parlay19fork_join_scheduler5pardoIZNS0_7parfor_IZNS_8sequenceIlNS_9allocatorIlEELb0EEC1IZ24convert_parents_to_graphINS3_IS6_NS4_IS6_EELb0EEElET_SB_NS3_IT0_NS4_ISC_EEXsr3std7is_sameISC_cEE5valueEEEEUllE_EEmOSB_NS6_18_from_function_tagEmEUlmE_EEvRNS_9schedulerINS_15WorkStealingJobEEEmmRSB_mbEUlvE_ZNS2_ISI_EEvSM_mmSN_mbEUlvE0_EEvSM_SG_OSC_b, symObjAddr: 0xDB364, symBinAddr: 0x1000DCBF0, symSize: 0x708 }
  - { offset: 0x29A91E, size: 0x8, addend: 0x0, symName: __ZZN6parlay8sequenceINS0_IlNS_9allocatorIlEELb0EEENS1_IS3_EELb0EEC1IZNS_8internal3mapIRS3_Z24convert_parents_to_graphIS5_lET_SB_NS0_IT0_NS1_ISC_EEXsr3std7is_sameISC_cEE5valueEEEEUllE0_EEDaOSB_OSC_mEUlmE_EEmSH_NS5_18_from_function_tagEmENKUlmE_clEm, symObjAddr: 0xDAAA8, symBinAddr: 0x1000DC334, symSize: 0x1B4 }
  - { offset: 0x29AFE4, size: 0x8, addend: 0x0, symName: __ZN6parlay19fork_join_scheduler5pardoIZNS0_7parfor_IZNS_8sequenceINS3_IlNS_9allocatorIlEELb0EEENS4_IS6_EELb0EEC1IZNS_8internal3mapIRS6_Z24convert_parents_to_graphIS8_lET_SE_NS3_IT0_NS4_ISF_EEXsr3std7is_sameISF_cEE5valueEEEEUllE0_EEDaOSE_OSF_mEUlmE_EEmSK_NS8_18_from_function_tagEmEUlmE_EEvRNS_9schedulerINS_15WorkStealingJobEEEmmRSE_mbEUlvE_ZNS2_ISO_EEvSS_mmST_mbEUlvE0_EEvSS_SK_SL_b, symObjAddr: 0xDAC5C, symBinAddr: 0x1000DC4E8, symSize: 0x628 }
  - { offset: 0x29C19A, size: 0x8, addend: 0x0, symName: __ZN6parlay19fork_join_scheduler5pardoIZNS0_7parfor_IZNS_8sequenceImNS_9allocatorImEELb0EEC1IZNS_7flattenINSt3__14pairIllEEEEDaONS3_INS3_IT_NS4_ISD_EEXsr3std7is_sameISD_cEE5valueEEENS4_ISF_EEXsr3std7is_sameISF_cEE5valueEEEEUlmE_EEmOSD_NS6_18_from_function_tagEmEUlmE_EEvRNS_9schedulerINS_15WorkStealingJobEEEmmRSD_mbEUlvE_ZNS2_ISM_EEvSQ_mmSR_mbEUlvE0_EEvSQ_SK_OT0_b, symObjAddr: 0xD8C70, symBinAddr: 0x1000DA4FC, symSize: 0x830 }
  - { offset: 0x29D454, size: 0x8, addend: 0x0, symName: __ZN6parlay8sequenceINSt3__14pairIllEENS_9allocatorIS3_EELb0EEC2EmNS6_18_uninitialized_tagE, symObjAddr: 0x5991C, symBinAddr: 0x10005BCC4, symSize: 0x184 }
  - { offset: 0x29D7FA, size: 0x8, addend: 0x0, symName: __ZN6parlay19fork_join_scheduler5pardoIZNS0_7parfor_IZNS_24uninitialized_relocate_nIPNSt3__14pairIllEElS7_EENS5_IT_T1_EES8_T0_S9_EUlmE_EEvRNS_9schedulerINS_15WorkStealingJobEEEmmRS8_mbEUlvE_ZNS2_ISC_EEvSG_mmSH_mbEUlvE0_EEvSG_OS8_OSB_b, symObjAddr: 0xC6D8C, symBinAddr: 0x1000C8D6C, symSize: 0x688 }
  - { offset: 0x29EAA4, size: 0x8, addend: 0x0, symName: __ZN6parlay17sequence_internal13sequence_baseINS_8sequenceIlNS_9allocatorIlEELb0EEENS3_IS5_EELb0EE12storage_implD1Ev, symObjAddr: 0x9C2BC, symBinAddr: 0x10009E664, symSize: 0x7C }
  - { offset: 0x29EC44, size: 0x8, addend: 0x0, symName: __ZN6parlay17sequence_internal13sequence_baseINS_8sequenceINSt3__14pairIllEENS_9allocatorIS5_EELb0EEENS6_IS8_EELb0EE12storage_implD1Ev, symObjAddr: 0xD9678, symBinAddr: 0x1000DAF04, symSize: 0x7C }
  - { offset: 0x29EDE4, size: 0x8, addend: 0x0, symName: __ZN6parlay17sequence_internal13sequence_baseINS_8sequenceIlNS_9allocatorIlEELb0EEENS3_IS5_EELb0EED2Ev, symObjAddr: 0x9C338, symBinAddr: 0x10009E6E0, symSize: 0x7C }
  - { offset: 0x29EF9B, size: 0x8, addend: 0x0, symName: __ZN6parlay8sequenceINS0_INSt3__14pairIllEENS_9allocatorIS3_EELb0EEENS4_IS6_EELb0EED1Ev, symObjAddr: 0xD7FF0, symBinAddr: 0x1000D987C, symSize: 0x7C }
  - { offset: 0x29F17E, size: 0x8, addend: 0x0, symName: __ZN6parlay17sequence_internal13sequence_baseINS_8sequenceINSt3__14pairIllEENS_9allocatorIS5_EELb0EEENS6_IS8_EELb0EED2Ev, symObjAddr: 0xD96F4, symBinAddr: 0x1000DAF80, symSize: 0x7C }
  - { offset: 0x2A05BE, size: 0x8, addend: 0x0, symName: __ZZN6parlay8sequenceI7clusterIldENS_9allocatorIS2_EELb0EEC1IZ20create_base_clustersIldEvRNS0_INS0_IT_NS3_IS8_EEXsr3std7is_sameIS8_cEE5valueEEENS3_ISA_EEXsr3std7is_sameISA_cEE5valueEEERNS0_IS1_IS8_T0_ENS3_ISF_EEXsr3std7is_sameISF_cEE5valueEEES8_SE_EUllE_EEmOS8_NS5_18_from_function_tagEmENKUlmE_clEm, symObjAddr: 0x96878, symBinAddr: 0x100098C20, symSize: 0x1B0 }
  - { offset: 0x2A0E1E, size: 0x8, addend: 0x0, symName: __ZN6parlay19fork_join_scheduler5pardoIZNS0_7parfor_IZNS_8sequenceI7clusterIldENS_9allocatorIS5_EELb0EEC1IZ20create_base_clustersIldEvRNS3_INS3_IT_NS6_ISB_EEXsr3std7is_sameISB_cEE5valueEEENS6_ISD_EEXsr3std7is_sameISD_cEE5valueEEERNS3_IS4_ISB_T0_ENS6_ISI_EEXsr3std7is_sameISI_cEE5valueEEESB_SH_EUllE_EEmOSB_NS8_18_from_function_tagEmEUlmE_EEvRNS_9schedulerINS_15WorkStealingJobEEEmmRSB_mbEUlvE_ZNS2_ISP_EEvST_mmSU_mbEUlvE0_EEvST_SN_OSH_b, symObjAddr: 0x96AA8, symBinAddr: 0x100098E50, symSize: 0x620 }
  - { offset: 0x2A1FD7, size: 0x8, addend: 0x0, symName: __ZN6parlay14type_allocatorI4nodeIldEE5allocEv, symObjAddr: 0x4B234, symBinAddr: 0x10004D5DC, symSize: 0xC0 }
  - { offset: 0x2A207E, size: 0x8, addend: 0x0, symName: __ZZ20create_base_clustersIldEvRN6parlay8sequenceINS1_IT_NS0_9allocatorIS2_EEXsr3std7is_sameIS2_cEE5valueEEENS3_IS5_EEXsr3std7is_sameIS5_cEE5valueEEERNS1_I7clusterIS2_T0_ENS3_ISB_EEXsr3std7is_sameISB_cEE5valueEEES2_SA_ENKUllE1_clEl, symObjAddr: 0x9125C, symBinAddr: 0x100093604, symSize: 0x1F8 }
  - { offset: 0x2A273F, size: 0x8, addend: 0x0, symName: __ZN6parlay19fork_join_scheduler15get_granularityIZ20create_base_clustersIldEvRNS_8sequenceINS3_IT_NS_9allocatorIS4_EEXsr3std7is_sameIS4_cEE5valueEEENS5_IS7_EEXsr3std7is_sameIS7_cEE5valueEEERNS3_I7clusterIS4_T0_ENS5_ISD_EEXsr3std7is_sameISD_cEE5valueEEES4_SC_EUllE1_EEmmmRS4_, symObjAddr: 0x91CE8, symBinAddr: 0x100094090, symSize: 0x3DF0 }
  - { offset: 0x2A931F, size: 0x8, addend: 0x0, symName: __ZN6parlay19fork_join_scheduler5pardoIZNS0_7parfor_IZ20create_base_clustersIldEvRNS_8sequenceINS4_IT_NS_9allocatorIS5_EEXsr3std7is_sameIS5_cEE5valueEEENS6_IS8_EEXsr3std7is_sameIS8_cEE5valueEEERNS4_I7clusterIS5_T0_ENS6_ISE_EEXsr3std7is_sameISE_cEE5valueEEES5_SD_EUllE1_EEvRNS_9schedulerINS_15WorkStealingJobEEEmmRS5_mbEUlvE_ZNS2_ISI_EEvSM_mmSN_mbEUlvE0_EEvSM_OS5_OSD_b, symObjAddr: 0x95AD8, symBinAddr: 0x100097E80, symSize: 0x620 }
  - { offset: 0x2AA4D9, size: 0x8, addend: 0x0, symName: __ZZ20create_base_clustersIldEvRN6parlay8sequenceINS1_IT_NS0_9allocatorIS2_EEXsr3std7is_sameIS2_cEE5valueEEENS3_IS5_EEXsr3std7is_sameIS5_cEE5valueEEERNS1_I7clusterIS2_T0_ENS3_ISB_EEXsr3std7is_sameISB_cEE5valueEEES2_SA_ENKUllE2_clEl, symObjAddr: 0x91454, symBinAddr: 0x1000937FC, symSize: 0x198 }
  - { offset: 0x2AA93A, size: 0x8, addend: 0x0, symName: __ZN6parlay19fork_join_scheduler5pardoIZNS0_7parfor_IZ20create_base_clustersIldEvRNS_8sequenceINS4_IT_NS_9allocatorIS5_EEXsr3std7is_sameIS5_cEE5valueEEENS6_IS8_EEXsr3std7is_sameIS8_cEE5valueEEERNS4_I7clusterIS5_T0_ENS6_ISE_EEXsr3std7is_sameISE_cEE5valueEEES5_SD_EUllE2_EEvRNS_9schedulerINS_15WorkStealingJobEEEmmRS5_mbEUlvE_ZNS2_ISI_EEvSM_mmSN_mbEUlvE0_EEvSM_OS5_OSD_b, symObjAddr: 0x915EC, symBinAddr: 0x100093994, symSize: 0x620 }
  - { offset: 0x2ABAF4, size: 0x8, addend: 0x0, symName: __ZN6parlay17sequence_internal13sequence_baseI7clusterIldENS_9allocatorIS3_EELb0EE12storage_implD1Ev, symObjAddr: 0x967F8, symBinAddr: 0x100098BA0, symSize: 0x80 }
  - { offset: 0x2ABC94, size: 0x8, addend: 0x0, symName: __ZN6parlay17sequence_internal13sequence_baseI7clusterIldENS_9allocatorIS3_EELb0EED2Ev, symObjAddr: 0x96A28, symBinAddr: 0x100098DD0, symSize: 0x80 }
  - { offset: 0x2AF670, size: 0x8, addend: 0x0, symName: __ZN6parlay8sequenceIbNS_9allocatorIbEELb0EEC2EmRKb, symObjAddr: 0x2EE30, symBinAddr: 0x1000311D8, symSize: 0x3CC }
  - { offset: 0x2AFD59, size: 0x8, addend: 0x0, symName: __ZN6parlay19fork_join_scheduler5pardoIZNS0_7parfor_IZNS_8sequenceINSt3__16atomicIlEENS_9allocatorIS6_EELb0EEC1IZN10union_findIlEC1EmEUllE_EEmOT_NS9_18_from_function_tagEmEUlmE_EEvRNS_9schedulerINS_15WorkStealingJobEEEmmRSE_mbEUlvE_ZNS2_ISH_EEvSL_mmSM_mbEUlvE0_EEvSL_SF_OT0_b, symObjAddr: 0x79478, symBinAddr: 0x10007B820, symSize: 0x620 }
  - { offset: 0x2B110D, size: 0x8, addend: 0x0, symName: __ZN6parlay19fork_join_scheduler5pardoIZNS0_7parfor_IZNS_8sequenceI11reservationIlENS_9allocatorIS5_EELb0EE18initialize_defaultEmEUlmE_EEvRNS_9schedulerINS_15WorkStealingJobEEEmmRT_mbEUlvE_ZNS2_IS9_EEvSD_mmSF_mbEUlvE0_EEvSD_OSE_OT0_b, symObjAddr: 0x78D78, symBinAddr: 0x10007B120, symSize: 0x628 }
  - { offset: 0x2B2509, size: 0x8, addend: 0x0, symName: __ZN6parlay8sequenceIlNS_9allocatorIlEELb0EEC2Ev, symObjAddr: 0x61A0C, symBinAddr: 0x100063DB4, symSize: 0x124 }
  - { offset: 0x2B2795, size: 0x8, addend: 0x0, symName: __ZZ19min_spanning_forestIldEN6parlay8sequenceIlNS0_9allocatorIlEELb0EEERKNS1_INSt3__15tupleIJT_S7_T0_EEENS2_IS9_EEXsr3std7is_sameIS9_cEE5valueEEElENKUllE0_clEl, symObjAddr: 0x6334C, symBinAddr: 0x1000656F4, symSize: 0x20C }
  - { offset: 0x2B39A1, size: 0x8, addend: 0x0, symName: __ZZ19min_spanning_forestIldEN6parlay8sequenceIlNS0_9allocatorIlEELb0EEERKNS1_INSt3__15tupleIJT_S7_T0_EEENS2_IS9_EEXsr3std7is_sameIS9_cEE5valueEEElENKUllE1_clEl, symObjAddr: 0x62AE4, symBinAddr: 0x100064E8C, symSize: 0x23C }
  - { offset: 0x2B4B12, size: 0x8, addend: 0x0, symName: __ZN6parlay8sequenceIlNS_9allocatorIlEELb0EEC2EmNS3_18_uninitialized_tagE, symObjAddr: 0x609E0, symBinAddr: 0x100062D88, symSize: 0x184 }
  - { offset: 0x2B4EA4, size: 0x8, addend: 0x0, symName: __ZN6parlay19fork_join_scheduler5pardoIZNS0_7parfor_IZ12incrementMSTIldEvRNS_8sequenceI7clusterIT_T0_ENS_9allocatorIS8_EEXsr3std7is_sameIS8_cEE5valueEEERKNS4_INSt3__15tupleIJS6_S6_S7_EEENS9_ISF_EEXsr3std7is_sameISF_cEE5valueEEEEUllE_EEvRNS_9schedulerINS_15WorkStealingJobEEEmmRS6_mbEUlvE_ZNS2_ISK_EEvSO_mmSP_mbEUlvE0_EEvSO_OS6_OS7_b, symObjAddr: 0x5C624, symBinAddr: 0x10005E9CC, symSize: 0x6F0 }
  - { offset: 0x2B6054, size: 0x8, addend: 0x0, symName: __ZNSt3__14pairIN6parlay8sequenceINS_5tupleIJlldEEENS1_9allocatorIS4_EELb0EEENS2_INS0_IllEENS5_IS8_EELb0EEEED1Ev, symObjAddr: 0x375D4, symBinAddr: 0x10003997C, symSize: 0x68 }
  - { offset: 0x2B64AD, size: 0x8, addend: 0x0, symName: __ZN6parlay14type_allocatorI4nodeIldEE4freeEPS2_, symObjAddr: 0x286BC, symBinAddr: 0x10002AA64, symSize: 0xE8 }
  - { offset: 0x2B6555, size: 0x8, addend: 0x0, symName: __ZN6parlay8internal15block_allocatorD1Ev, symObjAddr: 0x287A4, symBinAddr: 0x10002AB4C, symSize: 0x4 }
  - { offset: 0x2B6577, size: 0x8, addend: 0x0, symName: __ZN6parlay8internal15block_allocatorD1Ev, symObjAddr: 0x287A4, symBinAddr: 0x10002AB4C, symSize: 0x4 }
  - { offset: 0x2B6875, size: 0x8, addend: 0x0, symName: __ZN6parlay7JobImplIZNS_19fork_join_scheduler7parfor_IZNS_17sequence_internal13sequence_baseI7clusterIldENS_9allocatorIS6_EELb0EE12storage_impl11destroy_allEvEUlmE_EEvRNS_9schedulerINS_15WorkStealingJobEEEmmRT_mbEUlvE0_ED1Ev, symObjAddr: 0x29644, symBinAddr: 0x10002B9EC, symSize: 0x4 }
  - { offset: 0x2B68A0, size: 0x8, addend: 0x0, symName: __ZN6parlay7JobImplIZNS_19fork_join_scheduler7parfor_IZNS_17sequence_internal13sequence_baseI7clusterIldENS_9allocatorIS6_EELb0EE12storage_impl11destroy_allEvEUlmE_EEvRNS_9schedulerINS_15WorkStealingJobEEEmmRT_mbEUlvE0_ED0Ev, symObjAddr: 0x29648, symBinAddr: 0x10002B9F0, symSize: 0x4 }
  - { offset: 0x2B68CB, size: 0x8, addend: 0x0, symName: __ZN6parlay7JobImplIZNS_19fork_join_scheduler7parfor_IZNS_17sequence_internal13sequence_baseI7clusterIldENS_9allocatorIS6_EELb0EE12storage_impl11destroy_allEvEUlmE_EEvRNS_9schedulerINS_15WorkStealingJobEEEmmRT_mbEUlvE0_E7executeEv, symObjAddr: 0x2964C, symBinAddr: 0x10002B9F4, symSize: 0x24 }
  - { offset: 0x2B6931, size: 0x8, addend: 0x0, symName: __ZN6parlay14type_allocatorI7clusterIldEE4freeEPS2_, symObjAddr: 0x2A75C, symBinAddr: 0x10002CB04, symSize: 0xC4 }
  - { offset: 0x2B6BF2, size: 0x8, addend: 0x0, symName: __ZN6parlay7JobImplIZNS_19fork_join_scheduler7parfor_IZ12deleteRCtreeIldEvRNS_8sequenceI7clusterIT_T0_ENS_9allocatorIS8_EEXsr3std7is_sameIS8_cEE5valueEEEEUllE_EEvRNS_9schedulerINS_15WorkStealingJobEEEmmRS6_mbEUlvE0_ED1Ev, symObjAddr: 0x2A67C, symBinAddr: 0x10002CA24, symSize: 0x4 }
  - { offset: 0x2B6C1D, size: 0x8, addend: 0x0, symName: __ZN6parlay7JobImplIZNS_19fork_join_scheduler7parfor_IZ12deleteRCtreeIldEvRNS_8sequenceI7clusterIT_T0_ENS_9allocatorIS8_EEXsr3std7is_sameIS8_cEE5valueEEEEUllE_EEvRNS_9schedulerINS_15WorkStealingJobEEEmmRS6_mbEUlvE0_ED0Ev, symObjAddr: 0x2A680, symBinAddr: 0x10002CA28, symSize: 0x4 }
  - { offset: 0x2B6C48, size: 0x8, addend: 0x0, symName: __ZN6parlay7JobImplIZNS_19fork_join_scheduler7parfor_IZ12deleteRCtreeIldEvRNS_8sequenceI7clusterIT_T0_ENS_9allocatorIS8_EEXsr3std7is_sameIS8_cEE5valueEEEEUllE_EEvRNS_9schedulerINS_15WorkStealingJobEEEmmRS6_mbEUlvE0_E7executeEv, symObjAddr: 0x2A684, symBinAddr: 0x10002CA2C, symSize: 0xD8 }
  - { offset: 0x2B990C, size: 0x8, addend: 0x0, symName: __ZN6parlay19fork_join_scheduler5pardoIZNS0_7parfor_IZNS_8sequenceIP7clusterIldENS_9allocatorIS6_EELb0EE15initialize_fillEmRKS6_EUlmE_EEvRNS_9schedulerINS_15WorkStealingJobEEEmmRT_mbEUlvE_ZNS2_ISC_EEvSG_mmSI_mbEUlvE0_EEvSG_OSH_OT0_b, symObjAddr: 0x867EC, symBinAddr: 0x100088B94, symSize: 0x628 }
  - { offset: 0x2BAB62, size: 0x8, addend: 0x0, symName: __ZZ24createCompressedPathTreeIldENSt3__14pairIN6parlay8sequenceINS0_5tupleIJT_S5_T0_EEENS2_9allocatorIS7_EEXsr3std7is_sameIS7_cEE5valueEEENS3_INS1_IS5_S5_EENS8_ISB_EEXsr3std7is_sameISB_cEE5valueEEEEERNS3_I7clusterIS5_S6_ENS8_ISG_EEXsr3std7is_sameISG_cEE5valueEEERKSA_ENKUllE_clEl, symObjAddr: 0x7AFB8, symBinAddr: 0x10007D360, symSize: 0x128 }
  - { offset: 0x2BADFE, size: 0x8, addend: 0x0, symName: __ZN6parlay19fork_join_scheduler5pardoIZNS0_7parfor_IZ24createCompressedPathTreeIldENSt3__14pairINS_8sequenceINS4_5tupleIJT_S8_T0_EEENS_9allocatorISA_EEXsr3std7is_sameISA_cEE5valueEEENS6_INS5_IS8_S8_EENSB_ISE_EEXsr3std7is_sameISE_cEE5valueEEEEERNS6_I7clusterIS8_S9_ENSB_ISJ_EEXsr3std7is_sameISJ_cEE5valueEEERKSD_EUllE_EEvRNS_9schedulerINS_15WorkStealingJobEEEmmRS8_mbEUlvE_ZNS2_ISP_EEvST_mmSU_mbEUlvE0_EEvST_OS8_OS9_b, symObjAddr: 0x860D8, symBinAddr: 0x100088480, symSize: 0x630 }
  - { offset: 0x2BBFA8, size: 0x8, addend: 0x0, symName: __ZZ24createCompressedPathTreeIldENSt3__14pairIN6parlay8sequenceINS0_5tupleIJT_S5_T0_EEENS2_9allocatorIS7_EEXsr3std7is_sameIS7_cEE5valueEEENS3_INS1_IS5_S5_EENS8_ISB_EEXsr3std7is_sameISB_cEE5valueEEEEERNS3_I7clusterIS5_S6_ENS8_ISG_EEXsr3std7is_sameISG_cEE5valueEEERKSA_ENKUllE0_clEl, symObjAddr: 0x7B0E0, symBinAddr: 0x10007D488, symSize: 0x178 }
  - { offset: 0x2BC398, size: 0x8, addend: 0x0, symName: __ZN6parlay19fork_join_scheduler5pardoIZNS0_7parfor_IZ24createCompressedPathTreeIldENSt3__14pairINS_8sequenceINS4_5tupleIJT_S8_T0_EEENS_9allocatorISA_EEXsr3std7is_sameISA_cEE5valueEEENS6_INS5_IS8_S8_EENSB_ISE_EEXsr3std7is_sameISE_cEE5valueEEEEERNS6_I7clusterIS8_S9_ENSB_ISJ_EEXsr3std7is_sameISJ_cEE5valueEEERKSD_EUllE0_EEvRNS_9schedulerINS_15WorkStealingJobEEEmmRS8_mbEUlvE_ZNS2_ISP_EEvST_mmSU_mbEUlvE0_EEvST_OS8_OS9_b, symObjAddr: 0x8442C, symBinAddr: 0x1000867D4, symSize: 0x620 }
  - { offset: 0x2BD552, size: 0x8, addend: 0x0, symName: __ZN6parlay19fork_join_scheduler6parforIZ26sum_up_child_vertex_countsIldEvP7clusterIT_T0_EEUllE_EEvRNS_9schedulerINS_15WorkStealingJobEEEmmOS4_mb, symObjAddr: 0x82958, symBinAddr: 0x100084D00, symSize: 0x3DC }
  - { offset: 0x2BDA94, size: 0x8, addend: 0x0, symName: __ZN6parlay19fork_join_scheduler5pardoIZNS0_7parfor_IZ24createCompressedPathTreeIldENSt3__14pairINS_8sequenceINS4_5tupleIJT_S8_T0_EEENS_9allocatorISA_EEXsr3std7is_sameISA_cEE5valueEEENS6_INS5_IS8_S8_EENSB_ISE_EEXsr3std7is_sameISE_cEE5valueEEEEERNS6_I7clusterIS8_S9_ENSB_ISJ_EEXsr3std7is_sameISJ_cEE5valueEEERKSD_EUllE1_EEvRNS_9schedulerINS_15WorkStealingJobEEEmmRS8_mbEUlvE_ZNS2_ISP_EEvST_mmSU_mbEUlvE0_EEvST_OS8_OS9_b, symObjAddr: 0x8222C, symBinAddr: 0x1000845D4, symSize: 0x640 }
  - { offset: 0x2BEDE2, size: 0x8, addend: 0x0, symName: __ZN6parlay19fork_join_scheduler5pardoIZNS0_7parfor_IZNS_8sequenceIlNS_9allocatorIlEELb0EEC1IZ24createCompressedPathTreeIldENSt3__14pairINS3_INS9_5tupleIJT_SC_T0_EEENS4_ISE_EEXsr3std7is_sameISE_cEE5valueEEENS3_INSA_ISC_SC_EENS4_ISH_EEXsr3std7is_sameISH_cEE5valueEEEEERNS3_I7clusterISC_SD_ENS4_ISM_EEXsr3std7is_sameISM_cEE5valueEEERKSG_EUllE2_EEmOSC_NS6_18_from_function_tagEmEUlmE_EEvRNS_9schedulerINS_15WorkStealingJobEEEmmRSC_mbEUlvE_ZNS2_ISV_EEvSZ_mmS10_mbEUlvE0_EEvSZ_ST_OSD_b, symObjAddr: 0x81974, symBinAddr: 0x100083D1C, symSize: 0x668 }
  - { offset: 0x2C0024, size: 0x8, addend: 0x0, symName: __ZN6parlay8sequenceIlNS_9allocatorIlEELb0EEC2EmRKl, symObjAddr: 0x7B258, symBinAddr: 0x10007D600, symSize: 0x394 }
  - { offset: 0x2C06E9, size: 0x8, addend: 0x0, symName: __ZN6parlay19fork_join_scheduler6parforIZ14write_verticesIldEvP7clusterIT_T0_ERKS4_RNS_8sequenceIS4_NS_9allocatorIS4_EEXsr3std7is_sameIS4_cEE5valueEEERNSA_IS6_NSB_IS6_EEXsr3std7is_sameIS6_cEE5valueEEEEUllE_EEvRNS_9schedulerINS_15WorkStealingJobEEEmmOS4_mb, symObjAddr: 0x80850, symBinAddr: 0x100082BF8, symSize: 0x338 }
  - { offset: 0x2C0B5D, size: 0x8, addend: 0x0, symName: __ZZ22verifyCompressPathTreeIldEvRN6parlay8sequenceI7clusterIT_T0_ENS0_9allocatorIS5_EEXsr3std7is_sameIS5_cEE5valueEEERKNS1_INSt3__15tupleIJS3_S3_S4_EEENS6_ISC_EEXsr3std7is_sameISC_cEE5valueEEERKNS1_IS3_NS6_IS3_EEXsr3std7is_sameIS3_cEE5valueEEEENKUllE_clEl, symObjAddr: 0x7F000, symBinAddr: 0x1000813A8, symSize: 0x2A4 }
  - { offset: 0x2C13DF, size: 0x8, addend: 0x0, symName: __ZN6parlay19fork_join_scheduler5pardoIZNS0_7parfor_IZ22verifyCompressPathTreeIldEvRNS_8sequenceI7clusterIT_T0_ENS_9allocatorIS8_EEXsr3std7is_sameIS8_cEE5valueEEERKNS4_INSt3__15tupleIJS6_S6_S7_EEENS9_ISF_EEXsr3std7is_sameISF_cEE5valueEEERKNS4_IS6_NS9_IS6_EEXsr3std7is_sameIS6_cEE5valueEEEEUllE_EEvRNS_9schedulerINS_15WorkStealingJobEEEmmRS6_mbEUlvE_ZNS2_ISO_EEvSS_mmST_mbEUlvE0_EEvSS_OS6_OS7_b, symObjAddr: 0x7F2A4, symBinAddr: 0x10008164C, symSize: 0x610 }
  - { offset: 0x2C13F6, size: 0x8, addend: 0x0, symName: __ZN6parlay19fork_join_scheduler5pardoIZNS0_7parfor_IZ22verifyCompressPathTreeIldEvRNS_8sequenceI7clusterIT_T0_ENS_9allocatorIS8_EEXsr3std7is_sameIS8_cEE5valueEEERKNS4_INSt3__15tupleIJS6_S6_S7_EEENS9_ISF_EEXsr3std7is_sameISF_cEE5valueEEERKNS4_IS6_NS9_IS6_EEXsr3std7is_sameIS6_cEE5valueEEEEUllE_EEvRNS_9schedulerINS_15WorkStealingJobEEEmmRS6_mbEUlvE_ZNS2_ISO_EEvSS_mmST_mbEUlvE0_EEvSS_OS6_OS7_b, symObjAddr: 0x7F2A4, symBinAddr: 0x10008164C, symSize: 0x610 }
  - { offset: 0x2C25B8, size: 0x8, addend: 0x0, symName: __ZNSt3__16__treeIlNS_4lessIlEENS_9allocatorIlEEE7destroyEPNS_11__tree_nodeIlPvEE, symObjAddr: 0x7EFC8, symBinAddr: 0x100081370, symSize: 0x38 }
  - { offset: 0x2C26EF, size: 0x8, addend: 0x0, symName: __ZZ17checkCGEdgesValidIldEvN6parlay8sequenceIT_NS0_9allocatorIS2_EEXsr3std7is_sameIS2_cEE5valueEEERNS1_I7clusterIS2_T0_ENS3_IS8_EEXsr3std7is_sameIS8_cEE5valueEEEENKUllE_clEl, symObjAddr: 0x7E748, symBinAddr: 0x100080AF0, symSize: 0x184 }
  - { offset: 0x2C29ED, size: 0x8, addend: 0x0, symName: __ZN6parlay19fork_join_scheduler5pardoIZNS0_7parfor_IZ17checkCGEdgesValidIldEvNS_8sequenceIT_NS_9allocatorIS5_EEXsr3std7is_sameIS5_cEE5valueEEERNS4_I7clusterIS5_T0_ENS6_ISB_EEXsr3std7is_sameISB_cEE5valueEEEEUllE_EEvRNS_9schedulerINS_15WorkStealingJobEEEmmRS5_mbEUlvE_ZNS2_ISF_EEvSJ_mmSK_mbEUlvE0_EEvSJ_OS5_OSA_b, symObjAddr: 0x7E8CC, symBinAddr: 0x100080C74, symSize: 0x620 }
  - { offset: 0x2C2A04, size: 0x8, addend: 0x0, symName: __ZN6parlay19fork_join_scheduler5pardoIZNS0_7parfor_IZ17checkCGEdgesValidIldEvNS_8sequenceIT_NS_9allocatorIS5_EEXsr3std7is_sameIS5_cEE5valueEEERNS4_I7clusterIS5_T0_ENS6_ISB_EEXsr3std7is_sameISB_cEE5valueEEEEUllE_EEvRNS_9schedulerINS_15WorkStealingJobEEEmmRS5_mbEUlvE_ZNS2_ISF_EEvSJ_mmSK_mbEUlvE0_EEvSJ_OS5_OSA_b, symObjAddr: 0x7E8CC, symBinAddr: 0x100080C74, symSize: 0x620 }
  - { offset: 0x2C3BCA, size: 0x8, addend: 0x0, symName: __ZN6parlay19fork_join_scheduler5pardoIZNS0_7parfor_IZNS_8sequenceINSt3__15tupleIJlldEEENS_9allocatorIS6_EELb0EE18initialize_defaultEmEUlmE_EEvRNS_9schedulerINS_15WorkStealingJobEEEmmRT_mbEUlvE_ZNS2_ISA_EEvSE_mmSG_mbEUlvE0_EEvSE_OSF_OT0_b, symObjAddr: 0x7C794, symBinAddr: 0x10007EB3C, symSize: 0x640 }
  - { offset: 0x2C4ED8, size: 0x8, addend: 0x0, symName: __ZN6parlay19fork_join_scheduler5pardoIZNS0_7parfor_IZNS_8sequenceINSt3__14pairIllEENS_9allocatorIS6_EELb0EE18initialize_defaultEmEUlmE_EEvRNS_9schedulerINS_15WorkStealingJobEEEmmRT_mbEUlvE_ZNS2_ISA_EEvSE_mmSG_mbEUlvE0_EEvSE_OSF_OT0_b, symObjAddr: 0x7C090, symBinAddr: 0x10007E438, symSize: 0x630 }
  - { offset: 0x2C6160, size: 0x8, addend: 0x0, symName: __ZZ24createCompressedPathTreeIldENSt3__14pairIN6parlay8sequenceINS0_5tupleIJT_S5_T0_EEENS2_9allocatorIS7_EEXsr3std7is_sameIS7_cEE5valueEEENS3_INS1_IS5_S5_EENS8_ISB_EEXsr3std7is_sameISB_cEE5valueEEEEERNS3_I7clusterIS5_S6_ENS8_ISG_EEXsr3std7is_sameISG_cEE5valueEEERKSA_ENKUllE5_clEl, symObjAddr: 0x7B5EC, symBinAddr: 0x10007D994, symSize: 0x3A8 }
  - { offset: 0x2C67BB, size: 0x8, addend: 0x0, symName: __ZN6parlay19fork_join_scheduler5pardoIZNS0_7parfor_IZ24createCompressedPathTreeIldENSt3__14pairINS_8sequenceINS4_5tupleIJT_S8_T0_EEENS_9allocatorISA_EEXsr3std7is_sameISA_cEE5valueEEENS6_INS5_IS8_S8_EENSB_ISE_EEXsr3std7is_sameISE_cEE5valueEEEEERNS6_I7clusterIS8_S9_ENSB_ISJ_EEXsr3std7is_sameISJ_cEE5valueEEERKSD_EUllE5_EEvRNS_9schedulerINS_15WorkStealingJobEEEmmRS8_mbEUlvE_ZNS2_ISP_EEvST_mmSU_mbEUlvE0_EEvST_OS8_OS9_b, symObjAddr: 0x7B994, symBinAddr: 0x10007DD3C, symSize: 0x620 }
  - { offset: 0x2C67D2, size: 0x8, addend: 0x0, symName: __ZN6parlay19fork_join_scheduler5pardoIZNS0_7parfor_IZ24createCompressedPathTreeIldENSt3__14pairINS_8sequenceINS4_5tupleIJT_S8_T0_EEENS_9allocatorISA_EEXsr3std7is_sameISA_cEE5valueEEENS6_INS5_IS8_S8_EENSB_ISE_EEXsr3std7is_sameISE_cEE5valueEEEEERNS6_I7clusterIS8_S9_ENSB_ISJ_EEXsr3std7is_sameISJ_cEE5valueEEERKSD_EUllE5_EEvRNS_9schedulerINS_15WorkStealingJobEEEmmRS8_mbEUlvE_ZNS2_ISP_EEvST_mmSU_mbEUlvE0_EEvST_OS8_OS9_b, symObjAddr: 0x7B994, symBinAddr: 0x10007DD3C, symSize: 0x620 }
  - { offset: 0x2C7BD0, size: 0x8, addend: 0x0, symName: __ZN6parlay19fork_join_scheduler5pardoIZNS0_7parfor_IZNS_17sequence_internal13sequence_baseINSt3__15tupleIJlldEEENS_9allocatorIS7_EELb0EE12storage_implC1ERKSB_EUlmE_EEvRNS_9schedulerINS_15WorkStealingJobEEEmmRT_mbEUlvE_ZNS2_ISE_EEvSI_mmSK_mbEUlvE0_EEvSI_OSJ_OT0_b, symObjAddr: 0x7A86C, symBinAddr: 0x10007CC14, symSize: 0x660 }
  - { offset: 0x2C90BD, size: 0x8, addend: 0x0, symName: __ZN6parlay19fork_join_scheduler5pardoIZNS0_7parfor_IZNS_17sequence_internal13sequence_baseINSt3__14pairIllEENS_9allocatorIS7_EELb0EE12storage_implC1ERKSB_EUlmE_EEvRNS_9schedulerINS_15WorkStealingJobEEEmmRT_mbEUlvE_ZNS2_ISE_EEvSI_mmSK_mbEUlvE0_EEvSI_OSJ_OT0_b, symObjAddr: 0x7A15C, symBinAddr: 0x10007C504, symSize: 0x638 }
  - { offset: 0x2CA528, size: 0x8, addend: 0x0, symName: __ZN6parlay19fork_join_scheduler5pardoIZNS0_7parfor_IZNS_8sequenceIbNS_9allocatorIbEELb0EE15initialize_fillEmRKbEUlmE_EEvRNS_9schedulerINS_15WorkStealingJobEEEmmRT_mbEUlvE_ZNS2_IS9_EEvSD_mmSF_mbEUlvE0_EEvSD_OSE_OT0_b, symObjAddr: 0x5CE48, symBinAddr: 0x10005F1F0, symSize: 0x760 }
  - { offset: 0x2D0F8F, size: 0x8, addend: 0x0, symName: __ZZ15batchInsertEdgeIldZ12incrementMSTIldEvRN6parlay8sequenceI7clusterIT_T0_ENS1_9allocatorIS6_EEXsr3std7is_sameIS6_cEE5valueEEERKNS2_INSt3__15tupleIJS4_S4_S5_EEENS7_ISD_EEXsr3std7is_sameISD_cEE5valueEEEEUlddE_EvRKNS2_INSB_4pairIS4_S4_EENS7_ISK_EEXsr3std7is_sameISK_cEE5valueEEESH_SA_S5_T1_ENKUllE_clEl, symObjAddr: 0x59118, symBinAddr: 0x10005B4C0, symSize: 0x23C }
  - { offset: 0x2D1867, size: 0x8, addend: 0x0, symName: __ZN6parlay19fork_join_scheduler5pardoIZNS0_7parfor_IZ15batchInsertEdgeIldZ12incrementMSTIldEvRNS_8sequenceI7clusterIT_T0_ENS_9allocatorIS9_EEXsr3std7is_sameIS9_cEE5valueEEERKNS5_INSt3__15tupleIJS7_S7_S8_EEENSA_ISG_EEXsr3std7is_sameISG_cEE5valueEEEEUlddE_EvRKNS5_INSE_4pairIS7_S7_EENSA_ISN_EEXsr3std7is_sameISN_cEE5valueEEESK_SD_S8_T1_EUllE0_EEvRNS_9schedulerINS_15WorkStealingJobEEEmmRS7_mbEUlvE_ZNS2_IST_EEvSX_mmSY_mbEUlvE0_EEvSX_OS7_OS8_b, symObjAddr: 0x56A64, symBinAddr: 0x100058E0C, symSize: 0x668 }
  - { offset: 0x2D2BCB, size: 0x8, addend: 0x0, symName: __ZZ15batchInsertEdgeIldZ12incrementMSTIldEvRN6parlay8sequenceI7clusterIT_T0_ENS1_9allocatorIS6_EEXsr3std7is_sameIS6_cEE5valueEEERKNS2_INSt3__15tupleIJS4_S4_S5_EEENS7_ISD_EEXsr3std7is_sameISD_cEE5valueEEEEUlddE_EvRKNS2_INSB_4pairIS4_S4_EENS7_ISK_EEXsr3std7is_sameISK_cEE5valueEEESH_SA_S5_T1_ENKUllE1_clEl, symObjAddr: 0x3AB74, symBinAddr: 0x10003CF1C, symSize: 0x3E0 }
  - { offset: 0x2D3222, size: 0x8, addend: 0x0, symName: __ZN6parlay19fork_join_scheduler5pardoIZNS0_7parfor_IZ15batchInsertEdgeIldZ12incrementMSTIldEvRNS_8sequenceI7clusterIT_T0_ENS_9allocatorIS9_EEXsr3std7is_sameIS9_cEE5valueEEERKNS5_INSt3__15tupleIJS7_S7_S8_EEENSA_ISG_EEXsr3std7is_sameISG_cEE5valueEEEEUlddE_EvRKNS5_INSE_4pairIS7_S7_EENSA_ISN_EEXsr3std7is_sameISN_cEE5valueEEESK_SD_S8_T1_EUllE1_EEvRNS_9schedulerINS_15WorkStealingJobEEEmmRS7_mbEUlvE_ZNS2_IST_EEvSX_mmSY_mbEUlvE0_EEvSX_OS7_OS8_b, symObjAddr: 0x52644, symBinAddr: 0x1000549EC, symSize: 0x620 }
  - { offset: 0x2D43E8, size: 0x8, addend: 0x0, symName: __ZN6parlay19fork_join_scheduler5pardoIZNS0_7parfor_IZNS_17sequence_internal13sequence_baseI14edge_with_flagINSt3__15tupleIJlldEEEENS_9allocatorIS9_EELb0EE12storage_implC1ERKSD_EUlmE_EEvRNS_9schedulerINS_15WorkStealingJobEEEmmRT_mbEUlvE_ZNS2_ISG_EEvSK_mmSM_mbEUlvE0_EEvSK_OSL_OT0_b, symObjAddr: 0x51944, symBinAddr: 0x100053CEC, symSize: 0x648 }
  - { offset: 0x2D5618, size: 0x8, addend: 0x0, symName: __ZZ15batchInsertEdgeIldZ12incrementMSTIldEvRN6parlay8sequenceI7clusterIT_T0_ENS1_9allocatorIS6_EEXsr3std7is_sameIS6_cEE5valueEEERKNS2_INSt3__15tupleIJS4_S4_S5_EEENS7_ISD_EEXsr3std7is_sameISD_cEE5valueEEEEUlddE_EvRKNS2_INSB_4pairIS4_S4_EENS7_ISK_EEXsr3std7is_sameISK_cEE5valueEEESH_SA_S5_T1_ENKUllE4_clEl, symObjAddr: 0x3AF54, symBinAddr: 0x10003D2FC, symSize: 0x2C8 }
  - { offset: 0x2D5C25, size: 0x8, addend: 0x0, symName: __ZN6parlay19fork_join_scheduler5pardoIZNS0_7parfor_IZ15batchInsertEdgeIldZ12incrementMSTIldEvRNS_8sequenceI7clusterIT_T0_ENS_9allocatorIS9_EEXsr3std7is_sameIS9_cEE5valueEEERKNS5_INSt3__15tupleIJS7_S7_S8_EEENSA_ISG_EEXsr3std7is_sameISG_cEE5valueEEEEUlddE_EvRKNS5_INSE_4pairIS7_S7_EENSA_ISN_EEXsr3std7is_sameISN_cEE5valueEEESK_SD_S8_T1_EUllE4_EEvRNS_9schedulerINS_15WorkStealingJobEEEmmRS7_mbEUlvE_ZNS2_IST_EEvSX_mmSY_mbEUlvE0_EEvSX_OS7_OS8_b, symObjAddr: 0x50BA8, symBinAddr: 0x100052F50, symSize: 0x620 }
  - { offset: 0x2D6DDF, size: 0x8, addend: 0x0, symName: __ZN6parlay8sequenceI14edge_with_flagINSt3__15tupleIJlldEEEENS_9allocatorIS5_EELb0EEC2EmNS8_18_uninitialized_tagE, symObjAddr: 0x4DC80, symBinAddr: 0x100050028, symSize: 0x184 }
  - { offset: 0x2D7185, size: 0x8, addend: 0x0, symName: __ZZ15batchInsertEdgeIldZ12incrementMSTIldEvRN6parlay8sequenceI7clusterIT_T0_ENS1_9allocatorIS6_EEXsr3std7is_sameIS6_cEE5valueEEERKNS2_INSt3__15tupleIJS4_S4_S5_EEENS7_ISD_EEXsr3std7is_sameISD_cEE5valueEEEEUlddE_EvRKNS2_INSB_4pairIS4_S4_EENS7_ISK_EEXsr3std7is_sameISK_cEE5valueEEESH_SA_S5_T1_ENKUllE6_clEl, symObjAddr: 0x3B21C, symBinAddr: 0x10003D5C4, symSize: 0x1D0 }
  - { offset: 0x2D74AB, size: 0x8, addend: 0x0, symName: __ZN6parlay19fork_join_scheduler5pardoIZNS0_7parfor_IZ15batchInsertEdgeIldZ12incrementMSTIldEvRNS_8sequenceI7clusterIT_T0_ENS_9allocatorIS9_EEXsr3std7is_sameIS9_cEE5valueEEERKNS5_INSt3__15tupleIJS7_S7_S8_EEENSA_ISG_EEXsr3std7is_sameISG_cEE5valueEEEEUlddE_EvRKNS5_INSE_4pairIS7_S7_EENSA_ISN_EEXsr3std7is_sameISN_cEE5valueEEESK_SD_S8_T1_EUllE6_EEvRNS_9schedulerINS_15WorkStealingJobEEEmmRS7_mbEUlvE_ZNS2_IST_EEvSX_mmSY_mbEUlvE0_EEvSX_OS7_OS8_b, symObjAddr: 0x4EE68, symBinAddr: 0x100051210, symSize: 0x620 }
  - { offset: 0x2D8665, size: 0x8, addend: 0x0, symName: __Z15third_conditionIldEbRP4nodeIT_T0_E, symObjAddr: 0x3F654, symBinAddr: 0x1000419FC, symSize: 0x14C }
  - { offset: 0x2D870F, size: 0x8, addend: 0x0, symName: __ZZ28create_decompressed_affectedIldEvRN6parlay8sequenceIP4nodeIT_T0_ENS0_9allocatorIS6_EEXsr3std7is_sameIS6_cEE5valueEEEENKUllE_clEl, symObjAddr: 0x497E4, symBinAddr: 0x10004BB8C, symSize: 0x248 }
  - { offset: 0x2D8A0C, size: 0x8, addend: 0x0, symName: __ZN6parlay19fork_join_scheduler5pardoIZNS0_7parfor_IZ28create_decompressed_affectedIldEvRNS_8sequenceIP4nodeIT_T0_ENS_9allocatorIS9_EEXsr3std7is_sameIS9_cEE5valueEEEEUllE_EEvRNS_9schedulerINS_15WorkStealingJobEEEmmRS6_mbEUlvE_ZNS2_ISE_EEvSI_mmSJ_mbEUlvE0_EEvSI_OS6_OS7_b, symObjAddr: 0x4C738, symBinAddr: 0x10004EAE0, symSize: 0x628 }
  - { offset: 0x2D9BC2, size: 0x8, addend: 0x0, symName: __ZZ28create_decompressed_affectedIldEvRN6parlay8sequenceIP4nodeIT_T0_ENS0_9allocatorIS6_EEXsr3std7is_sameIS6_cEE5valueEEEENKUllE0_clEl, symObjAddr: 0x49A2C, symBinAddr: 0x10004BDD4, symSize: 0x2FC }
  - { offset: 0x2D9D54, size: 0x8, addend: 0x0, symName: __ZN6parlay19fork_join_scheduler5pardoIZNS0_7parfor_IZ28create_decompressed_affectedIldEvRNS_8sequenceIP4nodeIT_T0_ENS_9allocatorIS9_EEXsr3std7is_sameIS9_cEE5valueEEEEUllE0_EEvRNS_9schedulerINS_15WorkStealingJobEEEmmRS6_mbEUlvE_ZNS2_ISE_EEvSI_mmSJ_mbEUlvE0_EEvSI_OS6_OS7_b, symObjAddr: 0x4C030, symBinAddr: 0x10004E3D8, symSize: 0x628 }
  - { offset: 0x2DAF0A, size: 0x8, addend: 0x0, symName: __ZZ28create_decompressed_affectedIldEvRN6parlay8sequenceIP4nodeIT_T0_ENS0_9allocatorIS6_EEXsr3std7is_sameIS6_cEE5valueEEEENKUllE1_clEl, symObjAddr: 0x49D28, symBinAddr: 0x10004C0D0, symSize: 0x29C }
  - { offset: 0x2DB087, size: 0x8, addend: 0x0, symName: __ZN6parlay19fork_join_scheduler5pardoIZNS0_7parfor_IZ28create_decompressed_affectedIldEvRNS_8sequenceIP4nodeIT_T0_ENS_9allocatorIS9_EEXsr3std7is_sameIS9_cEE5valueEEEEUllE1_EEvRNS_9schedulerINS_15WorkStealingJobEEEmmRS6_mbEUlvE_ZNS2_ISE_EEvSI_mmSJ_mbEUlvE0_EEvSI_OS6_OS7_b, symObjAddr: 0x4B928, symBinAddr: 0x10004DCD0, symSize: 0x628 }
  - { offset: 0x2DC23D, size: 0x8, addend: 0x0, symName: __ZZ28create_decompressed_affectedIldEvRN6parlay8sequenceIP4nodeIT_T0_ENS0_9allocatorIS6_EEXsr3std7is_sameIS6_cEE5valueEEEENKUllE3_clEl, symObjAddr: 0x49FC4, symBinAddr: 0x10004C36C, symSize: 0x200 }
  - { offset: 0x2DC8DA, size: 0x8, addend: 0x0, symName: __ZN6parlay19fork_join_scheduler5pardoIZNS0_7parfor_IZ28create_decompressed_affectedIldEvRNS_8sequenceIP4nodeIT_T0_ENS_9allocatorIS9_EEXsr3std7is_sameIS9_cEE5valueEEEEUllE3_EEvRNS_9schedulerINS_15WorkStealingJobEEEmmRS6_mbEUlvE_ZNS2_ISE_EEvSI_mmSJ_mbEUlvE0_EEvSI_OS6_OS7_b, symObjAddr: 0x4AB2C, symBinAddr: 0x10004CED4, symSize: 0x628 }
  - { offset: 0x2DDA90, size: 0x8, addend: 0x0, symName: __ZZ28create_decompressed_affectedIldEvRN6parlay8sequenceIP4nodeIT_T0_ENS0_9allocatorIS6_EEXsr3std7is_sameIS6_cEE5valueEEEENKUllE4_clEl, symObjAddr: 0x4A1C4, symBinAddr: 0x10004C56C, symSize: 0x260 }
  - { offset: 0x2DDC67, size: 0x8, addend: 0x0, symName: __ZN6parlay19fork_join_scheduler5pardoIZNS0_7parfor_IZ28create_decompressed_affectedIldEvRNS_8sequenceIP4nodeIT_T0_ENS_9allocatorIS9_EEXsr3std7is_sameIS9_cEE5valueEEEEUllE4_EEvRNS_9schedulerINS_15WorkStealingJobEEEmmRS6_mbEUlvE_ZNS2_ISE_EEvSI_mmSJ_mbEUlvE0_EEvSI_OS6_OS7_b, symObjAddr: 0x4A424, symBinAddr: 0x10004C7CC, symSize: 0x628 }
  - { offset: 0x2DEE11, size: 0x8, addend: 0x0, symName: __Z18is_update_eligibleIldEbP4nodeIT_T0_E, symObjAddr: 0x48F48, symBinAddr: 0x10004B2F0, symSize: 0x130 }
  - { offset: 0x2DEE2D, size: 0x8, addend: 0x0, symName: __Z18is_update_eligibleIldEbP4nodeIT_T0_E, symObjAddr: 0x48F48, symBinAddr: 0x10004B2F0, symSize: 0x130 }
  - { offset: 0x2DEE53, size: 0x8, addend: 0x0, symName: __Z18is_update_eligibleIldEbP4nodeIT_T0_E, symObjAddr: 0x48F48, symBinAddr: 0x10004B2F0, symSize: 0x130 }
  - { offset: 0x2DEE69, size: 0x8, addend: 0x0, symName: __Z18is_update_eligibleIldEbP4nodeIT_T0_E, symObjAddr: 0x48F48, symBinAddr: 0x10004B2F0, symSize: 0x130 }
  - { offset: 0x2DEEC1, size: 0x8, addend: 0x0, symName: __Z10accumulateIldZ12incrementMSTIldEvRN6parlay8sequenceI7clusterIT_T0_ENS1_9allocatorIS6_EEXsr3std7is_sameIS6_cEE5valueEEERKNS2_INSt3__15tupleIJS4_S4_S5_EEENS7_ISD_EEXsr3std7is_sameISD_cEE5valueEEEEUlddE_EvPK4nodeIS4_S5_ES5_T1_, symObjAddr: 0x421E8, symBinAddr: 0x100044590, symSize: 0x170 }
  - { offset: 0x2DEF70, size: 0x8, addend: 0x0, symName: __ZZ22check_parents_childrenIldEvRN6parlay8sequenceI7clusterIT_T0_ENS0_9allocatorIS5_EEXsr3std7is_sameIS5_cEE5valueEEEENKUllE_clEl, symObjAddr: 0x3D7F4, symBinAddr: 0x10003FB9C, symSize: 0x14C }
  - { offset: 0x2DF1A8, size: 0x8, addend: 0x0, symName: __ZN6parlay19fork_join_scheduler5pardoIZNS0_7parfor_IZ22check_parents_childrenIldEvRNS_8sequenceI7clusterIT_T0_ENS_9allocatorIS8_EEXsr3std7is_sameIS8_cEE5valueEEEEUllE_EEvRNS_9schedulerINS_15WorkStealingJobEEEmmRS6_mbEUlvE_ZNS2_ISD_EEvSH_mmSI_mbEUlvE0_EEvSH_OS6_OS7_b, symObjAddr: 0x3D940, symBinAddr: 0x10003FCE8, symSize: 0x628 }
  - { offset: 0x2DF1BF, size: 0x8, addend: 0x0, symName: __ZN6parlay19fork_join_scheduler5pardoIZNS0_7parfor_IZ22check_parents_childrenIldEvRNS_8sequenceI7clusterIT_T0_ENS_9allocatorIS8_EEXsr3std7is_sameIS8_cEE5valueEEEEUllE_EEvRNS_9schedulerINS_15WorkStealingJobEEEmmRS6_mbEUlvE_ZNS2_ISD_EEvSH_mmSI_mbEUlvE0_EEvSH_OS6_OS7_b, symObjAddr: 0x3D940, symBinAddr: 0x10003FCE8, symSize: 0x628 }
  - { offset: 0x2E0369, size: 0x8, addend: 0x0, symName: __ZN6parlay17sequence_internal13sequence_baseINS_8sequenceIP4nodeIldENS_9allocatorIS5_EELb0EEENS6_IS8_EELb0EE12storage_implD1Ev, symObjAddr: 0x54BD0, symBinAddr: 0x100056F78, symSize: 0x7C }
  - { offset: 0x2E0509, size: 0x8, addend: 0x0, symName: __ZN6parlay8sequenceINS0_IP4nodeIldENS_9allocatorIS3_EELb0EEENS4_IS6_EELb0EED1Ev, symObjAddr: 0x3950C, symBinAddr: 0x10003B8B4, symSize: 0x7C }
  - { offset: 0x2E06EC, size: 0x8, addend: 0x0, symName: __ZN6parlay17sequence_internal13sequence_baseINS_8sequenceIP4nodeIldENS_9allocatorIS5_EELb0EEENS6_IS8_EELb0EED2Ev, symObjAddr: 0x54C4C, symBinAddr: 0x100056FF4, symSize: 0x7C }
  - { offset: 0x2E0F3F, size: 0x8, addend: 0x0, symName: __ZN6parlay19fork_join_scheduler5pardoIZNS0_7parfor_IZNS_8sequenceImNS_9allocatorImEELb0EEC1IZNS_7flattenIP4nodeIldEEEDaONS3_INS3_IT_NS4_ISD_EEXsr3std7is_sameISD_cEE5valueEEENS4_ISF_EEXsr3std7is_sameISF_cEE5valueEEEEUlmE_EEmOSD_NS6_18_from_function_tagEmEUlmE_EEvRNS_9schedulerINS_15WorkStealingJobEEEmmRSD_mbEUlvE_ZNS2_ISM_EEvSQ_mmSR_mbEUlvE0_EEvSQ_SK_OT0_b, symObjAddr: 0x58710, symBinAddr: 0x10005AAB8, symSize: 0x830 }
  - { offset: 0x2E2205, size: 0x8, addend: 0x0, symName: __ZN6parlay19fork_join_scheduler5pardoIZNS0_7parfor_IZNS_24uninitialized_relocate_nIPP4nodeIldElS7_EENSt3__14pairIT_T1_EESA_T0_SB_EUlmE_EEvRNS_9schedulerINS_15WorkStealingJobEEEmmRSA_mbEUlvE_ZNS2_ISE_EEvSI_mmSJ_mbEUlvE0_EEvSI_OSA_OSD_b, symObjAddr: 0x57F78, symBinAddr: 0x10005A320, symSize: 0x688 }
  - { offset: 0x2E4314, size: 0x8, addend: 0x0, symName: __ZZ8get_3dp1IldEN6parlay8sequenceIP4nodeIT_T0_ENS0_9allocatorIS6_EEXsr3std7is_sameIS6_cEE5valueEEERS9_ENKUllE_clEl, symObjAddr: 0x55608, symBinAddr: 0x1000579B0, symSize: 0x19C }
  - { offset: 0x2E468E, size: 0x8, addend: 0x0, symName: __ZZ8get_3dp1IldEN6parlay8sequenceIP4nodeIT_T0_ENS0_9allocatorIS6_EEXsr3std7is_sameIS6_cEE5valueEEERS9_ENKUllE0_clEl, symObjAddr: 0x54CC8, symBinAddr: 0x100057070, symSize: 0x1A0 }
  - { offset: 0x2E4A08, size: 0x8, addend: 0x0, symName: __ZN6parlay19fork_join_scheduler5pardoIZNS0_7parfor_IZ8tiebreakIldENS_8sequenceIP4nodeIT_T0_ENS_9allocatorIS9_EEXsr3std7is_sameIS9_cEE5valueEEERSC_EUllE_EEvRNS_9schedulerINS_15WorkStealingJobEEEmmRS6_mbEUlvE_ZNS2_ISE_EEvSI_mmSJ_mbEUlvE0_EEvSI_OS6_OS7_b, symObjAddr: 0x54488, symBinAddr: 0x100056830, symSize: 0x65C }
  - { offset: 0x2E5BFC, size: 0x8, addend: 0x0, symName: __ZN6parlay19fork_join_scheduler5pardoIZNS0_7parfor_IZ8tiebreakIldENS_8sequenceIP4nodeIT_T0_ENS_9allocatorIS9_EEXsr3std7is_sameIS9_cEE5valueEEERSC_EUllE0_EEvRNS_9schedulerINS_15WorkStealingJobEEEmmRS6_mbEUlvE_ZNS2_ISE_EEvSI_mmSJ_mbEUlvE0_EEvSI_OS6_OS7_b, symObjAddr: 0x53D24, symBinAddr: 0x1000560CC, symSize: 0x670 }
  - { offset: 0x2E6FE1, size: 0x8, addend: 0x0, symName: __ZN6parlay14type_allocatorI7clusterIldEE5allocEv, symObjAddr: 0x512A4, symBinAddr: 0x10005364C, symSize: 0xC0 }
  - { offset: 0x2E873E, size: 0x8, addend: 0x0, symName: __ZN6parlay19fork_join_scheduler5pardoIZNS0_7parfor_IZNS_8sequenceIP7clusterIldENS_9allocatorIS6_EELb0EEC1IZ7set_MISIldEvRNS3_IP4nodeIT_T0_ENS7_ISG_EEXsr3std7is_sameISG_cEE5valueEEEbEUllE_EEmOSD_NS9_18_from_function_tagEmEUlmE_EEvRNS_9schedulerINS_15WorkStealingJobEEEmmRSD_mbEUlvE_ZNS2_ISN_EEvSR_mmSS_mbEUlvE0_EEvSR_SL_OSE_b, symObjAddr: 0x47448, symBinAddr: 0x1000497F0, symSize: 0x660 }
  - { offset: 0x2E9B34, size: 0x8, addend: 0x0, symName: __ZZ12colour_nodesIldEvN6parlay8sequenceIP4nodeIT_T0_ENS0_9allocatorIS6_EEXsr3std7is_sameIS6_cEE5valueEEEENKUllE_clEl, symObjAddr: 0x46BB0, symBinAddr: 0x100048F58, symSize: 0x190 }
  - { offset: 0x2E9D22, size: 0x8, addend: 0x0, symName: __ZN6parlay19fork_join_scheduler5pardoIZNS0_7parfor_IZ12colour_nodesIldEvNS_8sequenceIP4nodeIT_T0_ENS_9allocatorIS9_EEXsr3std7is_sameIS9_cEE5valueEEEEUllE_EEvRNS_9schedulerINS_15WorkStealingJobEEEmmRS6_mbEUlvE_ZNS2_ISD_EEvSH_mmSI_mbEUlvE0_EEvSH_OS6_OS7_b, symObjAddr: 0x46D40, symBinAddr: 0x1000490E8, symSize: 0x628 }
  - { offset: 0x2EAECC, size: 0x8, addend: 0x0, symName: __ZN7clusterIldE17set_neighbour_misEbP4nodeIldE, symObjAddr: 0x464B8, symBinAddr: 0x100048860, symSize: 0x114 }
  - { offset: 0x2EAFB8, size: 0x8, addend: 0x0, symName: __ZN6parlay19fork_join_scheduler5pardoIZNS0_7parfor_IZNS_8sequenceIlNS_9allocatorIlEELb0EEC1IZ7set_MISIldEvRNS3_IP4nodeIT_T0_ENS4_ISD_EEXsr3std7is_sameISD_cEE5valueEEEbEUllE1_EEmOSA_NS6_18_from_function_tagEmEUlmE_EEvRNS_9schedulerINS_15WorkStealingJobEEEmmRSA_mbEUlvE_ZNS2_ISK_EEvSO_mmSP_mbEUlvE0_EEvSO_SI_OSB_b, symObjAddr: 0x45D54, symBinAddr: 0x1000480FC, symSize: 0x670 }
  - { offset: 0x2EC206, size: 0x8, addend: 0x0, symName: __ZN6parlay19fork_join_scheduler5pardoIZNS0_7parfor_IZNS_8sequenceIlNS_9allocatorIlEELb0EEC1IZ7set_MISIldEvRNS3_IP4nodeIT_T0_ENS4_ISD_EEXsr3std7is_sameISD_cEE5valueEEEbEUllE2_EEmOSA_NS6_18_from_function_tagEmEUlmE_EEvRNS_9schedulerINS_15WorkStealingJobEEEmmRSA_mbEUlvE_ZNS2_ISK_EEvSO_mmSP_mbEUlvE0_EEvSO_SI_OSB_b, symObjAddr: 0x4550C, symBinAddr: 0x1000478B4, symSize: 0x708 }
  - { offset: 0x2ED42E, size: 0x8, addend: 0x0, symName: __ZN6parlay19fork_join_scheduler5pardoIZNS0_7parfor_IZ13counting_sortIPlS4_S4_ENS_8sequenceImNS_9allocatorImEELb0EEERKT_SB_T0_RKT1_lEUllE_EEvRNS_9schedulerINS_15WorkStealingJobEEEmmRS9_mbEUlvE_ZNS2_ISG_EEvSK_mmSL_mbEUlvE0_EEvSK_OS9_OSC_b, symObjAddr: 0x43F90, symBinAddr: 0x100046338, symSize: 0x620 }
  - { offset: 0x2EE5F4, size: 0x8, addend: 0x0, symName: __ZZ13counting_sortIPlS0_S0_EN6parlay8sequenceImNS1_9allocatorImEELb0EEERKT_S8_T0_RKT1_lENKUllE_clEl, symObjAddr: 0x43E34, symBinAddr: 0x1000461DC, symSize: 0x15C }
  - { offset: 0x2EE912, size: 0x8, addend: 0x0, symName: __ZN6parlay19fork_join_scheduler5pardoIZNS0_7parfor_IZ13counting_sortIPlS4_S4_ENS_8sequenceImNS_9allocatorImEELb0EEERKT_SB_T0_RKT1_lEUllE_EEvRNS_9schedulerINS_15WorkStealingJobEEEmmRS9_mbEUlvE_ZNS2_ISG_EEvSK_mmSL_mbEUlvE0_EEvSK_OS9_OSC_b, symObjAddr: 0x43F90, symBinAddr: 0x100046338, symSize: 0x620 }
  - { offset: 0x2EE929, size: 0x8, addend: 0x0, symName: __ZZ13counting_sortIPlS0_S0_EN6parlay8sequenceImNS1_9allocatorImEELb0EEERKT_S8_T0_RKT1_lENKUllE0_clEl, symObjAddr: 0x445B0, symBinAddr: 0x100046958, symSize: 0x1B0 }
  - { offset: 0x2EEC6A, size: 0x8, addend: 0x0, symName: __ZN6parlay19fork_join_scheduler5pardoIZNS0_7parfor_IZ13counting_sortIPlS4_S4_ENS_8sequenceImNS_9allocatorImEELb0EEERKT_SB_T0_RKT1_lEUllE0_EEvRNS_9schedulerINS_15WorkStealingJobEEEmmRS9_mbEUlvE_ZNS2_ISG_EEvSK_mmSL_mbEUlvE0_EEvSK_OS9_OSC_b, symObjAddr: 0x44760, symBinAddr: 0x100046B08, symSize: 0x620 }
  - { offset: 0x2EEC81, size: 0x8, addend: 0x0, symName: __ZN6parlay19fork_join_scheduler5pardoIZNS0_7parfor_IZ13counting_sortIPlS4_S4_ENS_8sequenceImNS_9allocatorImEELb0EEERKT_SB_T0_RKT1_lEUllE0_EEvRNS_9schedulerINS_15WorkStealingJobEEEmmRS9_mbEUlvE_ZNS2_ISG_EEvSK_mmSL_mbEUlvE0_EEvSK_OS9_OSC_b, symObjAddr: 0x44760, symBinAddr: 0x100046B08, symSize: 0x620 }
  - { offset: 0x2EFE3B, size: 0x8, addend: 0x0, symName: __ZN7clusterIldE17get_neighbour_misEP4nodeIldE, symObjAddr: 0x436FC, symBinAddr: 0x100045AA4, symSize: 0x120 }
  - { offset: 0x2F014F, size: 0x8, addend: 0x0, symName: __ZN6parlay19fork_join_scheduler5pardoIZNS0_7parfor_IZNS_17sequence_internal13sequence_baseIP4nodeIldENS_9allocatorIS7_EELb0EE12storage_implC1ERKSB_EUlmE_EEvRNS_9schedulerINS_15WorkStealingJobEEEmmRT_mbEUlvE_ZNS2_ISE_EEvSI_mmSK_mbEUlvE0_EEvSI_OSJ_OT0_b, symObjAddr: 0x412CC, symBinAddr: 0x100043674, symSize: 0x638 }
  - { offset: 0x2F15FA, size: 0x8, addend: 0x0, symName: __ZN6parlay7JobImplIZNS_19fork_join_scheduler7parfor_IZ22check_parents_childrenIldEvRNS_8sequenceI7clusterIT_T0_ENS_9allocatorIS8_EEXsr3std7is_sameIS8_cEE5valueEEEEUllE_EEvRNS_9schedulerINS_15WorkStealingJobEEEmmRS6_mbEUlvE0_ED1Ev, symObjAddr: 0x3DF68, symBinAddr: 0x100040310, symSize: 0x4 }
  - { offset: 0x2F1625, size: 0x8, addend: 0x0, symName: __ZN6parlay7JobImplIZNS_19fork_join_scheduler7parfor_IZ22check_parents_childrenIldEvRNS_8sequenceI7clusterIT_T0_ENS_9allocatorIS8_EEXsr3std7is_sameIS8_cEE5valueEEEEUllE_EEvRNS_9schedulerINS_15WorkStealingJobEEEmmRS6_mbEUlvE0_ED0Ev, symObjAddr: 0x3DF6C, symBinAddr: 0x100040314, symSize: 0x4 }
  - { offset: 0x2F1650, size: 0x8, addend: 0x0, symName: __ZN6parlay7JobImplIZNS_19fork_join_scheduler7parfor_IZ22check_parents_childrenIldEvRNS_8sequenceI7clusterIT_T0_ENS_9allocatorIS8_EEXsr3std7is_sameIS8_cEE5valueEEEEUllE_EEvRNS_9schedulerINS_15WorkStealingJobEEEmmRS6_mbEUlvE0_E7executeEv, symObjAddr: 0x3DF70, symBinAddr: 0x100040318, symSize: 0xD8 }
  - { offset: 0x2F19F6, size: 0x8, addend: 0x0, symName: __ZN6parlay7JobImplIZNS_19fork_join_scheduler7parfor_IZ15batchInsertEdgeIldZ12incrementMSTIldEvRNS_8sequenceI7clusterIT_T0_ENS_9allocatorIS9_EEXsr3std7is_sameIS9_cEE5valueEEERKNS5_INSt3__15tupleIJS7_S7_S8_EEENSA_ISG_EEXsr3std7is_sameISG_cEE5valueEEEEUlddE_EvRKNS5_INSE_4pairIS7_S7_EENSA_ISN_EEXsr3std7is_sameISN_cEE5valueEEESK_SD_S8_T1_EUllE12_EEvRNS_9schedulerINS_15WorkStealingJobEEEmmRS7_mbEUlvE0_ED1Ev, symObjAddr: 0x3EE10, symBinAddr: 0x1000411B8, symSize: 0x4 }
  - { offset: 0x2F1A21, size: 0x8, addend: 0x0, symName: __ZN6parlay7JobImplIZNS_19fork_join_scheduler7parfor_IZ15batchInsertEdgeIldZ12incrementMSTIldEvRNS_8sequenceI7clusterIT_T0_ENS_9allocatorIS9_EEXsr3std7is_sameIS9_cEE5valueEEERKNS5_INSt3__15tupleIJS7_S7_S8_EEENSA_ISG_EEXsr3std7is_sameISG_cEE5valueEEEEUlddE_EvRKNS5_INSE_4pairIS7_S7_EENSA_ISN_EEXsr3std7is_sameISN_cEE5valueEEESK_SD_S8_T1_EUllE12_EEvRNS_9schedulerINS_15WorkStealingJobEEEmmRS7_mbEUlvE0_ED0Ev, symObjAddr: 0x3EE14, symBinAddr: 0x1000411BC, symSize: 0x4 }
  - { offset: 0x2F1A4C, size: 0x8, addend: 0x0, symName: __ZN6parlay7JobImplIZNS_19fork_join_scheduler7parfor_IZ15batchInsertEdgeIldZ12incrementMSTIldEvRNS_8sequenceI7clusterIT_T0_ENS_9allocatorIS9_EEXsr3std7is_sameIS9_cEE5valueEEERKNS5_INSt3__15tupleIJS7_S7_S8_EEENSA_ISG_EEXsr3std7is_sameISG_cEE5valueEEEEUlddE_EvRKNS5_INSE_4pairIS7_S7_EENSA_ISN_EEXsr3std7is_sameISN_cEE5valueEEESK_SD_S8_T1_EUllE12_EEvRNS_9schedulerINS_15WorkStealingJobEEEmmRS7_mbEUlvE0_E7executeEv, symObjAddr: 0x3EE18, symBinAddr: 0x1000411C0, symSize: 0x24 }
  - { offset: 0x2F1D91, size: 0x8, addend: 0x0, symName: __ZN6parlay7JobImplIZNS_19fork_join_scheduler7parfor_IZNS_8internal10sliced_forIZNS3_10filter_mapINS_5sliceIPP4nodeIldESA_EEZ15batchInsertEdgeIldZ12incrementMSTIldEvRNS_8sequenceI7clusterIT_T0_ENS_9allocatorISI_EEXsr3std7is_sameISI_cEE5valueEEERKNSE_INSt3__15tupleIJSG_SG_SH_EEENSJ_ISP_EEXsr3std7is_sameISP_cEE5valueEEEEUlddE_EvRKNSE_INSN_4pairISG_SG_EENSJ_ISW_EEXsr3std7is_sameISW_cEE5valueEEEST_SM_SH_T1_EUlSG_E7_RZNS3_6filterISB_S12_EENSE_INSG_10value_typeENSJ_IS14_EEXsr3std7is_sameIS14_cEE5valueEEERKSG_OSH_EUlOSG_E_EEDaS18_S19_OS11_EUlmmmE0_EEvmmS18_jEUlmE_EEvRNS_9schedulerINS_15WorkStealingJobEEEmmRSG_mbEUlvE0_ED1Ev, symObjAddr: 0x3F628, symBinAddr: 0x1000419D0, symSize: 0x4 }
  - { offset: 0x2F1DBC, size: 0x8, addend: 0x0, symName: __ZN6parlay7JobImplIZNS_19fork_join_scheduler7parfor_IZNS_8internal10sliced_forIZNS3_10filter_mapINS_5sliceIPP4nodeIldESA_EEZ15batchInsertEdgeIldZ12incrementMSTIldEvRNS_8sequenceI7clusterIT_T0_ENS_9allocatorISI_EEXsr3std7is_sameISI_cEE5valueEEERKNSE_INSt3__15tupleIJSG_SG_SH_EEENSJ_ISP_EEXsr3std7is_sameISP_cEE5valueEEEEUlddE_EvRKNSE_INSN_4pairISG_SG_EENSJ_ISW_EEXsr3std7is_sameISW_cEE5valueEEEST_SM_SH_T1_EUlSG_E7_RZNS3_6filterISB_S12_EENSE_INSG_10value_typeENSJ_IS14_EEXsr3std7is_sameIS14_cEE5valueEEERKSG_OSH_EUlOSG_E_EEDaS18_S19_OS11_EUlmmmE0_EEvmmS18_jEUlmE_EEvRNS_9schedulerINS_15WorkStealingJobEEEmmRSG_mbEUlvE0_ED0Ev, symObjAddr: 0x3F62C, symBinAddr: 0x1000419D4, symSize: 0x4 }
  - { offset: 0x2F1DE7, size: 0x8, addend: 0x0, symName: __ZN6parlay7JobImplIZNS_19fork_join_scheduler7parfor_IZNS_8internal10sliced_forIZNS3_10filter_mapINS_5sliceIPP4nodeIldESA_EEZ15batchInsertEdgeIldZ12incrementMSTIldEvRNS_8sequenceI7clusterIT_T0_ENS_9allocatorISI_EEXsr3std7is_sameISI_cEE5valueEEERKNSE_INSt3__15tupleIJSG_SG_SH_EEENSJ_ISP_EEXsr3std7is_sameISP_cEE5valueEEEEUlddE_EvRKNSE_INSN_4pairISG_SG_EENSJ_ISW_EEXsr3std7is_sameISW_cEE5valueEEEST_SM_SH_T1_EUlSG_E7_RZNS3_6filterISB_S12_EENSE_INSG_10value_typeENSJ_IS14_EEXsr3std7is_sameIS14_cEE5valueEEERKSG_OSH_EUlOSG_E_EEDaS18_S19_OS11_EUlmmmE0_EEvmmS18_jEUlmE_EEvRNS_9schedulerINS_15WorkStealingJobEEEmmRSG_mbEUlvE0_E7executeEv, symObjAddr: 0x3F630, symBinAddr: 0x1000419D8, symSize: 0x24 }
  - { offset: 0x2F2191, size: 0x8, addend: 0x0, symName: __ZN6parlay7JobImplIZNS_19fork_join_scheduler7parfor_IZNS_8internal10sliced_forIZNS3_10filter_mapINS_5sliceIPP4nodeIldESA_EEZ15batchInsertEdgeIldZ12incrementMSTIldEvRNS_8sequenceI7clusterIT_T0_ENS_9allocatorISI_EEXsr3std7is_sameISI_cEE5valueEEERKNSE_INSt3__15tupleIJSG_SG_SH_EEENSJ_ISP_EEXsr3std7is_sameISP_cEE5valueEEEEUlddE_EvRKNSE_INSN_4pairISG_SG_EENSJ_ISW_EEXsr3std7is_sameISW_cEE5valueEEEST_SM_SH_T1_EUlSG_E7_RZNS3_6filterISB_S12_EENSE_INSG_10value_typeENSJ_IS14_EEXsr3std7is_sameIS14_cEE5valueEEERKSG_OSH_EUlOSG_E_EEDaS18_S19_OS11_EUlmmmE_EEvmmS18_jEUlmE_EEvRNS_9schedulerINS_15WorkStealingJobEEEmmRSG_mbEUlvE0_ED1Ev, symObjAddr: 0x3FF20, symBinAddr: 0x1000422C8, symSize: 0x4 }
  - { offset: 0x2F21BC, size: 0x8, addend: 0x0, symName: __ZN6parlay7JobImplIZNS_19fork_join_scheduler7parfor_IZNS_8internal10sliced_forIZNS3_10filter_mapINS_5sliceIPP4nodeIldESA_EEZ15batchInsertEdgeIldZ12incrementMSTIldEvRNS_8sequenceI7clusterIT_T0_ENS_9allocatorISI_EEXsr3std7is_sameISI_cEE5valueEEERKNSE_INSt3__15tupleIJSG_SG_SH_EEENSJ_ISP_EEXsr3std7is_sameISP_cEE5valueEEEEUlddE_EvRKNSE_INSN_4pairISG_SG_EENSJ_ISW_EEXsr3std7is_sameISW_cEE5valueEEEST_SM_SH_T1_EUlSG_E7_RZNS3_6filterISB_S12_EENSE_INSG_10value_typeENSJ_IS14_EEXsr3std7is_sameIS14_cEE5valueEEERKSG_OSH_EUlOSG_E_EEDaS18_S19_OS11_EUlmmmE_EEvmmS18_jEUlmE_EEvRNS_9schedulerINS_15WorkStealingJobEEEmmRSG_mbEUlvE0_ED0Ev, symObjAddr: 0x3FF24, symBinAddr: 0x1000422CC, symSize: 0x4 }
  - { offset: 0x2F21E7, size: 0x8, addend: 0x0, symName: __ZN6parlay7JobImplIZNS_19fork_join_scheduler7parfor_IZNS_8internal10sliced_forIZNS3_10filter_mapINS_5sliceIPP4nodeIldESA_EEZ15batchInsertEdgeIldZ12incrementMSTIldEvRNS_8sequenceI7clusterIT_T0_ENS_9allocatorISI_EEXsr3std7is_sameISI_cEE5valueEEERKNSE_INSt3__15tupleIJSG_SG_SH_EEENSJ_ISP_EEXsr3std7is_sameISP_cEE5valueEEEEUlddE_EvRKNSE_INSN_4pairISG_SG_EENSJ_ISW_EEXsr3std7is_sameISW_cEE5valueEEEST_SM_SH_T1_EUlSG_E7_RZNS3_6filterISB_S12_EENSE_INSG_10value_typeENSJ_IS14_EEXsr3std7is_sameIS14_cEE5valueEEERKSG_OSH_EUlOSG_E_EEDaS18_S19_OS11_EUlmmmE_EEvmmS18_jEUlmE_EEvRNS_9schedulerINS_15WorkStealingJobEEEmmRSG_mbEUlvE0_E7executeEv, symObjAddr: 0x3FF28, symBinAddr: 0x1000422D0, symSize: 0x24 }
  - { offset: 0x2F252C, size: 0x8, addend: 0x0, symName: __ZN6parlay7JobImplIZNS_19fork_join_scheduler7parfor_IZNS_8internal10sliced_forIZNS3_10filter_mapINS_5sliceIPP4nodeIldESA_EEZ15batchInsertEdgeIldZ12incrementMSTIldEvRNS_8sequenceI7clusterIT_T0_ENS_9allocatorISI_EEXsr3std7is_sameISI_cEE5valueEEERKNSE_INSt3__15tupleIJSG_SG_SH_EEENSJ_ISP_EEXsr3std7is_sameISP_cEE5valueEEEEUlddE_EvRKNSE_INSN_4pairISG_SG_EENSJ_ISW_EEXsr3std7is_sameISW_cEE5valueEEEST_SM_SH_T1_EUlSG_E6_RZNS3_6filterISB_S12_EENSE_INSG_10value_typeENSJ_IS14_EEXsr3std7is_sameIS14_cEE5valueEEERKSG_OSH_EUlOSG_E_EEDaS18_S19_OS11_EUlmmmE0_EEvmmS18_jEUlmE_EEvRNS_9schedulerINS_15WorkStealingJobEEEmmRSG_mbEUlvE0_ED1Ev, symObjAddr: 0x405B4, symBinAddr: 0x10004295C, symSize: 0x4 }
  - { offset: 0x2F2557, size: 0x8, addend: 0x0, symName: __ZN6parlay7JobImplIZNS_19fork_join_scheduler7parfor_IZNS_8internal10sliced_forIZNS3_10filter_mapINS_5sliceIPP4nodeIldESA_EEZ15batchInsertEdgeIldZ12incrementMSTIldEvRNS_8sequenceI7clusterIT_T0_ENS_9allocatorISI_EEXsr3std7is_sameISI_cEE5valueEEERKNSE_INSt3__15tupleIJSG_SG_SH_EEENSJ_ISP_EEXsr3std7is_sameISP_cEE5valueEEEEUlddE_EvRKNSE_INSN_4pairISG_SG_EENSJ_ISW_EEXsr3std7is_sameISW_cEE5valueEEEST_SM_SH_T1_EUlSG_E6_RZNS3_6filterISB_S12_EENSE_INSG_10value_typeENSJ_IS14_EEXsr3std7is_sameIS14_cEE5valueEEERKSG_OSH_EUlOSG_E_EEDaS18_S19_OS11_EUlmmmE0_EEvmmS18_jEUlmE_EEvRNS_9schedulerINS_15WorkStealingJobEEEmmRSG_mbEUlvE0_ED0Ev, symObjAddr: 0x405B8, symBinAddr: 0x100042960, symSize: 0x4 }
  - { offset: 0x2F2582, size: 0x8, addend: 0x0, symName: __ZN6parlay7JobImplIZNS_19fork_join_scheduler7parfor_IZNS_8internal10sliced_forIZNS3_10filter_mapINS_5sliceIPP4nodeIldESA_EEZ15batchInsertEdgeIldZ12incrementMSTIldEvRNS_8sequenceI7clusterIT_T0_ENS_9allocatorISI_EEXsr3std7is_sameISI_cEE5valueEEERKNSE_INSt3__15tupleIJSG_SG_SH_EEENSJ_ISP_EEXsr3std7is_sameISP_cEE5valueEEEEUlddE_EvRKNSE_INSN_4pairISG_SG_EENSJ_ISW_EEXsr3std7is_sameISW_cEE5valueEEEST_SM_SH_T1_EUlSG_E6_RZNS3_6filterISB_S12_EENSE_INSG_10value_typeENSJ_IS14_EEXsr3std7is_sameIS14_cEE5valueEEERKSG_OSH_EUlOSG_E_EEDaS18_S19_OS11_EUlmmmE0_EEvmmS18_jEUlmE_EEvRNS_9schedulerINS_15WorkStealingJobEEEmmRSG_mbEUlvE0_E7executeEv, symObjAddr: 0x405BC, symBinAddr: 0x100042964, symSize: 0x24 }
  - { offset: 0x2F28C7, size: 0x8, addend: 0x0, symName: __ZN6parlay7JobImplIZNS_19fork_join_scheduler7parfor_IZNS_8internal10sliced_forIZNS3_10filter_mapINS_5sliceIPP4nodeIldESA_EEZ15batchInsertEdgeIldZ12incrementMSTIldEvRNS_8sequenceI7clusterIT_T0_ENS_9allocatorISI_EEXsr3std7is_sameISI_cEE5valueEEERKNSE_INSt3__15tupleIJSG_SG_SH_EEENSJ_ISP_EEXsr3std7is_sameISP_cEE5valueEEEEUlddE_EvRKNSE_INSN_4pairISG_SG_EENSJ_ISW_EEXsr3std7is_sameISW_cEE5valueEEEST_SM_SH_T1_EUlSG_E6_RZNS3_6filterISB_S12_EENSE_INSG_10value_typeENSJ_IS14_EEXsr3std7is_sameIS14_cEE5valueEEERKSG_OSH_EUlOSG_E_EEDaS18_S19_OS11_EUlmmmE_EEvmmS18_jEUlmE_EEvRNS_9schedulerINS_15WorkStealingJobEEEmmRSG_mbEUlvE0_ED1Ev, symObjAddr: 0x40C9C, symBinAddr: 0x100043044, symSize: 0x4 }
  - { offset: 0x2F28F2, size: 0x8, addend: 0x0, symName: __ZN6parlay7JobImplIZNS_19fork_join_scheduler7parfor_IZNS_8internal10sliced_forIZNS3_10filter_mapINS_5sliceIPP4nodeIldESA_EEZ15batchInsertEdgeIldZ12incrementMSTIldEvRNS_8sequenceI7clusterIT_T0_ENS_9allocatorISI_EEXsr3std7is_sameISI_cEE5valueEEERKNSE_INSt3__15tupleIJSG_SG_SH_EEENSJ_ISP_EEXsr3std7is_sameISP_cEE5valueEEEEUlddE_EvRKNSE_INSN_4pairISG_SG_EENSJ_ISW_EEXsr3std7is_sameISW_cEE5valueEEEST_SM_SH_T1_EUlSG_E6_RZNS3_6filterISB_S12_EENSE_INSG_10value_typeENSJ_IS14_EEXsr3std7is_sameIS14_cEE5valueEEERKSG_OSH_EUlOSG_E_EEDaS18_S19_OS11_EUlmmmE_EEvmmS18_jEUlmE_EEvRNS_9schedulerINS_15WorkStealingJobEEEmmRSG_mbEUlvE0_ED0Ev, symObjAddr: 0x40CA0, symBinAddr: 0x100043048, symSize: 0x4 }
  - { offset: 0x2F291D, size: 0x8, addend: 0x0, symName: __ZN6parlay7JobImplIZNS_19fork_join_scheduler7parfor_IZNS_8internal10sliced_forIZNS3_10filter_mapINS_5sliceIPP4nodeIldESA_EEZ15batchInsertEdgeIldZ12incrementMSTIldEvRNS_8sequenceI7clusterIT_T0_ENS_9allocatorISI_EEXsr3std7is_sameISI_cEE5valueEEERKNSE_INSt3__15tupleIJSG_SG_SH_EEENSJ_ISP_EEXsr3std7is_sameISP_cEE5valueEEEEUlddE_EvRKNSE_INSN_4pairISG_SG_EENSJ_ISW_EEXsr3std7is_sameISW_cEE5valueEEEST_SM_SH_T1_EUlSG_E6_RZNS3_6filterISB_S12_EENSE_INSG_10value_typeENSJ_IS14_EEXsr3std7is_sameIS14_cEE5valueEEERKSG_OSH_EUlOSG_E_EEDaS18_S19_OS11_EUlmmmE_EEvmmS18_jEUlmE_EEvRNS_9schedulerINS_15WorkStealingJobEEEmmRSG_mbEUlvE0_E7executeEv, symObjAddr: 0x40CA4, symBinAddr: 0x10004304C, symSize: 0x24 }
  - { offset: 0x2F2C78, size: 0x8, addend: 0x0, symName: __ZN6parlay7JobImplIZNS_19fork_join_scheduler7parfor_IZ15batchInsertEdgeIldZ12incrementMSTIldEvRNS_8sequenceI7clusterIT_T0_ENS_9allocatorIS9_EEXsr3std7is_sameIS9_cEE5valueEEERKNS5_INSt3__15tupleIJS7_S7_S8_EEENSA_ISG_EEXsr3std7is_sameISG_cEE5valueEEEEUlddE_EvRKNS5_INSE_4pairIS7_S7_EENSA_ISN_EEXsr3std7is_sameISN_cEE5valueEEESK_SD_S8_T1_EUllE11_EEvRNS_9schedulerINS_15WorkStealingJobEEEmmRS7_mbEUlvE0_ED1Ev, symObjAddr: 0x412A0, symBinAddr: 0x100043648, symSize: 0x4 }
  - { offset: 0x2F2CA3, size: 0x8, addend: 0x0, symName: __ZN6parlay7JobImplIZNS_19fork_join_scheduler7parfor_IZ15batchInsertEdgeIldZ12incrementMSTIldEvRNS_8sequenceI7clusterIT_T0_ENS_9allocatorIS9_EEXsr3std7is_sameIS9_cEE5valueEEERKNS5_INSt3__15tupleIJS7_S7_S8_EEENSA_ISG_EEXsr3std7is_sameISG_cEE5valueEEEEUlddE_EvRKNS5_INSE_4pairIS7_S7_EENSA_ISN_EEXsr3std7is_sameISN_cEE5valueEEESK_SD_S8_T1_EUllE11_EEvRNS_9schedulerINS_15WorkStealingJobEEEmmRS7_mbEUlvE0_ED0Ev, symObjAddr: 0x412A4, symBinAddr: 0x10004364C, symSize: 0x4 }
  - { offset: 0x2F2CCE, size: 0x8, addend: 0x0, symName: __ZN6parlay7JobImplIZNS_19fork_join_scheduler7parfor_IZ15batchInsertEdgeIldZ12incrementMSTIldEvRNS_8sequenceI7clusterIT_T0_ENS_9allocatorIS9_EEXsr3std7is_sameIS9_cEE5valueEEERKNS5_INSt3__15tupleIJS7_S7_S8_EEENSA_ISG_EEXsr3std7is_sameISG_cEE5valueEEEEUlddE_EvRKNS5_INSE_4pairIS7_S7_EENSA_ISN_EEXsr3std7is_sameISN_cEE5valueEEESK_SD_S8_T1_EUllE11_EEvRNS_9schedulerINS_15WorkStealingJobEEEmmRS7_mbEUlvE0_E7executeEv, symObjAddr: 0x412A8, symBinAddr: 0x100043650, symSize: 0x24 }
  - { offset: 0x2F2F3F, size: 0x8, addend: 0x0, symName: __ZN6parlay7JobImplIZNS_19fork_join_scheduler7parfor_IZNS_17sequence_internal13sequence_baseIP4nodeIldENS_9allocatorIS7_EELb0EE12storage_implC1ERKSB_EUlmE_EEvRNS_9schedulerINS_15WorkStealingJobEEEmmRT_mbEUlvE0_ED1Ev, symObjAddr: 0x41904, symBinAddr: 0x100043CAC, symSize: 0x4 }
  - { offset: 0x2F2F6A, size: 0x8, addend: 0x0, symName: __ZN6parlay7JobImplIZNS_19fork_join_scheduler7parfor_IZNS_17sequence_internal13sequence_baseIP4nodeIldENS_9allocatorIS7_EELb0EE12storage_implC1ERKSB_EUlmE_EEvRNS_9schedulerINS_15WorkStealingJobEEEmmRT_mbEUlvE0_ED0Ev, symObjAddr: 0x41908, symBinAddr: 0x100043CB0, symSize: 0x4 }
  - { offset: 0x2F2F95, size: 0x8, addend: 0x0, symName: __ZN6parlay7JobImplIZNS_19fork_join_scheduler7parfor_IZNS_17sequence_internal13sequence_baseIP4nodeIldENS_9allocatorIS7_EELb0EE12storage_implC1ERKSB_EUlmE_EEvRNS_9schedulerINS_15WorkStealingJobEEEmmRT_mbEUlvE0_E7executeEv, symObjAddr: 0x4190C, symBinAddr: 0x100043CB4, symSize: 0xD0 }
  - { offset: 0x2F33AD, size: 0x8, addend: 0x0, symName: __ZN6parlay7JobImplIZNS_19fork_join_scheduler7parfor_IZ15batchInsertEdgeIldZ12incrementMSTIldEvRNS_8sequenceI7clusterIT_T0_ENS_9allocatorIS9_EEXsr3std7is_sameIS9_cEE5valueEEERKNS5_INSt3__15tupleIJS7_S7_S8_EEENSA_ISG_EEXsr3std7is_sameISG_cEE5valueEEEEUlddE_EvRKNS5_INSE_4pairIS7_S7_EENSA_ISN_EEXsr3std7is_sameISN_cEE5valueEEESK_SD_S8_T1_EUllE9_EEvRNS_9schedulerINS_15WorkStealingJobEEEmmRS7_mbEUlvE0_ED1Ev, symObjAddr: 0x42960, symBinAddr: 0x100044D08, symSize: 0x4 }
  - { offset: 0x2F33D8, size: 0x8, addend: 0x0, symName: __ZN6parlay7JobImplIZNS_19fork_join_scheduler7parfor_IZ15batchInsertEdgeIldZ12incrementMSTIldEvRNS_8sequenceI7clusterIT_T0_ENS_9allocatorIS9_EEXsr3std7is_sameIS9_cEE5valueEEERKNS5_INSt3__15tupleIJS7_S7_S8_EEENSA_ISG_EEXsr3std7is_sameISG_cEE5valueEEEEUlddE_EvRKNS5_INSE_4pairIS7_S7_EENSA_ISN_EEXsr3std7is_sameISN_cEE5valueEEESK_SD_S8_T1_EUllE9_EEvRNS_9schedulerINS_15WorkStealingJobEEEmmRS7_mbEUlvE0_ED0Ev, symObjAddr: 0x42964, symBinAddr: 0x100044D0C, symSize: 0x4 }
  - { offset: 0x2F3403, size: 0x8, addend: 0x0, symName: __ZN6parlay7JobImplIZNS_19fork_join_scheduler7parfor_IZ15batchInsertEdgeIldZ12incrementMSTIldEvRNS_8sequenceI7clusterIT_T0_ENS_9allocatorIS9_EEXsr3std7is_sameIS9_cEE5valueEEERKNS5_INSt3__15tupleIJS7_S7_S8_EEENSA_ISG_EEXsr3std7is_sameISG_cEE5valueEEEEUlddE_EvRKNS5_INSE_4pairIS7_S7_EENSA_ISN_EEXsr3std7is_sameISN_cEE5valueEEESK_SD_S8_T1_EUllE9_EEvRNS_9schedulerINS_15WorkStealingJobEEEmmRS7_mbEUlvE0_E7executeEv, symObjAddr: 0x42968, symBinAddr: 0x100044D10, symSize: 0x24 }
  - { offset: 0x2F3748, size: 0x8, addend: 0x0, symName: __ZN6parlay7JobImplIZNS_19fork_join_scheduler7parfor_IZNS_8internal10sliced_forIZNS3_10filter_mapINS_5sliceIPP4nodeIldESA_EEZ15batchInsertEdgeIldZ12incrementMSTIldEvRNS_8sequenceI7clusterIT_T0_ENS_9allocatorISI_EEXsr3std7is_sameISI_cEE5valueEEERKNSE_INSt3__15tupleIJSG_SG_SH_EEENSJ_ISP_EEXsr3std7is_sameISP_cEE5valueEEEEUlddE_EvRKNSE_INSN_4pairISG_SG_EENSJ_ISW_EEXsr3std7is_sameISW_cEE5valueEEEST_SM_SH_T1_EUlSG_E5_RZNS3_6filterISB_S12_EENSE_INSG_10value_typeENSJ_IS14_EEXsr3std7is_sameIS14_cEE5valueEEERKSG_OSH_EUlOSG_E_EEDaS18_S19_OS11_EUlmmmE0_EEvmmS18_jEUlmE_EEvRNS_9schedulerINS_15WorkStealingJobEEEmmRSG_mbEUlvE0_ED1Ev, symObjAddr: 0x42FF4, symBinAddr: 0x10004539C, symSize: 0x4 }
  - { offset: 0x2F3773, size: 0x8, addend: 0x0, symName: __ZN6parlay7JobImplIZNS_19fork_join_scheduler7parfor_IZNS_8internal10sliced_forIZNS3_10filter_mapINS_5sliceIPP4nodeIldESA_EEZ15batchInsertEdgeIldZ12incrementMSTIldEvRNS_8sequenceI7clusterIT_T0_ENS_9allocatorISI_EEXsr3std7is_sameISI_cEE5valueEEERKNSE_INSt3__15tupleIJSG_SG_SH_EEENSJ_ISP_EEXsr3std7is_sameISP_cEE5valueEEEEUlddE_EvRKNSE_INSN_4pairISG_SG_EENSJ_ISW_EEXsr3std7is_sameISW_cEE5valueEEEST_SM_SH_T1_EUlSG_E5_RZNS3_6filterISB_S12_EENSE_INSG_10value_typeENSJ_IS14_EEXsr3std7is_sameIS14_cEE5valueEEERKSG_OSH_EUlOSG_E_EEDaS18_S19_OS11_EUlmmmE0_EEvmmS18_jEUlmE_EEvRNS_9schedulerINS_15WorkStealingJobEEEmmRSG_mbEUlvE0_ED0Ev, symObjAddr: 0x42FF8, symBinAddr: 0x1000453A0, symSize: 0x4 }
  - { offset: 0x2F379E, size: 0x8, addend: 0x0, symName: __ZN6parlay7JobImplIZNS_19fork_join_scheduler7parfor_IZNS_8internal10sliced_forIZNS3_10filter_mapINS_5sliceIPP4nodeIldESA_EEZ15batchInsertEdgeIldZ12incrementMSTIldEvRNS_8sequenceI7clusterIT_T0_ENS_9allocatorISI_EEXsr3std7is_sameISI_cEE5valueEEERKNSE_INSt3__15tupleIJSG_SG_SH_EEENSJ_ISP_EEXsr3std7is_sameISP_cEE5valueEEEEUlddE_EvRKNSE_INSN_4pairISG_SG_EENSJ_ISW_EEXsr3std7is_sameISW_cEE5valueEEEST_SM_SH_T1_EUlSG_E5_RZNS3_6filterISB_S12_EENSE_INSG_10value_typeENSJ_IS14_EEXsr3std7is_sameIS14_cEE5valueEEERKSG_OSH_EUlOSG_E_EEDaS18_S19_OS11_EUlmmmE0_EEvmmS18_jEUlmE_EEvRNS_9schedulerINS_15WorkStealingJobEEEmmRSG_mbEUlvE0_E7executeEv, symObjAddr: 0x42FFC, symBinAddr: 0x1000453A4, symSize: 0x24 }
  - { offset: 0x2F3AE3, size: 0x8, addend: 0x0, symName: __ZN6parlay7JobImplIZNS_19fork_join_scheduler7parfor_IZNS_8internal10sliced_forIZNS3_10filter_mapINS_5sliceIPP4nodeIldESA_EEZ15batchInsertEdgeIldZ12incrementMSTIldEvRNS_8sequenceI7clusterIT_T0_ENS_9allocatorISI_EEXsr3std7is_sameISI_cEE5valueEEERKNSE_INSt3__15tupleIJSG_SG_SH_EEENSJ_ISP_EEXsr3std7is_sameISP_cEE5valueEEEEUlddE_EvRKNSE_INSN_4pairISG_SG_EENSJ_ISW_EEXsr3std7is_sameISW_cEE5valueEEEST_SM_SH_T1_EUlSG_E5_RZNS3_6filterISB_S12_EENSE_INSG_10value_typeENSJ_IS14_EEXsr3std7is_sameIS14_cEE5valueEEERKSG_OSH_EUlOSG_E_EEDaS18_S19_OS11_EUlmmmE_EEvmmS18_jEUlmE_EEvRNS_9schedulerINS_15WorkStealingJobEEEmmRSG_mbEUlvE0_ED1Ev, symObjAddr: 0x436D0, symBinAddr: 0x100045A78, symSize: 0x4 }
  - { offset: 0x2F3B0E, size: 0x8, addend: 0x0, symName: __ZN6parlay7JobImplIZNS_19fork_join_scheduler7parfor_IZNS_8internal10sliced_forIZNS3_10filter_mapINS_5sliceIPP4nodeIldESA_EEZ15batchInsertEdgeIldZ12incrementMSTIldEvRNS_8sequenceI7clusterIT_T0_ENS_9allocatorISI_EEXsr3std7is_sameISI_cEE5valueEEERKNSE_INSt3__15tupleIJSG_SG_SH_EEENSJ_ISP_EEXsr3std7is_sameISP_cEE5valueEEEEUlddE_EvRKNSE_INSN_4pairISG_SG_EENSJ_ISW_EEXsr3std7is_sameISW_cEE5valueEEEST_SM_SH_T1_EUlSG_E5_RZNS3_6filterISB_S12_EENSE_INSG_10value_typeENSJ_IS14_EEXsr3std7is_sameIS14_cEE5valueEEERKSG_OSH_EUlOSG_E_EEDaS18_S19_OS11_EUlmmmE_EEvmmS18_jEUlmE_EEvRNS_9schedulerINS_15WorkStealingJobEEEmmRSG_mbEUlvE0_ED0Ev, symObjAddr: 0x436D4, symBinAddr: 0x100045A7C, symSize: 0x4 }
  - { offset: 0x2F3B39, size: 0x8, addend: 0x0, symName: __ZN6parlay7JobImplIZNS_19fork_join_scheduler7parfor_IZNS_8internal10sliced_forIZNS3_10filter_mapINS_5sliceIPP4nodeIldESA_EEZ15batchInsertEdgeIldZ12incrementMSTIldEvRNS_8sequenceI7clusterIT_T0_ENS_9allocatorISI_EEXsr3std7is_sameISI_cEE5valueEEERKNSE_INSt3__15tupleIJSG_SG_SH_EEENSJ_ISP_EEXsr3std7is_sameISP_cEE5valueEEEEUlddE_EvRKNSE_INSN_4pairISG_SG_EENSJ_ISW_EEXsr3std7is_sameISW_cEE5valueEEEST_SM_SH_T1_EUlSG_E5_RZNS3_6filterISB_S12_EENSE_INSG_10value_typeENSJ_IS14_EEXsr3std7is_sameIS14_cEE5valueEEERKSG_OSH_EUlOSG_E_EEDaS18_S19_OS11_EUlmmmE_EEvmmS18_jEUlmE_EEvRNS_9schedulerINS_15WorkStealingJobEEEmmRSG_mbEUlvE0_E7executeEv, symObjAddr: 0x436D8, symBinAddr: 0x100045A80, symSize: 0x24 }
  - { offset: 0x2F3E7E, size: 0x8, addend: 0x0, symName: __ZN6parlay7JobImplIZNS_19fork_join_scheduler7parfor_IZ7set_MISIldEvRNS_8sequenceIP4nodeIT_T0_ENS_9allocatorIS9_EEXsr3std7is_sameIS9_cEE5valueEEEbEUllE3_EEvRNS_9schedulerINS_15WorkStealingJobEEEmmRS6_mbEUlvE0_ED1Ev, symObjAddr: 0x43E08, symBinAddr: 0x1000461B0, symSize: 0x4 }
  - { offset: 0x2F3EA9, size: 0x8, addend: 0x0, symName: __ZN6parlay7JobImplIZNS_19fork_join_scheduler7parfor_IZ7set_MISIldEvRNS_8sequenceIP4nodeIT_T0_ENS_9allocatorIS9_EEXsr3std7is_sameIS9_cEE5valueEEEbEUllE3_EEvRNS_9schedulerINS_15WorkStealingJobEEEmmRS6_mbEUlvE0_ED0Ev, symObjAddr: 0x43E0C, symBinAddr: 0x1000461B4, symSize: 0x4 }
  - { offset: 0x2F3ED4, size: 0x8, addend: 0x0, symName: __ZN6parlay7JobImplIZNS_19fork_join_scheduler7parfor_IZ7set_MISIldEvRNS_8sequenceIP4nodeIT_T0_ENS_9allocatorIS9_EEXsr3std7is_sameIS9_cEE5valueEEEbEUllE3_EEvRNS_9schedulerINS_15WorkStealingJobEEEmmRS6_mbEUlvE0_E7executeEv, symObjAddr: 0x43E10, symBinAddr: 0x1000461B8, symSize: 0x24 }
  - { offset: 0x2F47CA, size: 0x8, addend: 0x0, symName: __ZN6parlay7JobImplIZNS_19fork_join_scheduler7parfor_IZNS_8sequenceImNS_9allocatorImEELb0EEC1IZ13counting_sortIPlS9_S9_ES6_RKT_SC_T0_RKT1_lEUllE1_EEmOSA_NS6_18_from_function_tagEmEUlmE_EEvRNS_9schedulerINS_15WorkStealingJobEEEmmRSA_mbEUlvE0_ED1Ev, symObjAddr: 0x45328, symBinAddr: 0x1000476D0, symSize: 0x4 }
  - { offset: 0x2F47F5, size: 0x8, addend: 0x0, symName: __ZN6parlay7JobImplIZNS_19fork_join_scheduler7parfor_IZNS_8sequenceImNS_9allocatorImEELb0EEC1IZ13counting_sortIPlS9_S9_ES6_RKT_SC_T0_RKT1_lEUllE1_EEmOSA_NS6_18_from_function_tagEmEUlmE_EEvRNS_9schedulerINS_15WorkStealingJobEEEmmRSA_mbEUlvE0_ED0Ev, symObjAddr: 0x4532C, symBinAddr: 0x1000476D4, symSize: 0x4 }
  - { offset: 0x2F4820, size: 0x8, addend: 0x0, symName: __ZN6parlay7JobImplIZNS_19fork_join_scheduler7parfor_IZNS_8sequenceImNS_9allocatorImEELb0EEC1IZ13counting_sortIPlS9_S9_ES6_RKT_SC_T0_RKT1_lEUllE1_EEmOSA_NS6_18_from_function_tagEmEUlmE_EEvRNS_9schedulerINS_15WorkStealingJobEEEmmRSA_mbEUlvE0_E7executeEv, symObjAddr: 0x45330, symBinAddr: 0x1000476D8, symSize: 0x24 }
  - { offset: 0x2F4872, size: 0x8, addend: 0x0, symName: __ZN6parlay7JobImplIZNS_19fork_join_scheduler7parfor_IZ13counting_sortIPlS4_S4_ENS_8sequenceImNS_9allocatorImEELb0EEERKT_SB_T0_RKT1_lEUllE0_EEvRNS_9schedulerINS_15WorkStealingJobEEEmmRS9_mbEUlvE0_ED1Ev, symObjAddr: 0x45354, symBinAddr: 0x1000476FC, symSize: 0x4 }
  - { offset: 0x2F489D, size: 0x8, addend: 0x0, symName: __ZN6parlay7JobImplIZNS_19fork_join_scheduler7parfor_IZ13counting_sortIPlS4_S4_ENS_8sequenceImNS_9allocatorImEELb0EEERKT_SB_T0_RKT1_lEUllE0_EEvRNS_9schedulerINS_15WorkStealingJobEEEmmRS9_mbEUlvE0_ED0Ev, symObjAddr: 0x45358, symBinAddr: 0x100047700, symSize: 0x4 }
  - { offset: 0x2F48C8, size: 0x8, addend: 0x0, symName: __ZN6parlay7JobImplIZNS_19fork_join_scheduler7parfor_IZ13counting_sortIPlS4_S4_ENS_8sequenceImNS_9allocatorImEELb0EEERKT_SB_T0_RKT1_lEUllE0_EEvRNS_9schedulerINS_15WorkStealingJobEEEmmRS9_mbEUlvE0_E7executeEv, symObjAddr: 0x4535C, symBinAddr: 0x100047704, symSize: 0xD4 }
  - { offset: 0x2F4982, size: 0x8, addend: 0x0, symName: __ZN6parlay7JobImplIZNS_19fork_join_scheduler7parfor_IZ13counting_sortIPlS4_S4_ENS_8sequenceImNS_9allocatorImEELb0EEERKT_SB_T0_RKT1_lEUllE_EEvRNS_9schedulerINS_15WorkStealingJobEEEmmRS9_mbEUlvE0_ED1Ev, symObjAddr: 0x45430, symBinAddr: 0x1000477D8, symSize: 0x4 }
  - { offset: 0x2F49AD, size: 0x8, addend: 0x0, symName: __ZN6parlay7JobImplIZNS_19fork_join_scheduler7parfor_IZ13counting_sortIPlS4_S4_ENS_8sequenceImNS_9allocatorImEELb0EEERKT_SB_T0_RKT1_lEUllE_EEvRNS_9schedulerINS_15WorkStealingJobEEEmmRS9_mbEUlvE0_ED0Ev, symObjAddr: 0x45434, symBinAddr: 0x1000477DC, symSize: 0x4 }
  - { offset: 0x2F49D8, size: 0x8, addend: 0x0, symName: __ZN6parlay7JobImplIZNS_19fork_join_scheduler7parfor_IZ13counting_sortIPlS4_S4_ENS_8sequenceImNS_9allocatorImEELb0EEERKT_SB_T0_RKT1_lEUllE_EEvRNS_9schedulerINS_15WorkStealingJobEEEmmRS9_mbEUlvE0_E7executeEv, symObjAddr: 0x45438, symBinAddr: 0x1000477E0, symSize: 0xD4 }
  - { offset: 0x2F4CB1, size: 0x8, addend: 0x0, symName: __ZN6parlay7JobImplIZNS_19fork_join_scheduler7parfor_IZNS_8sequenceIlNS_9allocatorIlEELb0EEC1IZ7set_MISIldEvRNS3_IP4nodeIT_T0_ENS4_ISD_EEXsr3std7is_sameISD_cEE5valueEEEbEUllE2_EEmOSA_NS6_18_from_function_tagEmEUlmE_EEvRNS_9schedulerINS_15WorkStealingJobEEEmmRSA_mbEUlvE0_ED1Ev, symObjAddr: 0x45C14, symBinAddr: 0x100047FBC, symSize: 0x4 }
  - { offset: 0x2F4CDC, size: 0x8, addend: 0x0, symName: __ZN6parlay7JobImplIZNS_19fork_join_scheduler7parfor_IZNS_8sequenceIlNS_9allocatorIlEELb0EEC1IZ7set_MISIldEvRNS3_IP4nodeIT_T0_ENS4_ISD_EEXsr3std7is_sameISD_cEE5valueEEEbEUllE2_EEmOSA_NS6_18_from_function_tagEmEUlmE_EEvRNS_9schedulerINS_15WorkStealingJobEEEmmRSA_mbEUlvE0_ED0Ev, symObjAddr: 0x45C18, symBinAddr: 0x100047FC0, symSize: 0x4 }
  - { offset: 0x2F4D07, size: 0x8, addend: 0x0, symName: __ZN6parlay7JobImplIZNS_19fork_join_scheduler7parfor_IZNS_8sequenceIlNS_9allocatorIlEELb0EEC1IZ7set_MISIldEvRNS3_IP4nodeIT_T0_ENS4_ISD_EEXsr3std7is_sameISD_cEE5valueEEEbEUllE2_EEmOSA_NS6_18_from_function_tagEmEUlmE_EEvRNS_9schedulerINS_15WorkStealingJobEEEmmRSA_mbEUlvE0_E7executeEv, symObjAddr: 0x45C1C, symBinAddr: 0x100047FC4, symSize: 0x138 }
  - { offset: 0x2F5013, size: 0x8, addend: 0x0, symName: __ZN6parlay7JobImplIZNS_19fork_join_scheduler7parfor_IZNS_8sequenceIlNS_9allocatorIlEELb0EEC1IZ7set_MISIldEvRNS3_IP4nodeIT_T0_ENS4_ISD_EEXsr3std7is_sameISD_cEE5valueEEEbEUllE1_EEmOSA_NS6_18_from_function_tagEmEUlmE_EEvRNS_9schedulerINS_15WorkStealingJobEEEmmRSA_mbEUlvE0_ED1Ev, symObjAddr: 0x463C4, symBinAddr: 0x10004876C, symSize: 0x4 }
  - { offset: 0x2F503E, size: 0x8, addend: 0x0, symName: __ZN6parlay7JobImplIZNS_19fork_join_scheduler7parfor_IZNS_8sequenceIlNS_9allocatorIlEELb0EEC1IZ7set_MISIldEvRNS3_IP4nodeIT_T0_ENS4_ISD_EEXsr3std7is_sameISD_cEE5valueEEEbEUllE1_EEmOSA_NS6_18_from_function_tagEmEUlmE_EEvRNS_9schedulerINS_15WorkStealingJobEEEmmRSA_mbEUlvE0_ED0Ev, symObjAddr: 0x463C8, symBinAddr: 0x100048770, symSize: 0x4 }
  - { offset: 0x2F5069, size: 0x8, addend: 0x0, symName: __ZN6parlay7JobImplIZNS_19fork_join_scheduler7parfor_IZNS_8sequenceIlNS_9allocatorIlEELb0EEC1IZ7set_MISIldEvRNS3_IP4nodeIT_T0_ENS4_ISD_EEXsr3std7is_sameISD_cEE5valueEEEbEUllE1_EEmOSA_NS6_18_from_function_tagEmEUlmE_EEvRNS_9schedulerINS_15WorkStealingJobEEEmmRSA_mbEUlvE0_E7executeEv, symObjAddr: 0x463CC, symBinAddr: 0x100048774, symSize: 0xEC }
  - { offset: 0x2F545C, size: 0x8, addend: 0x0, symName: __ZN6parlay7JobImplIZNS_19fork_join_scheduler7parfor_IZ7set_MISIldEvRNS_8sequenceIP4nodeIT_T0_ENS_9allocatorIS9_EEXsr3std7is_sameIS9_cEE5valueEEEbEUllE0_EEvRNS_9schedulerINS_15WorkStealingJobEEEmmRS6_mbEUlvE0_ED1Ev, symObjAddr: 0x46B84, symBinAddr: 0x100048F2C, symSize: 0x4 }
  - { offset: 0x2F5487, size: 0x8, addend: 0x0, symName: __ZN6parlay7JobImplIZNS_19fork_join_scheduler7parfor_IZ7set_MISIldEvRNS_8sequenceIP4nodeIT_T0_ENS_9allocatorIS9_EEXsr3std7is_sameIS9_cEE5valueEEEbEUllE0_EEvRNS_9schedulerINS_15WorkStealingJobEEEmmRS6_mbEUlvE0_ED0Ev, symObjAddr: 0x46B88, symBinAddr: 0x100048F30, symSize: 0x4 }
  - { offset: 0x2F54B2, size: 0x8, addend: 0x0, symName: __ZN6parlay7JobImplIZNS_19fork_join_scheduler7parfor_IZ7set_MISIldEvRNS_8sequenceIP4nodeIT_T0_ENS_9allocatorIS9_EEXsr3std7is_sameIS9_cEE5valueEEEbEUllE0_EEvRNS_9schedulerINS_15WorkStealingJobEEEmmRS6_mbEUlvE0_E7executeEv, symObjAddr: 0x46B8C, symBinAddr: 0x100048F34, symSize: 0x24 }
  - { offset: 0x2F5723, size: 0x8, addend: 0x0, symName: __ZN6parlay7JobImplIZNS_19fork_join_scheduler7parfor_IZ12colour_nodesIldEvNS_8sequenceIP4nodeIT_T0_ENS_9allocatorIS9_EEXsr3std7is_sameIS9_cEE5valueEEEEUllE_EEvRNS_9schedulerINS_15WorkStealingJobEEEmmRS6_mbEUlvE0_ED1Ev, symObjAddr: 0x47368, symBinAddr: 0x100049710, symSize: 0x4 }
  - { offset: 0x2F574E, size: 0x8, addend: 0x0, symName: __ZN6parlay7JobImplIZNS_19fork_join_scheduler7parfor_IZ12colour_nodesIldEvNS_8sequenceIP4nodeIT_T0_ENS_9allocatorIS9_EEXsr3std7is_sameIS9_cEE5valueEEEEUllE_EEvRNS_9schedulerINS_15WorkStealingJobEEEmmRS6_mbEUlvE0_ED0Ev, symObjAddr: 0x4736C, symBinAddr: 0x100049714, symSize: 0x4 }
  - { offset: 0x2F5779, size: 0x8, addend: 0x0, symName: __ZN6parlay7JobImplIZNS_19fork_join_scheduler7parfor_IZ12colour_nodesIldEvNS_8sequenceIP4nodeIT_T0_ENS_9allocatorIS9_EEXsr3std7is_sameIS9_cEE5valueEEEEUllE_EEvRNS_9schedulerINS_15WorkStealingJobEEEmmRS6_mbEUlvE0_E7executeEv, symObjAddr: 0x47370, symBinAddr: 0x100049718, symSize: 0xD8 }
  - { offset: 0x2F5A4B, size: 0x8, addend: 0x0, symName: __ZN6parlay7JobImplIZNS_19fork_join_scheduler7parfor_IZNS_8sequenceIP7clusterIldENS_9allocatorIS6_EELb0EEC1IZ7set_MISIldEvRNS3_IP4nodeIT_T0_ENS7_ISG_EEXsr3std7is_sameISG_cEE5valueEEEbEUllE_EEmOSD_NS9_18_from_function_tagEmEUlmE_EEvRNS_9schedulerINS_15WorkStealingJobEEEmmRSD_mbEUlvE0_ED1Ev, symObjAddr: 0x47AA8, symBinAddr: 0x100049E50, symSize: 0x4 }
  - { offset: 0x2F5A76, size: 0x8, addend: 0x0, symName: __ZN6parlay7JobImplIZNS_19fork_join_scheduler7parfor_IZNS_8sequenceIP7clusterIldENS_9allocatorIS6_EELb0EEC1IZ7set_MISIldEvRNS3_IP4nodeIT_T0_ENS7_ISG_EEXsr3std7is_sameISG_cEE5valueEEEbEUllE_EEmOSD_NS9_18_from_function_tagEmEUlmE_EEvRNS_9schedulerINS_15WorkStealingJobEEEmmRSD_mbEUlvE0_ED0Ev, symObjAddr: 0x47AAC, symBinAddr: 0x100049E54, symSize: 0x4 }
  - { offset: 0x2F5AA1, size: 0x8, addend: 0x0, symName: __ZN6parlay7JobImplIZNS_19fork_join_scheduler7parfor_IZNS_8sequenceIP7clusterIldENS_9allocatorIS6_EELb0EEC1IZ7set_MISIldEvRNS3_IP4nodeIT_T0_ENS7_ISG_EEXsr3std7is_sameISG_cEE5valueEEEbEUllE_EEmOSD_NS9_18_from_function_tagEmEUlmE_EEvRNS_9schedulerINS_15WorkStealingJobEEEmmRSD_mbEUlvE0_E7executeEv, symObjAddr: 0x47AB0, symBinAddr: 0x100049E58, symSize: 0xE4 }
  - { offset: 0x2F5F6E, size: 0x8, addend: 0x0, symName: __ZN6parlay7JobImplIZNS_19fork_join_scheduler7parfor_IZNS_8internal10sliced_forIZNS3_10filter_mapINS_5sliceIPP4nodeIldESA_EEZ15batchInsertEdgeIldZ12incrementMSTIldEvRNS_8sequenceI7clusterIT_T0_ENS_9allocatorISI_EEXsr3std7is_sameISI_cEE5valueEEERKNSE_INSt3__15tupleIJSG_SG_SH_EEENSJ_ISP_EEXsr3std7is_sameISP_cEE5valueEEEEUlddE_EvRKNSE_INSN_4pairISG_SG_EENSJ_ISW_EEXsr3std7is_sameISW_cEE5valueEEEST_SM_SH_T1_EUlSG_E4_RZNS3_6filterISB_S12_EENSE_INSG_10value_typeENSJ_IS14_EEXsr3std7is_sameIS14_cEE5valueEEERKSG_OSH_EUlOSG_E_EEDaS18_S19_OS11_EUlmmmE0_EEvmmS18_jEUlmE_EEvRNS_9schedulerINS_15WorkStealingJobEEEmmRSG_mbEUlvE0_ED1Ev, symObjAddr: 0x481FC, symBinAddr: 0x10004A5A4, symSize: 0x4 }
  - { offset: 0x2F5F99, size: 0x8, addend: 0x0, symName: __ZN6parlay7JobImplIZNS_19fork_join_scheduler7parfor_IZNS_8internal10sliced_forIZNS3_10filter_mapINS_5sliceIPP4nodeIldESA_EEZ15batchInsertEdgeIldZ12incrementMSTIldEvRNS_8sequenceI7clusterIT_T0_ENS_9allocatorISI_EEXsr3std7is_sameISI_cEE5valueEEERKNSE_INSt3__15tupleIJSG_SG_SH_EEENSJ_ISP_EEXsr3std7is_sameISP_cEE5valueEEEEUlddE_EvRKNSE_INSN_4pairISG_SG_EENSJ_ISW_EEXsr3std7is_sameISW_cEE5valueEEEST_SM_SH_T1_EUlSG_E4_RZNS3_6filterISB_S12_EENSE_INSG_10value_typeENSJ_IS14_EEXsr3std7is_sameIS14_cEE5valueEEERKSG_OSH_EUlOSG_E_EEDaS18_S19_OS11_EUlmmmE0_EEvmmS18_jEUlmE_EEvRNS_9schedulerINS_15WorkStealingJobEEEmmRSG_mbEUlvE0_ED0Ev, symObjAddr: 0x48200, symBinAddr: 0x10004A5A8, symSize: 0x4 }
  - { offset: 0x2F5FC4, size: 0x8, addend: 0x0, symName: __ZN6parlay7JobImplIZNS_19fork_join_scheduler7parfor_IZNS_8internal10sliced_forIZNS3_10filter_mapINS_5sliceIPP4nodeIldESA_EEZ15batchInsertEdgeIldZ12incrementMSTIldEvRNS_8sequenceI7clusterIT_T0_ENS_9allocatorISI_EEXsr3std7is_sameISI_cEE5valueEEERKNSE_INSt3__15tupleIJSG_SG_SH_EEENSJ_ISP_EEXsr3std7is_sameISP_cEE5valueEEEEUlddE_EvRKNSE_INSN_4pairISG_SG_EENSJ_ISW_EEXsr3std7is_sameISW_cEE5valueEEEST_SM_SH_T1_EUlSG_E4_RZNS3_6filterISB_S12_EENSE_INSG_10value_typeENSJ_IS14_EEXsr3std7is_sameIS14_cEE5valueEEERKSG_OSH_EUlOSG_E_EEDaS18_S19_OS11_EUlmmmE0_EEvmmS18_jEUlmE_EEvRNS_9schedulerINS_15WorkStealingJobEEEmmRSG_mbEUlvE0_E7executeEv, symObjAddr: 0x48204, symBinAddr: 0x10004A5AC, symSize: 0x24 }
  - { offset: 0x2F6309, size: 0x8, addend: 0x0, symName: __ZN6parlay7JobImplIZNS_19fork_join_scheduler7parfor_IZNS_8internal10sliced_forIZNS3_10filter_mapINS_5sliceIPP4nodeIldESA_EEZ15batchInsertEdgeIldZ12incrementMSTIldEvRNS_8sequenceI7clusterIT_T0_ENS_9allocatorISI_EEXsr3std7is_sameISI_cEE5valueEEERKNSE_INSt3__15tupleIJSG_SG_SH_EEENSJ_ISP_EEXsr3std7is_sameISP_cEE5valueEEEEUlddE_EvRKNSE_INSN_4pairISG_SG_EENSJ_ISW_EEXsr3std7is_sameISW_cEE5valueEEEST_SM_SH_T1_EUlSG_E4_RZNS3_6filterISB_S12_EENSE_INSG_10value_typeENSJ_IS14_EEXsr3std7is_sameIS14_cEE5valueEEERKSG_OSH_EUlOSG_E_EEDaS18_S19_OS11_EUlmmmE_EEvmmS18_jEUlmE_EEvRNS_9schedulerINS_15WorkStealingJobEEEmmRSG_mbEUlvE0_ED1Ev, symObjAddr: 0x48888, symBinAddr: 0x10004AC30, symSize: 0x4 }
  - { offset: 0x2F6334, size: 0x8, addend: 0x0, symName: __ZN6parlay7JobImplIZNS_19fork_join_scheduler7parfor_IZNS_8internal10sliced_forIZNS3_10filter_mapINS_5sliceIPP4nodeIldESA_EEZ15batchInsertEdgeIldZ12incrementMSTIldEvRNS_8sequenceI7clusterIT_T0_ENS_9allocatorISI_EEXsr3std7is_sameISI_cEE5valueEEERKNSE_INSt3__15tupleIJSG_SG_SH_EEENSJ_ISP_EEXsr3std7is_sameISP_cEE5valueEEEEUlddE_EvRKNSE_INSN_4pairISG_SG_EENSJ_ISW_EEXsr3std7is_sameISW_cEE5valueEEEST_SM_SH_T1_EUlSG_E4_RZNS3_6filterISB_S12_EENSE_INSG_10value_typeENSJ_IS14_EEXsr3std7is_sameIS14_cEE5valueEEERKSG_OSH_EUlOSG_E_EEDaS18_S19_OS11_EUlmmmE_EEvmmS18_jEUlmE_EEvRNS_9schedulerINS_15WorkStealingJobEEEmmRSG_mbEUlvE0_ED0Ev, symObjAddr: 0x4888C, symBinAddr: 0x10004AC34, symSize: 0x4 }
  - { offset: 0x2F635F, size: 0x8, addend: 0x0, symName: __ZN6parlay7JobImplIZNS_19fork_join_scheduler7parfor_IZNS_8internal10sliced_forIZNS3_10filter_mapINS_5sliceIPP4nodeIldESA_EEZ15batchInsertEdgeIldZ12incrementMSTIldEvRNS_8sequenceI7clusterIT_T0_ENS_9allocatorISI_EEXsr3std7is_sameISI_cEE5valueEEERKNSE_INSt3__15tupleIJSG_SG_SH_EEENSJ_ISP_EEXsr3std7is_sameISP_cEE5valueEEEEUlddE_EvRKNSE_INSN_4pairISG_SG_EENSJ_ISW_EEXsr3std7is_sameISW_cEE5valueEEEST_SM_SH_T1_EUlSG_E4_RZNS3_6filterISB_S12_EENSE_INSG_10value_typeENSJ_IS14_EEXsr3std7is_sameIS14_cEE5valueEEERKSG_OSH_EUlOSG_E_EEDaS18_S19_OS11_EUlmmmE_EEvmmS18_jEUlmE_EEvRNS_9schedulerINS_15WorkStealingJobEEEmmRSG_mbEUlvE0_E7executeEv, symObjAddr: 0x48890, symBinAddr: 0x10004AC38, symSize: 0x24 }
  - { offset: 0x2F66A4, size: 0x8, addend: 0x0, symName: __ZN6parlay7JobImplIZNS_19fork_join_scheduler7parfor_IZNS_8internal10sliced_forIZNS3_10filter_mapINS_5sliceIPP4nodeIldESA_EEZ15batchInsertEdgeIldZ12incrementMSTIldEvRNS_8sequenceI7clusterIT_T0_ENS_9allocatorISI_EEXsr3std7is_sameISI_cEE5valueEEERKNSE_INSt3__15tupleIJSG_SG_SH_EEENSJ_ISP_EEXsr3std7is_sameISP_cEE5valueEEEEUlddE_EvRKNSE_INSN_4pairISG_SG_EENSJ_ISW_EEXsr3std7is_sameISW_cEE5valueEEEST_SM_SH_T1_EUlSG_E3_RZNS3_6filterISB_S12_EENSE_INSG_10value_typeENSJ_IS14_EEXsr3std7is_sameIS14_cEE5valueEEERKSG_OSH_EUlOSG_E_EEDaS18_S19_OS11_EUlmmmE0_EEvmmS18_jEUlmE_EEvRNS_9schedulerINS_15WorkStealingJobEEEmmRSG_mbEUlvE0_ED1Ev, symObjAddr: 0x48F1C, symBinAddr: 0x10004B2C4, symSize: 0x4 }
  - { offset: 0x2F66CF, size: 0x8, addend: 0x0, symName: __ZN6parlay7JobImplIZNS_19fork_join_scheduler7parfor_IZNS_8internal10sliced_forIZNS3_10filter_mapINS_5sliceIPP4nodeIldESA_EEZ15batchInsertEdgeIldZ12incrementMSTIldEvRNS_8sequenceI7clusterIT_T0_ENS_9allocatorISI_EEXsr3std7is_sameISI_cEE5valueEEERKNSE_INSt3__15tupleIJSG_SG_SH_EEENSJ_ISP_EEXsr3std7is_sameISP_cEE5valueEEEEUlddE_EvRKNSE_INSN_4pairISG_SG_EENSJ_ISW_EEXsr3std7is_sameISW_cEE5valueEEEST_SM_SH_T1_EUlSG_E3_RZNS3_6filterISB_S12_EENSE_INSG_10value_typeENSJ_IS14_EEXsr3std7is_sameIS14_cEE5valueEEERKSG_OSH_EUlOSG_E_EEDaS18_S19_OS11_EUlmmmE0_EEvmmS18_jEUlmE_EEvRNS_9schedulerINS_15WorkStealingJobEEEmmRSG_mbEUlvE0_ED0Ev, symObjAddr: 0x48F20, symBinAddr: 0x10004B2C8, symSize: 0x4 }
  - { offset: 0x2F66FA, size: 0x8, addend: 0x0, symName: __ZN6parlay7JobImplIZNS_19fork_join_scheduler7parfor_IZNS_8internal10sliced_forIZNS3_10filter_mapINS_5sliceIPP4nodeIldESA_EEZ15batchInsertEdgeIldZ12incrementMSTIldEvRNS_8sequenceI7clusterIT_T0_ENS_9allocatorISI_EEXsr3std7is_sameISI_cEE5valueEEERKNSE_INSt3__15tupleIJSG_SG_SH_EEENSJ_ISP_EEXsr3std7is_sameISP_cEE5valueEEEEUlddE_EvRKNSE_INSN_4pairISG_SG_EENSJ_ISW_EEXsr3std7is_sameISW_cEE5valueEEEST_SM_SH_T1_EUlSG_E3_RZNS3_6filterISB_S12_EENSE_INSG_10value_typeENSJ_IS14_EEXsr3std7is_sameIS14_cEE5valueEEERKSG_OSH_EUlOSG_E_EEDaS18_S19_OS11_EUlmmmE0_EEvmmS18_jEUlmE_EEvRNS_9schedulerINS_15WorkStealingJobEEEmmRSG_mbEUlvE0_E7executeEv, symObjAddr: 0x48F24, symBinAddr: 0x10004B2CC, symSize: 0x24 }
  - { offset: 0x2F6AA4, size: 0x8, addend: 0x0, symName: __ZN6parlay7JobImplIZNS_19fork_join_scheduler7parfor_IZNS_8internal10sliced_forIZNS3_10filter_mapINS_5sliceIPP4nodeIldESA_EEZ15batchInsertEdgeIldZ12incrementMSTIldEvRNS_8sequenceI7clusterIT_T0_ENS_9allocatorISI_EEXsr3std7is_sameISI_cEE5valueEEERKNSE_INSt3__15tupleIJSG_SG_SH_EEENSJ_ISP_EEXsr3std7is_sameISP_cEE5valueEEEEUlddE_EvRKNSE_INSN_4pairISG_SG_EENSJ_ISW_EEXsr3std7is_sameISW_cEE5valueEEEST_SM_SH_T1_EUlSG_E3_RZNS3_6filterISB_S12_EENSE_INSG_10value_typeENSJ_IS14_EEXsr3std7is_sameIS14_cEE5valueEEERKSG_OSH_EUlOSG_E_EEDaS18_S19_OS11_EUlmmmE_EEvmmS18_jEUlmE_EEvRNS_9schedulerINS_15WorkStealingJobEEEmmRSG_mbEUlvE0_ED1Ev, symObjAddr: 0x497B8, symBinAddr: 0x10004BB60, symSize: 0x4 }
  - { offset: 0x2F6ACF, size: 0x8, addend: 0x0, symName: __ZN6parlay7JobImplIZNS_19fork_join_scheduler7parfor_IZNS_8internal10sliced_forIZNS3_10filter_mapINS_5sliceIPP4nodeIldESA_EEZ15batchInsertEdgeIldZ12incrementMSTIldEvRNS_8sequenceI7clusterIT_T0_ENS_9allocatorISI_EEXsr3std7is_sameISI_cEE5valueEEERKNSE_INSt3__15tupleIJSG_SG_SH_EEENSJ_ISP_EEXsr3std7is_sameISP_cEE5valueEEEEUlddE_EvRKNSE_INSN_4pairISG_SG_EENSJ_ISW_EEXsr3std7is_sameISW_cEE5valueEEEST_SM_SH_T1_EUlSG_E3_RZNS3_6filterISB_S12_EENSE_INSG_10value_typeENSJ_IS14_EEXsr3std7is_sameIS14_cEE5valueEEERKSG_OSH_EUlOSG_E_EEDaS18_S19_OS11_EUlmmmE_EEvmmS18_jEUlmE_EEvRNS_9schedulerINS_15WorkStealingJobEEEmmRSG_mbEUlvE0_ED0Ev, symObjAddr: 0x497BC, symBinAddr: 0x10004BB64, symSize: 0x4 }
  - { offset: 0x2F6AFA, size: 0x8, addend: 0x0, symName: __ZN6parlay7JobImplIZNS_19fork_join_scheduler7parfor_IZNS_8internal10sliced_forIZNS3_10filter_mapINS_5sliceIPP4nodeIldESA_EEZ15batchInsertEdgeIldZ12incrementMSTIldEvRNS_8sequenceI7clusterIT_T0_ENS_9allocatorISI_EEXsr3std7is_sameISI_cEE5valueEEERKNSE_INSt3__15tupleIJSG_SG_SH_EEENSJ_ISP_EEXsr3std7is_sameISP_cEE5valueEEEEUlddE_EvRKNSE_INSN_4pairISG_SG_EENSJ_ISW_EEXsr3std7is_sameISW_cEE5valueEEEST_SM_SH_T1_EUlSG_E3_RZNS3_6filterISB_S12_EENSE_INSG_10value_typeENSJ_IS14_EEXsr3std7is_sameIS14_cEE5valueEEERKSG_OSH_EUlOSG_E_EEDaS18_S19_OS11_EUlmmmE_EEvmmS18_jEUlmE_EEvRNS_9schedulerINS_15WorkStealingJobEEEmmRSG_mbEUlvE0_E7executeEv, symObjAddr: 0x497C0, symBinAddr: 0x10004BB68, symSize: 0x24 }
  - { offset: 0x2F6D8C, size: 0x8, addend: 0x0, symName: __ZN6parlay7JobImplIZNS_19fork_join_scheduler7parfor_IZ28create_decompressed_affectedIldEvRNS_8sequenceIP4nodeIT_T0_ENS_9allocatorIS9_EEXsr3std7is_sameIS9_cEE5valueEEEEUllE4_EEvRNS_9schedulerINS_15WorkStealingJobEEEmmRS6_mbEUlvE0_ED1Ev, symObjAddr: 0x4AA4C, symBinAddr: 0x10004CDF4, symSize: 0x4 }
  - { offset: 0x2F6DB7, size: 0x8, addend: 0x0, symName: __ZN6parlay7JobImplIZNS_19fork_join_scheduler7parfor_IZ28create_decompressed_affectedIldEvRNS_8sequenceIP4nodeIT_T0_ENS_9allocatorIS9_EEXsr3std7is_sameIS9_cEE5valueEEEEUllE4_EEvRNS_9schedulerINS_15WorkStealingJobEEEmmRS6_mbEUlvE0_ED0Ev, symObjAddr: 0x4AA50, symBinAddr: 0x10004CDF8, symSize: 0x4 }
  - { offset: 0x2F6DE2, size: 0x8, addend: 0x0, symName: __ZN6parlay7JobImplIZNS_19fork_join_scheduler7parfor_IZ28create_decompressed_affectedIldEvRNS_8sequenceIP4nodeIT_T0_ENS_9allocatorIS9_EEXsr3std7is_sameIS9_cEE5valueEEEEUllE4_EEvRNS_9schedulerINS_15WorkStealingJobEEEmmRS6_mbEUlvE0_E7executeEv, symObjAddr: 0x4AA54, symBinAddr: 0x10004CDFC, symSize: 0xD8 }
  - { offset: 0x2F70B4, size: 0x8, addend: 0x0, symName: __ZN6parlay7JobImplIZNS_19fork_join_scheduler7parfor_IZ28create_decompressed_affectedIldEvRNS_8sequenceIP4nodeIT_T0_ENS_9allocatorIS9_EEXsr3std7is_sameIS9_cEE5valueEEEEUllE3_EEvRNS_9schedulerINS_15WorkStealingJobEEEmmRS6_mbEUlvE0_ED1Ev, symObjAddr: 0x4B154, symBinAddr: 0x10004D4FC, symSize: 0x4 }
  - { offset: 0x2F70DF, size: 0x8, addend: 0x0, symName: __ZN6parlay7JobImplIZNS_19fork_join_scheduler7parfor_IZ28create_decompressed_affectedIldEvRNS_8sequenceIP4nodeIT_T0_ENS_9allocatorIS9_EEXsr3std7is_sameIS9_cEE5valueEEEEUllE3_EEvRNS_9schedulerINS_15WorkStealingJobEEEmmRS6_mbEUlvE0_ED0Ev, symObjAddr: 0x4B158, symBinAddr: 0x10004D500, symSize: 0x4 }
  - { offset: 0x2F710A, size: 0x8, addend: 0x0, symName: __ZN6parlay7JobImplIZNS_19fork_join_scheduler7parfor_IZ28create_decompressed_affectedIldEvRNS_8sequenceIP4nodeIT_T0_ENS_9allocatorIS9_EEXsr3std7is_sameIS9_cEE5valueEEEEUllE3_EEvRNS_9schedulerINS_15WorkStealingJobEEEmmRS6_mbEUlvE0_E7executeEv, symObjAddr: 0x4B15C, symBinAddr: 0x10004D504, symSize: 0xD8 }
  - { offset: 0x2F74B0, size: 0x8, addend: 0x0, symName: __ZN6parlay7JobImplIZNS_19fork_join_scheduler7parfor_IZ28create_decompressed_affectedIldEvRNS_8sequenceIP4nodeIT_T0_ENS_9allocatorIS9_EEXsr3std7is_sameIS9_cEE5valueEEEEUllE2_EEvRNS_9schedulerINS_15WorkStealingJobEEEmmRS6_mbEUlvE0_ED1Ev, symObjAddr: 0x4B8FC, symBinAddr: 0x10004DCA4, symSize: 0x4 }
  - { offset: 0x2F74DB, size: 0x8, addend: 0x0, symName: __ZN6parlay7JobImplIZNS_19fork_join_scheduler7parfor_IZ28create_decompressed_affectedIldEvRNS_8sequenceIP4nodeIT_T0_ENS_9allocatorIS9_EEXsr3std7is_sameIS9_cEE5valueEEEEUllE2_EEvRNS_9schedulerINS_15WorkStealingJobEEEmmRS6_mbEUlvE0_ED0Ev, symObjAddr: 0x4B900, symBinAddr: 0x10004DCA8, symSize: 0x4 }
  - { offset: 0x2F7506, size: 0x8, addend: 0x0, symName: __ZN6parlay7JobImplIZNS_19fork_join_scheduler7parfor_IZ28create_decompressed_affectedIldEvRNS_8sequenceIP4nodeIT_T0_ENS_9allocatorIS9_EEXsr3std7is_sameIS9_cEE5valueEEEEUllE2_EEvRNS_9schedulerINS_15WorkStealingJobEEEmmRS6_mbEUlvE0_E7executeEv, symObjAddr: 0x4B904, symBinAddr: 0x10004DCAC, symSize: 0x24 }
  - { offset: 0x2F7777, size: 0x8, addend: 0x0, symName: __ZN6parlay7JobImplIZNS_19fork_join_scheduler7parfor_IZ28create_decompressed_affectedIldEvRNS_8sequenceIP4nodeIT_T0_ENS_9allocatorIS9_EEXsr3std7is_sameIS9_cEE5valueEEEEUllE1_EEvRNS_9schedulerINS_15WorkStealingJobEEEmmRS6_mbEUlvE0_ED1Ev, symObjAddr: 0x4BF50, symBinAddr: 0x10004E2F8, symSize: 0x4 }
  - { offset: 0x2F77A2, size: 0x8, addend: 0x0, symName: __ZN6parlay7JobImplIZNS_19fork_join_scheduler7parfor_IZ28create_decompressed_affectedIldEvRNS_8sequenceIP4nodeIT_T0_ENS_9allocatorIS9_EEXsr3std7is_sameIS9_cEE5valueEEEEUllE1_EEvRNS_9schedulerINS_15WorkStealingJobEEEmmRS6_mbEUlvE0_ED0Ev, symObjAddr: 0x4BF54, symBinAddr: 0x10004E2FC, symSize: 0x4 }
  - { offset: 0x2F77CD, size: 0x8, addend: 0x0, symName: __ZN6parlay7JobImplIZNS_19fork_join_scheduler7parfor_IZ28create_decompressed_affectedIldEvRNS_8sequenceIP4nodeIT_T0_ENS_9allocatorIS9_EEXsr3std7is_sameIS9_cEE5valueEEEEUllE1_EEvRNS_9schedulerINS_15WorkStealingJobEEEmmRS6_mbEUlvE0_E7executeEv, symObjAddr: 0x4BF58, symBinAddr: 0x10004E300, symSize: 0xD8 }
  - { offset: 0x2F7A9F, size: 0x8, addend: 0x0, symName: __ZN6parlay7JobImplIZNS_19fork_join_scheduler7parfor_IZ28create_decompressed_affectedIldEvRNS_8sequenceIP4nodeIT_T0_ENS_9allocatorIS9_EEXsr3std7is_sameIS9_cEE5valueEEEEUllE0_EEvRNS_9schedulerINS_15WorkStealingJobEEEmmRS6_mbEUlvE0_ED1Ev, symObjAddr: 0x4C658, symBinAddr: 0x10004EA00, symSize: 0x4 }
  - { offset: 0x2F7ACA, size: 0x8, addend: 0x0, symName: __ZN6parlay7JobImplIZNS_19fork_join_scheduler7parfor_IZ28create_decompressed_affectedIldEvRNS_8sequenceIP4nodeIT_T0_ENS_9allocatorIS9_EEXsr3std7is_sameIS9_cEE5valueEEEEUllE0_EEvRNS_9schedulerINS_15WorkStealingJobEEEmmRS6_mbEUlvE0_ED0Ev, symObjAddr: 0x4C65C, symBinAddr: 0x10004EA04, symSize: 0x4 }
  - { offset: 0x2F7AF5, size: 0x8, addend: 0x0, symName: __ZN6parlay7JobImplIZNS_19fork_join_scheduler7parfor_IZ28create_decompressed_affectedIldEvRNS_8sequenceIP4nodeIT_T0_ENS_9allocatorIS9_EEXsr3std7is_sameIS9_cEE5valueEEEEUllE0_EEvRNS_9schedulerINS_15WorkStealingJobEEEmmRS6_mbEUlvE0_E7executeEv, symObjAddr: 0x4C660, symBinAddr: 0x10004EA08, symSize: 0xD8 }
  - { offset: 0x2F7DC7, size: 0x8, addend: 0x0, symName: __ZN6parlay7JobImplIZNS_19fork_join_scheduler7parfor_IZ28create_decompressed_affectedIldEvRNS_8sequenceIP4nodeIT_T0_ENS_9allocatorIS9_EEXsr3std7is_sameIS9_cEE5valueEEEEUllE_EEvRNS_9schedulerINS_15WorkStealingJobEEEmmRS6_mbEUlvE0_ED1Ev, symObjAddr: 0x4CD60, symBinAddr: 0x10004F108, symSize: 0x4 }
  - { offset: 0x2F7DF2, size: 0x8, addend: 0x0, symName: __ZN6parlay7JobImplIZNS_19fork_join_scheduler7parfor_IZ28create_decompressed_affectedIldEvRNS_8sequenceIP4nodeIT_T0_ENS_9allocatorIS9_EEXsr3std7is_sameIS9_cEE5valueEEEEUllE_EEvRNS_9schedulerINS_15WorkStealingJobEEEmmRS6_mbEUlvE0_ED0Ev, symObjAddr: 0x4CD64, symBinAddr: 0x10004F10C, symSize: 0x4 }
  - { offset: 0x2F7E1D, size: 0x8, addend: 0x0, symName: __ZN6parlay7JobImplIZNS_19fork_join_scheduler7parfor_IZ28create_decompressed_affectedIldEvRNS_8sequenceIP4nodeIT_T0_ENS_9allocatorIS9_EEXsr3std7is_sameIS9_cEE5valueEEEEUllE_EEvRNS_9schedulerINS_15WorkStealingJobEEEmmRS6_mbEUlvE0_E7executeEv, symObjAddr: 0x4CD68, symBinAddr: 0x10004F110, symSize: 0xD8 }
  - { offset: 0x2F81C3, size: 0x8, addend: 0x0, symName: __ZN6parlay7JobImplIZNS_19fork_join_scheduler7parfor_IZNS_8internal10sliced_forIZNS3_10filter_mapINS_5sliceIPP4nodeIldESA_EEZ15batchInsertEdgeIldZ12incrementMSTIldEvRNS_8sequenceI7clusterIT_T0_ENS_9allocatorISI_EEXsr3std7is_sameISI_cEE5valueEEERKNSE_INSt3__15tupleIJSG_SG_SH_EEENSJ_ISP_EEXsr3std7is_sameISP_cEE5valueEEEEUlddE_EvRKNSE_INSN_4pairISG_SG_EENSJ_ISW_EEXsr3std7is_sameISW_cEE5valueEEEST_SM_SH_T1_EUlSG_E2_RZNS3_6filterISB_S12_EENSE_INSG_10value_typeENSJ_IS14_EEXsr3std7is_sameIS14_cEE5valueEEERKSG_OSH_EUlOSG_E_EEDaS18_S19_OS11_EUlmmmE0_EEvmmS18_jEUlmE_EEvRNS_9schedulerINS_15WorkStealingJobEEEmmRSG_mbEUlvE0_ED1Ev, symObjAddr: 0x4D4A8, symBinAddr: 0x10004F850, symSize: 0x4 }
  - { offset: 0x2F81EE, size: 0x8, addend: 0x0, symName: __ZN6parlay7JobImplIZNS_19fork_join_scheduler7parfor_IZNS_8internal10sliced_forIZNS3_10filter_mapINS_5sliceIPP4nodeIldESA_EEZ15batchInsertEdgeIldZ12incrementMSTIldEvRNS_8sequenceI7clusterIT_T0_ENS_9allocatorISI_EEXsr3std7is_sameISI_cEE5valueEEERKNSE_INSt3__15tupleIJSG_SG_SH_EEENSJ_ISP_EEXsr3std7is_sameISP_cEE5valueEEEEUlddE_EvRKNSE_INSN_4pairISG_SG_EENSJ_ISW_EEXsr3std7is_sameISW_cEE5valueEEEST_SM_SH_T1_EUlSG_E2_RZNS3_6filterISB_S12_EENSE_INSG_10value_typeENSJ_IS14_EEXsr3std7is_sameIS14_cEE5valueEEERKSG_OSH_EUlOSG_E_EEDaS18_S19_OS11_EUlmmmE0_EEvmmS18_jEUlmE_EEvRNS_9schedulerINS_15WorkStealingJobEEEmmRSG_mbEUlvE0_ED0Ev, symObjAddr: 0x4D4AC, symBinAddr: 0x10004F854, symSize: 0x4 }
  - { offset: 0x2F8219, size: 0x8, addend: 0x0, symName: __ZN6parlay7JobImplIZNS_19fork_join_scheduler7parfor_IZNS_8internal10sliced_forIZNS3_10filter_mapINS_5sliceIPP4nodeIldESA_EEZ15batchInsertEdgeIldZ12incrementMSTIldEvRNS_8sequenceI7clusterIT_T0_ENS_9allocatorISI_EEXsr3std7is_sameISI_cEE5valueEEERKNSE_INSt3__15tupleIJSG_SG_SH_EEENSJ_ISP_EEXsr3std7is_sameISP_cEE5valueEEEEUlddE_EvRKNSE_INSN_4pairISG_SG_EENSJ_ISW_EEXsr3std7is_sameISW_cEE5valueEEEST_SM_SH_T1_EUlSG_E2_RZNS3_6filterISB_S12_EENSE_INSG_10value_typeENSJ_IS14_EEXsr3std7is_sameIS14_cEE5valueEEERKSG_OSH_EUlOSG_E_EEDaS18_S19_OS11_EUlmmmE0_EEvmmS18_jEUlmE_EEvRNS_9schedulerINS_15WorkStealingJobEEEmmRSG_mbEUlvE0_E7executeEv, symObjAddr: 0x4D4B0, symBinAddr: 0x10004F858, symSize: 0x24 }
  - { offset: 0x2F855E, size: 0x8, addend: 0x0, symName: __ZN6parlay7JobImplIZNS_19fork_join_scheduler7parfor_IZNS_8internal10sliced_forIZNS3_10filter_mapINS_5sliceIPP4nodeIldESA_EEZ15batchInsertEdgeIldZ12incrementMSTIldEvRNS_8sequenceI7clusterIT_T0_ENS_9allocatorISI_EEXsr3std7is_sameISI_cEE5valueEEERKNSE_INSt3__15tupleIJSG_SG_SH_EEENSJ_ISP_EEXsr3std7is_sameISP_cEE5valueEEEEUlddE_EvRKNSE_INSN_4pairISG_SG_EENSJ_ISW_EEXsr3std7is_sameISW_cEE5valueEEEST_SM_SH_T1_EUlSG_E2_RZNS3_6filterISB_S12_EENSE_INSG_10value_typeENSJ_IS14_EEXsr3std7is_sameIS14_cEE5valueEEERKSG_OSH_EUlOSG_E_EEDaS18_S19_OS11_EUlmmmE_EEvmmS18_jEUlmE_EEvRNS_9schedulerINS_15WorkStealingJobEEEmmRSG_mbEUlvE0_ED1Ev, symObjAddr: 0x4DC54, symBinAddr: 0x10004FFFC, symSize: 0x4 }
  - { offset: 0x2F8589, size: 0x8, addend: 0x0, symName: __ZN6parlay7JobImplIZNS_19fork_join_scheduler7parfor_IZNS_8internal10sliced_forIZNS3_10filter_mapINS_5sliceIPP4nodeIldESA_EEZ15batchInsertEdgeIldZ12incrementMSTIldEvRNS_8sequenceI7clusterIT_T0_ENS_9allocatorISI_EEXsr3std7is_sameISI_cEE5valueEEERKNSE_INSt3__15tupleIJSG_SG_SH_EEENSJ_ISP_EEXsr3std7is_sameISP_cEE5valueEEEEUlddE_EvRKNSE_INSN_4pairISG_SG_EENSJ_ISW_EEXsr3std7is_sameISW_cEE5valueEEEST_SM_SH_T1_EUlSG_E2_RZNS3_6filterISB_S12_EENSE_INSG_10value_typeENSJ_IS14_EEXsr3std7is_sameIS14_cEE5valueEEERKSG_OSH_EUlOSG_E_EEDaS18_S19_OS11_EUlmmmE_EEvmmS18_jEUlmE_EEvRNS_9schedulerINS_15WorkStealingJobEEEmmRSG_mbEUlvE0_ED0Ev, symObjAddr: 0x4DC58, symBinAddr: 0x100050000, symSize: 0x4 }
  - { offset: 0x2F85B4, size: 0x8, addend: 0x0, symName: __ZN6parlay7JobImplIZNS_19fork_join_scheduler7parfor_IZNS_8internal10sliced_forIZNS3_10filter_mapINS_5sliceIPP4nodeIldESA_EEZ15batchInsertEdgeIldZ12incrementMSTIldEvRNS_8sequenceI7clusterIT_T0_ENS_9allocatorISI_EEXsr3std7is_sameISI_cEE5valueEEERKNSE_INSt3__15tupleIJSG_SG_SH_EEENSJ_ISP_EEXsr3std7is_sameISP_cEE5valueEEEEUlddE_EvRKNSE_INSN_4pairISG_SG_EENSJ_ISW_EEXsr3std7is_sameISW_cEE5valueEEEST_SM_SH_T1_EUlSG_E2_RZNS3_6filterISB_S12_EENSE_INSG_10value_typeENSJ_IS14_EEXsr3std7is_sameIS14_cEE5valueEEERKSG_OSH_EUlOSG_E_EEDaS18_S19_OS11_EUlmmmE_EEvmmS18_jEUlmE_EEvRNS_9schedulerINS_15WorkStealingJobEEEmmRSG_mbEUlvE0_E7executeEv, symObjAddr: 0x4DC5C, symBinAddr: 0x100050004, symSize: 0x24 }
  - { offset: 0x2F88F9, size: 0x8, addend: 0x0, symName: __ZN6parlay7JobImplIZNS_19fork_join_scheduler7parfor_IZNS_8internal10sliced_forIZNS3_10filter_mapINS_5sliceIP14edge_with_flagINSt3__15tupleIJlldEEEESC_EEZ15batchInsertEdgeIldZ12incrementMSTIldEvRNS_8sequenceI7clusterIT_T0_ENS_9allocatorISK_EEXsr3std7is_sameISK_cEE5valueEEERKNSG_INS9_IJSI_SI_SJ_EEENSL_ISP_EEXsr3std7is_sameISP_cEE5valueEEEEUlddE_EvRKNSG_INS8_4pairISI_SI_EENSL_ISW_EEXsr3std7is_sameISW_cEE5valueEEEST_SO_SJ_T1_EUlSI_E1_RZNS3_6filterISD_S12_EENSG_INSI_10value_typeENSL_IS14_EEXsr3std7is_sameIS14_cEE5valueEEERKSI_OSJ_EUlOSI_E_EEDaS18_S19_OS11_EUlmmmE0_EEvmmS18_jEUlmE_EEvRNS_9schedulerINS_15WorkStealingJobEEEmmRSI_mbEUlvE0_ED1Ev, symObjAddr: 0x4E474, symBinAddr: 0x10005081C, symSize: 0x4 }
  - { offset: 0x2F8924, size: 0x8, addend: 0x0, symName: __ZN6parlay7JobImplIZNS_19fork_join_scheduler7parfor_IZNS_8internal10sliced_forIZNS3_10filter_mapINS_5sliceIP14edge_with_flagINSt3__15tupleIJlldEEEESC_EEZ15batchInsertEdgeIldZ12incrementMSTIldEvRNS_8sequenceI7clusterIT_T0_ENS_9allocatorISK_EEXsr3std7is_sameISK_cEE5valueEEERKNSG_INS9_IJSI_SI_SJ_EEENSL_ISP_EEXsr3std7is_sameISP_cEE5valueEEEEUlddE_EvRKNSG_INS8_4pairISI_SI_EENSL_ISW_EEXsr3std7is_sameISW_cEE5valueEEEST_SO_SJ_T1_EUlSI_E1_RZNS3_6filterISD_S12_EENSG_INSI_10value_typeENSL_IS14_EEXsr3std7is_sameIS14_cEE5valueEEERKSI_OSJ_EUlOSI_E_EEDaS18_S19_OS11_EUlmmmE0_EEvmmS18_jEUlmE_EEvRNS_9schedulerINS_15WorkStealingJobEEEmmRSI_mbEUlvE0_ED0Ev, symObjAddr: 0x4E478, symBinAddr: 0x100050820, symSize: 0x4 }
  - { offset: 0x2F894F, size: 0x8, addend: 0x0, symName: __ZN6parlay7JobImplIZNS_19fork_join_scheduler7parfor_IZNS_8internal10sliced_forIZNS3_10filter_mapINS_5sliceIP14edge_with_flagINSt3__15tupleIJlldEEEESC_EEZ15batchInsertEdgeIldZ12incrementMSTIldEvRNS_8sequenceI7clusterIT_T0_ENS_9allocatorISK_EEXsr3std7is_sameISK_cEE5valueEEERKNSG_INS9_IJSI_SI_SJ_EEENSL_ISP_EEXsr3std7is_sameISP_cEE5valueEEEEUlddE_EvRKNSG_INS8_4pairISI_SI_EENSL_ISW_EEXsr3std7is_sameISW_cEE5valueEEEST_SO_SJ_T1_EUlSI_E1_RZNS3_6filterISD_S12_EENSG_INSI_10value_typeENSL_IS14_EEXsr3std7is_sameIS14_cEE5valueEEERKSI_OSJ_EUlOSI_E_EEDaS18_S19_OS11_EUlmmmE0_EEvmmS18_jEUlmE_EEvRNS_9schedulerINS_15WorkStealingJobEEEmmRSI_mbEUlvE0_E7executeEv, symObjAddr: 0x4E47C, symBinAddr: 0x100050824, symSize: 0x24 }
  - { offset: 0x2F8C94, size: 0x8, addend: 0x0, symName: __ZN6parlay7JobImplIZNS_19fork_join_scheduler7parfor_IZNS_8internal10sliced_forIZNS3_10filter_mapINS_5sliceIP14edge_with_flagINSt3__15tupleIJlldEEEESC_EEZ15batchInsertEdgeIldZ12incrementMSTIldEvRNS_8sequenceI7clusterIT_T0_ENS_9allocatorISK_EEXsr3std7is_sameISK_cEE5valueEEERKNSG_INS9_IJSI_SI_SJ_EEENSL_ISP_EEXsr3std7is_sameISP_cEE5valueEEEEUlddE_EvRKNSG_INS8_4pairISI_SI_EENSL_ISW_EEXsr3std7is_sameISW_cEE5valueEEEST_SO_SJ_T1_EUlSI_E1_RZNS3_6filterISD_S12_EENSG_INSI_10value_typeENSL_IS14_EEXsr3std7is_sameIS14_cEE5valueEEERKSI_OSJ_EUlOSI_E_EEDaS18_S19_OS11_EUlmmmE_EEvmmS18_jEUlmE_EEvRNS_9schedulerINS_15WorkStealingJobEEEmmRSI_mbEUlvE0_ED1Ev, symObjAddr: 0x4EE3C, symBinAddr: 0x1000511E4, symSize: 0x4 }
  - { offset: 0x2F8CBF, size: 0x8, addend: 0x0, symName: __ZN6parlay7JobImplIZNS_19fork_join_scheduler7parfor_IZNS_8internal10sliced_forIZNS3_10filter_mapINS_5sliceIP14edge_with_flagINSt3__15tupleIJlldEEEESC_EEZ15batchInsertEdgeIldZ12incrementMSTIldEvRNS_8sequenceI7clusterIT_T0_ENS_9allocatorISK_EEXsr3std7is_sameISK_cEE5valueEEERKNSG_INS9_IJSI_SI_SJ_EEENSL_ISP_EEXsr3std7is_sameISP_cEE5valueEEEEUlddE_EvRKNSG_INS8_4pairISI_SI_EENSL_ISW_EEXsr3std7is_sameISW_cEE5valueEEEST_SO_SJ_T1_EUlSI_E1_RZNS3_6filterISD_S12_EENSG_INSI_10value_typeENSL_IS14_EEXsr3std7is_sameIS14_cEE5valueEEERKSI_OSJ_EUlOSI_E_EEDaS18_S19_OS11_EUlmmmE_EEvmmS18_jEUlmE_EEvRNS_9schedulerINS_15WorkStealingJobEEEmmRSI_mbEUlvE0_ED0Ev, symObjAddr: 0x4EE40, symBinAddr: 0x1000511E8, symSize: 0x4 }
  - { offset: 0x2F8CEA, size: 0x8, addend: 0x0, symName: __ZN6parlay7JobImplIZNS_19fork_join_scheduler7parfor_IZNS_8internal10sliced_forIZNS3_10filter_mapINS_5sliceIP14edge_with_flagINSt3__15tupleIJlldEEEESC_EEZ15batchInsertEdgeIldZ12incrementMSTIldEvRNS_8sequenceI7clusterIT_T0_ENS_9allocatorISK_EEXsr3std7is_sameISK_cEE5valueEEERKNSG_INS9_IJSI_SI_SJ_EEENSL_ISP_EEXsr3std7is_sameISP_cEE5valueEEEEUlddE_EvRKNSG_INS8_4pairISI_SI_EENSL_ISW_EEXsr3std7is_sameISW_cEE5valueEEEST_SO_SJ_T1_EUlSI_E1_RZNS3_6filterISD_S12_EENSG_INSI_10value_typeENSL_IS14_EEXsr3std7is_sameIS14_cEE5valueEEERKSI_OSJ_EUlOSI_E_EEDaS18_S19_OS11_EUlmmmE_EEvmmS18_jEUlmE_EEvRNS_9schedulerINS_15WorkStealingJobEEEmmRSI_mbEUlvE0_E7executeEv, symObjAddr: 0x4EE44, symBinAddr: 0x1000511EC, symSize: 0x24 }
  - { offset: 0x2F8F5B, size: 0x8, addend: 0x0, symName: __ZN6parlay7JobImplIZNS_19fork_join_scheduler7parfor_IZ15batchInsertEdgeIldZ12incrementMSTIldEvRNS_8sequenceI7clusterIT_T0_ENS_9allocatorIS9_EEXsr3std7is_sameIS9_cEE5valueEEERKNS5_INSt3__15tupleIJS7_S7_S8_EEENSA_ISG_EEXsr3std7is_sameISG_cEE5valueEEEEUlddE_EvRKNS5_INSE_4pairIS7_S7_EENSA_ISN_EEXsr3std7is_sameISN_cEE5valueEEESK_SD_S8_T1_EUllE6_EEvRNS_9schedulerINS_15WorkStealingJobEEEmmRS7_mbEUlvE0_ED1Ev, symObjAddr: 0x4F488, symBinAddr: 0x100051830, symSize: 0x4 }
  - { offset: 0x2F8F86, size: 0x8, addend: 0x0, symName: __ZN6parlay7JobImplIZNS_19fork_join_scheduler7parfor_IZ15batchInsertEdgeIldZ12incrementMSTIldEvRNS_8sequenceI7clusterIT_T0_ENS_9allocatorIS9_EEXsr3std7is_sameIS9_cEE5valueEEERKNS5_INSt3__15tupleIJS7_S7_S8_EEENSA_ISG_EEXsr3std7is_sameISG_cEE5valueEEEEUlddE_EvRKNS5_INSE_4pairIS7_S7_EENSA_ISN_EEXsr3std7is_sameISN_cEE5valueEEESK_SD_S8_T1_EUllE6_EEvRNS_9schedulerINS_15WorkStealingJobEEEmmRS7_mbEUlvE0_ED0Ev, symObjAddr: 0x4F48C, symBinAddr: 0x100051834, symSize: 0x4 }
  - { offset: 0x2F8FB1, size: 0x8, addend: 0x0, symName: __ZN6parlay7JobImplIZNS_19fork_join_scheduler7parfor_IZ15batchInsertEdgeIldZ12incrementMSTIldEvRNS_8sequenceI7clusterIT_T0_ENS_9allocatorIS9_EEXsr3std7is_sameIS9_cEE5valueEEERKNS5_INSt3__15tupleIJS7_S7_S8_EEENSA_ISG_EEXsr3std7is_sameISG_cEE5valueEEEEUlddE_EvRKNS5_INSE_4pairIS7_S7_EENSA_ISN_EEXsr3std7is_sameISN_cEE5valueEEESK_SD_S8_T1_EUllE6_EEvRNS_9schedulerINS_15WorkStealingJobEEEmmRS7_mbEUlvE0_E7executeEv, symObjAddr: 0x4F490, symBinAddr: 0x100051838, symSize: 0xD4 }
  - { offset: 0x2F935E, size: 0x8, addend: 0x0, symName: __ZN6parlay7JobImplIZNS_19fork_join_scheduler7parfor_IZ15batchInsertEdgeIldZ12incrementMSTIldEvRNS_8sequenceI7clusterIT_T0_ENS_9allocatorIS9_EEXsr3std7is_sameIS9_cEE5valueEEERKNS5_INSt3__15tupleIJS7_S7_S8_EEENSA_ISG_EEXsr3std7is_sameISG_cEE5valueEEEEUlddE_EvRKNS5_INSE_4pairIS7_S7_EENSA_ISN_EEXsr3std7is_sameISN_cEE5valueEEESK_SD_S8_T1_EUllE5_EEvRNS_9schedulerINS_15WorkStealingJobEEEmmRS7_mbEUlvE0_ED1Ev, symObjAddr: 0x4FB18, symBinAddr: 0x100051EC0, symSize: 0x4 }
  - { offset: 0x2F9389, size: 0x8, addend: 0x0, symName: __ZN6parlay7JobImplIZNS_19fork_join_scheduler7parfor_IZ15batchInsertEdgeIldZ12incrementMSTIldEvRNS_8sequenceI7clusterIT_T0_ENS_9allocatorIS9_EEXsr3std7is_sameIS9_cEE5valueEEERKNS5_INSt3__15tupleIJS7_S7_S8_EEENSA_ISG_EEXsr3std7is_sameISG_cEE5valueEEEEUlddE_EvRKNS5_INSE_4pairIS7_S7_EENSA_ISN_EEXsr3std7is_sameISN_cEE5valueEEESK_SD_S8_T1_EUllE5_EEvRNS_9schedulerINS_15WorkStealingJobEEEmmRS7_mbEUlvE0_ED0Ev, symObjAddr: 0x4FB1C, symBinAddr: 0x100051EC4, symSize: 0x4 }
  - { offset: 0x2F93B4, size: 0x8, addend: 0x0, symName: __ZN6parlay7JobImplIZNS_19fork_join_scheduler7parfor_IZ15batchInsertEdgeIldZ12incrementMSTIldEvRNS_8sequenceI7clusterIT_T0_ENS_9allocatorIS9_EEXsr3std7is_sameIS9_cEE5valueEEERKNS5_INSt3__15tupleIJS7_S7_S8_EEENSA_ISG_EEXsr3std7is_sameISG_cEE5valueEEEEUlddE_EvRKNS5_INSE_4pairIS7_S7_EENSA_ISN_EEXsr3std7is_sameISN_cEE5valueEEESK_SD_S8_T1_EUllE5_EEvRNS_9schedulerINS_15WorkStealingJobEEEmmRS7_mbEUlvE0_E7executeEv, symObjAddr: 0x4FB20, symBinAddr: 0x100051EC8, symSize: 0x24 }
  - { offset: 0x2F96F9, size: 0x8, addend: 0x0, symName: __ZN6parlay7JobImplIZNS_19fork_join_scheduler7parfor_IZNS_8internal10sliced_forIZNS3_10filter_mapINS_5sliceIP14edge_with_flagINSt3__15tupleIJlldEEEESC_EEZ15batchInsertEdgeIldZ12incrementMSTIldEvRNS_8sequenceI7clusterIT_T0_ENS_9allocatorISK_EEXsr3std7is_sameISK_cEE5valueEEERKNSG_INS9_IJSI_SI_SJ_EEENSL_ISP_EEXsr3std7is_sameISP_cEE5valueEEEEUlddE_EvRKNSG_INS8_4pairISI_SI_EENSL_ISW_EEXsr3std7is_sameISW_cEE5valueEEEST_SO_SJ_T1_EUlSI_E0_RZNS3_6filterISD_S12_EENSG_INSI_10value_typeENSL_IS14_EEXsr3std7is_sameIS14_cEE5valueEEERKSI_OSJ_EUlOSI_E_EEDaS18_S19_OS11_EUlmmmE0_EEvmmS18_jEUlmE_EEvRNS_9schedulerINS_15WorkStealingJobEEEmmRSI_mbEUlvE0_ED1Ev, symObjAddr: 0x501B4, symBinAddr: 0x10005255C, symSize: 0x4 }
  - { offset: 0x2F9724, size: 0x8, addend: 0x0, symName: __ZN6parlay7JobImplIZNS_19fork_join_scheduler7parfor_IZNS_8internal10sliced_forIZNS3_10filter_mapINS_5sliceIP14edge_with_flagINSt3__15tupleIJlldEEEESC_EEZ15batchInsertEdgeIldZ12incrementMSTIldEvRNS_8sequenceI7clusterIT_T0_ENS_9allocatorISK_EEXsr3std7is_sameISK_cEE5valueEEERKNSG_INS9_IJSI_SI_SJ_EEENSL_ISP_EEXsr3std7is_sameISP_cEE5valueEEEEUlddE_EvRKNSG_INS8_4pairISI_SI_EENSL_ISW_EEXsr3std7is_sameISW_cEE5valueEEEST_SO_SJ_T1_EUlSI_E0_RZNS3_6filterISD_S12_EENSG_INSI_10value_typeENSL_IS14_EEXsr3std7is_sameIS14_cEE5valueEEERKSI_OSJ_EUlOSI_E_EEDaS18_S19_OS11_EUlmmmE0_EEvmmS18_jEUlmE_EEvRNS_9schedulerINS_15WorkStealingJobEEEmmRSI_mbEUlvE0_ED0Ev, symObjAddr: 0x501B8, symBinAddr: 0x100052560, symSize: 0x4 }
  - { offset: 0x2F974F, size: 0x8, addend: 0x0, symName: __ZN6parlay7JobImplIZNS_19fork_join_scheduler7parfor_IZNS_8internal10sliced_forIZNS3_10filter_mapINS_5sliceIP14edge_with_flagINSt3__15tupleIJlldEEEESC_EEZ15batchInsertEdgeIldZ12incrementMSTIldEvRNS_8sequenceI7clusterIT_T0_ENS_9allocatorISK_EEXsr3std7is_sameISK_cEE5valueEEERKNSG_INS9_IJSI_SI_SJ_EEENSL_ISP_EEXsr3std7is_sameISP_cEE5valueEEEEUlddE_EvRKNSG_INS8_4pairISI_SI_EENSL_ISW_EEXsr3std7is_sameISW_cEE5valueEEEST_SO_SJ_T1_EUlSI_E0_RZNS3_6filterISD_S12_EENSG_INSI_10value_typeENSL_IS14_EEXsr3std7is_sameIS14_cEE5valueEEERKSI_OSJ_EUlOSI_E_EEDaS18_S19_OS11_EUlmmmE0_EEvmmS18_jEUlmE_EEvRNS_9schedulerINS_15WorkStealingJobEEEmmRSI_mbEUlvE0_E7executeEv, symObjAddr: 0x501BC, symBinAddr: 0x100052564, symSize: 0x24 }
  - { offset: 0x2F9A94, size: 0x8, addend: 0x0, symName: __ZN6parlay7JobImplIZNS_19fork_join_scheduler7parfor_IZNS_8internal10sliced_forIZNS3_10filter_mapINS_5sliceIP14edge_with_flagINSt3__15tupleIJlldEEEESC_EEZ15batchInsertEdgeIldZ12incrementMSTIldEvRNS_8sequenceI7clusterIT_T0_ENS_9allocatorISK_EEXsr3std7is_sameISK_cEE5valueEEERKNSG_INS9_IJSI_SI_SJ_EEENSL_ISP_EEXsr3std7is_sameISP_cEE5valueEEEEUlddE_EvRKNSG_INS8_4pairISI_SI_EENSL_ISW_EEXsr3std7is_sameISW_cEE5valueEEEST_SO_SJ_T1_EUlSI_E0_RZNS3_6filterISD_S12_EENSG_INSI_10value_typeENSL_IS14_EEXsr3std7is_sameIS14_cEE5valueEEERKSI_OSJ_EUlOSI_E_EEDaS18_S19_OS11_EUlmmmE_EEvmmS18_jEUlmE_EEvRNS_9schedulerINS_15WorkStealingJobEEEmmRSI_mbEUlvE0_ED1Ev, symObjAddr: 0x50B7C, symBinAddr: 0x100052F24, symSize: 0x4 }
  - { offset: 0x2F9ABF, size: 0x8, addend: 0x0, symName: __ZN6parlay7JobImplIZNS_19fork_join_scheduler7parfor_IZNS_8internal10sliced_forIZNS3_10filter_mapINS_5sliceIP14edge_with_flagINSt3__15tupleIJlldEEEESC_EEZ15batchInsertEdgeIldZ12incrementMSTIldEvRNS_8sequenceI7clusterIT_T0_ENS_9allocatorISK_EEXsr3std7is_sameISK_cEE5valueEEERKNSG_INS9_IJSI_SI_SJ_EEENSL_ISP_EEXsr3std7is_sameISP_cEE5valueEEEEUlddE_EvRKNSG_INS8_4pairISI_SI_EENSL_ISW_EEXsr3std7is_sameISW_cEE5valueEEEST_SO_SJ_T1_EUlSI_E0_RZNS3_6filterISD_S12_EENSG_INSI_10value_typeENSL_IS14_EEXsr3std7is_sameIS14_cEE5valueEEERKSI_OSJ_EUlOSI_E_EEDaS18_S19_OS11_EUlmmmE_EEvmmS18_jEUlmE_EEvRNS_9schedulerINS_15WorkStealingJobEEEmmRSI_mbEUlvE0_ED0Ev, symObjAddr: 0x50B80, symBinAddr: 0x100052F28, symSize: 0x4 }
  - { offset: 0x2F9AEA, size: 0x8, addend: 0x0, symName: __ZN6parlay7JobImplIZNS_19fork_join_scheduler7parfor_IZNS_8internal10sliced_forIZNS3_10filter_mapINS_5sliceIP14edge_with_flagINSt3__15tupleIJlldEEEESC_EEZ15batchInsertEdgeIldZ12incrementMSTIldEvRNS_8sequenceI7clusterIT_T0_ENS_9allocatorISK_EEXsr3std7is_sameISK_cEE5valueEEERKNSG_INS9_IJSI_SI_SJ_EEENSL_ISP_EEXsr3std7is_sameISP_cEE5valueEEEEUlddE_EvRKNSG_INS8_4pairISI_SI_EENSL_ISW_EEXsr3std7is_sameISW_cEE5valueEEEST_SO_SJ_T1_EUlSI_E0_RZNS3_6filterISD_S12_EENSG_INSI_10value_typeENSL_IS14_EEXsr3std7is_sameIS14_cEE5valueEEERKSI_OSJ_EUlOSI_E_EEDaS18_S19_OS11_EUlmmmE_EEvmmS18_jEUlmE_EEvRNS_9schedulerINS_15WorkStealingJobEEEmmRSI_mbEUlvE0_E7executeEv, symObjAddr: 0x50B84, symBinAddr: 0x100052F2C, symSize: 0x24 }
  - { offset: 0x2F9D5B, size: 0x8, addend: 0x0, symName: __ZN6parlay7JobImplIZNS_19fork_join_scheduler7parfor_IZ15batchInsertEdgeIldZ12incrementMSTIldEvRNS_8sequenceI7clusterIT_T0_ENS_9allocatorIS9_EEXsr3std7is_sameIS9_cEE5valueEEERKNS5_INSt3__15tupleIJS7_S7_S8_EEENSA_ISG_EEXsr3std7is_sameISG_cEE5valueEEEEUlddE_EvRKNS5_INSE_4pairIS7_S7_EENSA_ISN_EEXsr3std7is_sameISN_cEE5valueEEESK_SD_S8_T1_EUllE4_EEvRNS_9schedulerINS_15WorkStealingJobEEEmmRS7_mbEUlvE0_ED1Ev, symObjAddr: 0x511C8, symBinAddr: 0x100053570, symSize: 0x4 }
  - { offset: 0x2F9D86, size: 0x8, addend: 0x0, symName: __ZN6parlay7JobImplIZNS_19fork_join_scheduler7parfor_IZ15batchInsertEdgeIldZ12incrementMSTIldEvRNS_8sequenceI7clusterIT_T0_ENS_9allocatorIS9_EEXsr3std7is_sameIS9_cEE5valueEEERKNS5_INSt3__15tupleIJS7_S7_S8_EEENSA_ISG_EEXsr3std7is_sameISG_cEE5valueEEEEUlddE_EvRKNS5_INSE_4pairIS7_S7_EENSA_ISN_EEXsr3std7is_sameISN_cEE5valueEEESK_SD_S8_T1_EUllE4_EEvRNS_9schedulerINS_15WorkStealingJobEEEmmRS7_mbEUlvE0_ED0Ev, symObjAddr: 0x511CC, symBinAddr: 0x100053574, symSize: 0x4 }
  - { offset: 0x2F9DB1, size: 0x8, addend: 0x0, symName: __ZN6parlay7JobImplIZNS_19fork_join_scheduler7parfor_IZ15batchInsertEdgeIldZ12incrementMSTIldEvRNS_8sequenceI7clusterIT_T0_ENS_9allocatorIS9_EEXsr3std7is_sameIS9_cEE5valueEEERKNS5_INSt3__15tupleIJS7_S7_S8_EEENSA_ISG_EEXsr3std7is_sameISG_cEE5valueEEEEUlddE_EvRKNS5_INSE_4pairIS7_S7_EENSA_ISN_EEXsr3std7is_sameISN_cEE5valueEEESK_SD_S8_T1_EUllE4_EEvRNS_9schedulerINS_15WorkStealingJobEEEmmRS7_mbEUlvE0_E7executeEv, symObjAddr: 0x511D0, symBinAddr: 0x100053578, symSize: 0xD4 }
  - { offset: 0x2FA15E, size: 0x8, addend: 0x0, symName: __ZN6parlay7JobImplIZNS_19fork_join_scheduler7parfor_IZ15batchInsertEdgeIldZ12incrementMSTIldEvRNS_8sequenceI7clusterIT_T0_ENS_9allocatorIS9_EEXsr3std7is_sameIS9_cEE5valueEEERKNS5_INSt3__15tupleIJS7_S7_S8_EEENSA_ISG_EEXsr3std7is_sameISG_cEE5valueEEEEUlddE_EvRKNS5_INSE_4pairIS7_S7_EENSA_ISN_EEXsr3std7is_sameISN_cEE5valueEEESK_SD_S8_T1_EUllE3_EEvRNS_9schedulerINS_15WorkStealingJobEEEmmRS7_mbEUlvE0_ED1Ev, symObjAddr: 0x51918, symBinAddr: 0x100053CC0, symSize: 0x4 }
  - { offset: 0x2FA189, size: 0x8, addend: 0x0, symName: __ZN6parlay7JobImplIZNS_19fork_join_scheduler7parfor_IZ15batchInsertEdgeIldZ12incrementMSTIldEvRNS_8sequenceI7clusterIT_T0_ENS_9allocatorIS9_EEXsr3std7is_sameIS9_cEE5valueEEERKNS5_INSt3__15tupleIJS7_S7_S8_EEENSA_ISG_EEXsr3std7is_sameISG_cEE5valueEEEEUlddE_EvRKNS5_INSE_4pairIS7_S7_EENSA_ISN_EEXsr3std7is_sameISN_cEE5valueEEESK_SD_S8_T1_EUllE3_EEvRNS_9schedulerINS_15WorkStealingJobEEEmmRS7_mbEUlvE0_ED0Ev, symObjAddr: 0x5191C, symBinAddr: 0x100053CC4, symSize: 0x4 }
  - { offset: 0x2FA1B4, size: 0x8, addend: 0x0, symName: __ZN6parlay7JobImplIZNS_19fork_join_scheduler7parfor_IZ15batchInsertEdgeIldZ12incrementMSTIldEvRNS_8sequenceI7clusterIT_T0_ENS_9allocatorIS9_EEXsr3std7is_sameIS9_cEE5valueEEERKNS5_INSt3__15tupleIJS7_S7_S8_EEENSA_ISG_EEXsr3std7is_sameISG_cEE5valueEEEEUlddE_EvRKNS5_INSE_4pairIS7_S7_EENSA_ISN_EEXsr3std7is_sameISN_cEE5valueEEESK_SD_S8_T1_EUllE3_EEvRNS_9schedulerINS_15WorkStealingJobEEEmmRS7_mbEUlvE0_E7executeEv, symObjAddr: 0x51920, symBinAddr: 0x100053CC8, symSize: 0x24 }
  - { offset: 0x2FA425, size: 0x8, addend: 0x0, symName: __ZN6parlay7JobImplIZNS_19fork_join_scheduler7parfor_IZNS_17sequence_internal13sequence_baseI14edge_with_flagINSt3__15tupleIJlldEEEENS_9allocatorIS9_EELb0EE12storage_implC1ERKSD_EUlmE_EEvRNS_9schedulerINS_15WorkStealingJobEEEmmRT_mbEUlvE0_ED1Ev, symObjAddr: 0x51F8C, symBinAddr: 0x100054334, symSize: 0x4 }
  - { offset: 0x2FA450, size: 0x8, addend: 0x0, symName: __ZN6parlay7JobImplIZNS_19fork_join_scheduler7parfor_IZNS_17sequence_internal13sequence_baseI14edge_with_flagINSt3__15tupleIJlldEEEENS_9allocatorIS9_EELb0EE12storage_implC1ERKSD_EUlmE_EEvRNS_9schedulerINS_15WorkStealingJobEEEmmRT_mbEUlvE0_ED0Ev, symObjAddr: 0x51F90, symBinAddr: 0x100054338, symSize: 0x4 }
  - { offset: 0x2FA47B, size: 0x8, addend: 0x0, symName: __ZN6parlay7JobImplIZNS_19fork_join_scheduler7parfor_IZNS_17sequence_internal13sequence_baseI14edge_with_flagINSt3__15tupleIJlldEEEENS_9allocatorIS9_EELb0EE12storage_implC1ERKSD_EUlmE_EEvRNS_9schedulerINS_15WorkStealingJobEEEmmRT_mbEUlvE0_E7executeEv, symObjAddr: 0x51F94, symBinAddr: 0x10005433C, symSize: 0xD8 }
  - { offset: 0x2FA85F, size: 0x8, addend: 0x0, symName: __ZN6parlay7JobImplIZNS_19fork_join_scheduler7parfor_IZNS_8sequenceI14edge_with_flagINSt3__15tupleIJlldEEEENS_9allocatorIS8_EELb0EEC1IZ15batchInsertEdgeIldZ12incrementMSTIldEvRNS3_I7clusterIT_T0_ENS9_ISI_EEXsr3std7is_sameISI_cEE5valueEEERKNS3_INS6_IJSG_SG_SH_EEENS9_ISM_EEXsr3std7is_sameISM_cEE5valueEEEEUlddE_EvRKNS3_INS5_4pairISG_SG_EENS9_IST_EEXsr3std7is_sameIST_cEE5valueEEESQ_SL_SH_T1_EUllE2_EEmOSG_NSB_18_from_function_tagEmEUlmE_EEvRNS_9schedulerINS_15WorkStealingJobEEEmmRSG_mbEUlvE0_ED1Ev, symObjAddr: 0x52618, symBinAddr: 0x1000549C0, symSize: 0x4 }
  - { offset: 0x2FA88A, size: 0x8, addend: 0x0, symName: __ZN6parlay7JobImplIZNS_19fork_join_scheduler7parfor_IZNS_8sequenceI14edge_with_flagINSt3__15tupleIJlldEEEENS_9allocatorIS8_EELb0EEC1IZ15batchInsertEdgeIldZ12incrementMSTIldEvRNS3_I7clusterIT_T0_ENS9_ISI_EEXsr3std7is_sameISI_cEE5valueEEERKNS3_INS6_IJSG_SG_SH_EEENS9_ISM_EEXsr3std7is_sameISM_cEE5valueEEEEUlddE_EvRKNS3_INS5_4pairISG_SG_EENS9_IST_EEXsr3std7is_sameIST_cEE5valueEEESQ_SL_SH_T1_EUllE2_EEmOSG_NSB_18_from_function_tagEmEUlmE_EEvRNS_9schedulerINS_15WorkStealingJobEEEmmRSG_mbEUlvE0_ED0Ev, symObjAddr: 0x5261C, symBinAddr: 0x1000549C4, symSize: 0x4 }
  - { offset: 0x2FA8B5, size: 0x8, addend: 0x0, symName: __ZN6parlay7JobImplIZNS_19fork_join_scheduler7parfor_IZNS_8sequenceI14edge_with_flagINSt3__15tupleIJlldEEEENS_9allocatorIS8_EELb0EEC1IZ15batchInsertEdgeIldZ12incrementMSTIldEvRNS3_I7clusterIT_T0_ENS9_ISI_EEXsr3std7is_sameISI_cEE5valueEEERKNS3_INS6_IJSG_SG_SH_EEENS9_ISM_EEXsr3std7is_sameISM_cEE5valueEEEEUlddE_EvRKNS3_INS5_4pairISG_SG_EENS9_IST_EEXsr3std7is_sameIST_cEE5valueEEESQ_SL_SH_T1_EUllE2_EEmOSG_NSB_18_from_function_tagEmEUlmE_EEvRNS_9schedulerINS_15WorkStealingJobEEEmmRSG_mbEUlvE0_E7executeEv, symObjAddr: 0x52620, symBinAddr: 0x1000549C8, symSize: 0x24 }
  - { offset: 0x2FAB26, size: 0x8, addend: 0x0, symName: __ZN6parlay7JobImplIZNS_19fork_join_scheduler7parfor_IZ15batchInsertEdgeIldZ12incrementMSTIldEvRNS_8sequenceI7clusterIT_T0_ENS_9allocatorIS9_EEXsr3std7is_sameIS9_cEE5valueEEERKNS5_INSt3__15tupleIJS7_S7_S8_EEENSA_ISG_EEXsr3std7is_sameISG_cEE5valueEEEEUlddE_EvRKNS5_INSE_4pairIS7_S7_EENSA_ISN_EEXsr3std7is_sameISN_cEE5valueEEESK_SD_S8_T1_EUllE1_EEvRNS_9schedulerINS_15WorkStealingJobEEEmmRS7_mbEUlvE0_ED1Ev, symObjAddr: 0x52C64, symBinAddr: 0x10005500C, symSize: 0x4 }
  - { offset: 0x2FAB51, size: 0x8, addend: 0x0, symName: __ZN6parlay7JobImplIZNS_19fork_join_scheduler7parfor_IZ15batchInsertEdgeIldZ12incrementMSTIldEvRNS_8sequenceI7clusterIT_T0_ENS_9allocatorIS9_EEXsr3std7is_sameIS9_cEE5valueEEERKNS5_INSt3__15tupleIJS7_S7_S8_EEENSA_ISG_EEXsr3std7is_sameISG_cEE5valueEEEEUlddE_EvRKNS5_INSE_4pairIS7_S7_EENSA_ISN_EEXsr3std7is_sameISN_cEE5valueEEESK_SD_S8_T1_EUllE1_EEvRNS_9schedulerINS_15WorkStealingJobEEEmmRS7_mbEUlvE0_ED0Ev, symObjAddr: 0x52C68, symBinAddr: 0x100055010, symSize: 0x4 }
  - { offset: 0x2FAB7C, size: 0x8, addend: 0x0, symName: __ZN6parlay7JobImplIZNS_19fork_join_scheduler7parfor_IZ15batchInsertEdgeIldZ12incrementMSTIldEvRNS_8sequenceI7clusterIT_T0_ENS_9allocatorIS9_EEXsr3std7is_sameIS9_cEE5valueEEERKNS5_INSt3__15tupleIJS7_S7_S8_EEENSA_ISG_EEXsr3std7is_sameISG_cEE5valueEEEEUlddE_EvRKNS5_INSE_4pairIS7_S7_EENSA_ISN_EEXsr3std7is_sameISN_cEE5valueEEESK_SD_S8_T1_EUllE1_EEvRNS_9schedulerINS_15WorkStealingJobEEEmmRS7_mbEUlvE0_E7executeEv, symObjAddr: 0x52C6C, symBinAddr: 0x100055014, symSize: 0xD4 }
  - { offset: 0x2FAF29, size: 0x8, addend: 0x0, symName: __ZN6parlay7JobImplIZNS_19fork_join_scheduler7parfor_IZNS_8internal10sliced_forIZNS3_10filter_mapINS_5sliceIPP4nodeIldESA_EEZ8tiebreakIldENS_8sequenceIPS7_IT_T0_ENS_9allocatorISH_EEXsr3std7is_sameISH_cEE5valueEEERSK_EUlSE_E_RZNS3_6filterISB_SM_EENSD_INSE_10value_typeENSI_ISO_EEXsr3std7is_sameISO_cEE5valueEEERKSE_OSF_EUlOSE_E_EEDaSS_ST_OT1_EUlmmmE0_EEvmmSS_jEUlmE_EEvRNS_9schedulerINS_15WorkStealingJobEEEmmRSE_mbEUlvE0_ED1Ev, symObjAddr: 0x533A8, symBinAddr: 0x100055750, symSize: 0x4 }
  - { offset: 0x2FAF54, size: 0x8, addend: 0x0, symName: __ZN6parlay7JobImplIZNS_19fork_join_scheduler7parfor_IZNS_8internal10sliced_forIZNS3_10filter_mapINS_5sliceIPP4nodeIldESA_EEZ8tiebreakIldENS_8sequenceIPS7_IT_T0_ENS_9allocatorISH_EEXsr3std7is_sameISH_cEE5valueEEERSK_EUlSE_E_RZNS3_6filterISB_SM_EENSD_INSE_10value_typeENSI_ISO_EEXsr3std7is_sameISO_cEE5valueEEERKSE_OSF_EUlOSE_E_EEDaSS_ST_OT1_EUlmmmE0_EEvmmSS_jEUlmE_EEvRNS_9schedulerINS_15WorkStealingJobEEEmmRSE_mbEUlvE0_ED0Ev, symObjAddr: 0x533AC, symBinAddr: 0x100055754, symSize: 0x4 }
  - { offset: 0x2FAF7F, size: 0x8, addend: 0x0, symName: __ZN6parlay7JobImplIZNS_19fork_join_scheduler7parfor_IZNS_8internal10sliced_forIZNS3_10filter_mapINS_5sliceIPP4nodeIldESA_EEZ8tiebreakIldENS_8sequenceIPS7_IT_T0_ENS_9allocatorISH_EEXsr3std7is_sameISH_cEE5valueEEERSK_EUlSE_E_RZNS3_6filterISB_SM_EENSD_INSE_10value_typeENSI_ISO_EEXsr3std7is_sameISO_cEE5valueEEERKSE_OSF_EUlOSE_E_EEDaSS_ST_OT1_EUlmmmE0_EEvmmSS_jEUlmE_EEvRNS_9schedulerINS_15WorkStealingJobEEEmmRSE_mbEUlvE0_E7executeEv, symObjAddr: 0x533B0, symBinAddr: 0x100055758, symSize: 0x24 }
  - { offset: 0x2FB2C4, size: 0x8, addend: 0x0, symName: __ZN6parlay7JobImplIZNS_19fork_join_scheduler7parfor_IZNS_8internal10sliced_forIZNS3_10filter_mapINS_5sliceIPP4nodeIldESA_EEZ8tiebreakIldENS_8sequenceIPS7_IT_T0_ENS_9allocatorISH_EEXsr3std7is_sameISH_cEE5valueEEERSK_EUlSE_E_RZNS3_6filterISB_SM_EENSD_INSE_10value_typeENSI_ISO_EEXsr3std7is_sameISO_cEE5valueEEERKSE_OSF_EUlOSE_E_EEDaSS_ST_OT1_EUlmmmE_EEvmmSS_jEUlmE_EEvRNS_9schedulerINS_15WorkStealingJobEEEmmRSE_mbEUlvE0_ED1Ev, symObjAddr: 0x53CF8, symBinAddr: 0x1000560A0, symSize: 0x4 }
  - { offset: 0x2FB2EF, size: 0x8, addend: 0x0, symName: __ZN6parlay7JobImplIZNS_19fork_join_scheduler7parfor_IZNS_8internal10sliced_forIZNS3_10filter_mapINS_5sliceIPP4nodeIldESA_EEZ8tiebreakIldENS_8sequenceIPS7_IT_T0_ENS_9allocatorISH_EEXsr3std7is_sameISH_cEE5valueEEERSK_EUlSE_E_RZNS3_6filterISB_SM_EENSD_INSE_10value_typeENSI_ISO_EEXsr3std7is_sameISO_cEE5valueEEERKSE_OSF_EUlOSE_E_EEDaSS_ST_OT1_EUlmmmE_EEvmmSS_jEUlmE_EEvRNS_9schedulerINS_15WorkStealingJobEEEmmRSE_mbEUlvE0_ED0Ev, symObjAddr: 0x53CFC, symBinAddr: 0x1000560A4, symSize: 0x4 }
  - { offset: 0x2FB31A, size: 0x8, addend: 0x0, symName: __ZN6parlay7JobImplIZNS_19fork_join_scheduler7parfor_IZNS_8internal10sliced_forIZNS3_10filter_mapINS_5sliceIPP4nodeIldESA_EEZ8tiebreakIldENS_8sequenceIPS7_IT_T0_ENS_9allocatorISH_EEXsr3std7is_sameISH_cEE5valueEEERSK_EUlSE_E_RZNS3_6filterISB_SM_EENSD_INSE_10value_typeENSI_ISO_EEXsr3std7is_sameISO_cEE5valueEEERKSE_OSF_EUlOSE_E_EEDaSS_ST_OT1_EUlmmmE_EEvmmSS_jEUlmE_EEvRNS_9schedulerINS_15WorkStealingJobEEEmmRSE_mbEUlvE0_E7executeEv, symObjAddr: 0x53D00, symBinAddr: 0x1000560A8, symSize: 0x24 }
  - { offset: 0x2FB58B, size: 0x8, addend: 0x0, symName: __ZN6parlay7JobImplIZNS_19fork_join_scheduler7parfor_IZ8tiebreakIldENS_8sequenceIP4nodeIT_T0_ENS_9allocatorIS9_EEXsr3std7is_sameIS9_cEE5valueEEERSC_EUllE0_EEvRNS_9schedulerINS_15WorkStealingJobEEEmmRS6_mbEUlvE0_ED1Ev, symObjAddr: 0x54394, symBinAddr: 0x10005673C, symSize: 0x4 }
  - { offset: 0x2FB5B6, size: 0x8, addend: 0x0, symName: __ZN6parlay7JobImplIZNS_19fork_join_scheduler7parfor_IZ8tiebreakIldENS_8sequenceIP4nodeIT_T0_ENS_9allocatorIS9_EEXsr3std7is_sameIS9_cEE5valueEEERSC_EUllE0_EEvRNS_9schedulerINS_15WorkStealingJobEEEmmRS6_mbEUlvE0_ED0Ev, symObjAddr: 0x54398, symBinAddr: 0x100056740, symSize: 0x4 }
  - { offset: 0x2FB5E1, size: 0x8, addend: 0x0, symName: __ZN6parlay7JobImplIZNS_19fork_join_scheduler7parfor_IZ8tiebreakIldENS_8sequenceIP4nodeIT_T0_ENS_9allocatorIS9_EEXsr3std7is_sameIS9_cEE5valueEEERSC_EUllE0_EEvRNS_9schedulerINS_15WorkStealingJobEEEmmRS6_mbEUlvE0_E7executeEv, symObjAddr: 0x5439C, symBinAddr: 0x100056744, symSize: 0xEC }
  - { offset: 0x2FB96E, size: 0x8, addend: 0x0, symName: __ZN6parlay7JobImplIZNS_19fork_join_scheduler7parfor_IZ8tiebreakIldENS_8sequenceIP4nodeIT_T0_ENS_9allocatorIS9_EEXsr3std7is_sameIS9_cEE5valueEEERSC_EUllE_EEvRNS_9schedulerINS_15WorkStealingJobEEEmmRS6_mbEUlvE0_ED1Ev, symObjAddr: 0x54AE4, symBinAddr: 0x100056E8C, symSize: 0x4 }
  - { offset: 0x2FB999, size: 0x8, addend: 0x0, symName: __ZN6parlay7JobImplIZNS_19fork_join_scheduler7parfor_IZ8tiebreakIldENS_8sequenceIP4nodeIT_T0_ENS_9allocatorIS9_EEXsr3std7is_sameIS9_cEE5valueEEERSC_EUllE_EEvRNS_9schedulerINS_15WorkStealingJobEEEmmRS6_mbEUlvE0_ED0Ev, symObjAddr: 0x54AE8, symBinAddr: 0x100056E90, symSize: 0x4 }
  - { offset: 0x2FB9C4, size: 0x8, addend: 0x0, symName: __ZN6parlay7JobImplIZNS_19fork_join_scheduler7parfor_IZ8tiebreakIldENS_8sequenceIP4nodeIT_T0_ENS_9allocatorIS9_EEXsr3std7is_sameIS9_cEE5valueEEERSC_EUllE_EEvRNS_9schedulerINS_15WorkStealingJobEEEmmRS6_mbEUlvE0_E7executeEv, symObjAddr: 0x54AEC, symBinAddr: 0x100056E94, symSize: 0xE4 }
  - { offset: 0x2FBAC7, size: 0x8, addend: 0x0, symName: __ZN6parlay8sequenceIP4nodeIldENS_9allocatorIS3_EELb0EEC2EmRKS3_, symObjAddr: 0x55438, symBinAddr: 0x1000577E0, symSize: 0x1D0 }
  - { offset: 0x2FC287, size: 0x8, addend: 0x0, symName: __ZN6parlay7JobImplIZNS_19fork_join_scheduler7parfor_IZNS_8sequenceINS3_IP4nodeIldENS_9allocatorIS6_EELb0EEENS7_IS9_EELb0EEC1IZ8get_3dp1IldENS3_IPS4_IT_T0_ENS7_ISH_EEXsr3std7is_sameISH_cEE5valueEEERSJ_EUllE0_EEmOSE_NSB_18_from_function_tagEmEUlmE_EEvRNS_9schedulerINS_15WorkStealingJobEEEmmRSE_mbEUlvE0_ED1Ev, symObjAddr: 0x5540C, symBinAddr: 0x1000577B4, symSize: 0x4 }
  - { offset: 0x2FC2B2, size: 0x8, addend: 0x0, symName: __ZN6parlay7JobImplIZNS_19fork_join_scheduler7parfor_IZNS_8sequenceINS3_IP4nodeIldENS_9allocatorIS6_EELb0EEENS7_IS9_EELb0EEC1IZ8get_3dp1IldENS3_IPS4_IT_T0_ENS7_ISH_EEXsr3std7is_sameISH_cEE5valueEEERSJ_EUllE0_EEmOSE_NSB_18_from_function_tagEmEUlmE_EEvRNS_9schedulerINS_15WorkStealingJobEEEmmRSE_mbEUlvE0_ED0Ev, symObjAddr: 0x55410, symBinAddr: 0x1000577B8, symSize: 0x4 }
  - { offset: 0x2FC2DD, size: 0x8, addend: 0x0, symName: __ZN6parlay7JobImplIZNS_19fork_join_scheduler7parfor_IZNS_8sequenceINS3_IP4nodeIldENS_9allocatorIS6_EELb0EEENS7_IS9_EELb0EEC1IZ8get_3dp1IldENS3_IPS4_IT_T0_ENS7_ISH_EEXsr3std7is_sameISH_cEE5valueEEERSJ_EUllE0_EEmOSE_NSB_18_from_function_tagEmEUlmE_EEvRNS_9schedulerINS_15WorkStealingJobEEEmmRSE_mbEUlvE0_E7executeEv, symObjAddr: 0x55414, symBinAddr: 0x1000577BC, symSize: 0x24 }
  - { offset: 0x2FC69A, size: 0x8, addend: 0x0, symName: __ZN6parlay7JobImplIZNS_19fork_join_scheduler7parfor_IZNS_8sequenceINS3_IP4nodeIldENS_9allocatorIS6_EELb0EEENS7_IS9_EELb0EEC1IZ8get_3dp1IldENS3_IPS4_IT_T0_ENS7_ISH_EEXsr3std7is_sameISH_cEE5valueEEERSJ_EUllE_EEmOSE_NSB_18_from_function_tagEmEUlmE_EEvRNS_9schedulerINS_15WorkStealingJobEEEmmRSE_mbEUlvE0_ED1Ev, symObjAddr: 0x55D48, symBinAddr: 0x1000580F0, symSize: 0x4 }
  - { offset: 0x2FC6C5, size: 0x8, addend: 0x0, symName: __ZN6parlay7JobImplIZNS_19fork_join_scheduler7parfor_IZNS_8sequenceINS3_IP4nodeIldENS_9allocatorIS6_EELb0EEENS7_IS9_EELb0EEC1IZ8get_3dp1IldENS3_IPS4_IT_T0_ENS7_ISH_EEXsr3std7is_sameISH_cEE5valueEEERSJ_EUllE_EEmOSE_NSB_18_from_function_tagEmEUlmE_EEvRNS_9schedulerINS_15WorkStealingJobEEEmmRSE_mbEUlvE0_ED0Ev, symObjAddr: 0x55D4C, symBinAddr: 0x1000580F4, symSize: 0x4 }
  - { offset: 0x2FC6F0, size: 0x8, addend: 0x0, symName: __ZN6parlay7JobImplIZNS_19fork_join_scheduler7parfor_IZNS_8sequenceINS3_IP4nodeIldENS_9allocatorIS6_EELb0EEENS7_IS9_EELb0EEC1IZ8get_3dp1IldENS3_IPS4_IT_T0_ENS7_ISH_EEXsr3std7is_sameISH_cEE5valueEEERSJ_EUllE_EEmOSE_NSB_18_from_function_tagEmEUlmE_EEvRNS_9schedulerINS_15WorkStealingJobEEEmmRSE_mbEUlvE0_E7executeEv, symObjAddr: 0x55D50, symBinAddr: 0x1000580F8, symSize: 0x24 }
  - { offset: 0x2FCA35, size: 0x8, addend: 0x0, symName: __ZN6parlay7JobImplIZNS_19fork_join_scheduler7parfor_IZNS_8internal10sliced_forIZNS3_10filter_mapINS_5sliceIPP4nodeIldESA_EEZ15batchInsertEdgeIldZ12incrementMSTIldEvRNS_8sequenceI7clusterIT_T0_ENS_9allocatorISI_EEXsr3std7is_sameISI_cEE5valueEEERKNSE_INSt3__15tupleIJSG_SG_SH_EEENSJ_ISP_EEXsr3std7is_sameISP_cEE5valueEEEEUlddE_EvRKNSE_INSN_4pairISG_SG_EENSJ_ISW_EEXsr3std7is_sameISW_cEE5valueEEEST_SM_SH_T1_EUlSG_E_RZNS3_6filterISB_S12_EENSE_INSG_10value_typeENSJ_IS14_EEXsr3std7is_sameIS14_cEE5valueEEERKSG_OSH_EUlOSG_E_EEDaS18_S19_OS11_EUlmmmE0_EEvmmS18_jEUlmE_EEvRNS_9schedulerINS_15WorkStealingJobEEEmmRSG_mbEUlvE0_ED1Ev, symObjAddr: 0x563DC, symBinAddr: 0x100058784, symSize: 0x4 }
  - { offset: 0x2FCA60, size: 0x8, addend: 0x0, symName: __ZN6parlay7JobImplIZNS_19fork_join_scheduler7parfor_IZNS_8internal10sliced_forIZNS3_10filter_mapINS_5sliceIPP4nodeIldESA_EEZ15batchInsertEdgeIldZ12incrementMSTIldEvRNS_8sequenceI7clusterIT_T0_ENS_9allocatorISI_EEXsr3std7is_sameISI_cEE5valueEEERKNSE_INSt3__15tupleIJSG_SG_SH_EEENSJ_ISP_EEXsr3std7is_sameISP_cEE5valueEEEEUlddE_EvRKNSE_INSN_4pairISG_SG_EENSJ_ISW_EEXsr3std7is_sameISW_cEE5valueEEEST_SM_SH_T1_EUlSG_E_RZNS3_6filterISB_S12_EENSE_INSG_10value_typeENSJ_IS14_EEXsr3std7is_sameIS14_cEE5valueEEERKSG_OSH_EUlOSG_E_EEDaS18_S19_OS11_EUlmmmE0_EEvmmS18_jEUlmE_EEvRNS_9schedulerINS_15WorkStealingJobEEEmmRSG_mbEUlvE0_ED0Ev, symObjAddr: 0x563E0, symBinAddr: 0x100058788, symSize: 0x4 }
  - { offset: 0x2FCA8B, size: 0x8, addend: 0x0, symName: __ZN6parlay7JobImplIZNS_19fork_join_scheduler7parfor_IZNS_8internal10sliced_forIZNS3_10filter_mapINS_5sliceIPP4nodeIldESA_EEZ15batchInsertEdgeIldZ12incrementMSTIldEvRNS_8sequenceI7clusterIT_T0_ENS_9allocatorISI_EEXsr3std7is_sameISI_cEE5valueEEERKNSE_INSt3__15tupleIJSG_SG_SH_EEENSJ_ISP_EEXsr3std7is_sameISP_cEE5valueEEEEUlddE_EvRKNSE_INSN_4pairISG_SG_EENSJ_ISW_EEXsr3std7is_sameISW_cEE5valueEEEST_SM_SH_T1_EUlSG_E_RZNS3_6filterISB_S12_EENSE_INSG_10value_typeENSJ_IS14_EEXsr3std7is_sameIS14_cEE5valueEEERKSG_OSH_EUlOSG_E_EEDaS18_S19_OS11_EUlmmmE0_EEvmmS18_jEUlmE_EEvRNS_9schedulerINS_15WorkStealingJobEEEmmRSG_mbEUlvE0_E7executeEv, symObjAddr: 0x563E4, symBinAddr: 0x10005878C, symSize: 0x24 }
  - { offset: 0x2FCDD0, size: 0x8, addend: 0x0, symName: __ZN6parlay7JobImplIZNS_19fork_join_scheduler7parfor_IZNS_8internal10sliced_forIZNS3_10filter_mapINS_5sliceIPP4nodeIldESA_EEZ15batchInsertEdgeIldZ12incrementMSTIldEvRNS_8sequenceI7clusterIT_T0_ENS_9allocatorISI_EEXsr3std7is_sameISI_cEE5valueEEERKNSE_INSt3__15tupleIJSG_SG_SH_EEENSJ_ISP_EEXsr3std7is_sameISP_cEE5valueEEEEUlddE_EvRKNSE_INSN_4pairISG_SG_EENSJ_ISW_EEXsr3std7is_sameISW_cEE5valueEEEST_SM_SH_T1_EUlSG_E_RZNS3_6filterISB_S12_EENSE_INSG_10value_typeENSJ_IS14_EEXsr3std7is_sameIS14_cEE5valueEEERKSG_OSH_EUlOSG_E_EEDaS18_S19_OS11_EUlmmmE_EEvmmS18_jEUlmE_EEvRNS_9schedulerINS_15WorkStealingJobEEEmmRSG_mbEUlvE0_ED1Ev, symObjAddr: 0x56A38, symBinAddr: 0x100058DE0, symSize: 0x4 }
  - { offset: 0x2FCDFB, size: 0x8, addend: 0x0, symName: __ZN6parlay7JobImplIZNS_19fork_join_scheduler7parfor_IZNS_8internal10sliced_forIZNS3_10filter_mapINS_5sliceIPP4nodeIldESA_EEZ15batchInsertEdgeIldZ12incrementMSTIldEvRNS_8sequenceI7clusterIT_T0_ENS_9allocatorISI_EEXsr3std7is_sameISI_cEE5valueEEERKNSE_INSt3__15tupleIJSG_SG_SH_EEENSJ_ISP_EEXsr3std7is_sameISP_cEE5valueEEEEUlddE_EvRKNSE_INSN_4pairISG_SG_EENSJ_ISW_EEXsr3std7is_sameISW_cEE5valueEEEST_SM_SH_T1_EUlSG_E_RZNS3_6filterISB_S12_EENSE_INSG_10value_typeENSJ_IS14_EEXsr3std7is_sameIS14_cEE5valueEEERKSG_OSH_EUlOSG_E_EEDaS18_S19_OS11_EUlmmmE_EEvmmS18_jEUlmE_EEvRNS_9schedulerINS_15WorkStealingJobEEEmmRSG_mbEUlvE0_ED0Ev, symObjAddr: 0x56A3C, symBinAddr: 0x100058DE4, symSize: 0x4 }
  - { offset: 0x2FCE26, size: 0x8, addend: 0x0, symName: __ZN6parlay7JobImplIZNS_19fork_join_scheduler7parfor_IZNS_8internal10sliced_forIZNS3_10filter_mapINS_5sliceIPP4nodeIldESA_EEZ15batchInsertEdgeIldZ12incrementMSTIldEvRNS_8sequenceI7clusterIT_T0_ENS_9allocatorISI_EEXsr3std7is_sameISI_cEE5valueEEERKNSE_INSt3__15tupleIJSG_SG_SH_EEENSJ_ISP_EEXsr3std7is_sameISP_cEE5valueEEEEUlddE_EvRKNSE_INSN_4pairISG_SG_EENSJ_ISW_EEXsr3std7is_sameISW_cEE5valueEEEST_SM_SH_T1_EUlSG_E_RZNS3_6filterISB_S12_EENSE_INSG_10value_typeENSJ_IS14_EEXsr3std7is_sameIS14_cEE5valueEEERKSG_OSH_EUlOSG_E_EEDaS18_S19_OS11_EUlmmmE_EEvmmS18_jEUlmE_EEvRNS_9schedulerINS_15WorkStealingJobEEEmmRSG_mbEUlvE0_E7executeEv, symObjAddr: 0x56A40, symBinAddr: 0x100058DE8, symSize: 0x24 }
  - { offset: 0x2FD097, size: 0x8, addend: 0x0, symName: __ZN6parlay7JobImplIZNS_19fork_join_scheduler7parfor_IZ15batchInsertEdgeIldZ12incrementMSTIldEvRNS_8sequenceI7clusterIT_T0_ENS_9allocatorIS9_EEXsr3std7is_sameIS9_cEE5valueEEERKNS5_INSt3__15tupleIJS7_S7_S8_EEENSA_ISG_EEXsr3std7is_sameISG_cEE5valueEEEEUlddE_EvRKNS5_INSE_4pairIS7_S7_EENSA_ISN_EEXsr3std7is_sameISN_cEE5valueEEESK_SD_S8_T1_EUllE0_EEvRNS_9schedulerINS_15WorkStealingJobEEEmmRS7_mbEUlvE0_ED1Ev, symObjAddr: 0x570CC, symBinAddr: 0x100059474, symSize: 0x4 }
  - { offset: 0x2FD0C2, size: 0x8, addend: 0x0, symName: __ZN6parlay7JobImplIZNS_19fork_join_scheduler7parfor_IZ15batchInsertEdgeIldZ12incrementMSTIldEvRNS_8sequenceI7clusterIT_T0_ENS_9allocatorIS9_EEXsr3std7is_sameIS9_cEE5valueEEERKNS5_INSt3__15tupleIJS7_S7_S8_EEENSA_ISG_EEXsr3std7is_sameISG_cEE5valueEEEEUlddE_EvRKNS5_INSE_4pairIS7_S7_EENSA_ISN_EEXsr3std7is_sameISN_cEE5valueEEESK_SD_S8_T1_EUllE0_EEvRNS_9schedulerINS_15WorkStealingJobEEEmmRS7_mbEUlvE0_ED0Ev, symObjAddr: 0x570D0, symBinAddr: 0x100059478, symSize: 0x4 }
  - { offset: 0x2FD0ED, size: 0x8, addend: 0x0, symName: __ZN6parlay7JobImplIZNS_19fork_join_scheduler7parfor_IZ15batchInsertEdgeIldZ12incrementMSTIldEvRNS_8sequenceI7clusterIT_T0_ENS_9allocatorIS9_EEXsr3std7is_sameIS9_cEE5valueEEERKNS5_INSt3__15tupleIJS7_S7_S8_EEENSA_ISG_EEXsr3std7is_sameISG_cEE5valueEEEEUlddE_EvRKNS5_INSE_4pairIS7_S7_EENSA_ISN_EEXsr3std7is_sameISN_cEE5valueEEESK_SD_S8_T1_EUllE0_EEvRNS_9schedulerINS_15WorkStealingJobEEEmmRS7_mbEUlvE0_E7executeEv, symObjAddr: 0x570D4, symBinAddr: 0x10005947C, symSize: 0xE8 }
  - { offset: 0x2FD563, size: 0x8, addend: 0x0, symName: __ZN6parlay7JobImplIZNS_19fork_join_scheduler7parfor_IZNS_17sequence_internal13sequence_baseINS_8sequenceIP4nodeIldENS_9allocatorIS8_EELb0EEENS9_ISB_EELb0EE12storage_impl11destroy_allEvEUlmE_EEvRNS_9schedulerINS_15WorkStealingJobEEEmmRT_mbEUlvE0_ED1Ev, symObjAddr: 0x57750, symBinAddr: 0x100059AF8, symSize: 0x4 }
  - { offset: 0x2FD58E, size: 0x8, addend: 0x0, symName: __ZN6parlay7JobImplIZNS_19fork_join_scheduler7parfor_IZNS_17sequence_internal13sequence_baseINS_8sequenceIP4nodeIldENS_9allocatorIS8_EELb0EEENS9_ISB_EELb0EE12storage_impl11destroy_allEvEUlmE_EEvRNS_9schedulerINS_15WorkStealingJobEEEmmRT_mbEUlvE0_ED0Ev, symObjAddr: 0x57754, symBinAddr: 0x100059AFC, symSize: 0x4 }
  - { offset: 0x2FD5B9, size: 0x8, addend: 0x0, symName: __ZN6parlay7JobImplIZNS_19fork_join_scheduler7parfor_IZNS_17sequence_internal13sequence_baseINS_8sequenceIP4nodeIldENS_9allocatorIS8_EELb0EEENS9_ISB_EELb0EE12storage_impl11destroy_allEvEUlmE_EEvRNS_9schedulerINS_15WorkStealingJobEEEmmRT_mbEUlvE0_E7executeEv, symObjAddr: 0x57758, symBinAddr: 0x100059B00, symSize: 0x24 }
  - { offset: 0x2FD8FE, size: 0x8, addend: 0x0, symName: __ZN6parlay7JobImplIZNS_19fork_join_scheduler7parfor_IZNS_7flattenIP4nodeIldEEEDaONS_8sequenceINS8_IT_NS_9allocatorIS9_EEXsr3std7is_sameIS9_cEE5valueEEENSA_ISC_EEXsr3std7is_sameISC_cEE5valueEEEEUlmE0_EEvRNS_9schedulerINS_15WorkStealingJobEEEmmRS9_mbEUlvE0_ED1Ev, symObjAddr: 0x57F4C, symBinAddr: 0x10005A2F4, symSize: 0x4 }
  - { offset: 0x2FD929, size: 0x8, addend: 0x0, symName: __ZN6parlay7JobImplIZNS_19fork_join_scheduler7parfor_IZNS_7flattenIP4nodeIldEEEDaONS_8sequenceINS8_IT_NS_9allocatorIS9_EEXsr3std7is_sameIS9_cEE5valueEEENSA_ISC_EEXsr3std7is_sameISC_cEE5valueEEEEUlmE0_EEvRNS_9schedulerINS_15WorkStealingJobEEEmmRS9_mbEUlvE0_ED0Ev, symObjAddr: 0x57F50, symBinAddr: 0x10005A2F8, symSize: 0x4 }
  - { offset: 0x2FD954, size: 0x8, addend: 0x0, symName: __ZN6parlay7JobImplIZNS_19fork_join_scheduler7parfor_IZNS_7flattenIP4nodeIldEEEDaONS_8sequenceINS8_IT_NS_9allocatorIS9_EEXsr3std7is_sameIS9_cEE5valueEEENSA_ISC_EEXsr3std7is_sameISC_cEE5valueEEEEUlmE0_EEvRNS_9schedulerINS_15WorkStealingJobEEEmmRS9_mbEUlvE0_E7executeEv, symObjAddr: 0x57F54, symBinAddr: 0x10005A2FC, symSize: 0x24 }
  - { offset: 0x2FDBC5, size: 0x8, addend: 0x0, symName: __ZN6parlay7JobImplIZNS_19fork_join_scheduler7parfor_IZNS_24uninitialized_relocate_nIPP4nodeIldElS7_EENSt3__14pairIT_T1_EESA_T0_SB_EUlmE_EEvRNS_9schedulerINS_15WorkStealingJobEEEmmRSA_mbEUlvE0_ED1Ev, symObjAddr: 0x58600, symBinAddr: 0x10005A9A8, symSize: 0x4 }
  - { offset: 0x2FDBF0, size: 0x8, addend: 0x0, symName: __ZN6parlay7JobImplIZNS_19fork_join_scheduler7parfor_IZNS_24uninitialized_relocate_nIPP4nodeIldElS7_EENSt3__14pairIT_T1_EESA_T0_SB_EUlmE_EEvRNS_9schedulerINS_15WorkStealingJobEEEmmRSA_mbEUlvE0_ED0Ev, symObjAddr: 0x58604, symBinAddr: 0x10005A9AC, symSize: 0x4 }
  - { offset: 0x2FDC1B, size: 0x8, addend: 0x0, symName: __ZN6parlay7JobImplIZNS_19fork_join_scheduler7parfor_IZNS_24uninitialized_relocate_nIPP4nodeIldElS7_EENSt3__14pairIT_T1_EESA_T0_SB_EUlmE_EEvRNS_9schedulerINS_15WorkStealingJobEEEmmRSA_mbEUlvE0_E7executeEv, symObjAddr: 0x58608, symBinAddr: 0x10005A9B0, symSize: 0x108 }
  - { offset: 0x2FDF6D, size: 0x8, addend: 0x0, symName: __ZN6parlay7JobImplIZNS_19fork_join_scheduler7parfor_IZNS_8sequenceImNS_9allocatorImEELb0EEC1IZNS_7flattenIP4nodeIldEEEDaONS3_INS3_IT_NS4_ISD_EEXsr3std7is_sameISD_cEE5valueEEENS4_ISF_EEXsr3std7is_sameISF_cEE5valueEEEEUlmE_EEmOSD_NS6_18_from_function_tagEmEUlmE_EEvRNS_9schedulerINS_15WorkStealingJobEEEmmRSD_mbEUlvE0_ED1Ev, symObjAddr: 0x58F40, symBinAddr: 0x10005B2E8, symSize: 0x4 }
  - { offset: 0x2FDF98, size: 0x8, addend: 0x0, symName: __ZN6parlay7JobImplIZNS_19fork_join_scheduler7parfor_IZNS_8sequenceImNS_9allocatorImEELb0EEC1IZNS_7flattenIP4nodeIldEEEDaONS3_INS3_IT_NS4_ISD_EEXsr3std7is_sameISD_cEE5valueEEENS4_ISF_EEXsr3std7is_sameISF_cEE5valueEEEEUlmE_EEmOSD_NS6_18_from_function_tagEmEUlmE_EEvRNS_9schedulerINS_15WorkStealingJobEEEmmRSD_mbEUlvE0_ED0Ev, symObjAddr: 0x58F44, symBinAddr: 0x10005B2EC, symSize: 0x4 }
  - { offset: 0x2FDFC3, size: 0x8, addend: 0x0, symName: __ZN6parlay7JobImplIZNS_19fork_join_scheduler7parfor_IZNS_8sequenceImNS_9allocatorImEELb0EEC1IZNS_7flattenIP4nodeIldEEEDaONS3_INS3_IT_NS4_ISD_EEXsr3std7is_sameISD_cEE5valueEEENS4_ISF_EEXsr3std7is_sameISF_cEE5valueEEEEUlmE_EEmOSD_NS6_18_from_function_tagEmEUlmE_EEvRNS_9schedulerINS_15WorkStealingJobEEEmmRSD_mbEUlvE0_E7executeEv, symObjAddr: 0x58F48, symBinAddr: 0x10005B2F0, symSize: 0x1D0 }
  - { offset: 0x2FE4E1, size: 0x8, addend: 0x0, symName: __ZN6parlay7JobImplIZNS_19fork_join_scheduler7parfor_IZNS_8sequenceINS3_IP4nodeIldENS_9allocatorIS6_EELb0EEENS7_IS9_EELb0EEC1IZ15batchInsertEdgeIldZ12incrementMSTIldEvRNS3_I7clusterIT_T0_ENS7_ISI_EEXsr3std7is_sameISI_cEE5valueEEERKNS3_INSt3__15tupleIJSG_SG_SH_EEENS7_ISO_EEXsr3std7is_sameISO_cEE5valueEEEEUlddE_EvRKNS3_INSM_4pairISG_SG_EENS7_ISV_EEXsr3std7is_sameISV_cEE5valueEEESS_SL_SH_T1_EUllE_EEmOSG_NSB_18_from_function_tagEmEUlmE_EEvRNS_9schedulerINS_15WorkStealingJobEEEmmRSG_mbEUlvE0_ED1Ev, symObjAddr: 0x598F0, symBinAddr: 0x10005BC98, symSize: 0x4 }
  - { offset: 0x2FE50C, size: 0x8, addend: 0x0, symName: __ZN6parlay7JobImplIZNS_19fork_join_scheduler7parfor_IZNS_8sequenceINS3_IP4nodeIldENS_9allocatorIS6_EELb0EEENS7_IS9_EELb0EEC1IZ15batchInsertEdgeIldZ12incrementMSTIldEvRNS3_I7clusterIT_T0_ENS7_ISI_EEXsr3std7is_sameISI_cEE5valueEEERKNS3_INSt3__15tupleIJSG_SG_SH_EEENS7_ISO_EEXsr3std7is_sameISO_cEE5valueEEEEUlddE_EvRKNS3_INSM_4pairISG_SG_EENS7_ISV_EEXsr3std7is_sameISV_cEE5valueEEESS_SL_SH_T1_EUllE_EEmOSG_NSB_18_from_function_tagEmEUlmE_EEvRNS_9schedulerINS_15WorkStealingJobEEEmmRSG_mbEUlvE0_ED0Ev, symObjAddr: 0x598F4, symBinAddr: 0x10005BC9C, symSize: 0x4 }
  - { offset: 0x2FE537, size: 0x8, addend: 0x0, symName: __ZN6parlay7JobImplIZNS_19fork_join_scheduler7parfor_IZNS_8sequenceINS3_IP4nodeIldENS_9allocatorIS6_EELb0EEENS7_IS9_EELb0EEC1IZ15batchInsertEdgeIldZ12incrementMSTIldEvRNS3_I7clusterIT_T0_ENS7_ISI_EEXsr3std7is_sameISI_cEE5valueEEERKNS3_INSt3__15tupleIJSG_SG_SH_EEENS7_ISO_EEXsr3std7is_sameISO_cEE5valueEEEEUlddE_EvRKNS3_INSM_4pairISG_SG_EENS7_ISV_EEXsr3std7is_sameISV_cEE5valueEEESS_SL_SH_T1_EUllE_EEmOSG_NSB_18_from_function_tagEmEUlmE_EEvRNS_9schedulerINS_15WorkStealingJobEEEmmRSG_mbEUlvE0_E7executeEv, symObjAddr: 0x598F8, symBinAddr: 0x10005BCA0, symSize: 0x24 }
  - { offset: 0x2FE87C, size: 0x8, addend: 0x0, symName: __ZN6parlay7JobImplIZNS_19fork_join_scheduler7parfor_IZNS_8internal10sliced_forIZNS3_10filter_mapINS_5sliceIPNSt3__14pairIllEESA_EEZ12incrementMSTIldEvRNS_8sequenceI7clusterIT_T0_ENS_9allocatorISH_EEXsr3std7is_sameISH_cEE5valueEEERKNSD_INS7_5tupleIJSF_SF_SG_EEENSI_ISN_EEXsr3std7is_sameISN_cEE5valueEEEEUlSF_E0_RZNS3_6filterISB_SS_EENSD_INSF_10value_typeENSI_ISU_EEXsr3std7is_sameISU_cEE5valueEEERKSF_OSG_EUlOSF_E_EEDaSY_SZ_OT1_EUlmmmE0_EEvmmSY_jEUlmE_EEvRNS_9schedulerINS_15WorkStealingJobEEEmmRSF_mbEUlvE0_ED1Ev, symObjAddr: 0x5A108, symBinAddr: 0x10005C4B0, symSize: 0x4 }
  - { offset: 0x2FE8A7, size: 0x8, addend: 0x0, symName: __ZN6parlay7JobImplIZNS_19fork_join_scheduler7parfor_IZNS_8internal10sliced_forIZNS3_10filter_mapINS_5sliceIPNSt3__14pairIllEESA_EEZ12incrementMSTIldEvRNS_8sequenceI7clusterIT_T0_ENS_9allocatorISH_EEXsr3std7is_sameISH_cEE5valueEEERKNSD_INS7_5tupleIJSF_SF_SG_EEENSI_ISN_EEXsr3std7is_sameISN_cEE5valueEEEEUlSF_E0_RZNS3_6filterISB_SS_EENSD_INSF_10value_typeENSI_ISU_EEXsr3std7is_sameISU_cEE5valueEEERKSF_OSG_EUlOSF_E_EEDaSY_SZ_OT1_EUlmmmE0_EEvmmSY_jEUlmE_EEvRNS_9schedulerINS_15WorkStealingJobEEEmmRSF_mbEUlvE0_ED0Ev, symObjAddr: 0x5A10C, symBinAddr: 0x10005C4B4, symSize: 0x4 }
  - { offset: 0x2FE8D2, size: 0x8, addend: 0x0, symName: __ZN6parlay7JobImplIZNS_19fork_join_scheduler7parfor_IZNS_8internal10sliced_forIZNS3_10filter_mapINS_5sliceIPNSt3__14pairIllEESA_EEZ12incrementMSTIldEvRNS_8sequenceI7clusterIT_T0_ENS_9allocatorISH_EEXsr3std7is_sameISH_cEE5valueEEERKNSD_INS7_5tupleIJSF_SF_SG_EEENSI_ISN_EEXsr3std7is_sameISN_cEE5valueEEEEUlSF_E0_RZNS3_6filterISB_SS_EENSD_INSF_10value_typeENSI_ISU_EEXsr3std7is_sameISU_cEE5valueEEERKSF_OSG_EUlOSF_E_EEDaSY_SZ_OT1_EUlmmmE0_EEvmmSY_jEUlmE_EEvRNS_9schedulerINS_15WorkStealingJobEEEmmRSF_mbEUlvE0_E7executeEv, symObjAddr: 0x5A110, symBinAddr: 0x10005C4B8, symSize: 0x24 }
  - { offset: 0x2FEC17, size: 0x8, addend: 0x0, symName: __ZN6parlay7JobImplIZNS_19fork_join_scheduler7parfor_IZNS_8internal10sliced_forIZNS3_10filter_mapINS_5sliceIPNSt3__14pairIllEESA_EEZ12incrementMSTIldEvRNS_8sequenceI7clusterIT_T0_ENS_9allocatorISH_EEXsr3std7is_sameISH_cEE5valueEEERKNSD_INS7_5tupleIJSF_SF_SG_EEENSI_ISN_EEXsr3std7is_sameISN_cEE5valueEEEEUlSF_E0_RZNS3_6filterISB_SS_EENSD_INSF_10value_typeENSI_ISU_EEXsr3std7is_sameISU_cEE5valueEEERKSF_OSG_EUlOSF_E_EEDaSY_SZ_OT1_EUlmmmE_EEvmmSY_jEUlmE_EEvRNS_9schedulerINS_15WorkStealingJobEEEmmRSF_mbEUlvE0_ED1Ev, symObjAddr: 0x5A9A0, symBinAddr: 0x10005CD48, symSize: 0x4 }
  - { offset: 0x2FEC42, size: 0x8, addend: 0x0, symName: __ZN6parlay7JobImplIZNS_19fork_join_scheduler7parfor_IZNS_8internal10sliced_forIZNS3_10filter_mapINS_5sliceIPNSt3__14pairIllEESA_EEZ12incrementMSTIldEvRNS_8sequenceI7clusterIT_T0_ENS_9allocatorISH_EEXsr3std7is_sameISH_cEE5valueEEERKNSD_INS7_5tupleIJSF_SF_SG_EEENSI_ISN_EEXsr3std7is_sameISN_cEE5valueEEEEUlSF_E0_RZNS3_6filterISB_SS_EENSD_INSF_10value_typeENSI_ISU_EEXsr3std7is_sameISU_cEE5valueEEERKSF_OSG_EUlOSF_E_EEDaSY_SZ_OT1_EUlmmmE_EEvmmSY_jEUlmE_EEvRNS_9schedulerINS_15WorkStealingJobEEEmmRSF_mbEUlvE0_ED0Ev, symObjAddr: 0x5A9A4, symBinAddr: 0x10005CD4C, symSize: 0x4 }
  - { offset: 0x2FEC6D, size: 0x8, addend: 0x0, symName: __ZN6parlay7JobImplIZNS_19fork_join_scheduler7parfor_IZNS_8internal10sliced_forIZNS3_10filter_mapINS_5sliceIPNSt3__14pairIllEESA_EEZ12incrementMSTIldEvRNS_8sequenceI7clusterIT_T0_ENS_9allocatorISH_EEXsr3std7is_sameISH_cEE5valueEEERKNSD_INS7_5tupleIJSF_SF_SG_EEENSI_ISN_EEXsr3std7is_sameISN_cEE5valueEEEEUlSF_E0_RZNS3_6filterISB_SS_EENSD_INSF_10value_typeENSI_ISU_EEXsr3std7is_sameISU_cEE5valueEEERKSF_OSG_EUlOSF_E_EEDaSY_SZ_OT1_EUlmmmE_EEvmmSY_jEUlmE_EEvRNS_9schedulerINS_15WorkStealingJobEEEmmRSF_mbEUlvE0_E7executeEv, symObjAddr: 0x5A9A8, symBinAddr: 0x10005CD50, symSize: 0x24 }
  - { offset: 0x2FEFB2, size: 0x8, addend: 0x0, symName: __ZN6parlay7JobImplIZNS_19fork_join_scheduler7parfor_IZNS_8sequenceINSt3__14pairIllEENS_9allocatorIS6_EELb0EEC1IZ12incrementMSTIldEvRNS3_I7clusterIT_T0_ENS7_ISF_EEXsr3std7is_sameISF_cEE5valueEEERKNS3_INS4_5tupleIJSD_SD_SE_EEENS7_ISK_EEXsr3std7is_sameISK_cEE5valueEEEEUllE1_EEmOSD_NS9_18_from_function_tagEmEUlmE_EEvRNS_9schedulerINS_15WorkStealingJobEEEmmRSD_mbEUlvE0_ED1Ev, symObjAddr: 0x5AF74, symBinAddr: 0x10005D31C, symSize: 0x4 }
  - { offset: 0x2FEFDD, size: 0x8, addend: 0x0, symName: __ZN6parlay7JobImplIZNS_19fork_join_scheduler7parfor_IZNS_8sequenceINSt3__14pairIllEENS_9allocatorIS6_EELb0EEC1IZ12incrementMSTIldEvRNS3_I7clusterIT_T0_ENS7_ISF_EEXsr3std7is_sameISF_cEE5valueEEERKNS3_INS4_5tupleIJSD_SD_SE_EEENS7_ISK_EEXsr3std7is_sameISK_cEE5valueEEEEUllE1_EEmOSD_NS9_18_from_function_tagEmEUlmE_EEvRNS_9schedulerINS_15WorkStealingJobEEEmmRSD_mbEUlvE0_ED0Ev, symObjAddr: 0x5AF78, symBinAddr: 0x10005D320, symSize: 0x4 }
  - { offset: 0x2FF008, size: 0x8, addend: 0x0, symName: __ZN6parlay7JobImplIZNS_19fork_join_scheduler7parfor_IZNS_8sequenceINSt3__14pairIllEENS_9allocatorIS6_EELb0EEC1IZ12incrementMSTIldEvRNS3_I7clusterIT_T0_ENS7_ISF_EEXsr3std7is_sameISF_cEE5valueEEERKNS3_INS4_5tupleIJSD_SD_SE_EEENS7_ISK_EEXsr3std7is_sameISK_cEE5valueEEEEUllE1_EEmOSD_NS9_18_from_function_tagEmEUlmE_EEvRNS_9schedulerINS_15WorkStealingJobEEEmmRSD_mbEUlvE0_E7executeEv, symObjAddr: 0x5AF7C, symBinAddr: 0x10005D324, symSize: 0x24 }
  - { offset: 0x2FF34D, size: 0x8, addend: 0x0, symName: __ZN6parlay7JobImplIZNS_19fork_join_scheduler7parfor_IZNS_8internal10sliced_forIZNS3_10filter_mapINS_5sliceIPNSt3__15tupleIJlldEEESA_EEZ12incrementMSTIldEvRNS_8sequenceI7clusterIT_T0_ENS_9allocatorISH_EEXsr3std7is_sameISH_cEE5valueEEERKNSD_INS8_IJSF_SF_SG_EEENSI_ISM_EEXsr3std7is_sameISM_cEE5valueEEEEUlSF_E_RZNS3_6filterISB_SR_EENSD_INSF_10value_typeENSI_IST_EEXsr3std7is_sameIST_cEE5valueEEERKSF_OSG_EUlOSF_E_EEDaSX_SY_OT1_EUlmmmE0_EEvmmSX_jEUlmE_EEvRNS_9schedulerINS_15WorkStealingJobEEEmmRSF_mbEUlvE0_ED1Ev, symObjAddr: 0x5B624, symBinAddr: 0x10005D9CC, symSize: 0x4 }
  - { offset: 0x2FF378, size: 0x8, addend: 0x0, symName: __ZN6parlay7JobImplIZNS_19fork_join_scheduler7parfor_IZNS_8internal10sliced_forIZNS3_10filter_mapINS_5sliceIPNSt3__15tupleIJlldEEESA_EEZ12incrementMSTIldEvRNS_8sequenceI7clusterIT_T0_ENS_9allocatorISH_EEXsr3std7is_sameISH_cEE5valueEEERKNSD_INS8_IJSF_SF_SG_EEENSI_ISM_EEXsr3std7is_sameISM_cEE5valueEEEEUlSF_E_RZNS3_6filterISB_SR_EENSD_INSF_10value_typeENSI_IST_EEXsr3std7is_sameIST_cEE5valueEEERKSF_OSG_EUlOSF_E_EEDaSX_SY_OT1_EUlmmmE0_EEvmmSX_jEUlmE_EEvRNS_9schedulerINS_15WorkStealingJobEEEmmRSF_mbEUlvE0_ED0Ev, symObjAddr: 0x5B628, symBinAddr: 0x10005D9D0, symSize: 0x4 }
  - { offset: 0x2FF3A3, size: 0x8, addend: 0x0, symName: __ZN6parlay7JobImplIZNS_19fork_join_scheduler7parfor_IZNS_8internal10sliced_forIZNS3_10filter_mapINS_5sliceIPNSt3__15tupleIJlldEEESA_EEZ12incrementMSTIldEvRNS_8sequenceI7clusterIT_T0_ENS_9allocatorISH_EEXsr3std7is_sameISH_cEE5valueEEERKNSD_INS8_IJSF_SF_SG_EEENSI_ISM_EEXsr3std7is_sameISM_cEE5valueEEEEUlSF_E_RZNS3_6filterISB_SR_EENSD_INSF_10value_typeENSI_IST_EEXsr3std7is_sameIST_cEE5valueEEERKSF_OSG_EUlOSF_E_EEDaSX_SY_OT1_EUlmmmE0_EEvmmSX_jEUlmE_EEvRNS_9schedulerINS_15WorkStealingJobEEEmmRSF_mbEUlvE0_E7executeEv, symObjAddr: 0x5B62C, symBinAddr: 0x10005D9D4, symSize: 0x24 }
  - { offset: 0x2FF6E8, size: 0x8, addend: 0x0, symName: __ZN6parlay7JobImplIZNS_19fork_join_scheduler7parfor_IZNS_8internal10sliced_forIZNS3_10filter_mapINS_5sliceIPNSt3__15tupleIJlldEEESA_EEZ12incrementMSTIldEvRNS_8sequenceI7clusterIT_T0_ENS_9allocatorISH_EEXsr3std7is_sameISH_cEE5valueEEERKNSD_INS8_IJSF_SF_SG_EEENSI_ISM_EEXsr3std7is_sameISM_cEE5valueEEEEUlSF_E_RZNS3_6filterISB_SR_EENSD_INSF_10value_typeENSI_IST_EEXsr3std7is_sameIST_cEE5valueEEERKSF_OSG_EUlOSF_E_EEDaSX_SY_OT1_EUlmmmE_EEvmmSX_jEUlmE_EEvRNS_9schedulerINS_15WorkStealingJobEEEmmRSF_mbEUlvE0_ED1Ev, symObjAddr: 0x5BFE4, symBinAddr: 0x10005E38C, symSize: 0x4 }
  - { offset: 0x2FF713, size: 0x8, addend: 0x0, symName: __ZN6parlay7JobImplIZNS_19fork_join_scheduler7parfor_IZNS_8internal10sliced_forIZNS3_10filter_mapINS_5sliceIPNSt3__15tupleIJlldEEESA_EEZ12incrementMSTIldEvRNS_8sequenceI7clusterIT_T0_ENS_9allocatorISH_EEXsr3std7is_sameISH_cEE5valueEEERKNSD_INS8_IJSF_SF_SG_EEENSI_ISM_EEXsr3std7is_sameISM_cEE5valueEEEEUlSF_E_RZNS3_6filterISB_SR_EENSD_INSF_10value_typeENSI_IST_EEXsr3std7is_sameIST_cEE5valueEEERKSF_OSG_EUlOSF_E_EEDaSX_SY_OT1_EUlmmmE_EEvmmSX_jEUlmE_EEvRNS_9schedulerINS_15WorkStealingJobEEEmmRSF_mbEUlvE0_ED0Ev, symObjAddr: 0x5BFE8, symBinAddr: 0x10005E390, symSize: 0x4 }
  - { offset: 0x2FF73E, size: 0x8, addend: 0x0, symName: __ZN6parlay7JobImplIZNS_19fork_join_scheduler7parfor_IZNS_8internal10sliced_forIZNS3_10filter_mapINS_5sliceIPNSt3__15tupleIJlldEEESA_EEZ12incrementMSTIldEvRNS_8sequenceI7clusterIT_T0_ENS_9allocatorISH_EEXsr3std7is_sameISH_cEE5valueEEERKNSD_INS8_IJSF_SF_SG_EEENSI_ISM_EEXsr3std7is_sameISM_cEE5valueEEEEUlSF_E_RZNS3_6filterISB_SR_EENSD_INSF_10value_typeENSI_IST_EEXsr3std7is_sameIST_cEE5valueEEERKSF_OSG_EUlOSF_E_EEDaSX_SY_OT1_EUlmmmE_EEvmmSX_jEUlmE_EEvRNS_9schedulerINS_15WorkStealingJobEEEmmRSF_mbEUlvE0_E7executeEv, symObjAddr: 0x5BFEC, symBinAddr: 0x10005E394, symSize: 0x24 }
  - { offset: 0x2FFA83, size: 0x8, addend: 0x0, symName: __ZN6parlay7JobImplIZNS_19fork_join_scheduler7parfor_IZNS_8sequenceINSt3__15tupleIJlldEEENS_9allocatorIS6_EELb0EEC1IZ12incrementMSTIldEvRNS3_I7clusterIT_T0_ENS7_ISF_EEXsr3std7is_sameISF_cEE5valueEEERKNS3_INS5_IJSD_SD_SE_EEENS7_ISJ_EEXsr3std7is_sameISJ_cEE5valueEEEEUllE0_EEmOSD_NS9_18_from_function_tagEmEUlmE_EEvRNS_9schedulerINS_15WorkStealingJobEEEmmRSD_mbEUlvE0_ED1Ev, symObjAddr: 0x5C5F8, symBinAddr: 0x10005E9A0, symSize: 0x4 }
  - { offset: 0x2FFAAE, size: 0x8, addend: 0x0, symName: __ZN6parlay7JobImplIZNS_19fork_join_scheduler7parfor_IZNS_8sequenceINSt3__15tupleIJlldEEENS_9allocatorIS6_EELb0EEC1IZ12incrementMSTIldEvRNS3_I7clusterIT_T0_ENS7_ISF_EEXsr3std7is_sameISF_cEE5valueEEERKNS3_INS5_IJSD_SD_SE_EEENS7_ISJ_EEXsr3std7is_sameISJ_cEE5valueEEEEUllE0_EEmOSD_NS9_18_from_function_tagEmEUlmE_EEvRNS_9schedulerINS_15WorkStealingJobEEEmmRSD_mbEUlvE0_ED0Ev, symObjAddr: 0x5C5FC, symBinAddr: 0x10005E9A4, symSize: 0x4 }
  - { offset: 0x2FFAD9, size: 0x8, addend: 0x0, symName: __ZN6parlay7JobImplIZNS_19fork_join_scheduler7parfor_IZNS_8sequenceINSt3__15tupleIJlldEEENS_9allocatorIS6_EELb0EEC1IZ12incrementMSTIldEvRNS3_I7clusterIT_T0_ENS7_ISF_EEXsr3std7is_sameISF_cEE5valueEEERKNS3_INS5_IJSD_SD_SE_EEENS7_ISJ_EEXsr3std7is_sameISJ_cEE5valueEEEEUllE0_EEmOSD_NS9_18_from_function_tagEmEUlmE_EEvRNS_9schedulerINS_15WorkStealingJobEEEmmRSD_mbEUlvE0_E7executeEv, symObjAddr: 0x5C600, symBinAddr: 0x10005E9A8, symSize: 0x24 }
  - { offset: 0x2FFD4A, size: 0x8, addend: 0x0, symName: __ZN6parlay7JobImplIZNS_19fork_join_scheduler7parfor_IZ12incrementMSTIldEvRNS_8sequenceI7clusterIT_T0_ENS_9allocatorIS8_EEXsr3std7is_sameIS8_cEE5valueEEERKNS4_INSt3__15tupleIJS6_S6_S7_EEENS9_ISF_EEXsr3std7is_sameISF_cEE5valueEEEEUllE_EEvRNS_9schedulerINS_15WorkStealingJobEEEmmRS6_mbEUlvE0_ED1Ev, symObjAddr: 0x5CD14, symBinAddr: 0x10005F0BC, symSize: 0x4 }
  - { offset: 0x2FFD75, size: 0x8, addend: 0x0, symName: __ZN6parlay7JobImplIZNS_19fork_join_scheduler7parfor_IZ12incrementMSTIldEvRNS_8sequenceI7clusterIT_T0_ENS_9allocatorIS8_EEXsr3std7is_sameIS8_cEE5valueEEERKNS4_INSt3__15tupleIJS6_S6_S7_EEENS9_ISF_EEXsr3std7is_sameISF_cEE5valueEEEEUllE_EEvRNS_9schedulerINS_15WorkStealingJobEEEmmRS6_mbEUlvE0_ED0Ev, symObjAddr: 0x5CD18, symBinAddr: 0x10005F0C0, symSize: 0x4 }
  - { offset: 0x2FFDA0, size: 0x8, addend: 0x0, symName: __ZN6parlay7JobImplIZNS_19fork_join_scheduler7parfor_IZ12incrementMSTIldEvRNS_8sequenceI7clusterIT_T0_ENS_9allocatorIS8_EEXsr3std7is_sameIS8_cEE5valueEEERKNS4_INSt3__15tupleIJS6_S6_S7_EEENS9_ISF_EEXsr3std7is_sameISF_cEE5valueEEEEUllE_EEvRNS_9schedulerINS_15WorkStealingJobEEEmmRS6_mbEUlvE0_E7executeEv, symObjAddr: 0x5CD1C, symBinAddr: 0x10005F0C4, symSize: 0x12C }
  - { offset: 0x300076, size: 0x8, addend: 0x0, symName: __ZN6parlay7JobImplIZNS_19fork_join_scheduler7parfor_IZNS_8sequenceIbNS_9allocatorIbEELb0EE15initialize_fillEmRKbEUlmE_EEvRNS_9schedulerINS_15WorkStealingJobEEEmmRT_mbEUlvE0_ED1Ev, symObjAddr: 0x5D5A8, symBinAddr: 0x10005F950, symSize: 0x4 }
  - { offset: 0x3000A1, size: 0x8, addend: 0x0, symName: __ZN6parlay7JobImplIZNS_19fork_join_scheduler7parfor_IZNS_8sequenceIbNS_9allocatorIbEELb0EE15initialize_fillEmRKbEUlmE_EEvRNS_9schedulerINS_15WorkStealingJobEEEmmRT_mbEUlvE0_ED0Ev, symObjAddr: 0x5D5AC, symBinAddr: 0x10005F954, symSize: 0x4 }
  - { offset: 0x3000CC, size: 0x8, addend: 0x0, symName: __ZN6parlay7JobImplIZNS_19fork_join_scheduler7parfor_IZNS_8sequenceIbNS_9allocatorIbEELb0EE15initialize_fillEmRKbEUlmE_EEvRNS_9schedulerINS_15WorkStealingJobEEEmmRT_mbEUlvE0_E7executeEv, symObjAddr: 0x5D5B0, symBinAddr: 0x10005F958, symSize: 0x164 }
  - { offset: 0x302A90, size: 0x8, addend: 0x0, symName: __ZN6parlay19fork_join_scheduler5pardoIZNS0_7parfor_IZNS_8sequenceINSt3__15tupleIJdlllEEENS_9allocatorIS6_EELb0EEC1IZNS_8internal12sample_sort_IjNS_16delayed_sequenceIS6_S6_Z19min_spanning_forestIldENS3_IlNS7_IlEELb0EEERKNS3_INS5_IJT_SH_T0_EEENS7_ISJ_EEXsr3std7is_sameISJ_cEE5valueEEElEUllE_E8iteratorEPS6_NS4_4lessIvEEEEvNS_5sliceISI_SI_EENSU_IT1_SW_EERKT2_bEUlmE0_EEmOSH_NS9_18_from_function_tagEmEUlmE_EEvRNS_9schedulerINS_15WorkStealingJobEEEmmRSH_mbEUlvE_ZNS2_IS14_EEvS18_mmS19_mbEUlvE0_EEvS18_S12_OSI_b, symObjAddr: 0x77FD8, symBinAddr: 0x10007A380, symSize: 0x668 }
  - { offset: 0x303E32, size: 0x8, addend: 0x0, symName: __ZN6parlay19fork_join_scheduler5pardoIZNS0_7parfor_IZNS_8sequenceINSt3__15tupleIJdlllEEENS_9allocatorIS6_EELb0EEC1IZNS_8internal12sample_sort_ImNS_16delayed_sequenceIS6_S6_Z19min_spanning_forestIldENS3_IlNS7_IlEELb0EEERKNS3_INS5_IJT_SH_T0_EEENS7_ISJ_EEXsr3std7is_sameISJ_cEE5valueEEElEUllE_E8iteratorEPS6_NS4_4lessIvEEEEvNS_5sliceISI_SI_EENSU_IT1_SW_EERKT2_bEUlmE0_EEmOSH_NS9_18_from_function_tagEmEUlmE_EEvRNS_9schedulerINS_15WorkStealingJobEEEmmRSH_mbEUlvE_ZNS2_IS14_EEvS18_mmS19_mbEUlvE0_EEvS18_S12_OSI_b, symObjAddr: 0x70DA0, symBinAddr: 0x100073148, symSize: 0x668 }
  - { offset: 0x3051C8, size: 0x8, addend: 0x0, symName: __ZN6parlay9allocatorINSt3__15tupleIJdlllEEEE8allocateEm, symObjAddr: 0x64B40, symBinAddr: 0x100066EE8, symSize: 0x11C }
  - { offset: 0x305434, size: 0x8, addend: 0x0, symName: __ZN6parlay9allocatorINSt3__15tupleIJdlllEEEE10deallocateEPS3_m, symObjAddr: 0x64C5C, symBinAddr: 0x100067004, symSize: 0x124 }
  - { offset: 0x30543F, size: 0x8, addend: 0x0, symName: __ZN6parlay8sequenceIjNS_9allocatorIjEELb0EEC2EmNS3_18_uninitialized_tagE, symObjAddr: 0x72800, symBinAddr: 0x100074BA8, symSize: 0x184 }
  - { offset: 0x3057DF, size: 0x8, addend: 0x0, symName: __ZZN6parlay8internal12sample_sort_IjNS_16delayed_sequenceINSt3__15tupleIJdlllEEES5_Z19min_spanning_forestIldENS_8sequenceIlNS_9allocatorIlEELb0EEERKNS7_INS4_IJT_SB_T0_EEENS8_ISD_EEXsr3std7is_sameISD_cEE5valueEEElEUllE_E8iteratorEPS5_NS3_4lessIvEEEEvNS_5sliceISC_SC_EENSO_IT1_SQ_EERKT2_bENKUlmmmE_clEmmm, symObjAddr: 0x775FC, symBinAddr: 0x1000799A4, symSize: 0x424 }
  - { offset: 0x305F98, size: 0x8, addend: 0x0, symName: __ZN6parlay19fork_join_scheduler7parfor_IZNS_8internal10sliced_forIZNS2_12sample_sort_IjNS_16delayed_sequenceINSt3__15tupleIJdlllEEES8_Z19min_spanning_forestIldENS_8sequenceIlNS_9allocatorIlEELb0EEERKNSA_INS7_IJT_SE_T0_EEENSB_ISG_EEXsr3std7is_sameISG_cEE5valueEEElEUllE_E8iteratorEPS8_NS6_4lessIvEEEEvNS_5sliceISF_SF_EENSR_IT1_ST_EERKT2_bEUlmmmE_EEvmmRKSE_jEUlmE_EEvRNS_9schedulerINS_15WorkStealingJobEEEmmRSE_mb, symObjAddr: 0x77A20, symBinAddr: 0x100079DC8, symSize: 0x58C }
  - { offset: 0x305FA9, size: 0x8, addend: 0x0, symName: __ZZN6parlay8internal12sample_sort_ImNS_16delayed_sequenceINSt3__15tupleIJdlllEEES5_Z19min_spanning_forestIldENS_8sequenceIlNS_9allocatorIlEELb0EEERKNS7_INS4_IJT_SB_T0_EEENS8_ISD_EEXsr3std7is_sameISD_cEE5valueEEElEUllE_E8iteratorEPS5_NS3_4lessIvEEEEvNS_5sliceISC_SC_EENSO_IT1_SQ_EERKT2_bENKUlmmmE_clEmmm, symObjAddr: 0x703C4, symBinAddr: 0x10007276C, symSize: 0x424 }
  - { offset: 0x306762, size: 0x8, addend: 0x0, symName: __ZN6parlay19fork_join_scheduler7parfor_IZNS_8internal10sliced_forIZNS2_12sample_sort_ImNS_16delayed_sequenceINSt3__15tupleIJdlllEEES8_Z19min_spanning_forestIldENS_8sequenceIlNS_9allocatorIlEELb0EEERKNSA_INS7_IJT_SE_T0_EEENSB_ISG_EEXsr3std7is_sameISG_cEE5valueEEElEUllE_E8iteratorEPS8_NS6_4lessIvEEEEvNS_5sliceISF_SF_EENSR_IT1_ST_EERKT2_bEUlmmmE_EEvmmRKSE_jEUlmE_EEvRNS_9schedulerINS_15WorkStealingJobEEEmmRSE_mb, symObjAddr: 0x707E8, symBinAddr: 0x100072B90, symSize: 0x58C }
  - { offset: 0x30676D, size: 0x8, addend: 0x0, symName: __ZN6parlay8sequenceImNS_9allocatorImEELb0EEC2Ev, symObjAddr: 0x6BD18, symBinAddr: 0x10006E0C0, symSize: 0x124 }
  - { offset: 0x306A02, size: 0x8, addend: 0x0, symName: __ZN6parlay9allocatorINSt3__15tupleIJdlllEEEE10deallocateEPS3_m, symObjAddr: 0x64C5C, symBinAddr: 0x100067004, symSize: 0x124 }
  - { offset: 0x306C13, size: 0x8, addend: 0x0, symName: __ZN6parlay8internal22uninitialized_sequenceINSt3__15tupleIJdlllEEENS_9allocatorIS4_EEED1Ev, symObjAddr: 0x64D80, symBinAddr: 0x100067128, symSize: 0x30 }
  - { offset: 0x306C1E, size: 0x8, addend: 0x0, symName: __ZN6parlay8internal22uninitialized_sequenceINSt3__15tupleIJdlllEEENS_9allocatorIS4_EEED1Ev, symObjAddr: 0x64D80, symBinAddr: 0x100067128, symSize: 0x30 }
  - { offset: 0x3070CE, size: 0x8, addend: 0x0, symName: __ZN6parlay7JobImplIZNS_19fork_join_scheduler7parfor_IZNS_8internal10sliced_forIZNS3_4packINS_16delayed_sequenceIllZNS3_10pack_indexIlNS_5sliceIPbS9_EEEEDaRKT0_jEUlmE_EESA_EENS_8sequenceINT_10value_typeENS_9allocatorISJ_EEXsr3std7is_sameISJ_cEE5valueEEERKSI_SE_jEUlmmmE0_EEvmmSO_jEUlmE_EEvRNS_9schedulerINS_15WorkStealingJobEEEmmRSI_mbEUlvE0_ED1Ev, symObjAddr: 0x611B0, symBinAddr: 0x100063558, symSize: 0x4 }
  - { offset: 0x3070F9, size: 0x8, addend: 0x0, symName: __ZN6parlay7JobImplIZNS_19fork_join_scheduler7parfor_IZNS_8internal10sliced_forIZNS3_4packINS_16delayed_sequenceIllZNS3_10pack_indexIlNS_5sliceIPbS9_EEEEDaRKT0_jEUlmE_EESA_EENS_8sequenceINT_10value_typeENS_9allocatorISJ_EEXsr3std7is_sameISJ_cEE5valueEEERKSI_SE_jEUlmmmE0_EEvmmSO_jEUlmE_EEvRNS_9schedulerINS_15WorkStealingJobEEEmmRSI_mbEUlvE0_ED0Ev, symObjAddr: 0x611B4, symBinAddr: 0x10006355C, symSize: 0x4 }
  - { offset: 0x307124, size: 0x8, addend: 0x0, symName: __ZN6parlay7JobImplIZNS_19fork_join_scheduler7parfor_IZNS_8internal10sliced_forIZNS3_4packINS_16delayed_sequenceIllZNS3_10pack_indexIlNS_5sliceIPbS9_EEEEDaRKT0_jEUlmE_EESA_EENS_8sequenceINT_10value_typeENS_9allocatorISJ_EEXsr3std7is_sameISJ_cEE5valueEEERKSI_SE_jEUlmmmE0_EEvmmSO_jEUlmE_EEvRNS_9schedulerINS_15WorkStealingJobEEEmmRSI_mbEUlvE0_E7executeEv, symObjAddr: 0x611B8, symBinAddr: 0x100063560, symSize: 0x24 }
  - { offset: 0x307532, size: 0x8, addend: 0x0, symName: __ZN6parlay7JobImplIZNS_19fork_join_scheduler7parfor_IZNS_8internal10sliced_forIZNS3_4packINS_16delayed_sequenceIllZNS3_10pack_indexIlNS_5sliceIPbS9_EEEEDaRKT0_jEUlmE_EESA_EENS_8sequenceINT_10value_typeENS_9allocatorISJ_EEXsr3std7is_sameISJ_cEE5valueEEERKSI_SE_jEUlmmmE_EEvmmSO_jEUlmE_EEvRNS_9schedulerINS_15WorkStealingJobEEEmmRSI_mbEUlvE0_ED1Ev, symObjAddr: 0x619E0, symBinAddr: 0x100063D88, symSize: 0x4 }
  - { offset: 0x30755D, size: 0x8, addend: 0x0, symName: __ZN6parlay7JobImplIZNS_19fork_join_scheduler7parfor_IZNS_8internal10sliced_forIZNS3_4packINS_16delayed_sequenceIllZNS3_10pack_indexIlNS_5sliceIPbS9_EEEEDaRKT0_jEUlmE_EESA_EENS_8sequenceINT_10value_typeENS_9allocatorISJ_EEXsr3std7is_sameISJ_cEE5valueEEERKSI_SE_jEUlmmmE_EEvmmSO_jEUlmE_EEvRNS_9schedulerINS_15WorkStealingJobEEEmmRSI_mbEUlvE0_ED0Ev, symObjAddr: 0x619E4, symBinAddr: 0x100063D8C, symSize: 0x4 }
  - { offset: 0x307588, size: 0x8, addend: 0x0, symName: __ZN6parlay7JobImplIZNS_19fork_join_scheduler7parfor_IZNS_8internal10sliced_forIZNS3_4packINS_16delayed_sequenceIllZNS3_10pack_indexIlNS_5sliceIPbS9_EEEEDaRKT0_jEUlmE_EESA_EENS_8sequenceINT_10value_typeENS_9allocatorISJ_EEXsr3std7is_sameISJ_cEE5valueEEERKSI_SE_jEUlmmmE_EEvmmSO_jEUlmE_EEvRNS_9schedulerINS_15WorkStealingJobEEEmmRSI_mbEUlvE0_E7executeEv, symObjAddr: 0x619E8, symBinAddr: 0x100063D90, symSize: 0x24 }
  - { offset: 0x3079C7, size: 0x8, addend: 0x0, symName: __ZN6parlay7JobImplIZNS_19fork_join_scheduler7parfor_IZNS_8internal10sliced_forIZNS3_4packINS_5sliceIPlS7_EENS6_INS_16delayed_sequenceIbbZNS3_11delayed_mapIRNS_8sequenceI6statusNS_9allocatorISC_EELb0EEEZ15speculative_forIlZ19min_spanning_forestIldENSB_IlNSD_IlEELb0EEERKNSB_INSt3__15tupleIJT_SN_T0_EEENSD_ISP_EEXsr3std7is_sameISP_cEE5valueEEElEUllE0_ZSI_IldESK_ST_lEUllE1_EvSN_SN_SO_T1_lEUlSC_E_Li0EEEDaOSN_SO_EUlmE_E8iteratorES12_EEEENSB_INSN_10value_typeENSD_IS14_EEXsr3std7is_sameIS14_cEE5valueEEERKSN_RKSO_jEUlmmmE0_EEvmmS18_jEUlmE_EEvRNS_9schedulerINS_15WorkStealingJobEEEmmRSN_mbEUlvE0_ED1Ev, symObjAddr: 0x6218C, symBinAddr: 0x100064534, symSize: 0x4 }
  - { offset: 0x3079F2, size: 0x8, addend: 0x0, symName: __ZN6parlay7JobImplIZNS_19fork_join_scheduler7parfor_IZNS_8internal10sliced_forIZNS3_4packINS_5sliceIPlS7_EENS6_INS_16delayed_sequenceIbbZNS3_11delayed_mapIRNS_8sequenceI6statusNS_9allocatorISC_EELb0EEEZ15speculative_forIlZ19min_spanning_forestIldENSB_IlNSD_IlEELb0EEERKNSB_INSt3__15tupleIJT_SN_T0_EEENSD_ISP_EEXsr3std7is_sameISP_cEE5valueEEElEUllE0_ZSI_IldESK_ST_lEUllE1_EvSN_SN_SO_T1_lEUlSC_E_Li0EEEDaOSN_SO_EUlmE_E8iteratorES12_EEEENSB_INSN_10value_typeENSD_IS14_EEXsr3std7is_sameIS14_cEE5valueEEERKSN_RKSO_jEUlmmmE0_EEvmmS18_jEUlmE_EEvRNS_9schedulerINS_15WorkStealingJobEEEmmRSN_mbEUlvE0_ED0Ev, symObjAddr: 0x62190, symBinAddr: 0x100064538, symSize: 0x4 }
  - { offset: 0x307A1D, size: 0x8, addend: 0x0, symName: __ZN6parlay7JobImplIZNS_19fork_join_scheduler7parfor_IZNS_8internal10sliced_forIZNS3_4packINS_5sliceIPlS7_EENS6_INS_16delayed_sequenceIbbZNS3_11delayed_mapIRNS_8sequenceI6statusNS_9allocatorISC_EELb0EEEZ15speculative_forIlZ19min_spanning_forestIldENSB_IlNSD_IlEELb0EEERKNSB_INSt3__15tupleIJT_SN_T0_EEENSD_ISP_EEXsr3std7is_sameISP_cEE5valueEEElEUllE0_ZSI_IldESK_ST_lEUllE1_EvSN_SN_SO_T1_lEUlSC_E_Li0EEEDaOSN_SO_EUlmE_E8iteratorES12_EEEENSB_INSN_10value_typeENSD_IS14_EEXsr3std7is_sameIS14_cEE5valueEEERKSN_RKSO_jEUlmmmE0_EEvmmS18_jEUlmE_EEvRNS_9schedulerINS_15WorkStealingJobEEEmmRSN_mbEUlvE0_E7executeEv, symObjAddr: 0x62194, symBinAddr: 0x10006453C, symSize: 0x24 }
  - { offset: 0x307DF9, size: 0x8, addend: 0x0, symName: __ZN6parlay7JobImplIZNS_19fork_join_scheduler7parfor_IZNS_8internal10sliced_forIZNS3_4packINS_5sliceIPlS7_EENS6_INS_16delayed_sequenceIbbZNS3_11delayed_mapIRNS_8sequenceI6statusNS_9allocatorISC_EELb0EEEZ15speculative_forIlZ19min_spanning_forestIldENSB_IlNSD_IlEELb0EEERKNSB_INSt3__15tupleIJT_SN_T0_EEENSD_ISP_EEXsr3std7is_sameISP_cEE5valueEEElEUllE0_ZSI_IldESK_ST_lEUllE1_EvSN_SN_SO_T1_lEUlSC_E_Li0EEEDaOSN_SO_EUlmE_E8iteratorES12_EEEENSB_INSN_10value_typeENSD_IS14_EEXsr3std7is_sameIS14_cEE5valueEEERKSN_RKSO_jEUlmmmE_EEvmmS18_jEUlmE_EEvRNS_9schedulerINS_15WorkStealingJobEEEmmRSN_mbEUlvE0_ED1Ev, symObjAddr: 0x62AB8, symBinAddr: 0x100064E60, symSize: 0x4 }
  - { offset: 0x307E24, size: 0x8, addend: 0x0, symName: __ZN6parlay7JobImplIZNS_19fork_join_scheduler7parfor_IZNS_8internal10sliced_forIZNS3_4packINS_5sliceIPlS7_EENS6_INS_16delayed_sequenceIbbZNS3_11delayed_mapIRNS_8sequenceI6statusNS_9allocatorISC_EELb0EEEZ15speculative_forIlZ19min_spanning_forestIldENSB_IlNSD_IlEELb0EEERKNSB_INSt3__15tupleIJT_SN_T0_EEENSD_ISP_EEXsr3std7is_sameISP_cEE5valueEEElEUllE0_ZSI_IldESK_ST_lEUllE1_EvSN_SN_SO_T1_lEUlSC_E_Li0EEEDaOSN_SO_EUlmE_E8iteratorES12_EEEENSB_INSN_10value_typeENSD_IS14_EEXsr3std7is_sameIS14_cEE5valueEEERKSN_RKSO_jEUlmmmE_EEvmmS18_jEUlmE_EEvRNS_9schedulerINS_15WorkStealingJobEEEmmRSN_mbEUlvE0_ED0Ev, symObjAddr: 0x62ABC, symBinAddr: 0x100064E64, symSize: 0x4 }
  - { offset: 0x307E4F, size: 0x8, addend: 0x0, symName: __ZN6parlay7JobImplIZNS_19fork_join_scheduler7parfor_IZNS_8internal10sliced_forIZNS3_4packINS_5sliceIPlS7_EENS6_INS_16delayed_sequenceIbbZNS3_11delayed_mapIRNS_8sequenceI6statusNS_9allocatorISC_EELb0EEEZ15speculative_forIlZ19min_spanning_forestIldENSB_IlNSD_IlEELb0EEERKNSB_INSt3__15tupleIJT_SN_T0_EEENSD_ISP_EEXsr3std7is_sameISP_cEE5valueEEElEUllE0_ZSI_IldESK_ST_lEUllE1_EvSN_SN_SO_T1_lEUlSC_E_Li0EEEDaOSN_SO_EUlmE_E8iteratorES12_EEEENSB_INSN_10value_typeENSD_IS14_EEXsr3std7is_sameIS14_cEE5valueEEERKSN_RKSO_jEUlmmmE_EEvmmS18_jEUlmE_EEvRNS_9schedulerINS_15WorkStealingJobEEEmmRSN_mbEUlvE0_E7executeEv, symObjAddr: 0x62AC0, symBinAddr: 0x100064E68, symSize: 0x24 }
  - { offset: 0x308194, size: 0x8, addend: 0x0, symName: __ZN6parlay7JobImplIZNS_19fork_join_scheduler7parfor_IZNS_8sequenceIlNS_9allocatorIlEELb0EEC1IZ15speculative_forIlZ19min_spanning_forestIldES6_RKNS3_INSt3__15tupleIJT_SC_T0_EEENS4_ISE_EEXsr3std7is_sameISE_cEE5valueEEElEUllE0_ZS9_IldES6_SI_lEUllE1_EvSC_SC_SD_T1_lEUllE0_EEmOSC_NS6_18_from_function_tagEmEUlmE_EEvRNS_9schedulerINS_15WorkStealingJobEEEmmRSC_mbEUlvE0_ED1Ev, symObjAddr: 0x63320, symBinAddr: 0x1000656C8, symSize: 0x4 }
  - { offset: 0x3081BF, size: 0x8, addend: 0x0, symName: __ZN6parlay7JobImplIZNS_19fork_join_scheduler7parfor_IZNS_8sequenceIlNS_9allocatorIlEELb0EEC1IZ15speculative_forIlZ19min_spanning_forestIldES6_RKNS3_INSt3__15tupleIJT_SC_T0_EEENS4_ISE_EEXsr3std7is_sameISE_cEE5valueEEElEUllE0_ZS9_IldES6_SI_lEUllE1_EvSC_SC_SD_T1_lEUllE0_EEmOSC_NS6_18_from_function_tagEmEUlmE_EEvRNS_9schedulerINS_15WorkStealingJobEEEmmRSC_mbEUlvE0_ED0Ev, symObjAddr: 0x63324, symBinAddr: 0x1000656CC, symSize: 0x4 }
  - { offset: 0x3081EA, size: 0x8, addend: 0x0, symName: __ZN6parlay7JobImplIZNS_19fork_join_scheduler7parfor_IZNS_8sequenceIlNS_9allocatorIlEELb0EEC1IZ15speculative_forIlZ19min_spanning_forestIldES6_RKNS3_INSt3__15tupleIJT_SC_T0_EEENS4_ISE_EEXsr3std7is_sameISE_cEE5valueEEElEUllE0_ZS9_IldES6_SI_lEUllE1_EvSC_SC_SD_T1_lEUllE0_EEmOSC_NS6_18_from_function_tagEmEUlmE_EEvRNS_9schedulerINS_15WorkStealingJobEEEmmRSC_mbEUlvE0_E7executeEv, symObjAddr: 0x63328, symBinAddr: 0x1000656D0, symSize: 0x24 }
  - { offset: 0x30852F, size: 0x8, addend: 0x0, symName: __ZN6parlay7JobImplIZNS_19fork_join_scheduler7parfor_IZNS_8sequenceI6statusNS_9allocatorIS4_EELb0EEC1IZ15speculative_forIlZ19min_spanning_forestIldENS3_IlNS5_IlEELb0EEERKNS3_INSt3__15tupleIJT_SF_T0_EEENS5_ISH_EEXsr3std7is_sameISH_cEE5valueEEElEUllE0_ZSA_IldESC_SL_lEUllE1_EvSF_SF_SG_T1_lEUllE_EEmOSF_NS7_18_from_function_tagEmEUlmE_EEvRNS_9schedulerINS_15WorkStealingJobEEEmmRSF_mbEUlvE0_ED1Ev, symObjAddr: 0x63B0C, symBinAddr: 0x100065EB4, symSize: 0x4 }
  - { offset: 0x30855A, size: 0x8, addend: 0x0, symName: __ZN6parlay7JobImplIZNS_19fork_join_scheduler7parfor_IZNS_8sequenceI6statusNS_9allocatorIS4_EELb0EEC1IZ15speculative_forIlZ19min_spanning_forestIldENS3_IlNS5_IlEELb0EEERKNS3_INSt3__15tupleIJT_SF_T0_EEENS5_ISH_EEXsr3std7is_sameISH_cEE5valueEEElEUllE0_ZSA_IldESC_SL_lEUllE1_EvSF_SF_SG_T1_lEUllE_EEmOSF_NS7_18_from_function_tagEmEUlmE_EEvRNS_9schedulerINS_15WorkStealingJobEEEmmRSF_mbEUlvE0_ED0Ev, symObjAddr: 0x63B10, symBinAddr: 0x100065EB8, symSize: 0x4 }
  - { offset: 0x308585, size: 0x8, addend: 0x0, symName: __ZN6parlay7JobImplIZNS_19fork_join_scheduler7parfor_IZNS_8sequenceI6statusNS_9allocatorIS4_EELb0EEC1IZ15speculative_forIlZ19min_spanning_forestIldENS3_IlNS5_IlEELb0EEERKNS3_INSt3__15tupleIJT_SF_T0_EEENS5_ISH_EEXsr3std7is_sameISH_cEE5valueEEElEUllE0_ZSA_IldESC_SL_lEUllE1_EvSF_SF_SG_T1_lEUllE_EEmOSF_NS7_18_from_function_tagEmEUlmE_EEvRNS_9schedulerINS_15WorkStealingJobEEEmmRSF_mbEUlvE0_E7executeEv, symObjAddr: 0x63B14, symBinAddr: 0x100065EBC, symSize: 0x24 }
  - { offset: 0x3091FD, size: 0x8, addend: 0x0, symName: __ZN6parlay7JobImplIZNS_19fork_join_scheduler7parfor_IZNS_8internal12sample_sort_ImNS_16delayed_sequenceINSt3__15tupleIJdlllEEES8_Z19min_spanning_forestIldENS_8sequenceIlNS_9allocatorIlEELb0EEERKNSA_INS7_IJT_SE_T0_EEENSB_ISG_EEXsr3std7is_sameISG_cEE5valueEEElEUllE_E8iteratorEPS8_NS6_4lessIvEEEEvNS_5sliceISF_SF_EENSR_IT1_ST_EERKT2_bEUlmE1_EEvRNS_9schedulerINS_15WorkStealingJobEEEmmRSE_mbEUlvE0_ED1Ev, symObjAddr: 0x6540C, symBinAddr: 0x1000677B4, symSize: 0x4 }
  - { offset: 0x309228, size: 0x8, addend: 0x0, symName: __ZN6parlay7JobImplIZNS_19fork_join_scheduler7parfor_IZNS_8internal12sample_sort_ImNS_16delayed_sequenceINSt3__15tupleIJdlllEEES8_Z19min_spanning_forestIldENS_8sequenceIlNS_9allocatorIlEELb0EEERKNSA_INS7_IJT_SE_T0_EEENSB_ISG_EEXsr3std7is_sameISG_cEE5valueEEElEUllE_E8iteratorEPS8_NS6_4lessIvEEEEvNS_5sliceISF_SF_EENSR_IT1_ST_EERKT2_bEUlmE1_EEvRNS_9schedulerINS_15WorkStealingJobEEEmmRSE_mbEUlvE0_ED0Ev, symObjAddr: 0x65410, symBinAddr: 0x1000677B8, symSize: 0x4 }
  - { offset: 0x309253, size: 0x8, addend: 0x0, symName: __ZN6parlay7JobImplIZNS_19fork_join_scheduler7parfor_IZNS_8internal12sample_sort_ImNS_16delayed_sequenceINSt3__15tupleIJdlllEEES8_Z19min_spanning_forestIldENS_8sequenceIlNS_9allocatorIlEELb0EEERKNSA_INS7_IJT_SE_T0_EEENSB_ISG_EEXsr3std7is_sameISG_cEE5valueEEElEUllE_E8iteratorEPS8_NS6_4lessIvEEEEvNS_5sliceISF_SF_EENSR_IT1_ST_EERKT2_bEUlmE1_EEvRNS_9schedulerINS_15WorkStealingJobEEEmmRSE_mbEUlvE0_E7executeEv, symObjAddr: 0x65414, symBinAddr: 0x1000677BC, symSize: 0x24 }
  - { offset: 0x309CCA, size: 0x8, addend: 0x0, symName: __ZN6parlay19fork_join_scheduler5pardoIZNS0_7parfor_IZNS_8sequenceImNS_9allocatorImEELb0EEC1IZNS_8internal11get_bucketsIPNSt3__15tupleIJdlllEEENSA_4lessIvEEEEbNS_5sliceIT_SH_EEPhT0_mEUlmE0_EEmOSH_NS6_18_from_function_tagEmEUlmE_EEvRNS_9schedulerINS_15WorkStealingJobEEEmmRSH_mbEUlvE_ZNS2_ISO_EEvSS_mmST_mbEUlvE0_EEvSS_SM_OSK_b, symObjAddr: 0x680F8, symBinAddr: 0x10006A4A0, symSize: 0x668 }
  - { offset: 0x30AF70, size: 0x8, addend: 0x0, symName: __ZN6parlay19fork_join_scheduler5pardoIZNS0_7parfor_IZNS_8internal13bucket_sort_rIPNSt3__15tupleIJdlllEEES8_NS5_4lessIvEEEEvNS_5sliceIT_SC_EENSB_IT0_SE_EET1_bbEUlmE_EEvRNS_9schedulerINS_15WorkStealingJobEEEmmRSC_mbEUlvE_ZNS2_ISH_EEvSL_mmSM_mbEUlvE0_EEvSL_OSC_OSE_b, symObjAddr: 0x66A8C, symBinAddr: 0x100068E34, symSize: 0x510 }
  - { offset: 0x30C4FA, size: 0x8, addend: 0x0, symName: __ZN6parlay19fork_join_scheduler5pardoIZNS0_7parfor_IZNS_24uninitialized_relocate_nIPNSt3__15tupleIJdlllEEElS7_EENS4_4pairIT_T1_EES9_T0_SA_EUlmE_EEvRNS_9schedulerINS_15WorkStealingJobEEEmmRS9_mbEUlvE_ZNS2_ISD_EEvSH_mmSI_mbEUlvE0_EEvSH_OS9_OSC_b, symObjAddr: 0x69934, symBinAddr: 0x10006BCDC, symSize: 0x688 }
  - { offset: 0x30DA10, size: 0x8, addend: 0x0, symName: __ZN6parlay7JobImplIZNS_19fork_join_scheduler7parfor_IZNS_8internal13bucket_sort_rIPNSt3__15tupleIJdlllEEES8_NS5_4lessIvEEEEvNS_5sliceIT_SC_EENSB_IT0_SE_EET1_bbEUlmE_EEvRNS_9schedulerINS_15WorkStealingJobEEEmmRSC_mbEUlvE0_ED1Ev, symObjAddr: 0x670C8, symBinAddr: 0x100069470, symSize: 0x4 }
  - { offset: 0x30DA3B, size: 0x8, addend: 0x0, symName: __ZN6parlay7JobImplIZNS_19fork_join_scheduler7parfor_IZNS_8internal13bucket_sort_rIPNSt3__15tupleIJdlllEEES8_NS5_4lessIvEEEEvNS_5sliceIT_SC_EENSB_IT0_SE_EET1_bbEUlmE_EEvRNS_9schedulerINS_15WorkStealingJobEEEmmRSC_mbEUlvE0_ED0Ev, symObjAddr: 0x670CC, symBinAddr: 0x100069474, symSize: 0x4 }
  - { offset: 0x30DA66, size: 0x8, addend: 0x0, symName: __ZN6parlay7JobImplIZNS_19fork_join_scheduler7parfor_IZNS_8internal13bucket_sort_rIPNSt3__15tupleIJdlllEEES8_NS5_4lessIvEEEEvNS_5sliceIT_SC_EENSB_IT0_SE_EET1_bbEUlmE_EEvRNS_9schedulerINS_15WorkStealingJobEEEmmRSC_mbEUlvE0_E7executeEv, symObjAddr: 0x670D0, symBinAddr: 0x100069478, symSize: 0x24 }
  - { offset: 0x30E448, size: 0x8, addend: 0x0, symName: __ZN6parlay7JobImplIZNS_19fork_join_scheduler7parfor_IZNS_8sequenceImNS_9allocatorImEELb0EEC1IZNS_8internal11get_bucketsIPNSt3__15tupleIJdlllEEENSA_4lessIvEEEEbNS_5sliceIT_SH_EEPhT0_mEUlmE0_EEmOSH_NS6_18_from_function_tagEmEUlmE_EEvRNS_9schedulerINS_15WorkStealingJobEEEmmRSH_mbEUlvE0_ED1Ev, symObjAddr: 0x68760, symBinAddr: 0x10006AB08, symSize: 0x4 }
  - { offset: 0x30E473, size: 0x8, addend: 0x0, symName: __ZN6parlay7JobImplIZNS_19fork_join_scheduler7parfor_IZNS_8sequenceImNS_9allocatorImEELb0EEC1IZNS_8internal11get_bucketsIPNSt3__15tupleIJdlllEEENSA_4lessIvEEEEbNS_5sliceIT_SH_EEPhT0_mEUlmE0_EEmOSH_NS6_18_from_function_tagEmEUlmE_EEvRNS_9schedulerINS_15WorkStealingJobEEEmmRSH_mbEUlvE0_ED0Ev, symObjAddr: 0x68764, symBinAddr: 0x10006AB0C, symSize: 0x4 }
  - { offset: 0x30E49E, size: 0x8, addend: 0x0, symName: __ZN6parlay7JobImplIZNS_19fork_join_scheduler7parfor_IZNS_8sequenceImNS_9allocatorImEELb0EEC1IZNS_8internal11get_bucketsIPNSt3__15tupleIJdlllEEENSA_4lessIvEEEEbNS_5sliceIT_SH_EEPhT0_mEUlmE0_EEmOSH_NS6_18_from_function_tagEmEUlmE_EEvRNS_9schedulerINS_15WorkStealingJobEEEmmRSH_mbEUlvE0_E7executeEv, symObjAddr: 0x68768, symBinAddr: 0x10006AB10, symSize: 0xE8 }
  - { offset: 0x30E960, size: 0x8, addend: 0x0, symName: __ZN6parlay7JobImplIZNS_8internal9quicksortIPmZNS1_11get_bucketsIPNSt3__15tupleIJdlllEEENS5_4lessIvEEEEbNS_5sliceIT_SC_EEPhT0_mEUlmmE_EEvSC_mRKSF_EUlvE1_ED1Ev, symObjAddr: 0x692D4, symBinAddr: 0x10006B67C, symSize: 0x4 }
  - { offset: 0x30E98B, size: 0x8, addend: 0x0, symName: __ZN6parlay7JobImplIZNS_8internal9quicksortIPmZNS1_11get_bucketsIPNSt3__15tupleIJdlllEEENS5_4lessIvEEEEbNS_5sliceIT_SC_EEPhT0_mEUlmmE_EEvSC_mRKSF_EUlvE1_ED0Ev, symObjAddr: 0x692D8, symBinAddr: 0x10006B680, symSize: 0x4 }
  - { offset: 0x30E9E2, size: 0x8, addend: 0x0, symName: __ZN6parlay7JobImplIZNS_8internal9quicksortIPmZNS1_11get_bucketsIPNSt3__15tupleIJdlllEEENS5_4lessIvEEEEbNS_5sliceIT_SC_EEPhT0_mEUlmmE_EEvSC_mRKSF_EUlvE1_E7executeEv, symObjAddr: 0x692DC, symBinAddr: 0x10006B684, symSize: 0x24 }
  - { offset: 0x30EA34, size: 0x8, addend: 0x0, symName: __ZN6parlay7JobImplIZNS_8internal9quicksortIPmZNS1_11get_bucketsIPNSt3__15tupleIJdlllEEENS5_4lessIvEEEEbNS_5sliceIT_SC_EEPhT0_mEUlmmE_EEvSC_mRKSF_EUlvE0_ED1Ev, symObjAddr: 0x69300, symBinAddr: 0x10006B6A8, symSize: 0x4 }
  - { offset: 0x30EA5F, size: 0x8, addend: 0x0, symName: __ZN6parlay7JobImplIZNS_8internal9quicksortIPmZNS1_11get_bucketsIPNSt3__15tupleIJdlllEEENS5_4lessIvEEEEbNS_5sliceIT_SC_EEPhT0_mEUlmmE_EEvSC_mRKSF_EUlvE0_ED0Ev, symObjAddr: 0x69304, symBinAddr: 0x10006B6AC, symSize: 0x4 }
  - { offset: 0x30EA8A, size: 0x8, addend: 0x0, symName: __ZN6parlay7JobImplIZNS_8internal9quicksortIPmZNS1_11get_bucketsIPNSt3__15tupleIJdlllEEENS5_4lessIvEEEEbNS_5sliceIT_SC_EEPhT0_mEUlmmE_EEvSC_mRKSF_EUlvE0_E7executeEv, symObjAddr: 0x69308, symBinAddr: 0x10006B6B0, symSize: 0x20 }
  - { offset: 0x30EDCD, size: 0x8, addend: 0x0, symName: __ZN6parlay7JobImplIZNS_19fork_join_scheduler7parfor_IZNS_8sequenceImNS_9allocatorImEELb0EEC1IZNS_8internal11get_bucketsIPNSt3__15tupleIJdlllEEENSA_4lessIvEEEEbNS_5sliceIT_SH_EEPhT0_mEUlmE_EEmOSH_NS6_18_from_function_tagEmEUlmE_EEvRNS_9schedulerINS_15WorkStealingJobEEEmmRSH_mbEUlvE0_ED1Ev, symObjAddr: 0x69908, symBinAddr: 0x10006BCB0, symSize: 0x4 }
  - { offset: 0x30EDF8, size: 0x8, addend: 0x0, symName: __ZN6parlay7JobImplIZNS_19fork_join_scheduler7parfor_IZNS_8sequenceImNS_9allocatorImEELb0EEC1IZNS_8internal11get_bucketsIPNSt3__15tupleIJdlllEEENSA_4lessIvEEEEbNS_5sliceIT_SH_EEPhT0_mEUlmE_EEmOSH_NS6_18_from_function_tagEmEUlmE_EEvRNS_9schedulerINS_15WorkStealingJobEEEmmRSH_mbEUlvE0_ED0Ev, symObjAddr: 0x6990C, symBinAddr: 0x10006BCB4, symSize: 0x4 }
  - { offset: 0x30EE23, size: 0x8, addend: 0x0, symName: __ZN6parlay7JobImplIZNS_19fork_join_scheduler7parfor_IZNS_8sequenceImNS_9allocatorImEELb0EEC1IZNS_8internal11get_bucketsIPNSt3__15tupleIJdlllEEENSA_4lessIvEEEEbNS_5sliceIT_SH_EEPhT0_mEUlmE_EEmOSH_NS6_18_from_function_tagEmEUlmE_EEvRNS_9schedulerINS_15WorkStealingJobEEEmmRSH_mbEUlvE0_E7executeEv, symObjAddr: 0x69910, symBinAddr: 0x10006BCB8, symSize: 0x24 }
  - { offset: 0x30F094, size: 0x8, addend: 0x0, symName: __ZN6parlay7JobImplIZNS_19fork_join_scheduler7parfor_IZNS_24uninitialized_relocate_nIPNSt3__15tupleIJdlllEEElS7_EENS4_4pairIT_T1_EES9_T0_SA_EUlmE_EEvRNS_9schedulerINS_15WorkStealingJobEEEmmRS9_mbEUlvE0_ED1Ev, symObjAddr: 0x69FBC, symBinAddr: 0x10006C364, symSize: 0x4 }
  - { offset: 0x30F0BF, size: 0x8, addend: 0x0, symName: __ZN6parlay7JobImplIZNS_19fork_join_scheduler7parfor_IZNS_24uninitialized_relocate_nIPNSt3__15tupleIJdlllEEElS7_EENS4_4pairIT_T1_EES9_T0_SA_EUlmE_EEvRNS_9schedulerINS_15WorkStealingJobEEEmmRS9_mbEUlvE0_ED0Ev, symObjAddr: 0x69FC0, symBinAddr: 0x10006C368, symSize: 0x4 }
  - { offset: 0x30F0EA, size: 0x8, addend: 0x0, symName: __ZN6parlay7JobImplIZNS_19fork_join_scheduler7parfor_IZNS_24uninitialized_relocate_nIPNSt3__15tupleIJdlllEEElS7_EENS4_4pairIT_T1_EES9_T0_SA_EUlmE_EEvRNS_9schedulerINS_15WorkStealingJobEEEmmRS9_mbEUlvE0_E7executeEv, symObjAddr: 0x69FC4, symBinAddr: 0x10006C36C, symSize: 0x108 }
  - { offset: 0x30F976, size: 0x8, addend: 0x0, symName: __ZN6parlay19fork_join_scheduler5pardoIZNS0_7parfor_IZNS_8internal10merge_intoINS_26uninitialized_relocate_tagEPNSt3__15tupleIJdlllEEES9_S9_NS6_4lessIvEEEEvNS_5sliceIT0_SD_EENSC_IT1_SF_EENSC_IT2_SH_EERKT3_bEUlmE_EEvRNS_9schedulerINS_15WorkStealingJobEEEmmRT_mbEUlvE_ZNS2_ISM_EEvSQ_mmSS_mbEUlvE0_EEvSQ_OSR_OSD_b, symObjAddr: 0x6B5A0, symBinAddr: 0x10006D948, symSize: 0x648 }
  - { offset: 0x310C16, size: 0x8, addend: 0x0, symName: __ZN6parlay19fork_join_scheduler5pardoIZNS0_7parfor_IZNS_8internal10merge_intoINS_26uninitialized_relocate_tagEPNSt3__15tupleIJdlllEEES9_S9_NS6_4lessIvEEEEvNS_5sliceIT0_SD_EENSC_IT1_SF_EENSC_IT2_SH_EERKT3_bEUlmE0_EEvRNS_9schedulerINS_15WorkStealingJobEEEmmRT_mbEUlvE_ZNS2_ISM_EEvSQ_mmSS_mbEUlvE0_EEvSQ_OSR_OSD_b, symObjAddr: 0x6AE78, symBinAddr: 0x10006D220, symSize: 0x648 }
  - { offset: 0x311EAA, size: 0x8, addend: 0x0, symName: __ZN6parlay7JobImplIZNS_8internal10merge_intoINS_26uninitialized_relocate_tagEPNSt3__15tupleIJdlllEEES7_S7_NS4_4lessIvEEEEvNS_5sliceIT0_SB_EENSA_IT1_SD_EENSA_IT2_SF_EERKT3_bEUlvE0_ED1Ev, symObjAddr: 0x6AE10, symBinAddr: 0x10006D1B8, symSize: 0x4 }
  - { offset: 0x311ED5, size: 0x8, addend: 0x0, symName: __ZN6parlay7JobImplIZNS_8internal10merge_intoINS_26uninitialized_relocate_tagEPNSt3__15tupleIJdlllEEES7_S7_NS4_4lessIvEEEEvNS_5sliceIT0_SB_EENSA_IT1_SD_EENSA_IT2_SF_EERKT3_bEUlvE0_ED0Ev, symObjAddr: 0x6AE14, symBinAddr: 0x10006D1BC, symSize: 0x4 }
  - { offset: 0x311F00, size: 0x8, addend: 0x0, symName: __ZN6parlay7JobImplIZNS_8internal10merge_intoINS_26uninitialized_relocate_tagEPNSt3__15tupleIJdlllEEES7_S7_NS4_4lessIvEEEEvNS_5sliceIT0_SB_EENSA_IT1_SD_EENSA_IT2_SF_EERKT3_bEUlvE0_E7executeEv, symObjAddr: 0x6AE18, symBinAddr: 0x10006D1C0, symSize: 0x60 }
  - { offset: 0x3121F3, size: 0x8, addend: 0x0, symName: __ZN6parlay7JobImplIZNS_19fork_join_scheduler7parfor_IZNS_8internal10merge_intoINS_26uninitialized_relocate_tagEPNSt3__15tupleIJdlllEEES9_S9_NS6_4lessIvEEEEvNS_5sliceIT0_SD_EENSC_IT1_SF_EENSC_IT2_SH_EERKT3_bEUlmE0_EEvRNS_9schedulerINS_15WorkStealingJobEEEmmRT_mbEUlvE0_ED1Ev, symObjAddr: 0x6B4C0, symBinAddr: 0x10006D868, symSize: 0x4 }
  - { offset: 0x31221E, size: 0x8, addend: 0x0, symName: __ZN6parlay7JobImplIZNS_19fork_join_scheduler7parfor_IZNS_8internal10merge_intoINS_26uninitialized_relocate_tagEPNSt3__15tupleIJdlllEEES9_S9_NS6_4lessIvEEEEvNS_5sliceIT0_SD_EENSC_IT1_SF_EENSC_IT2_SH_EERKT3_bEUlmE0_EEvRNS_9schedulerINS_15WorkStealingJobEEEmmRT_mbEUlvE0_ED0Ev, symObjAddr: 0x6B4C4, symBinAddr: 0x10006D86C, symSize: 0x4 }
  - { offset: 0x312249, size: 0x8, addend: 0x0, symName: __ZN6parlay7JobImplIZNS_19fork_join_scheduler7parfor_IZNS_8internal10merge_intoINS_26uninitialized_relocate_tagEPNSt3__15tupleIJdlllEEES9_S9_NS6_4lessIvEEEEvNS_5sliceIT0_SD_EENSC_IT1_SF_EENSC_IT2_SH_EERKT3_bEUlmE0_EEvRNS_9schedulerINS_15WorkStealingJobEEEmmRT_mbEUlvE0_E7executeEv, symObjAddr: 0x6B4C8, symBinAddr: 0x10006D870, symSize: 0xD8 }
  - { offset: 0x312591, size: 0x8, addend: 0x0, symName: __ZN6parlay7JobImplIZNS_19fork_join_scheduler7parfor_IZNS_8internal10merge_intoINS_26uninitialized_relocate_tagEPNSt3__15tupleIJdlllEEES9_S9_NS6_4lessIvEEEEvNS_5sliceIT0_SD_EENSC_IT1_SF_EENSC_IT2_SH_EERKT3_bEUlmE_EEvRNS_9schedulerINS_15WorkStealingJobEEEmmRT_mbEUlvE0_ED1Ev, symObjAddr: 0x6BBE8, symBinAddr: 0x10006DF90, symSize: 0x4 }
  - { offset: 0x3125BC, size: 0x8, addend: 0x0, symName: __ZN6parlay7JobImplIZNS_19fork_join_scheduler7parfor_IZNS_8internal10merge_intoINS_26uninitialized_relocate_tagEPNSt3__15tupleIJdlllEEES9_S9_NS6_4lessIvEEEEvNS_5sliceIT0_SD_EENSC_IT1_SF_EENSC_IT2_SH_EERKT3_bEUlmE_EEvRNS_9schedulerINS_15WorkStealingJobEEEmmRT_mbEUlvE0_ED0Ev, symObjAddr: 0x6BBEC, symBinAddr: 0x10006DF94, symSize: 0x4 }
  - { offset: 0x3125E7, size: 0x8, addend: 0x0, symName: __ZN6parlay7JobImplIZNS_19fork_join_scheduler7parfor_IZNS_8internal10merge_intoINS_26uninitialized_relocate_tagEPNSt3__15tupleIJdlllEEES9_S9_NS6_4lessIvEEEEvNS_5sliceIT0_SD_EENSC_IT1_SF_EENSC_IT2_SH_EERKT3_bEUlmE_EEvRNS_9schedulerINS_15WorkStealingJobEEEmmRT_mbEUlvE0_E7executeEv, symObjAddr: 0x6BBF0, symBinAddr: 0x10006DF98, symSize: 0xD8 }
  - { offset: 0x312710, size: 0x8, addend: 0x0, symName: __ZN6parlay7JobImplIZNS_8internal11merge_sort_IPNSt3__15tupleIJdlllEEES6_NS3_4lessIvEEEEvNS_5sliceIT_SA_EENS9_IT0_SC_EERKT1_bEUlvE0_ED1Ev, symObjAddr: 0x6BCC8, symBinAddr: 0x10006E070, symSize: 0x4 }
  - { offset: 0x31273B, size: 0x8, addend: 0x0, symName: __ZN6parlay7JobImplIZNS_8internal11merge_sort_IPNSt3__15tupleIJdlllEEES6_NS3_4lessIvEEEEvNS_5sliceIT_SA_EENS9_IT0_SC_EERKT1_bEUlvE0_ED0Ev, symObjAddr: 0x6BCCC, symBinAddr: 0x10006E074, symSize: 0x4 }
  - { offset: 0x312766, size: 0x8, addend: 0x0, symName: __ZN6parlay7JobImplIZNS_8internal11merge_sort_IPNSt3__15tupleIJdlllEEES6_NS3_4lessIvEEEEvNS_5sliceIT_SA_EENS9_IT0_SC_EERKT1_bEUlvE0_E7executeEv, symObjAddr: 0x6BCD0, symBinAddr: 0x10006E078, symSize: 0x48 }
  - { offset: 0x31397A, size: 0x8, addend: 0x0, symName: __ZN6parlay7JobImplIZNS_19fork_join_scheduler7parfor_IZNS_8sequenceImNS_9allocatorImEELb0EEC1IZNS_8internal17transpose_bucketsINS_26uninitialized_relocate_tagEPNSt3__15tupleIJdlllEEESE_mEES6_T0_T1_RNS3_IT2_NS4_ISH_EEXsr3std7is_sameISH_cEE5valueEEEmmmmEUlmE1_EEmOT_NS6_18_from_function_tagEmEUlmE_EEvRNS_9schedulerINS_15WorkStealingJobEEEmmRSM_mbEUlvE0_ED1Ev, symObjAddr: 0x6E21C, symBinAddr: 0x1000705C4, symSize: 0x4 }
  - { offset: 0x3139A5, size: 0x8, addend: 0x0, symName: __ZN6parlay7JobImplIZNS_19fork_join_scheduler7parfor_IZNS_8sequenceImNS_9allocatorImEELb0EEC1IZNS_8internal17transpose_bucketsINS_26uninitialized_relocate_tagEPNSt3__15tupleIJdlllEEESE_mEES6_T0_T1_RNS3_IT2_NS4_ISH_EEXsr3std7is_sameISH_cEE5valueEEEmmmmEUlmE1_EEmOT_NS6_18_from_function_tagEmEUlmE_EEvRNS_9schedulerINS_15WorkStealingJobEEEmmRSM_mbEUlvE0_ED0Ev, symObjAddr: 0x6E220, symBinAddr: 0x1000705C8, symSize: 0x4 }
  - { offset: 0x3139D0, size: 0x8, addend: 0x0, symName: __ZN6parlay7JobImplIZNS_19fork_join_scheduler7parfor_IZNS_8sequenceImNS_9allocatorImEELb0EEC1IZNS_8internal17transpose_bucketsINS_26uninitialized_relocate_tagEPNSt3__15tupleIJdlllEEESE_mEES6_T0_T1_RNS3_IT2_NS4_ISH_EEXsr3std7is_sameISH_cEE5valueEEEmmmmEUlmE1_EEmOT_NS6_18_from_function_tagEmEUlmE_EEvRNS_9schedulerINS_15WorkStealingJobEEEmmRSM_mbEUlvE0_E7executeEv, symObjAddr: 0x6E224, symBinAddr: 0x1000705CC, symSize: 0x24 }
  - { offset: 0x313A22, size: 0x8, addend: 0x0, symName: __ZN6parlay7JobImplIZNS_8internal10blockTransINS_26uninitialized_relocate_tagEPNSt3__15tupleIJdlllEEES7_PmS8_E6transREmmmmmmEUlvE2_ED1Ev, symObjAddr: 0x6E248, symBinAddr: 0x1000705F0, symSize: 0x4 }
  - { offset: 0x313A4D, size: 0x8, addend: 0x0, symName: __ZN6parlay7JobImplIZNS_8internal10blockTransINS_26uninitialized_relocate_tagEPNSt3__15tupleIJdlllEEES7_PmS8_E6transREmmmmmmEUlvE2_ED0Ev, symObjAddr: 0x6E24C, symBinAddr: 0x1000705F4, symSize: 0x4 }
  - { offset: 0x313A78, size: 0x8, addend: 0x0, symName: __ZN6parlay7JobImplIZNS_8internal10blockTransINS_26uninitialized_relocate_tagEPNSt3__15tupleIJdlllEEES7_PmS8_E6transREmmmmmmEUlvE2_E7executeEv, symObjAddr: 0x6E250, symBinAddr: 0x1000705F8, symSize: 0x38 }
  - { offset: 0x313ACA, size: 0x8, addend: 0x0, symName: __ZN6parlay7JobImplIZNS_8internal10blockTransINS_26uninitialized_relocate_tagEPNSt3__15tupleIJdlllEEES7_PmS8_E6transREmmmmmmEUlvE0_ED1Ev, symObjAddr: 0x6E288, symBinAddr: 0x100070630, symSize: 0x4 }
  - { offset: 0x313AF5, size: 0x8, addend: 0x0, symName: __ZN6parlay7JobImplIZNS_8internal10blockTransINS_26uninitialized_relocate_tagEPNSt3__15tupleIJdlllEEES7_PmS8_E6transREmmmmmmEUlvE0_ED0Ev, symObjAddr: 0x6E28C, symBinAddr: 0x100070634, symSize: 0x4 }
  - { offset: 0x313B20, size: 0x8, addend: 0x0, symName: __ZN6parlay7JobImplIZNS_8internal10blockTransINS_26uninitialized_relocate_tagEPNSt3__15tupleIJdlllEEES7_PmS8_E6transREmmmmmmEUlvE0_E7executeEv, symObjAddr: 0x6E290, symBinAddr: 0x100070638, symSize: 0x38 }
  - { offset: 0x313E65, size: 0x8, addend: 0x0, symName: __ZN6parlay7JobImplIZNS_19fork_join_scheduler7parfor_IZNS_8internal10blockTransINS_26uninitialized_relocate_tagEPNSt3__15tupleIJdlllEEES9_PmSA_E6transREmmmmmmEUlmE_EEvRNS_9schedulerINS_15WorkStealingJobEEEmmRT_mbEUlvE0_ED1Ev, symObjAddr: 0x6E8CC, symBinAddr: 0x100070C74, symSize: 0x4 }
  - { offset: 0x313E90, size: 0x8, addend: 0x0, symName: __ZN6parlay7JobImplIZNS_19fork_join_scheduler7parfor_IZNS_8internal10blockTransINS_26uninitialized_relocate_tagEPNSt3__15tupleIJdlllEEES9_PmSA_E6transREmmmmmmEUlmE_EEvRNS_9schedulerINS_15WorkStealingJobEEEmmRT_mbEUlvE0_ED0Ev, symObjAddr: 0x6E8D0, symBinAddr: 0x100070C78, symSize: 0x4 }
  - { offset: 0x313EBB, size: 0x8, addend: 0x0, symName: __ZN6parlay7JobImplIZNS_19fork_join_scheduler7parfor_IZNS_8internal10blockTransINS_26uninitialized_relocate_tagEPNSt3__15tupleIJdlllEEES9_PmSA_E6transREmmmmmmEUlmE_EEvRNS_9schedulerINS_15WorkStealingJobEEEmmRT_mbEUlvE0_E7executeEv, symObjAddr: 0x6E8D4, symBinAddr: 0x100070C7C, symSize: 0x24 }
  - { offset: 0x313F0D, size: 0x8, addend: 0x0, symName: __ZN6parlay7JobImplIZNS_8internal9transposeINS_22uninitialized_copy_tagEPmS4_E6transREmmmmmmEUlvE2_ED1Ev, symObjAddr: 0x6E8F8, symBinAddr: 0x100070CA0, symSize: 0x4 }
  - { offset: 0x313F38, size: 0x8, addend: 0x0, symName: __ZN6parlay7JobImplIZNS_8internal9transposeINS_22uninitialized_copy_tagEPmS4_E6transREmmmmmmEUlvE2_ED0Ev, symObjAddr: 0x6E8FC, symBinAddr: 0x100070CA4, symSize: 0x4 }
  - { offset: 0x313F63, size: 0x8, addend: 0x0, symName: __ZN6parlay7JobImplIZNS_8internal9transposeINS_22uninitialized_copy_tagEPmS4_E6transREmmmmmmEUlvE2_E7executeEv, symObjAddr: 0x6E900, symBinAddr: 0x100070CA8, symSize: 0x38 }
  - { offset: 0x313FB5, size: 0x8, addend: 0x0, symName: __ZN6parlay7JobImplIZNS_8internal9transposeINS_22uninitialized_copy_tagEPmS4_E6transREmmmmmmEUlvE0_ED1Ev, symObjAddr: 0x6E938, symBinAddr: 0x100070CE0, symSize: 0x4 }
  - { offset: 0x313FE0, size: 0x8, addend: 0x0, symName: __ZN6parlay7JobImplIZNS_8internal9transposeINS_22uninitialized_copy_tagEPmS4_E6transREmmmmmmEUlvE0_ED0Ev, symObjAddr: 0x6E93C, symBinAddr: 0x100070CE4, symSize: 0x4 }
  - { offset: 0x31400B, size: 0x8, addend: 0x0, symName: __ZN6parlay7JobImplIZNS_8internal9transposeINS_22uninitialized_copy_tagEPmS4_E6transREmmmmmmEUlvE0_E7executeEv, symObjAddr: 0x6E940, symBinAddr: 0x100070CE8, symSize: 0x38 }
  - { offset: 0x314350, size: 0x8, addend: 0x0, symName: __ZN6parlay7JobImplIZNS_19fork_join_scheduler7parfor_IZNS_8internal17transpose_bucketsINS_26uninitialized_relocate_tagEPNSt3__15tupleIJdlllEEES9_mEENS_8sequenceImNS_9allocatorImEELb0EEET0_T1_RNSA_IT2_NSB_ISG_EEXsr3std7is_sameISG_cEE5valueEEEmmmmEUlmE0_EEvRNS_9schedulerINS_15WorkStealingJobEEEmmRT_mbEUlvE0_ED1Ev, symObjAddr: 0x6EF8C, symBinAddr: 0x100071334, symSize: 0x4 }
  - { offset: 0x31437B, size: 0x8, addend: 0x0, symName: __ZN6parlay7JobImplIZNS_19fork_join_scheduler7parfor_IZNS_8internal17transpose_bucketsINS_26uninitialized_relocate_tagEPNSt3__15tupleIJdlllEEES9_mEENS_8sequenceImNS_9allocatorImEELb0EEET0_T1_RNSA_IT2_NSB_ISG_EEXsr3std7is_sameISG_cEE5valueEEEmmmmEUlmE0_EEvRNS_9schedulerINS_15WorkStealingJobEEEmmRT_mbEUlvE0_ED0Ev, symObjAddr: 0x6EF90, symBinAddr: 0x100071338, symSize: 0x4 }
  - { offset: 0x3143A6, size: 0x8, addend: 0x0, symName: __ZN6parlay7JobImplIZNS_19fork_join_scheduler7parfor_IZNS_8internal17transpose_bucketsINS_26uninitialized_relocate_tagEPNSt3__15tupleIJdlllEEES9_mEENS_8sequenceImNS_9allocatorImEELb0EEET0_T1_RNSA_IT2_NSB_ISG_EEXsr3std7is_sameISG_cEE5valueEEEmmmmEUlmE0_EEvRNS_9schedulerINS_15WorkStealingJobEEEmmRT_mbEUlvE0_E7executeEv, symObjAddr: 0x6EF94, symBinAddr: 0x10007133C, symSize: 0x24 }
  - { offset: 0x3146EB, size: 0x8, addend: 0x0, symName: __ZN6parlay7JobImplIZNS_19fork_join_scheduler7parfor_IZNS_8internal10sliced_forIZNS3_5scan_INS_5sliceIPmS7_EES8_RNS_4plusImEEEEDaRKT_T0_OT1_jbEUlmmmE0_EEvmmSF_jEUlmE_EEvRNS_9schedulerINS_15WorkStealingJobEEEmmRSD_mbEUlvE0_ED1Ev, symObjAddr: 0x6F728, symBinAddr: 0x100071AD0, symSize: 0x4 }
  - { offset: 0x314716, size: 0x8, addend: 0x0, symName: __ZN6parlay7JobImplIZNS_19fork_join_scheduler7parfor_IZNS_8internal10sliced_forIZNS3_5scan_INS_5sliceIPmS7_EES8_RNS_4plusImEEEEDaRKT_T0_OT1_jbEUlmmmE0_EEvmmSF_jEUlmE_EEvRNS_9schedulerINS_15WorkStealingJobEEEmmRSD_mbEUlvE0_ED0Ev, symObjAddr: 0x6F72C, symBinAddr: 0x100071AD4, symSize: 0x4 }
  - { offset: 0x314741, size: 0x8, addend: 0x0, symName: __ZN6parlay7JobImplIZNS_19fork_join_scheduler7parfor_IZNS_8internal10sliced_forIZNS3_5scan_INS_5sliceIPmS7_EES8_RNS_4plusImEEEEDaRKT_T0_OT1_jbEUlmmmE0_EEvmmSF_jEUlmE_EEvRNS_9schedulerINS_15WorkStealingJobEEEmmRSD_mbEUlvE0_E7executeEv, symObjAddr: 0x6F730, symBinAddr: 0x100071AD8, symSize: 0x24 }
  - { offset: 0x314B1A, size: 0x8, addend: 0x0, symName: __ZN6parlay7JobImplIZNS_19fork_join_scheduler7parfor_IZNS_8internal10sliced_forIZNS3_5scan_INS_5sliceIPmS7_EES8_RNS_4plusImEEEEDaRKT_T0_OT1_jbEUlmmmE_EEvmmSF_jEUlmE_EEvRNS_9schedulerINS_15WorkStealingJobEEEmmRSD_mbEUlvE0_ED1Ev, symObjAddr: 0x6FDCC, symBinAddr: 0x100072174, symSize: 0x4 }
  - { offset: 0x314B45, size: 0x8, addend: 0x0, symName: __ZN6parlay7JobImplIZNS_19fork_join_scheduler7parfor_IZNS_8internal10sliced_forIZNS3_5scan_INS_5sliceIPmS7_EES8_RNS_4plusImEEEEDaRKT_T0_OT1_jbEUlmmmE_EEvmmSF_jEUlmE_EEvRNS_9schedulerINS_15WorkStealingJobEEEmmRSD_mbEUlvE0_ED0Ev, symObjAddr: 0x6FDD0, symBinAddr: 0x100072178, symSize: 0x4 }
  - { offset: 0x314B70, size: 0x8, addend: 0x0, symName: __ZN6parlay7JobImplIZNS_19fork_join_scheduler7parfor_IZNS_8internal10sliced_forIZNS3_5scan_INS_5sliceIPmS7_EES8_RNS_4plusImEEEEDaRKT_T0_OT1_jbEUlmmmE_EEvmmSF_jEUlmE_EEvRNS_9schedulerINS_15WorkStealingJobEEEmmRSD_mbEUlvE0_E7executeEv, symObjAddr: 0x6FDD4, symBinAddr: 0x10007217C, symSize: 0x24 }
  - { offset: 0x314EB5, size: 0x8, addend: 0x0, symName: __ZN6parlay7JobImplIZNS_19fork_join_scheduler7parfor_IZNS_8sequenceImNS_9allocatorImEELb0EEC1IRZNS_8internal17transpose_bucketsINS_26uninitialized_relocate_tagEPNSt3__15tupleIJdlllEEESE_mEES6_T0_T1_RNS3_IT2_NS4_ISH_EEXsr3std7is_sameISH_cEE5valueEEEmmmmEUlmE_EEmOT_NS6_18_from_function_tagEmEUlmE_EEvRNS_9schedulerINS_15WorkStealingJobEEEmmRSN_mbEUlvE0_ED1Ev, symObjAddr: 0x70398, symBinAddr: 0x100072740, symSize: 0x4 }
  - { offset: 0x314EE0, size: 0x8, addend: 0x0, symName: __ZN6parlay7JobImplIZNS_19fork_join_scheduler7parfor_IZNS_8sequenceImNS_9allocatorImEELb0EEC1IRZNS_8internal17transpose_bucketsINS_26uninitialized_relocate_tagEPNSt3__15tupleIJdlllEEESE_mEES6_T0_T1_RNS3_IT2_NS4_ISH_EEXsr3std7is_sameISH_cEE5valueEEEmmmmEUlmE_EEmOT_NS6_18_from_function_tagEmEUlmE_EEvRNS_9schedulerINS_15WorkStealingJobEEEmmRSN_mbEUlvE0_ED0Ev, symObjAddr: 0x7039C, symBinAddr: 0x100072744, symSize: 0x4 }
  - { offset: 0x314F0B, size: 0x8, addend: 0x0, symName: __ZN6parlay7JobImplIZNS_19fork_join_scheduler7parfor_IZNS_8sequenceImNS_9allocatorImEELb0EEC1IRZNS_8internal17transpose_bucketsINS_26uninitialized_relocate_tagEPNSt3__15tupleIJdlllEEESE_mEES6_T0_T1_RNS3_IT2_NS4_ISH_EEXsr3std7is_sameISH_cEE5valueEEEmmmmEUlmE_EEmOT_NS6_18_from_function_tagEmEUlmE_EEvRNS_9schedulerINS_15WorkStealingJobEEEmmRSN_mbEUlvE0_E7executeEv, symObjAddr: 0x703A0, symBinAddr: 0x100072748, symSize: 0x24 }
  - { offset: 0x31529D, size: 0x8, addend: 0x0, symName: __ZN6parlay7JobImplIZNS_19fork_join_scheduler7parfor_IZNS_8internal10sliced_forIZNS3_12sample_sort_ImNS_16delayed_sequenceINSt3__15tupleIJdlllEEES9_Z19min_spanning_forestIldENS_8sequenceIlNS_9allocatorIlEELb0EEERKNSB_INS8_IJT_SF_T0_EEENSC_ISH_EEXsr3std7is_sameISH_cEE5valueEEElEUllE_E8iteratorEPS9_NS7_4lessIvEEEEvNS_5sliceISG_SG_EENSS_IT1_SU_EERKT2_bEUlmmmE_EEvmmRKSF_jEUlmE_EEvRNS_9schedulerINS_15WorkStealingJobEEEmmRSF_mbEUlvE0_ED1Ev, symObjAddr: 0x70D74, symBinAddr: 0x10007311C, symSize: 0x4 }
  - { offset: 0x3152C8, size: 0x8, addend: 0x0, symName: __ZN6parlay7JobImplIZNS_19fork_join_scheduler7parfor_IZNS_8internal10sliced_forIZNS3_12sample_sort_ImNS_16delayed_sequenceINSt3__15tupleIJdlllEEES9_Z19min_spanning_forestIldENS_8sequenceIlNS_9allocatorIlEELb0EEERKNSB_INS8_IJT_SF_T0_EEENSC_ISH_EEXsr3std7is_sameISH_cEE5valueEEElEUllE_E8iteratorEPS9_NS7_4lessIvEEEEvNS_5sliceISG_SG_EENSS_IT1_SU_EERKT2_bEUlmmmE_EEvmmRKSF_jEUlmE_EEvRNS_9schedulerINS_15WorkStealingJobEEEmmRSF_mbEUlvE0_ED0Ev, symObjAddr: 0x70D78, symBinAddr: 0x100073120, symSize: 0x4 }
  - { offset: 0x3152F3, size: 0x8, addend: 0x0, symName: __ZN6parlay7JobImplIZNS_19fork_join_scheduler7parfor_IZNS_8internal10sliced_forIZNS3_12sample_sort_ImNS_16delayed_sequenceINSt3__15tupleIJdlllEEES9_Z19min_spanning_forestIldENS_8sequenceIlNS_9allocatorIlEELb0EEERKNSB_INS8_IJT_SF_T0_EEENSC_ISH_EEXsr3std7is_sameISH_cEE5valueEEElEUllE_E8iteratorEPS9_NS7_4lessIvEEEEvNS_5sliceISG_SG_EENSS_IT1_SU_EERKT2_bEUlmmmE_EEvmmRKSF_jEUlmE_EEvRNS_9schedulerINS_15WorkStealingJobEEEmmRSF_mbEUlvE0_E7executeEv, symObjAddr: 0x70D7C, symBinAddr: 0x100073124, symSize: 0x24 }
  - { offset: 0x315564, size: 0x8, addend: 0x0, symName: __ZN6parlay7JobImplIZNS_19fork_join_scheduler7parfor_IZNS_8sequenceINSt3__15tupleIJdlllEEENS_9allocatorIS6_EELb0EEC1IZNS_8internal12sample_sort_ImNS_16delayed_sequenceIS6_S6_Z19min_spanning_forestIldENS3_IlNS7_IlEELb0EEERKNS3_INS5_IJT_SH_T0_EEENS7_ISJ_EEXsr3std7is_sameISJ_cEE5valueEEElEUllE_E8iteratorEPS6_NS4_4lessIvEEEEvNS_5sliceISI_SI_EENSU_IT1_SW_EERKT2_bEUlmE0_EEmOSH_NS9_18_from_function_tagEmEUlmE_EEvRNS_9schedulerINS_15WorkStealingJobEEEmmRSH_mbEUlvE0_ED1Ev, symObjAddr: 0x71408, symBinAddr: 0x1000737B0, symSize: 0x4 }
  - { offset: 0x31558F, size: 0x8, addend: 0x0, symName: __ZN6parlay7JobImplIZNS_19fork_join_scheduler7parfor_IZNS_8sequenceINSt3__15tupleIJdlllEEENS_9allocatorIS6_EELb0EEC1IZNS_8internal12sample_sort_ImNS_16delayed_sequenceIS6_S6_Z19min_spanning_forestIldENS3_IlNS7_IlEELb0EEERKNS3_INS5_IJT_SH_T0_EEENS7_ISJ_EEXsr3std7is_sameISJ_cEE5valueEEElEUllE_E8iteratorEPS6_NS4_4lessIvEEEEvNS_5sliceISI_SI_EENSU_IT1_SW_EERKT2_bEUlmE0_EEmOSH_NS9_18_from_function_tagEmEUlmE_EEvRNS_9schedulerINS_15WorkStealingJobEEEmmRSH_mbEUlvE0_ED0Ev, symObjAddr: 0x7140C, symBinAddr: 0x1000737B4, symSize: 0x4 }
  - { offset: 0x3155BA, size: 0x8, addend: 0x0, symName: __ZN6parlay7JobImplIZNS_19fork_join_scheduler7parfor_IZNS_8sequenceINSt3__15tupleIJdlllEEENS_9allocatorIS6_EELb0EEC1IZNS_8internal12sample_sort_ImNS_16delayed_sequenceIS6_S6_Z19min_spanning_forestIldENS3_IlNS7_IlEELb0EEERKNS3_INS5_IJT_SH_T0_EEENS7_ISJ_EEXsr3std7is_sameISJ_cEE5valueEEElEUllE_E8iteratorEPS6_NS4_4lessIvEEEEvNS_5sliceISI_SI_EENSU_IT1_SW_EERKT2_bEUlmE0_EEmOSH_NS9_18_from_function_tagEmEUlmE_EEvRNS_9schedulerINS_15WorkStealingJobEEEmmRSH_mbEUlvE0_E7executeEv, symObjAddr: 0x71410, symBinAddr: 0x1000737B8, symSize: 0xE8 }
  - { offset: 0x315A57, size: 0x8, addend: 0x0, symName: __ZN6parlay7JobImplIZNS_19fork_join_scheduler7parfor_IZNS_8sequenceINSt3__15tupleIJdlllEEENS_9allocatorIS6_EELb0EEC1IZNS_8internal12sample_sort_ImNS_16delayed_sequenceIS6_S6_Z19min_spanning_forestIldENS3_IlNS7_IlEELb0EEERKNS3_INS5_IJT_SH_T0_EEENS7_ISJ_EEXsr3std7is_sameISJ_cEE5valueEEElEUllE_E8iteratorEPS6_NS4_4lessIvEEEEvNS_5sliceISI_SI_EENSU_IT1_SW_EERKT2_bEUlmE_EEmOSH_NS9_18_from_function_tagEmEUlmE_EEvRNS_9schedulerINS_15WorkStealingJobEEEmmRSH_mbEUlvE0_ED1Ev, symObjAddr: 0x71B14, symBinAddr: 0x100073EBC, symSize: 0x4 }
  - { offset: 0x315A82, size: 0x8, addend: 0x0, symName: __ZN6parlay7JobImplIZNS_19fork_join_scheduler7parfor_IZNS_8sequenceINSt3__15tupleIJdlllEEENS_9allocatorIS6_EELb0EEC1IZNS_8internal12sample_sort_ImNS_16delayed_sequenceIS6_S6_Z19min_spanning_forestIldENS3_IlNS7_IlEELb0EEERKNS3_INS5_IJT_SH_T0_EEENS7_ISJ_EEXsr3std7is_sameISJ_cEE5valueEEElEUllE_E8iteratorEPS6_NS4_4lessIvEEEEvNS_5sliceISI_SI_EENSU_IT1_SW_EERKT2_bEUlmE_EEmOSH_NS9_18_from_function_tagEmEUlmE_EEvRNS_9schedulerINS_15WorkStealingJobEEEmmRSH_mbEUlvE0_ED0Ev, symObjAddr: 0x71B18, symBinAddr: 0x100073EC0, symSize: 0x4 }
  - { offset: 0x315AAD, size: 0x8, addend: 0x0, symName: __ZN6parlay7JobImplIZNS_19fork_join_scheduler7parfor_IZNS_8sequenceINSt3__15tupleIJdlllEEENS_9allocatorIS6_EELb0EEC1IZNS_8internal12sample_sort_ImNS_16delayed_sequenceIS6_S6_Z19min_spanning_forestIldENS3_IlNS7_IlEELb0EEERKNS3_INS5_IJT_SH_T0_EEENS7_ISJ_EEXsr3std7is_sameISJ_cEE5valueEEElEUllE_E8iteratorEPS6_NS4_4lessIvEEEEvNS_5sliceISI_SI_EENSU_IT1_SW_EERKT2_bEUlmE_EEmOSH_NS9_18_from_function_tagEmEUlmE_EEvRNS_9schedulerINS_15WorkStealingJobEEEmmRSH_mbEUlvE0_E7executeEv, symObjAddr: 0x71B1C, symBinAddr: 0x100073EC4, symSize: 0x24 }
  - { offset: 0x315EB2, size: 0x8, addend: 0x0, symName: __ZN6parlay7JobImplIZNS_8internal9quicksortIPNSt3__15tupleIJdlllEEENS3_4lessIvEEEEvT_mRKT0_EUlvE1_ED1Ev, symObjAddr: 0x727AC, symBinAddr: 0x100074B54, symSize: 0x4 }
  - { offset: 0x315EDD, size: 0x8, addend: 0x0, symName: __ZN6parlay7JobImplIZNS_8internal9quicksortIPNSt3__15tupleIJdlllEEENS3_4lessIvEEEEvT_mRKT0_EUlvE1_ED0Ev, symObjAddr: 0x727B0, symBinAddr: 0x100074B58, symSize: 0x4 }
  - { offset: 0x315F34, size: 0x8, addend: 0x0, symName: __ZN6parlay7JobImplIZNS_8internal9quicksortIPNSt3__15tupleIJdlllEEENS3_4lessIvEEEEvT_mRKT0_EUlvE1_E7executeEv, symObjAddr: 0x727B4, symBinAddr: 0x100074B5C, symSize: 0x24 }
  - { offset: 0x315F86, size: 0x8, addend: 0x0, symName: __ZN6parlay7JobImplIZNS_8internal9quicksortIPNSt3__15tupleIJdlllEEENS3_4lessIvEEEEvT_mRKT0_EUlvE0_ED1Ev, symObjAddr: 0x727D8, symBinAddr: 0x100074B80, symSize: 0x4 }
  - { offset: 0x315FB1, size: 0x8, addend: 0x0, symName: __ZN6parlay7JobImplIZNS_8internal9quicksortIPNSt3__15tupleIJdlllEEENS3_4lessIvEEEEvT_mRKT0_EUlvE0_ED0Ev, symObjAddr: 0x727DC, symBinAddr: 0x100074B84, symSize: 0x4 }
  - { offset: 0x315FDC, size: 0x8, addend: 0x0, symName: __ZN6parlay7JobImplIZNS_8internal9quicksortIPNSt3__15tupleIJdlllEEENS3_4lessIvEEEEvT_mRKT0_EUlvE0_E7executeEv, symObjAddr: 0x727E0, symBinAddr: 0x100074B88, symSize: 0x20 }
  - { offset: 0x31631F, size: 0x8, addend: 0x0, symName: __ZN6parlay7JobImplIZNS_19fork_join_scheduler7parfor_IZNS_8internal12sample_sort_IjNS_16delayed_sequenceINSt3__15tupleIJdlllEEES8_Z19min_spanning_forestIldENS_8sequenceIlNS_9allocatorIlEELb0EEERKNSA_INS7_IJT_SE_T0_EEENSB_ISG_EEXsr3std7is_sameISG_cEE5valueEEElEUllE_E8iteratorEPS8_NS6_4lessIvEEEEvNS_5sliceISF_SF_EENSR_IT1_ST_EERKT2_bEUlmE1_EEvRNS_9schedulerINS_15WorkStealingJobEEEmmRSE_mbEUlvE0_ED1Ev, symObjAddr: 0x72FE0, symBinAddr: 0x100075388, symSize: 0x4 }
  - { offset: 0x31634A, size: 0x8, addend: 0x0, symName: __ZN6parlay7JobImplIZNS_19fork_join_scheduler7parfor_IZNS_8internal12sample_sort_IjNS_16delayed_sequenceINSt3__15tupleIJdlllEEES8_Z19min_spanning_forestIldENS_8sequenceIlNS_9allocatorIlEELb0EEERKNSA_INS7_IJT_SE_T0_EEENSB_ISG_EEXsr3std7is_sameISG_cEE5valueEEElEUllE_E8iteratorEPS8_NS6_4lessIvEEEEvNS_5sliceISF_SF_EENSR_IT1_ST_EERKT2_bEUlmE1_EEvRNS_9schedulerINS_15WorkStealingJobEEEmmRSE_mbEUlvE0_ED0Ev, symObjAddr: 0x72FE4, symBinAddr: 0x10007538C, symSize: 0x4 }
  - { offset: 0x316375, size: 0x8, addend: 0x0, symName: __ZN6parlay7JobImplIZNS_19fork_join_scheduler7parfor_IZNS_8internal12sample_sort_IjNS_16delayed_sequenceINSt3__15tupleIJdlllEEES8_Z19min_spanning_forestIldENS_8sequenceIlNS_9allocatorIlEELb0EEERKNSA_INS7_IJT_SE_T0_EEENSB_ISG_EEXsr3std7is_sameISG_cEE5valueEEElEUllE_E8iteratorEPS8_NS6_4lessIvEEEEvNS_5sliceISF_SF_EENSR_IT1_ST_EERKT2_bEUlmE1_EEvRNS_9schedulerINS_15WorkStealingJobEEEmmRSE_mbEUlvE0_E7executeEv, symObjAddr: 0x72FE8, symBinAddr: 0x100075390, symSize: 0x24 }
  - { offset: 0x3175CA, size: 0x8, addend: 0x0, symName: __ZN6parlay7JobImplIZNS_19fork_join_scheduler7parfor_IZNS_8sequenceImNS_9allocatorImEELb0EEC1IZNS_8internal17transpose_bucketsINS_26uninitialized_relocate_tagEPNSt3__15tupleIJdlllEEESE_jEES6_T0_T1_RNS3_IT2_NS4_ISH_EEXsr3std7is_sameISH_cEE5valueEEEmmmmEUlmE1_EEmOT_NS6_18_from_function_tagEmEUlmE_EEvRNS_9schedulerINS_15WorkStealingJobEEEmmRSM_mbEUlvE0_ED1Ev, symObjAddr: 0x754B0, symBinAddr: 0x100077858, symSize: 0x4 }
  - { offset: 0x3175F5, size: 0x8, addend: 0x0, symName: __ZN6parlay7JobImplIZNS_19fork_join_scheduler7parfor_IZNS_8sequenceImNS_9allocatorImEELb0EEC1IZNS_8internal17transpose_bucketsINS_26uninitialized_relocate_tagEPNSt3__15tupleIJdlllEEESE_jEES6_T0_T1_RNS3_IT2_NS4_ISH_EEXsr3std7is_sameISH_cEE5valueEEEmmmmEUlmE1_EEmOT_NS6_18_from_function_tagEmEUlmE_EEvRNS_9schedulerINS_15WorkStealingJobEEEmmRSM_mbEUlvE0_ED0Ev, symObjAddr: 0x754B4, symBinAddr: 0x10007785C, symSize: 0x4 }
  - { offset: 0x317620, size: 0x8, addend: 0x0, symName: __ZN6parlay7JobImplIZNS_19fork_join_scheduler7parfor_IZNS_8sequenceImNS_9allocatorImEELb0EEC1IZNS_8internal17transpose_bucketsINS_26uninitialized_relocate_tagEPNSt3__15tupleIJdlllEEESE_jEES6_T0_T1_RNS3_IT2_NS4_ISH_EEXsr3std7is_sameISH_cEE5valueEEEmmmmEUlmE1_EEmOT_NS6_18_from_function_tagEmEUlmE_EEvRNS_9schedulerINS_15WorkStealingJobEEEmmRSM_mbEUlvE0_E7executeEv, symObjAddr: 0x754B8, symBinAddr: 0x100077860, symSize: 0x24 }
  - { offset: 0x317672, size: 0x8, addend: 0x0, symName: __ZN6parlay7JobImplIZNS_8internal10blockTransINS_26uninitialized_relocate_tagEPNSt3__15tupleIJdlllEEES7_PjS8_E6transREmmmmmmEUlvE2_ED1Ev, symObjAddr: 0x754DC, symBinAddr: 0x100077884, symSize: 0x4 }
  - { offset: 0x31769D, size: 0x8, addend: 0x0, symName: __ZN6parlay7JobImplIZNS_8internal10blockTransINS_26uninitialized_relocate_tagEPNSt3__15tupleIJdlllEEES7_PjS8_E6transREmmmmmmEUlvE2_ED0Ev, symObjAddr: 0x754E0, symBinAddr: 0x100077888, symSize: 0x4 }
  - { offset: 0x3176C8, size: 0x8, addend: 0x0, symName: __ZN6parlay7JobImplIZNS_8internal10blockTransINS_26uninitialized_relocate_tagEPNSt3__15tupleIJdlllEEES7_PjS8_E6transREmmmmmmEUlvE2_E7executeEv, symObjAddr: 0x754E4, symBinAddr: 0x10007788C, symSize: 0x38 }
  - { offset: 0x31771A, size: 0x8, addend: 0x0, symName: __ZN6parlay7JobImplIZNS_8internal10blockTransINS_26uninitialized_relocate_tagEPNSt3__15tupleIJdlllEEES7_PjS8_E6transREmmmmmmEUlvE0_ED1Ev, symObjAddr: 0x7551C, symBinAddr: 0x1000778C4, symSize: 0x4 }
  - { offset: 0x317745, size: 0x8, addend: 0x0, symName: __ZN6parlay7JobImplIZNS_8internal10blockTransINS_26uninitialized_relocate_tagEPNSt3__15tupleIJdlllEEES7_PjS8_E6transREmmmmmmEUlvE0_ED0Ev, symObjAddr: 0x75520, symBinAddr: 0x1000778C8, symSize: 0x4 }
  - { offset: 0x317770, size: 0x8, addend: 0x0, symName: __ZN6parlay7JobImplIZNS_8internal10blockTransINS_26uninitialized_relocate_tagEPNSt3__15tupleIJdlllEEES7_PjS8_E6transREmmmmmmEUlvE0_E7executeEv, symObjAddr: 0x75524, symBinAddr: 0x1000778CC, symSize: 0x38 }
  - { offset: 0x317AB5, size: 0x8, addend: 0x0, symName: __ZN6parlay7JobImplIZNS_19fork_join_scheduler7parfor_IZNS_8internal10blockTransINS_26uninitialized_relocate_tagEPNSt3__15tupleIJdlllEEES9_PjSA_E6transREmmmmmmEUlmE_EEvRNS_9schedulerINS_15WorkStealingJobEEEmmRT_mbEUlvE0_ED1Ev, symObjAddr: 0x75B6C, symBinAddr: 0x100077F14, symSize: 0x4 }
  - { offset: 0x317AE0, size: 0x8, addend: 0x0, symName: __ZN6parlay7JobImplIZNS_19fork_join_scheduler7parfor_IZNS_8internal10blockTransINS_26uninitialized_relocate_tagEPNSt3__15tupleIJdlllEEES9_PjSA_E6transREmmmmmmEUlmE_EEvRNS_9schedulerINS_15WorkStealingJobEEEmmRT_mbEUlvE0_ED0Ev, symObjAddr: 0x75B70, symBinAddr: 0x100077F18, symSize: 0x4 }
  - { offset: 0x317B0B, size: 0x8, addend: 0x0, symName: __ZN6parlay7JobImplIZNS_19fork_join_scheduler7parfor_IZNS_8internal10blockTransINS_26uninitialized_relocate_tagEPNSt3__15tupleIJdlllEEES9_PjSA_E6transREmmmmmmEUlmE_EEvRNS_9schedulerINS_15WorkStealingJobEEEmmRT_mbEUlvE0_E7executeEv, symObjAddr: 0x75B74, symBinAddr: 0x100077F1C, symSize: 0x24 }
  - { offset: 0x317B5D, size: 0x8, addend: 0x0, symName: __ZN6parlay7JobImplIZNS_8internal9transposeINS_22uninitialized_copy_tagEPjS4_E6transREmmmmmmEUlvE2_ED1Ev, symObjAddr: 0x75B98, symBinAddr: 0x100077F40, symSize: 0x4 }
  - { offset: 0x317B88, size: 0x8, addend: 0x0, symName: __ZN6parlay7JobImplIZNS_8internal9transposeINS_22uninitialized_copy_tagEPjS4_E6transREmmmmmmEUlvE2_ED0Ev, symObjAddr: 0x75B9C, symBinAddr: 0x100077F44, symSize: 0x4 }
  - { offset: 0x317BB3, size: 0x8, addend: 0x0, symName: __ZN6parlay7JobImplIZNS_8internal9transposeINS_22uninitialized_copy_tagEPjS4_E6transREmmmmmmEUlvE2_E7executeEv, symObjAddr: 0x75BA0, symBinAddr: 0x100077F48, symSize: 0x38 }
  - { offset: 0x317C05, size: 0x8, addend: 0x0, symName: __ZN6parlay7JobImplIZNS_8internal9transposeINS_22uninitialized_copy_tagEPjS4_E6transREmmmmmmEUlvE0_ED1Ev, symObjAddr: 0x75BD8, symBinAddr: 0x100077F80, symSize: 0x4 }
  - { offset: 0x317C30, size: 0x8, addend: 0x0, symName: __ZN6parlay7JobImplIZNS_8internal9transposeINS_22uninitialized_copy_tagEPjS4_E6transREmmmmmmEUlvE0_ED0Ev, symObjAddr: 0x75BDC, symBinAddr: 0x100077F84, symSize: 0x4 }
  - { offset: 0x317C5B, size: 0x8, addend: 0x0, symName: __ZN6parlay7JobImplIZNS_8internal9transposeINS_22uninitialized_copy_tagEPjS4_E6transREmmmmmmEUlvE0_E7executeEv, symObjAddr: 0x75BE0, symBinAddr: 0x100077F88, symSize: 0x38 }
  - { offset: 0x317FA0, size: 0x8, addend: 0x0, symName: __ZN6parlay7JobImplIZNS_19fork_join_scheduler7parfor_IZNS_8internal17transpose_bucketsINS_26uninitialized_relocate_tagEPNSt3__15tupleIJdlllEEES9_jEENS_8sequenceImNS_9allocatorImEELb0EEET0_T1_RNSA_IT2_NSB_ISG_EEXsr3std7is_sameISG_cEE5valueEEEmmmmEUlmE0_EEvRNS_9schedulerINS_15WorkStealingJobEEEmmRT_mbEUlvE0_ED1Ev, symObjAddr: 0x7622C, symBinAddr: 0x1000785D4, symSize: 0x4 }
  - { offset: 0x317FCB, size: 0x8, addend: 0x0, symName: __ZN6parlay7JobImplIZNS_19fork_join_scheduler7parfor_IZNS_8internal17transpose_bucketsINS_26uninitialized_relocate_tagEPNSt3__15tupleIJdlllEEES9_jEENS_8sequenceImNS_9allocatorImEELb0EEET0_T1_RNSA_IT2_NSB_ISG_EEXsr3std7is_sameISG_cEE5valueEEEmmmmEUlmE0_EEvRNS_9schedulerINS_15WorkStealingJobEEEmmRT_mbEUlvE0_ED0Ev, symObjAddr: 0x76230, symBinAddr: 0x1000785D8, symSize: 0x4 }
  - { offset: 0x317FF6, size: 0x8, addend: 0x0, symName: __ZN6parlay7JobImplIZNS_19fork_join_scheduler7parfor_IZNS_8internal17transpose_bucketsINS_26uninitialized_relocate_tagEPNSt3__15tupleIJdlllEEES9_jEENS_8sequenceImNS_9allocatorImEELb0EEET0_T1_RNSA_IT2_NSB_ISG_EEXsr3std7is_sameISG_cEE5valueEEEmmmmEUlmE0_EEvRNS_9schedulerINS_15WorkStealingJobEEEmmRT_mbEUlvE0_E7executeEv, symObjAddr: 0x76234, symBinAddr: 0x1000785DC, symSize: 0x24 }
  - { offset: 0x318367, size: 0x8, addend: 0x0, symName: __ZN6parlay7JobImplIZNS_19fork_join_scheduler7parfor_IZNS_8internal10sliced_forIZNS3_5scan_INS_5sliceIPjS7_EES8_RNS_4plusIjEEEEDaRKT_T0_OT1_jbEUlmmmE0_EEvmmSF_jEUlmE_EEvRNS_9schedulerINS_15WorkStealingJobEEEmmRSD_mbEUlvE0_ED1Ev, symObjAddr: 0x7695C, symBinAddr: 0x100078D04, symSize: 0x4 }
  - { offset: 0x318392, size: 0x8, addend: 0x0, symName: __ZN6parlay7JobImplIZNS_19fork_join_scheduler7parfor_IZNS_8internal10sliced_forIZNS3_5scan_INS_5sliceIPjS7_EES8_RNS_4plusIjEEEEDaRKT_T0_OT1_jbEUlmmmE0_EEvmmSF_jEUlmE_EEvRNS_9schedulerINS_15WorkStealingJobEEEmmRSD_mbEUlvE0_ED0Ev, symObjAddr: 0x76960, symBinAddr: 0x100078D08, symSize: 0x4 }
  - { offset: 0x3183BD, size: 0x8, addend: 0x0, symName: __ZN6parlay7JobImplIZNS_19fork_join_scheduler7parfor_IZNS_8internal10sliced_forIZNS3_5scan_INS_5sliceIPjS7_EES8_RNS_4plusIjEEEEDaRKT_T0_OT1_jbEUlmmmE0_EEvmmSF_jEUlmE_EEvRNS_9schedulerINS_15WorkStealingJobEEEmmRSD_mbEUlvE0_E7executeEv, symObjAddr: 0x76964, symBinAddr: 0x100078D0C, symSize: 0x24 }
  - { offset: 0x31879C, size: 0x8, addend: 0x0, symName: __ZN6parlay7JobImplIZNS_19fork_join_scheduler7parfor_IZNS_8internal10sliced_forIZNS3_5scan_INS_5sliceIPjS7_EES8_RNS_4plusIjEEEEDaRKT_T0_OT1_jbEUlmmmE_EEvmmSF_jEUlmE_EEvRNS_9schedulerINS_15WorkStealingJobEEEmmRSD_mbEUlvE0_ED1Ev, symObjAddr: 0x77004, symBinAddr: 0x1000793AC, symSize: 0x4 }
  - { offset: 0x3187C7, size: 0x8, addend: 0x0, symName: __ZN6parlay7JobImplIZNS_19fork_join_scheduler7parfor_IZNS_8internal10sliced_forIZNS3_5scan_INS_5sliceIPjS7_EES8_RNS_4plusIjEEEEDaRKT_T0_OT1_jbEUlmmmE_EEvmmSF_jEUlmE_EEvRNS_9schedulerINS_15WorkStealingJobEEEmmRSD_mbEUlvE0_ED0Ev, symObjAddr: 0x77008, symBinAddr: 0x1000793B0, symSize: 0x4 }
  - { offset: 0x3187F2, size: 0x8, addend: 0x0, symName: __ZN6parlay7JobImplIZNS_19fork_join_scheduler7parfor_IZNS_8internal10sliced_forIZNS3_5scan_INS_5sliceIPjS7_EES8_RNS_4plusIjEEEEDaRKT_T0_OT1_jbEUlmmmE_EEvmmSF_jEUlmE_EEvRNS_9schedulerINS_15WorkStealingJobEEEmmRSD_mbEUlvE0_E7executeEv, symObjAddr: 0x7700C, symBinAddr: 0x1000793B4, symSize: 0x24 }
  - { offset: 0x318B37, size: 0x8, addend: 0x0, symName: __ZN6parlay7JobImplIZNS_19fork_join_scheduler7parfor_IZNS_8sequenceIjNS_9allocatorIjEELb0EEC1IRZNS_8internal17transpose_bucketsINS_26uninitialized_relocate_tagEPNSt3__15tupleIJdlllEEESE_jEENS3_ImNS4_ImEELb0EEET0_T1_RNS3_IT2_NS4_ISJ_EEXsr3std7is_sameISJ_cEE5valueEEEmmmmEUlmE_EEmOT_NS6_18_from_function_tagEmEUlmE_EEvRNS_9schedulerINS_15WorkStealingJobEEEmmRSP_mbEUlvE0_ED1Ev, symObjAddr: 0x775D0, symBinAddr: 0x100079978, symSize: 0x4 }
  - { offset: 0x318B62, size: 0x8, addend: 0x0, symName: __ZN6parlay7JobImplIZNS_19fork_join_scheduler7parfor_IZNS_8sequenceIjNS_9allocatorIjEELb0EEC1IRZNS_8internal17transpose_bucketsINS_26uninitialized_relocate_tagEPNSt3__15tupleIJdlllEEESE_jEENS3_ImNS4_ImEELb0EEET0_T1_RNS3_IT2_NS4_ISJ_EEXsr3std7is_sameISJ_cEE5valueEEEmmmmEUlmE_EEmOT_NS6_18_from_function_tagEmEUlmE_EEvRNS_9schedulerINS_15WorkStealingJobEEEmmRSP_mbEUlvE0_ED0Ev, symObjAddr: 0x775D4, symBinAddr: 0x10007997C, symSize: 0x4 }
  - { offset: 0x318B8D, size: 0x8, addend: 0x0, symName: __ZN6parlay7JobImplIZNS_19fork_join_scheduler7parfor_IZNS_8sequenceIjNS_9allocatorIjEELb0EEC1IRZNS_8internal17transpose_bucketsINS_26uninitialized_relocate_tagEPNSt3__15tupleIJdlllEEESE_jEENS3_ImNS4_ImEELb0EEET0_T1_RNS3_IT2_NS4_ISJ_EEXsr3std7is_sameISJ_cEE5valueEEEmmmmEUlmE_EEmOT_NS6_18_from_function_tagEmEUlmE_EEvRNS_9schedulerINS_15WorkStealingJobEEEmmRSP_mbEUlvE0_E7executeEv, symObjAddr: 0x775D8, symBinAddr: 0x100079980, symSize: 0x24 }
  - { offset: 0x318ED2, size: 0x8, addend: 0x0, symName: __ZN6parlay7JobImplIZNS_19fork_join_scheduler7parfor_IZNS_8internal10sliced_forIZNS3_12sample_sort_IjNS_16delayed_sequenceINSt3__15tupleIJdlllEEES9_Z19min_spanning_forestIldENS_8sequenceIlNS_9allocatorIlEELb0EEERKNSB_INS8_IJT_SF_T0_EEENSC_ISH_EEXsr3std7is_sameISH_cEE5valueEEElEUllE_E8iteratorEPS9_NS7_4lessIvEEEEvNS_5sliceISG_SG_EENSS_IT1_SU_EERKT2_bEUlmmmE_EEvmmRKSF_jEUlmE_EEvRNS_9schedulerINS_15WorkStealingJobEEEmmRSF_mbEUlvE0_ED1Ev, symObjAddr: 0x77FAC, symBinAddr: 0x10007A354, symSize: 0x4 }
  - { offset: 0x318EFD, size: 0x8, addend: 0x0, symName: __ZN6parlay7JobImplIZNS_19fork_join_scheduler7parfor_IZNS_8internal10sliced_forIZNS3_12sample_sort_IjNS_16delayed_sequenceINSt3__15tupleIJdlllEEES9_Z19min_spanning_forestIldENS_8sequenceIlNS_9allocatorIlEELb0EEERKNSB_INS8_IJT_SF_T0_EEENSC_ISH_EEXsr3std7is_sameISH_cEE5valueEEElEUllE_E8iteratorEPS9_NS7_4lessIvEEEEvNS_5sliceISG_SG_EENSS_IT1_SU_EERKT2_bEUlmmmE_EEvmmRKSF_jEUlmE_EEvRNS_9schedulerINS_15WorkStealingJobEEEmmRSF_mbEUlvE0_ED0Ev, symObjAddr: 0x77FB0, symBinAddr: 0x10007A358, symSize: 0x4 }
  - { offset: 0x318F28, size: 0x8, addend: 0x0, symName: __ZN6parlay7JobImplIZNS_19fork_join_scheduler7parfor_IZNS_8internal10sliced_forIZNS3_12sample_sort_IjNS_16delayed_sequenceINSt3__15tupleIJdlllEEES9_Z19min_spanning_forestIldENS_8sequenceIlNS_9allocatorIlEELb0EEERKNSB_INS8_IJT_SF_T0_EEENSC_ISH_EEXsr3std7is_sameISH_cEE5valueEEElEUllE_E8iteratorEPS9_NS7_4lessIvEEEEvNS_5sliceISG_SG_EENSS_IT1_SU_EERKT2_bEUlmmmE_EEvmmRKSF_jEUlmE_EEvRNS_9schedulerINS_15WorkStealingJobEEEmmRSF_mbEUlvE0_E7executeEv, symObjAddr: 0x77FB4, symBinAddr: 0x10007A35C, symSize: 0x24 }
  - { offset: 0x319199, size: 0x8, addend: 0x0, symName: __ZN6parlay7JobImplIZNS_19fork_join_scheduler7parfor_IZNS_8sequenceINSt3__15tupleIJdlllEEENS_9allocatorIS6_EELb0EEC1IZNS_8internal12sample_sort_IjNS_16delayed_sequenceIS6_S6_Z19min_spanning_forestIldENS3_IlNS7_IlEELb0EEERKNS3_INS5_IJT_SH_T0_EEENS7_ISJ_EEXsr3std7is_sameISJ_cEE5valueEEElEUllE_E8iteratorEPS6_NS4_4lessIvEEEEvNS_5sliceISI_SI_EENSU_IT1_SW_EERKT2_bEUlmE0_EEmOSH_NS9_18_from_function_tagEmEUlmE_EEvRNS_9schedulerINS_15WorkStealingJobEEEmmRSH_mbEUlvE0_ED1Ev, symObjAddr: 0x78640, symBinAddr: 0x10007A9E8, symSize: 0x4 }
  - { offset: 0x3191C4, size: 0x8, addend: 0x0, symName: __ZN6parlay7JobImplIZNS_19fork_join_scheduler7parfor_IZNS_8sequenceINSt3__15tupleIJdlllEEENS_9allocatorIS6_EELb0EEC1IZNS_8internal12sample_sort_IjNS_16delayed_sequenceIS6_S6_Z19min_spanning_forestIldENS3_IlNS7_IlEELb0EEERKNS3_INS5_IJT_SH_T0_EEENS7_ISJ_EEXsr3std7is_sameISJ_cEE5valueEEElEUllE_E8iteratorEPS6_NS4_4lessIvEEEEvNS_5sliceISI_SI_EENSU_IT1_SW_EERKT2_bEUlmE0_EEmOSH_NS9_18_from_function_tagEmEUlmE_EEvRNS_9schedulerINS_15WorkStealingJobEEEmmRSH_mbEUlvE0_ED0Ev, symObjAddr: 0x78644, symBinAddr: 0x10007A9EC, symSize: 0x4 }
  - { offset: 0x3191EF, size: 0x8, addend: 0x0, symName: __ZN6parlay7JobImplIZNS_19fork_join_scheduler7parfor_IZNS_8sequenceINSt3__15tupleIJdlllEEENS_9allocatorIS6_EELb0EEC1IZNS_8internal12sample_sort_IjNS_16delayed_sequenceIS6_S6_Z19min_spanning_forestIldENS3_IlNS7_IlEELb0EEERKNS3_INS5_IJT_SH_T0_EEENS7_ISJ_EEXsr3std7is_sameISJ_cEE5valueEEElEUllE_E8iteratorEPS6_NS4_4lessIvEEEEvNS_5sliceISI_SI_EENSU_IT1_SW_EERKT2_bEUlmE0_EEmOSH_NS9_18_from_function_tagEmEUlmE_EEvRNS_9schedulerINS_15WorkStealingJobEEEmmRSH_mbEUlvE0_E7executeEv, symObjAddr: 0x78648, symBinAddr: 0x10007A9F0, symSize: 0xE8 }
  - { offset: 0x31968C, size: 0x8, addend: 0x0, symName: __ZN6parlay7JobImplIZNS_19fork_join_scheduler7parfor_IZNS_8sequenceINSt3__15tupleIJdlllEEENS_9allocatorIS6_EELb0EEC1IZNS_8internal12sample_sort_IjNS_16delayed_sequenceIS6_S6_Z19min_spanning_forestIldENS3_IlNS7_IlEELb0EEERKNS3_INS5_IJT_SH_T0_EEENS7_ISJ_EEXsr3std7is_sameISJ_cEE5valueEEElEUllE_E8iteratorEPS6_NS4_4lessIvEEEEvNS_5sliceISI_SI_EENSU_IT1_SW_EERKT2_bEUlmE_EEmOSH_NS9_18_from_function_tagEmEUlmE_EEvRNS_9schedulerINS_15WorkStealingJobEEEmmRSH_mbEUlvE0_ED1Ev, symObjAddr: 0x78D4C, symBinAddr: 0x10007B0F4, symSize: 0x4 }
  - { offset: 0x3196B7, size: 0x8, addend: 0x0, symName: __ZN6parlay7JobImplIZNS_19fork_join_scheduler7parfor_IZNS_8sequenceINSt3__15tupleIJdlllEEENS_9allocatorIS6_EELb0EEC1IZNS_8internal12sample_sort_IjNS_16delayed_sequenceIS6_S6_Z19min_spanning_forestIldENS3_IlNS7_IlEELb0EEERKNS3_INS5_IJT_SH_T0_EEENS7_ISJ_EEXsr3std7is_sameISJ_cEE5valueEEElEUllE_E8iteratorEPS6_NS4_4lessIvEEEEvNS_5sliceISI_SI_EENSU_IT1_SW_EERKT2_bEUlmE_EEmOSH_NS9_18_from_function_tagEmEUlmE_EEvRNS_9schedulerINS_15WorkStealingJobEEEmmRSH_mbEUlvE0_ED0Ev, symObjAddr: 0x78D50, symBinAddr: 0x10007B0F8, symSize: 0x4 }
  - { offset: 0x3196E2, size: 0x8, addend: 0x0, symName: __ZN6parlay7JobImplIZNS_19fork_join_scheduler7parfor_IZNS_8sequenceINSt3__15tupleIJdlllEEENS_9allocatorIS6_EELb0EEC1IZNS_8internal12sample_sort_IjNS_16delayed_sequenceIS6_S6_Z19min_spanning_forestIldENS3_IlNS7_IlEELb0EEERKNS3_INS5_IJT_SH_T0_EEENS7_ISJ_EEXsr3std7is_sameISJ_cEE5valueEEElEUllE_E8iteratorEPS6_NS4_4lessIvEEEEvNS_5sliceISI_SI_EENSU_IT1_SW_EERKT2_bEUlmE_EEmOSH_NS9_18_from_function_tagEmEUlmE_EEvRNS_9schedulerINS_15WorkStealingJobEEEmmRSH_mbEUlvE0_E7executeEv, symObjAddr: 0x78D54, symBinAddr: 0x10007B0FC, symSize: 0x24 }
  - { offset: 0x319953, size: 0x8, addend: 0x0, symName: __ZN6parlay7JobImplIZNS_19fork_join_scheduler7parfor_IZNS_8sequenceI11reservationIlENS_9allocatorIS5_EELb0EE18initialize_defaultEmEUlmE_EEvRNS_9schedulerINS_15WorkStealingJobEEEmmRT_mbEUlvE0_ED1Ev, symObjAddr: 0x793A0, symBinAddr: 0x10007B748, symSize: 0x4 }
  - { offset: 0x31997E, size: 0x8, addend: 0x0, symName: __ZN6parlay7JobImplIZNS_19fork_join_scheduler7parfor_IZNS_8sequenceI11reservationIlENS_9allocatorIS5_EELb0EE18initialize_defaultEmEUlmE_EEvRNS_9schedulerINS_15WorkStealingJobEEEmmRT_mbEUlvE0_ED0Ev, symObjAddr: 0x793A4, symBinAddr: 0x10007B74C, symSize: 0x4 }
  - { offset: 0x3199A9, size: 0x8, addend: 0x0, symName: __ZN6parlay7JobImplIZNS_19fork_join_scheduler7parfor_IZNS_8sequenceI11reservationIlENS_9allocatorIS5_EELb0EE18initialize_defaultEmEUlmE_EEvRNS_9schedulerINS_15WorkStealingJobEEEmmRT_mbEUlvE0_E7executeEv, symObjAddr: 0x793A8, symBinAddr: 0x10007B750, symSize: 0xD0 }
  - { offset: 0x319D71, size: 0x8, addend: 0x0, symName: __ZN6parlay7JobImplIZNS_19fork_join_scheduler7parfor_IZNS_8sequenceINSt3__16atomicIlEENS_9allocatorIS6_EELb0EEC1IZN10union_findIlEC1EmEUllE_EEmOT_NS9_18_from_function_tagEmEUlmE_EEvRNS_9schedulerINS_15WorkStealingJobEEEmmRSE_mbEUlvE0_ED1Ev, symObjAddr: 0x79A98, symBinAddr: 0x10007BE40, symSize: 0x4 }
  - { offset: 0x319D9C, size: 0x8, addend: 0x0, symName: __ZN6parlay7JobImplIZNS_19fork_join_scheduler7parfor_IZNS_8sequenceINSt3__16atomicIlEENS_9allocatorIS6_EELb0EEC1IZN10union_findIlEC1EmEUllE_EEmOT_NS9_18_from_function_tagEmEUlmE_EEvRNS_9schedulerINS_15WorkStealingJobEEEmmRSE_mbEUlvE0_ED0Ev, symObjAddr: 0x79A9C, symBinAddr: 0x10007BE44, symSize: 0x4 }
  - { offset: 0x319DC7, size: 0x8, addend: 0x0, symName: __ZN6parlay7JobImplIZNS_19fork_join_scheduler7parfor_IZNS_8sequenceINSt3__16atomicIlEENS_9allocatorIS6_EELb0EEC1IZN10union_findIlEC1EmEUllE_EEmOT_NS9_18_from_function_tagEmEUlmE_EEvRNS_9schedulerINS_15WorkStealingJobEEEmmRSE_mbEUlvE0_E7executeEv, symObjAddr: 0x79AA0, symBinAddr: 0x10007BE48, symSize: 0xCC }
  - { offset: 0x31A239, size: 0x8, addend: 0x0, symName: __ZN6parlay7JobImplIZNS_19fork_join_scheduler7parfor_IZNS_8sequenceINSt3__15tupleIJlldEEENS_9allocatorIS6_EELb0EEC1IZNS_6appendIRS9_RKS9_EEDaOT_OT0_EUlmE_EEmSH_NS9_18_from_function_tagEmEUlmE_EEvRNS_9schedulerINS_15WorkStealingJobEEEmmRSG_mbEUlvE0_ED1Ev, symObjAddr: 0x7A130, symBinAddr: 0x10007C4D8, symSize: 0x4 }
  - { offset: 0x31A264, size: 0x8, addend: 0x0, symName: __ZN6parlay7JobImplIZNS_19fork_join_scheduler7parfor_IZNS_8sequenceINSt3__15tupleIJlldEEENS_9allocatorIS6_EELb0EEC1IZNS_6appendIRS9_RKS9_EEDaOT_OT0_EUlmE_EEmSH_NS9_18_from_function_tagEmEUlmE_EEvRNS_9schedulerINS_15WorkStealingJobEEEmmRSG_mbEUlvE0_ED0Ev, symObjAddr: 0x7A134, symBinAddr: 0x10007C4DC, symSize: 0x4 }
  - { offset: 0x31A28F, size: 0x8, addend: 0x0, symName: __ZN6parlay7JobImplIZNS_19fork_join_scheduler7parfor_IZNS_8sequenceINSt3__15tupleIJlldEEENS_9allocatorIS6_EELb0EEC1IZNS_6appendIRS9_RKS9_EEDaOT_OT0_EUlmE_EEmSH_NS9_18_from_function_tagEmEUlmE_EEvRNS_9schedulerINS_15WorkStealingJobEEEmmRSG_mbEUlvE0_E7executeEv, symObjAddr: 0x7A138, symBinAddr: 0x10007C4E0, symSize: 0x24 }
  - { offset: 0x31A500, size: 0x8, addend: 0x0, symName: __ZN6parlay7JobImplIZNS_19fork_join_scheduler7parfor_IZNS_17sequence_internal13sequence_baseINSt3__14pairIllEENS_9allocatorIS7_EELb0EE12storage_implC1ERKSB_EUlmE_EEvRNS_9schedulerINS_15WorkStealingJobEEEmmRT_mbEUlvE0_ED1Ev, symObjAddr: 0x7A794, symBinAddr: 0x10007CB3C, symSize: 0x4 }
  - { offset: 0x31A52B, size: 0x8, addend: 0x0, symName: __ZN6parlay7JobImplIZNS_19fork_join_scheduler7parfor_IZNS_17sequence_internal13sequence_baseINSt3__14pairIllEENS_9allocatorIS7_EELb0EE12storage_implC1ERKSB_EUlmE_EEvRNS_9schedulerINS_15WorkStealingJobEEEmmRT_mbEUlvE0_ED0Ev, symObjAddr: 0x7A798, symBinAddr: 0x10007CB40, symSize: 0x4 }
  - { offset: 0x31A556, size: 0x8, addend: 0x0, symName: __ZN6parlay7JobImplIZNS_19fork_join_scheduler7parfor_IZNS_17sequence_internal13sequence_baseINSt3__14pairIllEENS_9allocatorIS7_EELb0EE12storage_implC1ERKSB_EUlmE_EEvRNS_9schedulerINS_15WorkStealingJobEEEmmRT_mbEUlvE0_E7executeEv, symObjAddr: 0x7A79C, symBinAddr: 0x10007CB44, symSize: 0xD0 }
  - { offset: 0x31A866, size: 0x8, addend: 0x0, symName: __ZN6parlay7JobImplIZNS_19fork_join_scheduler7parfor_IZNS_17sequence_internal13sequence_baseINSt3__15tupleIJlldEEENS_9allocatorIS7_EELb0EE12storage_implC1ERKSB_EUlmE_EEvRNS_9schedulerINS_15WorkStealingJobEEEmmRT_mbEUlvE0_ED1Ev, symObjAddr: 0x7AECC, symBinAddr: 0x10007D274, symSize: 0x4 }
  - { offset: 0x31A891, size: 0x8, addend: 0x0, symName: __ZN6parlay7JobImplIZNS_19fork_join_scheduler7parfor_IZNS_17sequence_internal13sequence_baseINSt3__15tupleIJlldEEENS_9allocatorIS7_EELb0EE12storage_implC1ERKSB_EUlmE_EEvRNS_9schedulerINS_15WorkStealingJobEEEmmRT_mbEUlvE0_ED0Ev, symObjAddr: 0x7AED0, symBinAddr: 0x10007D278, symSize: 0x4 }
  - { offset: 0x31A8BC, size: 0x8, addend: 0x0, symName: __ZN6parlay7JobImplIZNS_19fork_join_scheduler7parfor_IZNS_17sequence_internal13sequence_baseINSt3__15tupleIJlldEEENS_9allocatorIS7_EELb0EE12storage_implC1ERKSB_EUlmE_EEvRNS_9schedulerINS_15WorkStealingJobEEEmmRT_mbEUlvE0_E7executeEv, symObjAddr: 0x7AED4, symBinAddr: 0x10007D27C, symSize: 0xE4 }
  - { offset: 0x31AB7D, size: 0x8, addend: 0x0, symName: __ZN6parlay19fork_join_scheduler5pardoIZNS0_7parfor_IZNS_8sequenceIlNS_9allocatorIlEELb0EE15initialize_fillEmRKlEUlmE_EEvRNS_9schedulerINS_15WorkStealingJobEEEmmRT_mbEUlvE_ZNS2_IS9_EEvSD_mmSF_mbEUlvE0_EEvSD_OSE_OT0_b, symObjAddr: 0x81194, symBinAddr: 0x10008353C, symSize: 0x6C0 }
  - { offset: 0x31C3D7, size: 0x8, addend: 0x0, symName: __ZN6parlay7JobImplIZNS_19fork_join_scheduler7parfor_IZ24createCompressedPathTreeIldENSt3__14pairINS_8sequenceINS4_5tupleIJT_S8_T0_EEENS_9allocatorISA_EEXsr3std7is_sameISA_cEE5valueEEENS6_INS5_IS8_S8_EENSB_ISE_EEXsr3std7is_sameISE_cEE5valueEEEEERNS6_I7clusterIS8_S9_ENSB_ISJ_EEXsr3std7is_sameISJ_cEE5valueEEERKSD_EUllE5_EEvRNS_9schedulerINS_15WorkStealingJobEEEmmRS8_mbEUlvE0_ED1Ev, symObjAddr: 0x7BFB4, symBinAddr: 0x10007E35C, symSize: 0x4 }
  - { offset: 0x31C402, size: 0x8, addend: 0x0, symName: __ZN6parlay7JobImplIZNS_19fork_join_scheduler7parfor_IZ24createCompressedPathTreeIldENSt3__14pairINS_8sequenceINS4_5tupleIJT_S8_T0_EEENS_9allocatorISA_EEXsr3std7is_sameISA_cEE5valueEEENS6_INS5_IS8_S8_EENSB_ISE_EEXsr3std7is_sameISE_cEE5valueEEEEERNS6_I7clusterIS8_S9_ENSB_ISJ_EEXsr3std7is_sameISJ_cEE5valueEEERKSD_EUllE5_EEvRNS_9schedulerINS_15WorkStealingJobEEEmmRS8_mbEUlvE0_ED0Ev, symObjAddr: 0x7BFB8, symBinAddr: 0x10007E360, symSize: 0x4 }
  - { offset: 0x31C42D, size: 0x8, addend: 0x0, symName: __ZN6parlay7JobImplIZNS_19fork_join_scheduler7parfor_IZ24createCompressedPathTreeIldENSt3__14pairINS_8sequenceINS4_5tupleIJT_S8_T0_EEENS_9allocatorISA_EEXsr3std7is_sameISA_cEE5valueEEENS6_INS5_IS8_S8_EENSB_ISE_EEXsr3std7is_sameISE_cEE5valueEEEEERNS6_I7clusterIS8_S9_ENSB_ISJ_EEXsr3std7is_sameISJ_cEE5valueEEERKSD_EUllE5_EEvRNS_9schedulerINS_15WorkStealingJobEEEmmRS8_mbEUlvE0_E7executeEv, symObjAddr: 0x7BFBC, symBinAddr: 0x10007E364, symSize: 0xD4 }
  - { offset: 0x31C706, size: 0x8, addend: 0x0, symName: __ZN6parlay7JobImplIZNS_19fork_join_scheduler7parfor_IZNS_8sequenceINSt3__14pairIllEENS_9allocatorIS6_EELb0EE18initialize_defaultEmEUlmE_EEvRNS_9schedulerINS_15WorkStealingJobEEEmmRT_mbEUlvE0_ED1Ev, symObjAddr: 0x7C6C0, symBinAddr: 0x10007EA68, symSize: 0x4 }
  - { offset: 0x31C731, size: 0x8, addend: 0x0, symName: __ZN6parlay7JobImplIZNS_19fork_join_scheduler7parfor_IZNS_8sequenceINSt3__14pairIllEENS_9allocatorIS6_EELb0EE18initialize_defaultEmEUlmE_EEvRNS_9schedulerINS_15WorkStealingJobEEEmmRT_mbEUlvE0_ED0Ev, symObjAddr: 0x7C6C4, symBinAddr: 0x10007EA6C, symSize: 0x4 }
  - { offset: 0x31C75C, size: 0x8, addend: 0x0, symName: __ZN6parlay7JobImplIZNS_19fork_join_scheduler7parfor_IZNS_8sequenceINSt3__14pairIllEENS_9allocatorIS6_EELb0EE18initialize_defaultEmEUlmE_EEvRNS_9schedulerINS_15WorkStealingJobEEEmmRT_mbEUlvE0_E7executeEv, symObjAddr: 0x7C6C8, symBinAddr: 0x10007EA70, symSize: 0xCC }
  - { offset: 0x31CA98, size: 0x8, addend: 0x0, symName: __ZN6parlay7JobImplIZNS_19fork_join_scheduler7parfor_IZNS_8sequenceINSt3__15tupleIJlldEEENS_9allocatorIS6_EELb0EE18initialize_defaultEmEUlmE_EEvRNS_9schedulerINS_15WorkStealingJobEEEmmRT_mbEUlvE0_ED1Ev, symObjAddr: 0x7CDD4, symBinAddr: 0x10007F17C, symSize: 0x4 }
  - { offset: 0x31CAC3, size: 0x8, addend: 0x0, symName: __ZN6parlay7JobImplIZNS_19fork_join_scheduler7parfor_IZNS_8sequenceINSt3__15tupleIJlldEEENS_9allocatorIS6_EELb0EE18initialize_defaultEmEUlmE_EEvRNS_9schedulerINS_15WorkStealingJobEEEmmRT_mbEUlvE0_ED0Ev, symObjAddr: 0x7CDD8, symBinAddr: 0x10007F180, symSize: 0x4 }
  - { offset: 0x31CAEE, size: 0x8, addend: 0x0, symName: __ZN6parlay7JobImplIZNS_19fork_join_scheduler7parfor_IZNS_8sequenceINSt3__15tupleIJlldEEENS_9allocatorIS6_EELb0EE18initialize_defaultEmEUlmE_EEvRNS_9schedulerINS_15WorkStealingJobEEEmmRT_mbEUlvE0_E7executeEv, symObjAddr: 0x7CDDC, symBinAddr: 0x10007F184, symSize: 0xD4 }
  - { offset: 0x31D155, size: 0x8, addend: 0x0, symName: __ZN6parlay7JobImplIZNS_19fork_join_scheduler7parfor_IZNS_8internal10sliced_forIZNS3_5scan_INS_5sliceIPlS7_EES8_NS_4plusIlEEEEDaRKT_T0_OT1_jbEUlmmmE0_EEvmmSE_jEUlmE_EEvRNS_9schedulerINS_15WorkStealingJobEEEmmRSC_mbEUlvE0_ED1Ev, symObjAddr: 0x7DA04, symBinAddr: 0x10007FDAC, symSize: 0x4 }
  - { offset: 0x31D180, size: 0x8, addend: 0x0, symName: __ZN6parlay7JobImplIZNS_19fork_join_scheduler7parfor_IZNS_8internal10sliced_forIZNS3_5scan_INS_5sliceIPlS7_EES8_NS_4plusIlEEEEDaRKT_T0_OT1_jbEUlmmmE0_EEvmmSE_jEUlmE_EEvRNS_9schedulerINS_15WorkStealingJobEEEmmRSC_mbEUlvE0_ED0Ev, symObjAddr: 0x7DA08, symBinAddr: 0x10007FDB0, symSize: 0x4 }
  - { offset: 0x31D1AB, size: 0x8, addend: 0x0, symName: __ZN6parlay7JobImplIZNS_19fork_join_scheduler7parfor_IZNS_8internal10sliced_forIZNS3_5scan_INS_5sliceIPlS7_EES8_NS_4plusIlEEEEDaRKT_T0_OT1_jbEUlmmmE0_EEvmmSE_jEUlmE_EEvRNS_9schedulerINS_15WorkStealingJobEEEmmRSC_mbEUlvE0_E7executeEv, symObjAddr: 0x7DA0C, symBinAddr: 0x10007FDB4, symSize: 0x24 }
  - { offset: 0x31D584, size: 0x8, addend: 0x0, symName: __ZN6parlay7JobImplIZNS_19fork_join_scheduler7parfor_IZNS_8internal10sliced_forIZNS3_5scan_INS_5sliceIPlS7_EES8_NS_4plusIlEEEEDaRKT_T0_OT1_jbEUlmmmE_EEvmmSE_jEUlmE_EEvRNS_9schedulerINS_15WorkStealingJobEEEmmRSC_mbEUlvE0_ED1Ev, symObjAddr: 0x7E0A8, symBinAddr: 0x100080450, symSize: 0x4 }
  - { offset: 0x31D5AF, size: 0x8, addend: 0x0, symName: __ZN6parlay7JobImplIZNS_19fork_join_scheduler7parfor_IZNS_8internal10sliced_forIZNS3_5scan_INS_5sliceIPlS7_EES8_NS_4plusIlEEEEDaRKT_T0_OT1_jbEUlmmmE_EEvmmSE_jEUlmE_EEvRNS_9schedulerINS_15WorkStealingJobEEEmmRSC_mbEUlvE0_ED0Ev, symObjAddr: 0x7E0AC, symBinAddr: 0x100080454, symSize: 0x4 }
  - { offset: 0x31D5DA, size: 0x8, addend: 0x0, symName: __ZN6parlay7JobImplIZNS_19fork_join_scheduler7parfor_IZNS_8internal10sliced_forIZNS3_5scan_INS_5sliceIPlS7_EES8_NS_4plusIlEEEEDaRKT_T0_OT1_jbEUlmmmE_EEvmmSE_jEUlmE_EEvRNS_9schedulerINS_15WorkStealingJobEEEmmRSC_mbEUlvE0_E7executeEv, symObjAddr: 0x7E0B0, symBinAddr: 0x100080458, symSize: 0x24 }
  - { offset: 0x31D91F, size: 0x8, addend: 0x0, symName: __ZN6parlay7JobImplIZNS_19fork_join_scheduler7parfor_IZNS_8sequenceIlNS_9allocatorIlEELb0EEC1IZ24createCompressedPathTreeIldENSt3__14pairINS3_INS9_5tupleIJT_SC_T0_EEENS4_ISE_EEXsr3std7is_sameISE_cEE5valueEEENS3_INSA_ISC_SC_EENS4_ISH_EEXsr3std7is_sameISH_cEE5valueEEEEERNS3_I7clusterISC_SD_ENS4_ISM_EEXsr3std7is_sameISM_cEE5valueEEERKSG_EUllE4_EEmOSC_NS6_18_from_function_tagEmEUlmE_EEvRNS_9schedulerINS_15WorkStealingJobEEEmmRSC_mbEUlvE0_ED1Ev, symObjAddr: 0x7E71C, symBinAddr: 0x100080AC4, symSize: 0x4 }
  - { offset: 0x31D94A, size: 0x8, addend: 0x0, symName: __ZN6parlay7JobImplIZNS_19fork_join_scheduler7parfor_IZNS_8sequenceIlNS_9allocatorIlEELb0EEC1IZ24createCompressedPathTreeIldENSt3__14pairINS3_INS9_5tupleIJT_SC_T0_EEENS4_ISE_EEXsr3std7is_sameISE_cEE5valueEEENS3_INSA_ISC_SC_EENS4_ISH_EEXsr3std7is_sameISH_cEE5valueEEEEERNS3_I7clusterISC_SD_ENS4_ISM_EEXsr3std7is_sameISM_cEE5valueEEERKSG_EUllE4_EEmOSC_NS6_18_from_function_tagEmEUlmE_EEvRNS_9schedulerINS_15WorkStealingJobEEEmmRSC_mbEUlvE0_ED0Ev, symObjAddr: 0x7E720, symBinAddr: 0x100080AC8, symSize: 0x4 }
  - { offset: 0x31D975, size: 0x8, addend: 0x0, symName: __ZN6parlay7JobImplIZNS_19fork_join_scheduler7parfor_IZNS_8sequenceIlNS_9allocatorIlEELb0EEC1IZ24createCompressedPathTreeIldENSt3__14pairINS3_INS9_5tupleIJT_SC_T0_EEENS4_ISE_EEXsr3std7is_sameISE_cEE5valueEEENS3_INSA_ISC_SC_EENS4_ISH_EEXsr3std7is_sameISH_cEE5valueEEEEERNS3_I7clusterISC_SD_ENS4_ISM_EEXsr3std7is_sameISM_cEE5valueEEERKSG_EUllE4_EEmOSC_NS6_18_from_function_tagEmEUlmE_EEvRNS_9schedulerINS_15WorkStealingJobEEEmmRSC_mbEUlvE0_E7executeEv, symObjAddr: 0x7E724, symBinAddr: 0x100080ACC, symSize: 0x24 }
  - { offset: 0x31DBE6, size: 0x8, addend: 0x0, symName: __ZN6parlay7JobImplIZNS_19fork_join_scheduler7parfor_IZ17checkCGEdgesValidIldEvNS_8sequenceIT_NS_9allocatorIS5_EEXsr3std7is_sameIS5_cEE5valueEEERNS4_I7clusterIS5_T0_ENS6_ISB_EEXsr3std7is_sameISB_cEE5valueEEEEUllE_EEvRNS_9schedulerINS_15WorkStealingJobEEEmmRS5_mbEUlvE0_ED1Ev, symObjAddr: 0x7EEEC, symBinAddr: 0x100081294, symSize: 0x4 }
  - { offset: 0x31DC11, size: 0x8, addend: 0x0, symName: __ZN6parlay7JobImplIZNS_19fork_join_scheduler7parfor_IZ17checkCGEdgesValidIldEvNS_8sequenceIT_NS_9allocatorIS5_EEXsr3std7is_sameIS5_cEE5valueEEERNS4_I7clusterIS5_T0_ENS6_ISB_EEXsr3std7is_sameISB_cEE5valueEEEEUllE_EEvRNS_9schedulerINS_15WorkStealingJobEEEmmRS5_mbEUlvE0_ED0Ev, symObjAddr: 0x7EEF0, symBinAddr: 0x100081298, symSize: 0x4 }
  - { offset: 0x31DC3C, size: 0x8, addend: 0x0, symName: __ZN6parlay7JobImplIZNS_19fork_join_scheduler7parfor_IZ17checkCGEdgesValidIldEvNS_8sequenceIT_NS_9allocatorIS5_EEXsr3std7is_sameIS5_cEE5valueEEERNS4_I7clusterIS5_T0_ENS6_ISB_EEXsr3std7is_sameISB_cEE5valueEEEEUllE_EEvRNS_9schedulerINS_15WorkStealingJobEEEmmRS5_mbEUlvE0_E7executeEv, symObjAddr: 0x7EEF4, symBinAddr: 0x10008129C, symSize: 0xD4 }
  - { offset: 0x31DE1F, size: 0x8, addend: 0x0, symName: __Z18vanillaQueryHelperIldENSt3__14pairIbT0_EEP7clusterIT_S2_ES7_S7_, symObjAddr: 0x7F980, symBinAddr: 0x100081D28, symSize: 0x244 }
  - { offset: 0x31DFB0, size: 0x8, addend: 0x0, symName: __Z19compressQueryHelperIldENSt3__14pairIbT0_EERN6parlay8sequenceI7clusterIT_S2_ENS4_9allocatorIS8_EEXsr3std7is_sameIS8_cEE5valueEEEPS8_SD_SD_RKNS0_3setIS7_NS0_4lessIS7_EENS0_9allocatorIS7_EEEE, symObjAddr: 0x7FBC4, symBinAddr: 0x100081F6C, symSize: 0x48C }
  - { offset: 0x31DFCC, size: 0x8, addend: 0x0, symName: __Z19compressQueryHelperIldENSt3__14pairIbT0_EERN6parlay8sequenceI7clusterIT_S2_ENS4_9allocatorIS8_EEXsr3std7is_sameIS8_cEE5valueEEEPS8_SD_SD_RKNS0_3setIS7_NS0_4lessIS7_EENS0_9allocatorIS7_EEEE, symObjAddr: 0x7FBC4, symBinAddr: 0x100081F6C, symSize: 0x48C }
  - { offset: 0x31E387, size: 0x8, addend: 0x0, symName: __Z9printTreeIldEvRN6parlay8sequenceI7clusterIT_T0_ENS0_9allocatorIS5_EEXsr3std7is_sameIS5_cEE5valueEEEh, symObjAddr: 0x80050, symBinAddr: 0x1000823F8, symSize: 0x74 }
  - { offset: 0x31E6CB, size: 0x8, addend: 0x0, symName: __ZN6parlay7JobImplIZNS_19fork_join_scheduler7parfor_IZ22verifyCompressPathTreeIldEvRNS_8sequenceI7clusterIT_T0_ENS_9allocatorIS8_EEXsr3std7is_sameIS8_cEE5valueEEERKNS4_INSt3__15tupleIJS6_S6_S7_EEENS9_ISF_EEXsr3std7is_sameISF_cEE5valueEEERKNS4_IS6_NS9_IS6_EEXsr3std7is_sameIS6_cEE5valueEEEEUllE_EEvRNS_9schedulerINS_15WorkStealingJobEEEmmRS6_mbEUlvE0_ED1Ev, symObjAddr: 0x7F8B4, symBinAddr: 0x100081C5C, symSize: 0x4 }
  - { offset: 0x31E6F6, size: 0x8, addend: 0x0, symName: __ZN6parlay7JobImplIZNS_19fork_join_scheduler7parfor_IZ22verifyCompressPathTreeIldEvRNS_8sequenceI7clusterIT_T0_ENS_9allocatorIS8_EEXsr3std7is_sameIS8_cEE5valueEEERKNS4_INSt3__15tupleIJS6_S6_S7_EEENS9_ISF_EEXsr3std7is_sameISF_cEE5valueEEERKNS4_IS6_NS9_IS6_EEXsr3std7is_sameIS6_cEE5valueEEEEUllE_EEvRNS_9schedulerINS_15WorkStealingJobEEEmmRS6_mbEUlvE0_ED0Ev, symObjAddr: 0x7F8B8, symBinAddr: 0x100081C60, symSize: 0x4 }
  - { offset: 0x31E721, size: 0x8, addend: 0x0, symName: __ZN6parlay7JobImplIZNS_19fork_join_scheduler7parfor_IZ22verifyCompressPathTreeIldEvRNS_8sequenceI7clusterIT_T0_ENS_9allocatorIS8_EEXsr3std7is_sameIS8_cEE5valueEEERKNS4_INSt3__15tupleIJS6_S6_S7_EEENS9_ISF_EEXsr3std7is_sameISF_cEE5valueEEERKNS4_IS6_NS9_IS6_EEXsr3std7is_sameIS6_cEE5valueEEEEUllE_EEvRNS_9schedulerINS_15WorkStealingJobEEEmmRS6_mbEUlvE0_E7executeEv, symObjAddr: 0x7F8BC, symBinAddr: 0x100081C64, symSize: 0xC4 }
  - { offset: 0x31EB33, size: 0x8, addend: 0x0, symName: __ZN6parlay7JobImplIZNS_19fork_join_scheduler7parfor_IZ24createCompressedPathTreeIldENSt3__14pairINS_8sequenceINS4_5tupleIJT_S8_T0_EEENS_9allocatorISA_EEXsr3std7is_sameISA_cEE5valueEEENS6_INS5_IS8_S8_EENSB_ISE_EEXsr3std7is_sameISE_cEE5valueEEEEERNS6_I7clusterIS8_S9_ENSB_ISJ_EEXsr3std7is_sameISJ_cEE5valueEEERKSD_EUllE3_EEvRNS_9schedulerINS_15WorkStealingJobEEEmmRS8_mbEUlvE0_ED1Ev, symObjAddr: 0x80824, symBinAddr: 0x100082BCC, symSize: 0x4 }
  - { offset: 0x31EB5E, size: 0x8, addend: 0x0, symName: __ZN6parlay7JobImplIZNS_19fork_join_scheduler7parfor_IZ24createCompressedPathTreeIldENSt3__14pairINS_8sequenceINS4_5tupleIJT_S8_T0_EEENS_9allocatorISA_EEXsr3std7is_sameISA_cEE5valueEEENS6_INS5_IS8_S8_EENSB_ISE_EEXsr3std7is_sameISE_cEE5valueEEEEERNS6_I7clusterIS8_S9_ENSB_ISJ_EEXsr3std7is_sameISJ_cEE5valueEEERKSD_EUllE3_EEvRNS_9schedulerINS_15WorkStealingJobEEEmmRS8_mbEUlvE0_ED0Ev, symObjAddr: 0x80828, symBinAddr: 0x100082BD0, symSize: 0x4 }
  - { offset: 0x31EB89, size: 0x8, addend: 0x0, symName: __ZN6parlay7JobImplIZNS_19fork_join_scheduler7parfor_IZ24createCompressedPathTreeIldENSt3__14pairINS_8sequenceINS4_5tupleIJT_S8_T0_EEENS_9allocatorISA_EEXsr3std7is_sameISA_cEE5valueEEENS6_INS5_IS8_S8_EENSB_ISE_EEXsr3std7is_sameISE_cEE5valueEEEEERNS6_I7clusterIS8_S9_ENSB_ISJ_EEXsr3std7is_sameISJ_cEE5valueEEERKSD_EUllE3_EEvRNS_9schedulerINS_15WorkStealingJobEEEmmRS8_mbEUlvE0_E7executeEv, symObjAddr: 0x8082C, symBinAddr: 0x100082BD4, symSize: 0x24 }
  - { offset: 0x31ED91, size: 0x8, addend: 0x0, symName: __ZN6parlay19fork_join_scheduler5pardoIZNS0_7parfor_IZ14write_verticesIldEvP7clusterIT_T0_ERKS5_RNS_8sequenceIS5_NS_9allocatorIS5_EEXsr3std7is_sameIS5_cEE5valueEEERNSB_IS7_NSC_IS7_EEXsr3std7is_sameIS7_cEE5valueEEEEUllE_EEvRNS_9schedulerINS_15WorkStealingJobEEEmmRS5_mbEUlvE_ZNS2_ISJ_EEvSN_mmSO_mbEUlvE0_EEvSN_OS5_OS6_b, symObjAddr: 0x80B88, symBinAddr: 0x100082F30, symSize: 0x510 }
  - { offset: 0x3200A8, size: 0x8, addend: 0x0, symName: __ZN6parlay7JobImplIZNS_19fork_join_scheduler7parfor_IZ14write_verticesIldEvP7clusterIT_T0_ERKS5_RNS_8sequenceIS5_NS_9allocatorIS5_EEXsr3std7is_sameIS5_cEE5valueEEERNSB_IS7_NSC_IS7_EEXsr3std7is_sameIS7_cEE5valueEEEEUllE_EEvRNS_9schedulerINS_15WorkStealingJobEEEmmRS5_mbEUlvE0_ED1Ev, symObjAddr: 0x81168, symBinAddr: 0x100083510, symSize: 0x4 }
  - { offset: 0x3200D3, size: 0x8, addend: 0x0, symName: __ZN6parlay7JobImplIZNS_19fork_join_scheduler7parfor_IZ14write_verticesIldEvP7clusterIT_T0_ERKS5_RNS_8sequenceIS5_NS_9allocatorIS5_EEXsr3std7is_sameIS5_cEE5valueEEERNSB_IS7_NSC_IS7_EEXsr3std7is_sameIS7_cEE5valueEEEEUllE_EEvRNS_9schedulerINS_15WorkStealingJobEEEmmRS5_mbEUlvE0_ED0Ev, symObjAddr: 0x8116C, symBinAddr: 0x100083514, symSize: 0x4 }
  - { offset: 0x3200FE, size: 0x8, addend: 0x0, symName: __ZN6parlay7JobImplIZNS_19fork_join_scheduler7parfor_IZ14write_verticesIldEvP7clusterIT_T0_ERKS5_RNS_8sequenceIS5_NS_9allocatorIS5_EEXsr3std7is_sameIS5_cEE5valueEEERNSB_IS7_NSC_IS7_EEXsr3std7is_sameIS7_cEE5valueEEEEUllE_EEvRNS_9schedulerINS_15WorkStealingJobEEEmmRS5_mbEUlvE0_E7executeEv, symObjAddr: 0x81170, symBinAddr: 0x100083518, symSize: 0x24 }
  - { offset: 0x32036F, size: 0x8, addend: 0x0, symName: __ZN6parlay7JobImplIZNS_19fork_join_scheduler7parfor_IZNS_8sequenceIlNS_9allocatorIlEELb0EE15initialize_fillEmRKlEUlmE_EEvRNS_9schedulerINS_15WorkStealingJobEEEmmRT_mbEUlvE0_ED1Ev, symObjAddr: 0x81854, symBinAddr: 0x100083BFC, symSize: 0x4 }
  - { offset: 0x32039A, size: 0x8, addend: 0x0, symName: __ZN6parlay7JobImplIZNS_19fork_join_scheduler7parfor_IZNS_8sequenceIlNS_9allocatorIlEELb0EE15initialize_fillEmRKlEUlmE_EEvRNS_9schedulerINS_15WorkStealingJobEEEmmRT_mbEUlvE0_ED0Ev, symObjAddr: 0x81858, symBinAddr: 0x100083C00, symSize: 0x4 }
  - { offset: 0x3203C5, size: 0x8, addend: 0x0, symName: __ZN6parlay7JobImplIZNS_19fork_join_scheduler7parfor_IZNS_8sequenceIlNS_9allocatorIlEELb0EE15initialize_fillEmRKlEUlmE_EEvRNS_9schedulerINS_15WorkStealingJobEEEmmRT_mbEUlvE0_E7executeEv, symObjAddr: 0x8185C, symBinAddr: 0x100083C04, symSize: 0x118 }
  - { offset: 0x3206DE, size: 0x8, addend: 0x0, symName: __ZN6parlay7JobImplIZNS_19fork_join_scheduler7parfor_IZNS_8sequenceIlNS_9allocatorIlEELb0EEC1IZ24createCompressedPathTreeIldENSt3__14pairINS3_INS9_5tupleIJT_SC_T0_EEENS4_ISE_EEXsr3std7is_sameISE_cEE5valueEEENS3_INSA_ISC_SC_EENS4_ISH_EEXsr3std7is_sameISH_cEE5valueEEEEERNS3_I7clusterISC_SD_ENS4_ISM_EEXsr3std7is_sameISM_cEE5valueEEERKSG_EUllE2_EEmOSC_NS6_18_from_function_tagEmEUlmE_EEvRNS_9schedulerINS_15WorkStealingJobEEEmmRSC_mbEUlvE0_ED1Ev, symObjAddr: 0x81FDC, symBinAddr: 0x100084384, symSize: 0x4 }
  - { offset: 0x320709, size: 0x8, addend: 0x0, symName: __ZN6parlay7JobImplIZNS_19fork_join_scheduler7parfor_IZNS_8sequenceIlNS_9allocatorIlEELb0EEC1IZ24createCompressedPathTreeIldENSt3__14pairINS3_INS9_5tupleIJT_SC_T0_EEENS4_ISE_EEXsr3std7is_sameISE_cEE5valueEEENS3_INSA_ISC_SC_EENS4_ISH_EEXsr3std7is_sameISH_cEE5valueEEEEERNS3_I7clusterISC_SD_ENS4_ISM_EEXsr3std7is_sameISM_cEE5valueEEERKSG_EUllE2_EEmOSC_NS6_18_from_function_tagEmEUlmE_EEvRNS_9schedulerINS_15WorkStealingJobEEEmmRSC_mbEUlvE0_ED0Ev, symObjAddr: 0x81FE0, symBinAddr: 0x100084388, symSize: 0x4 }
  - { offset: 0x320734, size: 0x8, addend: 0x0, symName: __ZN6parlay7JobImplIZNS_19fork_join_scheduler7parfor_IZNS_8sequenceIlNS_9allocatorIlEELb0EEC1IZ24createCompressedPathTreeIldENSt3__14pairINS3_INS9_5tupleIJT_SC_T0_EEENS4_ISE_EEXsr3std7is_sameISE_cEE5valueEEENS3_INSA_ISC_SC_EENS4_ISH_EEXsr3std7is_sameISH_cEE5valueEEEEERNS3_I7clusterISC_SD_ENS4_ISM_EEXsr3std7is_sameISM_cEE5valueEEERKSG_EUllE2_EEmOSC_NS6_18_from_function_tagEmEUlmE_EEvRNS_9schedulerINS_15WorkStealingJobEEEmmRSC_mbEUlvE0_E7executeEv, symObjAddr: 0x81FE4, symBinAddr: 0x10008438C, symSize: 0xE8 }
  - { offset: 0x320A53, size: 0x8, addend: 0x0, symName: __ZN6parlay7JobImplIZNS_19fork_join_scheduler7parfor_IZ24createCompressedPathTreeIldENSt3__14pairINS_8sequenceINS4_5tupleIJT_S8_T0_EEENS_9allocatorISA_EEXsr3std7is_sameISA_cEE5valueEEENS6_INS5_IS8_S8_EENSB_ISE_EEXsr3std7is_sameISE_cEE5valueEEEEERNS6_I7clusterIS8_S9_ENSB_ISJ_EEXsr3std7is_sameISJ_cEE5valueEEERKSD_EUllE1_EEvRNS_9schedulerINS_15WorkStealingJobEEEmmRS8_mbEUlvE0_ED1Ev, symObjAddr: 0x8286C, symBinAddr: 0x100084C14, symSize: 0x4 }
  - { offset: 0x320A7E, size: 0x8, addend: 0x0, symName: __ZN6parlay7JobImplIZNS_19fork_join_scheduler7parfor_IZ24createCompressedPathTreeIldENSt3__14pairINS_8sequenceINS4_5tupleIJT_S8_T0_EEENS_9allocatorISA_EEXsr3std7is_sameISA_cEE5valueEEENS6_INS5_IS8_S8_EENSB_ISE_EEXsr3std7is_sameISE_cEE5valueEEEEERNS6_I7clusterIS8_S9_ENSB_ISJ_EEXsr3std7is_sameISJ_cEE5valueEEERKSD_EUllE1_EEvRNS_9schedulerINS_15WorkStealingJobEEEmmRS8_mbEUlvE0_ED0Ev, symObjAddr: 0x82870, symBinAddr: 0x100084C18, symSize: 0x4 }
  - { offset: 0x320AA9, size: 0x8, addend: 0x0, symName: __ZN6parlay7JobImplIZNS_19fork_join_scheduler7parfor_IZ24createCompressedPathTreeIldENSt3__14pairINS_8sequenceINS4_5tupleIJT_S8_T0_EEENS_9allocatorISA_EEXsr3std7is_sameISA_cEE5valueEEENS6_INS5_IS8_S8_EENSB_ISE_EEXsr3std7is_sameISE_cEE5valueEEEEERNS6_I7clusterIS8_S9_ENSB_ISJ_EEXsr3std7is_sameISJ_cEE5valueEEERKSD_EUllE1_EEvRNS_9schedulerINS_15WorkStealingJobEEEmmRS8_mbEUlvE0_E7executeEv, symObjAddr: 0x82874, symBinAddr: 0x100084C1C, symSize: 0xE4 }
  - { offset: 0x320DDE, size: 0x8, addend: 0x0, symName: __ZN6parlay19fork_join_scheduler5pardoIZNS0_7parfor_IZ26sum_up_child_vertex_countsIldEvP7clusterIT_T0_EEUllE_EEvRNS_9schedulerINS_15WorkStealingJobEEEmmRS5_mbEUlvE_ZNS2_IS9_EEvSD_mmSE_mbEUlvE0_EEvSD_OS5_OS6_b, symObjAddr: 0x82D34, symBinAddr: 0x1000850DC, symSize: 0x630 }
  - { offset: 0x322201, size: 0x8, addend: 0x0, symName: __ZN6parlay7JobImplIZNS_19fork_join_scheduler7parfor_IZ26sum_up_child_vertex_countsIldEvP7clusterIT_T0_EEUllE_EEvRNS_9schedulerINS_15WorkStealingJobEEEmmRS5_mbEUlvE0_ED1Ev, symObjAddr: 0x83364, symBinAddr: 0x10008570C, symSize: 0x4 }
  - { offset: 0x32222C, size: 0x8, addend: 0x0, symName: __ZN6parlay7JobImplIZNS_19fork_join_scheduler7parfor_IZ26sum_up_child_vertex_countsIldEvP7clusterIT_T0_EEUllE_EEvRNS_9schedulerINS_15WorkStealingJobEEEmmRS5_mbEUlvE0_ED0Ev, symObjAddr: 0x83368, symBinAddr: 0x100085710, symSize: 0x4 }
  - { offset: 0x322257, size: 0x8, addend: 0x0, symName: __ZN6parlay7JobImplIZNS_19fork_join_scheduler7parfor_IZ26sum_up_child_vertex_countsIldEvP7clusterIT_T0_EEUllE_EEvRNS_9schedulerINS_15WorkStealingJobEEEmmRS5_mbEUlvE0_E7executeEv, symObjAddr: 0x8336C, symBinAddr: 0x100085714, symSize: 0xDC }
  - { offset: 0x32262A, size: 0x8, addend: 0x0, symName: __ZN6parlay7JobImplIZNS_19fork_join_scheduler7parfor_IZNS_8internal10sliced_forIZNS3_10filter_mapINS_5sliceIPP7clusterIldESA_EEZ24createCompressedPathTreeIldENSt3__14pairINS_8sequenceINSD_5tupleIJT_SH_T0_EEENS_9allocatorISJ_EEXsr3std7is_sameISJ_cEE5valueEEENSF_INSE_ISH_SH_EENSK_ISN_EEXsr3std7is_sameISN_cEE5valueEEEEERNSF_IS7_ISH_SI_ENSK_ISR_EEXsr3std7is_sameISR_cEE5valueEEERKSM_EUlS9_E_RZNS3_6filterISB_SX_EENSF_INSH_10value_typeENSK_ISZ_EEXsr3std7is_sameISZ_cEE5valueEEERKSH_OSI_EUlOSH_E_EEDaS13_S14_OT1_EUlmmmE0_EEvmmS13_jEUlmE_EEvRNS_9schedulerINS_15WorkStealingJobEEEmmRSH_mbEUlvE0_ED1Ev, symObjAddr: 0x83AB0, symBinAddr: 0x100085E58, symSize: 0x4 }
  - { offset: 0x322655, size: 0x8, addend: 0x0, symName: __ZN6parlay7JobImplIZNS_19fork_join_scheduler7parfor_IZNS_8internal10sliced_forIZNS3_10filter_mapINS_5sliceIPP7clusterIldESA_EEZ24createCompressedPathTreeIldENSt3__14pairINS_8sequenceINSD_5tupleIJT_SH_T0_EEENS_9allocatorISJ_EEXsr3std7is_sameISJ_cEE5valueEEENSF_INSE_ISH_SH_EENSK_ISN_EEXsr3std7is_sameISN_cEE5valueEEEEERNSF_IS7_ISH_SI_ENSK_ISR_EEXsr3std7is_sameISR_cEE5valueEEERKSM_EUlS9_E_RZNS3_6filterISB_SX_EENSF_INSH_10value_typeENSK_ISZ_EEXsr3std7is_sameISZ_cEE5valueEEERKSH_OSI_EUlOSH_E_EEDaS13_S14_OT1_EUlmmmE0_EEvmmS13_jEUlmE_EEvRNS_9schedulerINS_15WorkStealingJobEEEmmRSH_mbEUlvE0_ED0Ev, symObjAddr: 0x83AB4, symBinAddr: 0x100085E5C, symSize: 0x4 }
  - { offset: 0x322680, size: 0x8, addend: 0x0, symName: __ZN6parlay7JobImplIZNS_19fork_join_scheduler7parfor_IZNS_8internal10sliced_forIZNS3_10filter_mapINS_5sliceIPP7clusterIldESA_EEZ24createCompressedPathTreeIldENSt3__14pairINS_8sequenceINSD_5tupleIJT_SH_T0_EEENS_9allocatorISJ_EEXsr3std7is_sameISJ_cEE5valueEEENSF_INSE_ISH_SH_EENSK_ISN_EEXsr3std7is_sameISN_cEE5valueEEEEERNSF_IS7_ISH_SI_ENSK_ISR_EEXsr3std7is_sameISR_cEE5valueEEERKSM_EUlS9_E_RZNS3_6filterISB_SX_EENSF_INSH_10value_typeENSK_ISZ_EEXsr3std7is_sameISZ_cEE5valueEEERKSH_OSI_EUlOSH_E_EEDaS13_S14_OT1_EUlmmmE0_EEvmmS13_jEUlmE_EEvRNS_9schedulerINS_15WorkStealingJobEEEmmRSH_mbEUlvE0_E7executeEv, symObjAddr: 0x83AB8, symBinAddr: 0x100085E60, symSize: 0x24 }
  - { offset: 0x3229C5, size: 0x8, addend: 0x0, symName: __ZN6parlay7JobImplIZNS_19fork_join_scheduler7parfor_IZNS_8internal10sliced_forIZNS3_10filter_mapINS_5sliceIPP7clusterIldESA_EEZ24createCompressedPathTreeIldENSt3__14pairINS_8sequenceINSD_5tupleIJT_SH_T0_EEENS_9allocatorISJ_EEXsr3std7is_sameISJ_cEE5valueEEENSF_INSE_ISH_SH_EENSK_ISN_EEXsr3std7is_sameISN_cEE5valueEEEEERNSF_IS7_ISH_SI_ENSK_ISR_EEXsr3std7is_sameISR_cEE5valueEEERKSM_EUlS9_E_RZNS3_6filterISB_SX_EENSF_INSH_10value_typeENSK_ISZ_EEXsr3std7is_sameISZ_cEE5valueEEERKSH_OSI_EUlOSH_E_EEDaS13_S14_OT1_EUlmmmE_EEvmmS13_jEUlmE_EEvRNS_9schedulerINS_15WorkStealingJobEEEmmRSH_mbEUlvE0_ED1Ev, symObjAddr: 0x84400, symBinAddr: 0x1000867A8, symSize: 0x4 }
  - { offset: 0x3229F0, size: 0x8, addend: 0x0, symName: __ZN6parlay7JobImplIZNS_19fork_join_scheduler7parfor_IZNS_8internal10sliced_forIZNS3_10filter_mapINS_5sliceIPP7clusterIldESA_EEZ24createCompressedPathTreeIldENSt3__14pairINS_8sequenceINSD_5tupleIJT_SH_T0_EEENS_9allocatorISJ_EEXsr3std7is_sameISJ_cEE5valueEEENSF_INSE_ISH_SH_EENSK_ISN_EEXsr3std7is_sameISN_cEE5valueEEEEERNSF_IS7_ISH_SI_ENSK_ISR_EEXsr3std7is_sameISR_cEE5valueEEERKSM_EUlS9_E_RZNS3_6filterISB_SX_EENSF_INSH_10value_typeENSK_ISZ_EEXsr3std7is_sameISZ_cEE5valueEEERKSH_OSI_EUlOSH_E_EEDaS13_S14_OT1_EUlmmmE_EEvmmS13_jEUlmE_EEvRNS_9schedulerINS_15WorkStealingJobEEEmmRSH_mbEUlvE0_ED0Ev, symObjAddr: 0x84404, symBinAddr: 0x1000867AC, symSize: 0x4 }
  - { offset: 0x322A1B, size: 0x8, addend: 0x0, symName: __ZN6parlay7JobImplIZNS_19fork_join_scheduler7parfor_IZNS_8internal10sliced_forIZNS3_10filter_mapINS_5sliceIPP7clusterIldESA_EEZ24createCompressedPathTreeIldENSt3__14pairINS_8sequenceINSD_5tupleIJT_SH_T0_EEENS_9allocatorISJ_EEXsr3std7is_sameISJ_cEE5valueEEENSF_INSE_ISH_SH_EENSK_ISN_EEXsr3std7is_sameISN_cEE5valueEEEEERNSF_IS7_ISH_SI_ENSK_ISR_EEXsr3std7is_sameISR_cEE5valueEEERKSM_EUlS9_E_RZNS3_6filterISB_SX_EENSF_INSH_10value_typeENSK_ISZ_EEXsr3std7is_sameISZ_cEE5valueEEERKSH_OSI_EUlOSH_E_EEDaS13_S14_OT1_EUlmmmE_EEvmmS13_jEUlmE_EEvRNS_9schedulerINS_15WorkStealingJobEEEmmRSH_mbEUlvE0_E7executeEv, symObjAddr: 0x84408, symBinAddr: 0x1000867B0, symSize: 0x24 }
  - { offset: 0x322C8C, size: 0x8, addend: 0x0, symName: __ZN6parlay7JobImplIZNS_19fork_join_scheduler7parfor_IZ24createCompressedPathTreeIldENSt3__14pairINS_8sequenceINS4_5tupleIJT_S8_T0_EEENS_9allocatorISA_EEXsr3std7is_sameISA_cEE5valueEEENS6_INS5_IS8_S8_EENSB_ISE_EEXsr3std7is_sameISE_cEE5valueEEEEERNS6_I7clusterIS8_S9_ENSB_ISJ_EEXsr3std7is_sameISJ_cEE5valueEEERKSD_EUllE0_EEvRNS_9schedulerINS_15WorkStealingJobEEEmmRS8_mbEUlvE0_ED1Ev, symObjAddr: 0x84A4C, symBinAddr: 0x100086DF4, symSize: 0x4 }
  - { offset: 0x322CB7, size: 0x8, addend: 0x0, symName: __ZN6parlay7JobImplIZNS_19fork_join_scheduler7parfor_IZ24createCompressedPathTreeIldENSt3__14pairINS_8sequenceINS4_5tupleIJT_S8_T0_EEENS_9allocatorISA_EEXsr3std7is_sameISA_cEE5valueEEENS6_INS5_IS8_S8_EENSB_ISE_EEXsr3std7is_sameISE_cEE5valueEEEEERNS6_I7clusterIS8_S9_ENSB_ISJ_EEXsr3std7is_sameISJ_cEE5valueEEERKSD_EUllE0_EEvRNS_9schedulerINS_15WorkStealingJobEEEmmRS8_mbEUlvE0_ED0Ev, symObjAddr: 0x84A50, symBinAddr: 0x100086DF8, symSize: 0x4 }
  - { offset: 0x322CE2, size: 0x8, addend: 0x0, symName: __ZN6parlay7JobImplIZNS_19fork_join_scheduler7parfor_IZ24createCompressedPathTreeIldENSt3__14pairINS_8sequenceINS4_5tupleIJT_S8_T0_EEENS_9allocatorISA_EEXsr3std7is_sameISA_cEE5valueEEENS6_INS5_IS8_S8_EENSB_ISE_EEXsr3std7is_sameISE_cEE5valueEEEEERNS6_I7clusterIS8_S9_ENSB_ISJ_EEXsr3std7is_sameISJ_cEE5valueEEERKSD_EUllE0_EEvRNS_9schedulerINS_15WorkStealingJobEEEmmRS8_mbEUlvE0_E7executeEv, symObjAddr: 0x84A54, symBinAddr: 0x100086DFC, symSize: 0xD4 }
  - { offset: 0x3230D9, size: 0x8, addend: 0x0, symName: __ZN7clusterIldE22find_boundary_verticesERPS0_RdS2_S3_ds, symObjAddr: 0x8573C, symBinAddr: 0x100087AE4, symSize: 0x27C }
  - { offset: 0x323368, size: 0x8, addend: 0x0, symName: __ZN6parlay19fork_join_scheduler5pardoIZNS0_7parfor_IZ11top_down_ctIldEvRP7clusterIT_T0_ERNS_8sequenceIS7_NS_9allocatorIS7_EEXsr3std7is_sameIS7_cEE5valueEEEEUllE_EEvRNS_9schedulerINS_15WorkStealingJobEEEmmRS5_mbEUlvE_ZNS2_ISF_EEvSJ_mmSK_mbEUlvE0_EEvSJ_OS5_OS6_b, symObjAddr: 0x859B8, symBinAddr: 0x100087D60, symSize: 0x638 }
  - { offset: 0x32337F, size: 0x8, addend: 0x0, symName: __ZN6parlay19fork_join_scheduler5pardoIZNS0_7parfor_IZ11top_down_ctIldEvRP7clusterIT_T0_ERNS_8sequenceIS7_NS_9allocatorIS7_EEXsr3std7is_sameIS7_cEE5valueEEEEUllE_EEvRNS_9schedulerINS_15WorkStealingJobEEEmmRS5_mbEUlvE_ZNS2_ISF_EEvSJ_mmSK_mbEUlvE0_EEvSJ_OS5_OS6_b, symObjAddr: 0x859B8, symBinAddr: 0x100087D60, symSize: 0x638 }
  - { offset: 0x32478A, size: 0x8, addend: 0x0, symName: __ZN6parlay7JobImplIZNS_19fork_join_scheduler7parfor_IZ11top_down_ctIldEvRP7clusterIT_T0_ERNS_8sequenceIS7_NS_9allocatorIS7_EEXsr3std7is_sameIS7_cEE5valueEEEEUllE_EEvRNS_9schedulerINS_15WorkStealingJobEEEmmRS5_mbEUlvE0_ED1Ev, symObjAddr: 0x85FF0, symBinAddr: 0x100088398, symSize: 0x4 }
  - { offset: 0x3247B5, size: 0x8, addend: 0x0, symName: __ZN6parlay7JobImplIZNS_19fork_join_scheduler7parfor_IZ11top_down_ctIldEvRP7clusterIT_T0_ERNS_8sequenceIS7_NS_9allocatorIS7_EEXsr3std7is_sameIS7_cEE5valueEEEEUllE_EEvRNS_9schedulerINS_15WorkStealingJobEEEmmRS5_mbEUlvE0_ED0Ev, symObjAddr: 0x85FF4, symBinAddr: 0x10008839C, symSize: 0x4 }
  - { offset: 0x3247E0, size: 0x8, addend: 0x0, symName: __ZN6parlay7JobImplIZNS_19fork_join_scheduler7parfor_IZ11top_down_ctIldEvRP7clusterIT_T0_ERNS_8sequenceIS7_NS_9allocatorIS7_EEXsr3std7is_sameIS7_cEE5valueEEEEUllE_EEvRNS_9schedulerINS_15WorkStealingJobEEEmmRS5_mbEUlvE0_E7executeEv, symObjAddr: 0x85FF8, symBinAddr: 0x1000883A0, symSize: 0xE0 }
  - { offset: 0x324AD3, size: 0x8, addend: 0x0, symName: __ZN6parlay7JobImplIZNS_19fork_join_scheduler7parfor_IZ24createCompressedPathTreeIldENSt3__14pairINS_8sequenceINS4_5tupleIJT_S8_T0_EEENS_9allocatorISA_EEXsr3std7is_sameISA_cEE5valueEEENS6_INS5_IS8_S8_EENSB_ISE_EEXsr3std7is_sameISE_cEE5valueEEEEERNS6_I7clusterIS8_S9_ENSB_ISJ_EEXsr3std7is_sameISJ_cEE5valueEEERKSD_EUllE_EEvRNS_9schedulerINS_15WorkStealingJobEEEmmRS8_mbEUlvE0_ED1Ev, symObjAddr: 0x86708, symBinAddr: 0x100088AB0, symSize: 0x4 }
  - { offset: 0x324AFE, size: 0x8, addend: 0x0, symName: __ZN6parlay7JobImplIZNS_19fork_join_scheduler7parfor_IZ24createCompressedPathTreeIldENSt3__14pairINS_8sequenceINS4_5tupleIJT_S8_T0_EEENS_9allocatorISA_EEXsr3std7is_sameISA_cEE5valueEEENS6_INS5_IS8_S8_EENSB_ISE_EEXsr3std7is_sameISE_cEE5valueEEEEERNS6_I7clusterIS8_S9_ENSB_ISJ_EEXsr3std7is_sameISJ_cEE5valueEEERKSD_EUllE_EEvRNS_9schedulerINS_15WorkStealingJobEEEmmRS8_mbEUlvE0_ED0Ev, symObjAddr: 0x8670C, symBinAddr: 0x100088AB4, symSize: 0x4 }
  - { offset: 0x324B29, size: 0x8, addend: 0x0, symName: __ZN6parlay7JobImplIZNS_19fork_join_scheduler7parfor_IZ24createCompressedPathTreeIldENSt3__14pairINS_8sequenceINS4_5tupleIJT_S8_T0_EEENS_9allocatorISA_EEXsr3std7is_sameISA_cEE5valueEEENS6_INS5_IS8_S8_EENSB_ISE_EEXsr3std7is_sameISE_cEE5valueEEEEERNS6_I7clusterIS8_S9_ENSB_ISJ_EEXsr3std7is_sameISJ_cEE5valueEEERKSD_EUllE_EEvRNS_9schedulerINS_15WorkStealingJobEEEmmRS8_mbEUlvE0_E7executeEv, symObjAddr: 0x86710, symBinAddr: 0x100088AB8, symSize: 0xDC }
  - { offset: 0x324DFB, size: 0x8, addend: 0x0, symName: __ZN6parlay7JobImplIZNS_19fork_join_scheduler7parfor_IZNS_8sequenceIP7clusterIldENS_9allocatorIS6_EELb0EE15initialize_fillEmRKS6_EUlmE_EEvRNS_9schedulerINS_15WorkStealingJobEEEmmRT_mbEUlvE0_ED1Ev, symObjAddr: 0x86E14, symBinAddr: 0x1000891BC, symSize: 0x4 }
  - { offset: 0x324E26, size: 0x8, addend: 0x0, symName: __ZN6parlay7JobImplIZNS_19fork_join_scheduler7parfor_IZNS_8sequenceIP7clusterIldENS_9allocatorIS6_EELb0EE15initialize_fillEmRKS6_EUlmE_EEvRNS_9schedulerINS_15WorkStealingJobEEEmmRT_mbEUlvE0_ED0Ev, symObjAddr: 0x86E18, symBinAddr: 0x1000891C0, symSize: 0x4 }
  - { offset: 0x324E51, size: 0x8, addend: 0x0, symName: __ZN6parlay7JobImplIZNS_19fork_join_scheduler7parfor_IZNS_8sequenceIP7clusterIldENS_9allocatorIS6_EELb0EE15initialize_fillEmRKS6_EUlmE_EEvRNS_9schedulerINS_15WorkStealingJobEEEmmRT_mbEUlvE0_E7executeEv, symObjAddr: 0x86E1C, symBinAddr: 0x1000891C4, symSize: 0xC8 }
  - { offset: 0x3253BF, size: 0x8, addend: 0x0, symName: __ZN6parlay7JobImplIZNS_19fork_join_scheduler7parfor_IZNS_17sequence_internal13sequence_baseINS_8sequenceINSt3__15tupleIJlldEEENS_9allocatorIS8_EELb0EEENS9_ISB_EELb0EE12storage_impl11destroy_allEvEUlmE_EEvRNS_9schedulerINS_15WorkStealingJobEEEmmRT_mbEUlvE0_ED1Ev, symObjAddr: 0x8805C, symBinAddr: 0x10008A404, symSize: 0x4 }
  - { offset: 0x3253EA, size: 0x8, addend: 0x0, symName: __ZN6parlay7JobImplIZNS_19fork_join_scheduler7parfor_IZNS_17sequence_internal13sequence_baseINS_8sequenceINSt3__15tupleIJlldEEENS_9allocatorIS8_EELb0EEENS9_ISB_EELb0EE12storage_impl11destroy_allEvEUlmE_EEvRNS_9schedulerINS_15WorkStealingJobEEEmmRT_mbEUlvE0_ED0Ev, symObjAddr: 0x88060, symBinAddr: 0x10008A408, symSize: 0x4 }
  - { offset: 0x325415, size: 0x8, addend: 0x0, symName: __ZN6parlay7JobImplIZNS_19fork_join_scheduler7parfor_IZNS_17sequence_internal13sequence_baseINS_8sequenceINSt3__15tupleIJlldEEENS_9allocatorIS8_EELb0EEENS9_ISB_EELb0EE12storage_impl11destroy_allEvEUlmE_EEvRNS_9schedulerINS_15WorkStealingJobEEEmmRT_mbEUlvE0_E7executeEv, symObjAddr: 0x88064, symBinAddr: 0x10008A40C, symSize: 0x24 }
  - { offset: 0x32575A, size: 0x8, addend: 0x0, symName: __ZN6parlay7JobImplIZNS_19fork_join_scheduler7parfor_IZNS_7flattenINSt3__15tupleIJlldEEEEEDaONS_8sequenceINS8_IT_NS_9allocatorIS9_EEXsr3std7is_sameIS9_cEE5valueEEENSA_ISC_EEXsr3std7is_sameISC_cEE5valueEEEEUlmE0_EEvRNS_9schedulerINS_15WorkStealingJobEEEmmRS9_mbEUlvE0_ED1Ev, symObjAddr: 0x8889C, symBinAddr: 0x10008AC44, symSize: 0x4 }
  - { offset: 0x325785, size: 0x8, addend: 0x0, symName: __ZN6parlay7JobImplIZNS_19fork_join_scheduler7parfor_IZNS_7flattenINSt3__15tupleIJlldEEEEEDaONS_8sequenceINS8_IT_NS_9allocatorIS9_EEXsr3std7is_sameIS9_cEE5valueEEENSA_ISC_EEXsr3std7is_sameISC_cEE5valueEEEEUlmE0_EEvRNS_9schedulerINS_15WorkStealingJobEEEmmRS9_mbEUlvE0_ED0Ev, symObjAddr: 0x888A0, symBinAddr: 0x10008AC48, symSize: 0x4 }
  - { offset: 0x3257B0, size: 0x8, addend: 0x0, symName: __ZN6parlay7JobImplIZNS_19fork_join_scheduler7parfor_IZNS_7flattenINSt3__15tupleIJlldEEEEEDaONS_8sequenceINS8_IT_NS_9allocatorIS9_EEXsr3std7is_sameIS9_cEE5valueEEENSA_ISC_EEXsr3std7is_sameISC_cEE5valueEEEEUlmE0_EEvRNS_9schedulerINS_15WorkStealingJobEEEmmRS9_mbEUlvE0_E7executeEv, symObjAddr: 0x888A4, symBinAddr: 0x10008AC4C, symSize: 0x24 }
  - { offset: 0x325A21, size: 0x8, addend: 0x0, symName: __ZN6parlay7JobImplIZNS_19fork_join_scheduler7parfor_IZNS_24uninitialized_relocate_nIPNSt3__15tupleIJlldEEElS7_EENS4_4pairIT_T1_EES9_T0_SA_EUlmE_EEvRNS_9schedulerINS_15WorkStealingJobEEEmmRS9_mbEUlvE0_ED1Ev, symObjAddr: 0x88ED8, symBinAddr: 0x10008B280, symSize: 0x4 }
  - { offset: 0x325A4C, size: 0x8, addend: 0x0, symName: __ZN6parlay7JobImplIZNS_19fork_join_scheduler7parfor_IZNS_24uninitialized_relocate_nIPNSt3__15tupleIJlldEEElS7_EENS4_4pairIT_T1_EES9_T0_SA_EUlmE_EEvRNS_9schedulerINS_15WorkStealingJobEEEmmRS9_mbEUlvE0_ED0Ev, symObjAddr: 0x88EDC, symBinAddr: 0x10008B284, symSize: 0x4 }
  - { offset: 0x325A77, size: 0x8, addend: 0x0, symName: __ZN6parlay7JobImplIZNS_19fork_join_scheduler7parfor_IZNS_24uninitialized_relocate_nIPNSt3__15tupleIJlldEEElS7_EENS4_4pairIT_T1_EES9_T0_SA_EUlmE_EEvRNS_9schedulerINS_15WorkStealingJobEEEmmRS9_mbEUlvE0_E7executeEv, symObjAddr: 0x88EE0, symBinAddr: 0x10008B288, symSize: 0x24 }
  - { offset: 0x325CE8, size: 0x8, addend: 0x0, symName: __ZN6parlay7JobImplIZNS_19fork_join_scheduler7parfor_IZNS_8sequenceImNS_9allocatorImEELb0EEC1IZNS_7flattenINSt3__15tupleIJlldEEEEEDaONS3_INS3_IT_NS4_ISD_EEXsr3std7is_sameISD_cEE5valueEEENS4_ISF_EEXsr3std7is_sameISF_cEE5valueEEEEUlmE_EEmOSD_NS6_18_from_function_tagEmEUlmE_EEvRNS_9schedulerINS_15WorkStealingJobEEEmmRSD_mbEUlvE0_ED1Ev, symObjAddr: 0x89734, symBinAddr: 0x10008BADC, symSize: 0x4 }
  - { offset: 0x325D13, size: 0x8, addend: 0x0, symName: __ZN6parlay7JobImplIZNS_19fork_join_scheduler7parfor_IZNS_8sequenceImNS_9allocatorImEELb0EEC1IZNS_7flattenINSt3__15tupleIJlldEEEEEDaONS3_INS3_IT_NS4_ISD_EEXsr3std7is_sameISD_cEE5valueEEENS4_ISF_EEXsr3std7is_sameISF_cEE5valueEEEEUlmE_EEmOSD_NS6_18_from_function_tagEmEUlmE_EEvRNS_9schedulerINS_15WorkStealingJobEEEmmRSD_mbEUlvE0_ED0Ev, symObjAddr: 0x89738, symBinAddr: 0x10008BAE0, symSize: 0x4 }
  - { offset: 0x325D3E, size: 0x8, addend: 0x0, symName: __ZN6parlay7JobImplIZNS_19fork_join_scheduler7parfor_IZNS_8sequenceImNS_9allocatorImEELb0EEC1IZNS_7flattenINSt3__15tupleIJlldEEEEEDaONS3_INS3_IT_NS4_ISD_EEXsr3std7is_sameISD_cEE5valueEEENS4_ISF_EEXsr3std7is_sameISF_cEE5valueEEEEUlmE_EEmOSD_NS6_18_from_function_tagEmEUlmE_EEvRNS_9schedulerINS_15WorkStealingJobEEEmmRSD_mbEUlvE0_E7executeEv, symObjAddr: 0x8973C, symBinAddr: 0x10008BAE4, symSize: 0x1D0 }
  - { offset: 0x32644F, size: 0x8, addend: 0x0, symName: __ZN6parlay7JobImplIZNS_19fork_join_scheduler7parfor_IZNS_8sequenceINS3_INSt3__15tupleIJlldEEENS_9allocatorIS6_EELb0EEENS7_IS9_EELb0EEC1IZ24convertClustersToTruplesIldENS3_INS5_IJT_SE_T0_EEENS7_ISG_EEXsr3std7is_sameISG_cEE5valueEEERKNS3_I7clusterISE_SF_ENS7_ISK_EEXsr3std7is_sameISK_cEE5valueEEEEUllE_EEmOSE_NSB_18_from_function_tagEmEUlmE_EEvRNS_9schedulerINS_15WorkStealingJobEEEmmRSE_mbEUlvE0_ED1Ev, symObjAddr: 0x8A2D8, symBinAddr: 0x10008C680, symSize: 0x4 }
  - { offset: 0x32647A, size: 0x8, addend: 0x0, symName: __ZN6parlay7JobImplIZNS_19fork_join_scheduler7parfor_IZNS_8sequenceINS3_INSt3__15tupleIJlldEEENS_9allocatorIS6_EELb0EEENS7_IS9_EELb0EEC1IZ24convertClustersToTruplesIldENS3_INS5_IJT_SE_T0_EEENS7_ISG_EEXsr3std7is_sameISG_cEE5valueEEERKNS3_I7clusterISE_SF_ENS7_ISK_EEXsr3std7is_sameISK_cEE5valueEEEEUllE_EEmOSE_NSB_18_from_function_tagEmEUlmE_EEvRNS_9schedulerINS_15WorkStealingJobEEEmmRSE_mbEUlvE0_ED0Ev, symObjAddr: 0x8A2DC, symBinAddr: 0x10008C684, symSize: 0x4 }
  - { offset: 0x3264A5, size: 0x8, addend: 0x0, symName: __ZN6parlay7JobImplIZNS_19fork_join_scheduler7parfor_IZNS_8sequenceINS3_INSt3__15tupleIJlldEEENS_9allocatorIS6_EELb0EEENS7_IS9_EELb0EEC1IZ24convertClustersToTruplesIldENS3_INS5_IJT_SE_T0_EEENS7_ISG_EEXsr3std7is_sameISG_cEE5valueEEERKNS3_I7clusterISE_SF_ENS7_ISK_EEXsr3std7is_sameISK_cEE5valueEEEEUllE_EEmOSE_NSB_18_from_function_tagEmEUlmE_EEvRNS_9schedulerINS_15WorkStealingJobEEEmmRSE_mbEUlvE0_E7executeEv, symObjAddr: 0x8A2E0, symBinAddr: 0x10008C688, symSize: 0x24 }
  - { offset: 0x3267EA, size: 0x8, addend: 0x0, symName: __ZN6parlay7JobImplIZNS_19fork_join_scheduler7parfor_IZ17checkEdgePtrValidIldEvRNS_8sequenceI7clusterIT_T0_ENS_9allocatorIS8_EEXsr3std7is_sameIS8_cEE5valueEEEEUllE_EEvRNS_9schedulerINS_15WorkStealingJobEEEmmRS6_mbEUlvE0_ED1Ev, symObjAddr: 0x8A8DC, symBinAddr: 0x10008CC84, symSize: 0x4 }
  - { offset: 0x326815, size: 0x8, addend: 0x0, symName: __ZN6parlay7JobImplIZNS_19fork_join_scheduler7parfor_IZ17checkEdgePtrValidIldEvRNS_8sequenceI7clusterIT_T0_ENS_9allocatorIS8_EEXsr3std7is_sameIS8_cEE5valueEEEEUllE_EEvRNS_9schedulerINS_15WorkStealingJobEEEmmRS6_mbEUlvE0_ED0Ev, symObjAddr: 0x8A8E0, symBinAddr: 0x10008CC88, symSize: 0x4 }
  - { offset: 0x326840, size: 0x8, addend: 0x0, symName: __ZN6parlay7JobImplIZNS_19fork_join_scheduler7parfor_IZ17checkEdgePtrValidIldEvRNS_8sequenceI7clusterIT_T0_ENS_9allocatorIS8_EEXsr3std7is_sameIS8_cEE5valueEEEEUllE_EEvRNS_9schedulerINS_15WorkStealingJobEEEmmRS6_mbEUlvE0_E7executeEv, symObjAddr: 0x8A8E4, symBinAddr: 0x10008CC8C, symSize: 0x24 }
  - { offset: 0x326E83, size: 0x8, addend: 0x0, symName: __ZZ20recreate_last_levelsIldEvRN6parlay8sequenceIP4nodeIT_T0_ENS0_9allocatorIS6_EEXsr3std7is_sameIS6_cEE5valueEEEENKUllE_clEl, symObjAddr: 0x8EEFC, symBinAddr: 0x1000912A4, symSize: 0x460 }
  - { offset: 0x3273F4, size: 0x8, addend: 0x0, symName: __ZN6parlay19fork_join_scheduler5pardoIZNS0_7parfor_IZ20recreate_last_levelsIldEvRNS_8sequenceIP4nodeIT_T0_ENS_9allocatorIS9_EEXsr3std7is_sameIS9_cEE5valueEEEEUllE_EEvRNS_9schedulerINS_15WorkStealingJobEEEmmRS6_mbEUlvE_ZNS2_ISE_EEvSI_mmSJ_mbEUlvE0_EEvSI_OS6_OS7_b, symObjAddr: 0x903F0, symBinAddr: 0x100092798, symSize: 0x628 }
  - { offset: 0x3285AA, size: 0x8, addend: 0x0, symName: __ZZ20recreate_last_levelsIldEvRN6parlay8sequenceIP4nodeIT_T0_ENS0_9allocatorIS6_EEXsr3std7is_sameIS6_cEE5valueEEEENKUllE0_clEl, symObjAddr: 0x8F35C, symBinAddr: 0x100091704, symSize: 0x258 }
  - { offset: 0x328731, size: 0x8, addend: 0x0, symName: __ZN6parlay19fork_join_scheduler5pardoIZNS0_7parfor_IZ20recreate_last_levelsIldEvRNS_8sequenceIP4nodeIT_T0_ENS_9allocatorIS9_EEXsr3std7is_sameIS9_cEE5valueEEEEUllE0_EEvRNS_9schedulerINS_15WorkStealingJobEEEmmRS6_mbEUlvE_ZNS2_ISE_EEvSI_mmSJ_mbEUlvE0_EEvSI_OS6_OS7_b, symObjAddr: 0x8FCE8, symBinAddr: 0x100092090, symSize: 0x628 }
  - { offset: 0x3298E7, size: 0x8, addend: 0x0, symName: __ZN6parlay19fork_join_scheduler5pardoIZNS0_7parfor_IZ20recreate_last_levelsIldEvRNS_8sequenceIP4nodeIT_T0_ENS_9allocatorIS9_EEXsr3std7is_sameIS9_cEE5valueEEEEUllE1_EEvRNS_9schedulerINS_15WorkStealingJobEEEmmRS6_mbEUlvE_ZNS2_ISE_EEvSI_mmSJ_mbEUlvE0_EEvSI_OS6_OS7_b, symObjAddr: 0x8F5B4, symBinAddr: 0x10009195C, symSize: 0x650 }
  - { offset: 0x32AF16, size: 0x8, addend: 0x0, symName: __ZN6parlay7JobImplIZNS_19fork_join_scheduler7parfor_IZNS_8internal10sliced_forIZNS3_10filter_mapINS_5sliceIPP4nodeIldESA_EEZ14create_RC_treeIldEvRNS_8sequenceI7clusterIT_T0_ENS_9allocatorISH_EEXsr3std7is_sameISH_cEE5valueEEESF_bSG_EUlSF_E1_RZNS3_6filterISB_SM_EENSD_INSF_10value_typeENSI_ISO_EEXsr3std7is_sameISO_cEE5valueEEERKSF_OSG_EUlOSF_E_EEDaSS_ST_OT1_EUlmmmE0_EEvmmSS_jEUlmE_EEvRNS_9schedulerINS_15WorkStealingJobEEEmmRSF_mbEUlvE0_ED1Ev, symObjAddr: 0x8B5F8, symBinAddr: 0x10008D9A0, symSize: 0x4 }
  - { offset: 0x32AF41, size: 0x8, addend: 0x0, symName: __ZN6parlay7JobImplIZNS_19fork_join_scheduler7parfor_IZNS_8internal10sliced_forIZNS3_10filter_mapINS_5sliceIPP4nodeIldESA_EEZ14create_RC_treeIldEvRNS_8sequenceI7clusterIT_T0_ENS_9allocatorISH_EEXsr3std7is_sameISH_cEE5valueEEESF_bSG_EUlSF_E1_RZNS3_6filterISB_SM_EENSD_INSF_10value_typeENSI_ISO_EEXsr3std7is_sameISO_cEE5valueEEERKSF_OSG_EUlOSF_E_EEDaSS_ST_OT1_EUlmmmE0_EEvmmSS_jEUlmE_EEvRNS_9schedulerINS_15WorkStealingJobEEEmmRSF_mbEUlvE0_ED0Ev, symObjAddr: 0x8B5FC, symBinAddr: 0x10008D9A4, symSize: 0x4 }
  - { offset: 0x32AF6C, size: 0x8, addend: 0x0, symName: __ZN6parlay7JobImplIZNS_19fork_join_scheduler7parfor_IZNS_8internal10sliced_forIZNS3_10filter_mapINS_5sliceIPP4nodeIldESA_EEZ14create_RC_treeIldEvRNS_8sequenceI7clusterIT_T0_ENS_9allocatorISH_EEXsr3std7is_sameISH_cEE5valueEEESF_bSG_EUlSF_E1_RZNS3_6filterISB_SM_EENSD_INSF_10value_typeENSI_ISO_EEXsr3std7is_sameISO_cEE5valueEEERKSF_OSG_EUlOSF_E_EEDaSS_ST_OT1_EUlmmmE0_EEvmmSS_jEUlmE_EEvRNS_9schedulerINS_15WorkStealingJobEEEmmRSF_mbEUlvE0_E7executeEv, symObjAddr: 0x8B600, symBinAddr: 0x10008D9A8, symSize: 0x24 }
  - { offset: 0x32B2B1, size: 0x8, addend: 0x0, symName: __ZN6parlay7JobImplIZNS_19fork_join_scheduler7parfor_IZNS_8internal10sliced_forIZNS3_10filter_mapINS_5sliceIPP4nodeIldESA_EEZ14create_RC_treeIldEvRNS_8sequenceI7clusterIT_T0_ENS_9allocatorISH_EEXsr3std7is_sameISH_cEE5valueEEESF_bSG_EUlSF_E1_RZNS3_6filterISB_SM_EENSD_INSF_10value_typeENSI_ISO_EEXsr3std7is_sameISO_cEE5valueEEERKSF_OSG_EUlOSF_E_EEDaSS_ST_OT1_EUlmmmE_EEvmmSS_jEUlmE_EEvRNS_9schedulerINS_15WorkStealingJobEEEmmRSF_mbEUlvE0_ED1Ev, symObjAddr: 0x8BCC8, symBinAddr: 0x10008E070, symSize: 0x4 }
  - { offset: 0x32B2DC, size: 0x8, addend: 0x0, symName: __ZN6parlay7JobImplIZNS_19fork_join_scheduler7parfor_IZNS_8internal10sliced_forIZNS3_10filter_mapINS_5sliceIPP4nodeIldESA_EEZ14create_RC_treeIldEvRNS_8sequenceI7clusterIT_T0_ENS_9allocatorISH_EEXsr3std7is_sameISH_cEE5valueEEESF_bSG_EUlSF_E1_RZNS3_6filterISB_SM_EENSD_INSF_10value_typeENSI_ISO_EEXsr3std7is_sameISO_cEE5valueEEERKSF_OSG_EUlOSF_E_EEDaSS_ST_OT1_EUlmmmE_EEvmmSS_jEUlmE_EEvRNS_9schedulerINS_15WorkStealingJobEEEmmRSF_mbEUlvE0_ED0Ev, symObjAddr: 0x8BCCC, symBinAddr: 0x10008E074, symSize: 0x4 }
  - { offset: 0x32B307, size: 0x8, addend: 0x0, symName: __ZN6parlay7JobImplIZNS_19fork_join_scheduler7parfor_IZNS_8internal10sliced_forIZNS3_10filter_mapINS_5sliceIPP4nodeIldESA_EEZ14create_RC_treeIldEvRNS_8sequenceI7clusterIT_T0_ENS_9allocatorISH_EEXsr3std7is_sameISH_cEE5valueEEESF_bSG_EUlSF_E1_RZNS3_6filterISB_SM_EENSD_INSF_10value_typeENSI_ISO_EEXsr3std7is_sameISO_cEE5valueEEERKSF_OSG_EUlOSF_E_EEDaSS_ST_OT1_EUlmmmE_EEvmmSS_jEUlmE_EEvRNS_9schedulerINS_15WorkStealingJobEEEmmRSF_mbEUlvE0_E7executeEv, symObjAddr: 0x8BCD0, symBinAddr: 0x10008E078, symSize: 0x24 }
  - { offset: 0x32B64C, size: 0x8, addend: 0x0, symName: __ZN6parlay7JobImplIZNS_19fork_join_scheduler7parfor_IZ14create_RC_treeIldEvRNS_8sequenceI7clusterIT_T0_ENS_9allocatorIS8_EEXsr3std7is_sameIS8_cEE5valueEEES6_bS7_EUllE0_EEvRNS_9schedulerINS_15WorkStealingJobEEEmmRS6_mbEUlvE0_ED1Ev, symObjAddr: 0x8C288, symBinAddr: 0x10008E630, symSize: 0x4 }
  - { offset: 0x32B677, size: 0x8, addend: 0x0, symName: __ZN6parlay7JobImplIZNS_19fork_join_scheduler7parfor_IZ14create_RC_treeIldEvRNS_8sequenceI7clusterIT_T0_ENS_9allocatorIS8_EEXsr3std7is_sameIS8_cEE5valueEEES6_bS7_EUllE0_EEvRNS_9schedulerINS_15WorkStealingJobEEEmmRS6_mbEUlvE0_ED0Ev, symObjAddr: 0x8C28C, symBinAddr: 0x10008E634, symSize: 0x4 }
  - { offset: 0x32B6A2, size: 0x8, addend: 0x0, symName: __ZN6parlay7JobImplIZNS_19fork_join_scheduler7parfor_IZ14create_RC_treeIldEvRNS_8sequenceI7clusterIT_T0_ENS_9allocatorIS8_EEXsr3std7is_sameIS8_cEE5valueEEES6_bS7_EUllE0_EEvRNS_9schedulerINS_15WorkStealingJobEEEmmRS6_mbEUlvE0_E7executeEv, symObjAddr: 0x8C290, symBinAddr: 0x10008E638, symSize: 0x24 }
  - { offset: 0x32B913, size: 0x8, addend: 0x0, symName: __ZN6parlay7JobImplIZNS_19fork_join_scheduler7parfor_IZ9check_misIldEvRNS_8sequenceIP4nodeIT_T0_ENS_9allocatorIS9_EEXsr3std7is_sameIS9_cEE5valueEEEEUllE_EEvRNS_9schedulerINS_15WorkStealingJobEEEmmRS6_mbEUlvE0_ED1Ev, symObjAddr: 0x8CA54, symBinAddr: 0x10008EDFC, symSize: 0x4 }
  - { offset: 0x32B93E, size: 0x8, addend: 0x0, symName: __ZN6parlay7JobImplIZNS_19fork_join_scheduler7parfor_IZ9check_misIldEvRNS_8sequenceIP4nodeIT_T0_ENS_9allocatorIS9_EEXsr3std7is_sameIS9_cEE5valueEEEEUllE_EEvRNS_9schedulerINS_15WorkStealingJobEEEmmRS6_mbEUlvE0_ED0Ev, symObjAddr: 0x8CA58, symBinAddr: 0x10008EE00, symSize: 0x4 }
  - { offset: 0x32B969, size: 0x8, addend: 0x0, symName: __ZN6parlay7JobImplIZNS_19fork_join_scheduler7parfor_IZ9check_misIldEvRNS_8sequenceIP4nodeIT_T0_ENS_9allocatorIS9_EEXsr3std7is_sameIS9_cEE5valueEEEEUllE_EEvRNS_9schedulerINS_15WorkStealingJobEEEmmRS6_mbEUlvE0_E7executeEv, symObjAddr: 0x8CA5C, symBinAddr: 0x10008EE04, symSize: 0xD8 }
  - { offset: 0x32BD0F, size: 0x8, addend: 0x0, symName: __ZN6parlay7JobImplIZNS_19fork_join_scheduler7parfor_IZNS_8internal10sliced_forIZNS3_10filter_mapINS_5sliceIPP4nodeIldESA_EEZ14create_RC_treeIldEvRNS_8sequenceI7clusterIT_T0_ENS_9allocatorISH_EEXsr3std7is_sameISH_cEE5valueEEESF_bSG_EUlSF_E0_RZNS3_6filterISB_SM_EENSD_INSF_10value_typeENSI_ISO_EEXsr3std7is_sameISO_cEE5valueEEERKSF_OSG_EUlOSF_E_EEDaSS_ST_OT1_EUlmmmE0_EEvmmSS_jEUlmE_EEvRNS_9schedulerINS_15WorkStealingJobEEEmmRSF_mbEUlvE0_ED1Ev, symObjAddr: 0x8D19C, symBinAddr: 0x10008F544, symSize: 0x4 }
  - { offset: 0x32BD3A, size: 0x8, addend: 0x0, symName: __ZN6parlay7JobImplIZNS_19fork_join_scheduler7parfor_IZNS_8internal10sliced_forIZNS3_10filter_mapINS_5sliceIPP4nodeIldESA_EEZ14create_RC_treeIldEvRNS_8sequenceI7clusterIT_T0_ENS_9allocatorISH_EEXsr3std7is_sameISH_cEE5valueEEESF_bSG_EUlSF_E0_RZNS3_6filterISB_SM_EENSD_INSF_10value_typeENSI_ISO_EEXsr3std7is_sameISO_cEE5valueEEERKSF_OSG_EUlOSF_E_EEDaSS_ST_OT1_EUlmmmE0_EEvmmSS_jEUlmE_EEvRNS_9schedulerINS_15WorkStealingJobEEEmmRSF_mbEUlvE0_ED0Ev, symObjAddr: 0x8D1A0, symBinAddr: 0x10008F548, symSize: 0x4 }
  - { offset: 0x32BD65, size: 0x8, addend: 0x0, symName: __ZN6parlay7JobImplIZNS_19fork_join_scheduler7parfor_IZNS_8internal10sliced_forIZNS3_10filter_mapINS_5sliceIPP4nodeIldESA_EEZ14create_RC_treeIldEvRNS_8sequenceI7clusterIT_T0_ENS_9allocatorISH_EEXsr3std7is_sameISH_cEE5valueEEESF_bSG_EUlSF_E0_RZNS3_6filterISB_SM_EENSD_INSF_10value_typeENSI_ISO_EEXsr3std7is_sameISO_cEE5valueEEERKSF_OSG_EUlOSF_E_EEDaSS_ST_OT1_EUlmmmE0_EEvmmSS_jEUlmE_EEvRNS_9schedulerINS_15WorkStealingJobEEEmmRSF_mbEUlvE0_E7executeEv, symObjAddr: 0x8D1A4, symBinAddr: 0x10008F54C, symSize: 0x24 }
  - { offset: 0x32C0AA, size: 0x8, addend: 0x0, symName: __ZN6parlay7JobImplIZNS_19fork_join_scheduler7parfor_IZNS_8internal10sliced_forIZNS3_10filter_mapINS_5sliceIPP4nodeIldESA_EEZ14create_RC_treeIldEvRNS_8sequenceI7clusterIT_T0_ENS_9allocatorISH_EEXsr3std7is_sameISH_cEE5valueEEESF_bSG_EUlSF_E0_RZNS3_6filterISB_SM_EENSD_INSF_10value_typeENSI_ISO_EEXsr3std7is_sameISO_cEE5valueEEERKSF_OSG_EUlOSF_E_EEDaSS_ST_OT1_EUlmmmE_EEvmmSS_jEUlmE_EEvRNS_9schedulerINS_15WorkStealingJobEEEmmRSF_mbEUlvE0_ED1Ev, symObjAddr: 0x8D878, symBinAddr: 0x10008FC20, symSize: 0x4 }
  - { offset: 0x32C0D5, size: 0x8, addend: 0x0, symName: __ZN6parlay7JobImplIZNS_19fork_join_scheduler7parfor_IZNS_8internal10sliced_forIZNS3_10filter_mapINS_5sliceIPP4nodeIldESA_EEZ14create_RC_treeIldEvRNS_8sequenceI7clusterIT_T0_ENS_9allocatorISH_EEXsr3std7is_sameISH_cEE5valueEEESF_bSG_EUlSF_E0_RZNS3_6filterISB_SM_EENSD_INSF_10value_typeENSI_ISO_EEXsr3std7is_sameISO_cEE5valueEEERKSF_OSG_EUlOSF_E_EEDaSS_ST_OT1_EUlmmmE_EEvmmSS_jEUlmE_EEvRNS_9schedulerINS_15WorkStealingJobEEEmmRSF_mbEUlvE0_ED0Ev, symObjAddr: 0x8D87C, symBinAddr: 0x10008FC24, symSize: 0x4 }
  - { offset: 0x32C100, size: 0x8, addend: 0x0, symName: __ZN6parlay7JobImplIZNS_19fork_join_scheduler7parfor_IZNS_8internal10sliced_forIZNS3_10filter_mapINS_5sliceIPP4nodeIldESA_EEZ14create_RC_treeIldEvRNS_8sequenceI7clusterIT_T0_ENS_9allocatorISH_EEXsr3std7is_sameISH_cEE5valueEEESF_bSG_EUlSF_E0_RZNS3_6filterISB_SM_EENSD_INSF_10value_typeENSI_ISO_EEXsr3std7is_sameISO_cEE5valueEEERKSF_OSG_EUlOSF_E_EEDaSS_ST_OT1_EUlmmmE_EEvmmSS_jEUlmE_EEvRNS_9schedulerINS_15WorkStealingJobEEEmmRSF_mbEUlvE0_E7executeEv, symObjAddr: 0x8D880, symBinAddr: 0x10008FC28, symSize: 0x24 }
  - { offset: 0x32C445, size: 0x8, addend: 0x0, symName: __ZN6parlay7JobImplIZNS_19fork_join_scheduler7parfor_IZNS_8internal10sliced_forIZNS3_10filter_mapINS_5sliceIPP4nodeIldESA_EEZ14create_RC_treeIldEvRNS_8sequenceI7clusterIT_T0_ENS_9allocatorISH_EEXsr3std7is_sameISH_cEE5valueEEESF_bSG_EUlSF_E_RZNS3_6filterISB_SM_EENSD_INSF_10value_typeENSI_ISO_EEXsr3std7is_sameISO_cEE5valueEEERKSF_OSG_EUlOSF_E_EEDaSS_ST_OT1_EUlmmmE0_EEvmmSS_jEUlmE_EEvRNS_9schedulerINS_15WorkStealingJobEEEmmRSF_mbEUlvE0_ED1Ev, symObjAddr: 0x8DF0C, symBinAddr: 0x1000902B4, symSize: 0x4 }
  - { offset: 0x32C470, size: 0x8, addend: 0x0, symName: __ZN6parlay7JobImplIZNS_19fork_join_scheduler7parfor_IZNS_8internal10sliced_forIZNS3_10filter_mapINS_5sliceIPP4nodeIldESA_EEZ14create_RC_treeIldEvRNS_8sequenceI7clusterIT_T0_ENS_9allocatorISH_EEXsr3std7is_sameISH_cEE5valueEEESF_bSG_EUlSF_E_RZNS3_6filterISB_SM_EENSD_INSF_10value_typeENSI_ISO_EEXsr3std7is_sameISO_cEE5valueEEERKSF_OSG_EUlOSF_E_EEDaSS_ST_OT1_EUlmmmE0_EEvmmSS_jEUlmE_EEvRNS_9schedulerINS_15WorkStealingJobEEEmmRSF_mbEUlvE0_ED0Ev, symObjAddr: 0x8DF10, symBinAddr: 0x1000902B8, symSize: 0x4 }
  - { offset: 0x32C49B, size: 0x8, addend: 0x0, symName: __ZN6parlay7JobImplIZNS_19fork_join_scheduler7parfor_IZNS_8internal10sliced_forIZNS3_10filter_mapINS_5sliceIPP4nodeIldESA_EEZ14create_RC_treeIldEvRNS_8sequenceI7clusterIT_T0_ENS_9allocatorISH_EEXsr3std7is_sameISH_cEE5valueEEESF_bSG_EUlSF_E_RZNS3_6filterISB_SM_EENSD_INSF_10value_typeENSI_ISO_EEXsr3std7is_sameISO_cEE5valueEEERKSF_OSG_EUlOSF_E_EEDaSS_ST_OT1_EUlmmmE0_EEvmmSS_jEUlmE_EEvRNS_9schedulerINS_15WorkStealingJobEEEmmRSF_mbEUlvE0_E7executeEv, symObjAddr: 0x8DF14, symBinAddr: 0x1000902BC, symSize: 0x24 }
  - { offset: 0x32C7E0, size: 0x8, addend: 0x0, symName: __ZN6parlay7JobImplIZNS_19fork_join_scheduler7parfor_IZNS_8internal10sliced_forIZNS3_10filter_mapINS_5sliceIPP4nodeIldESA_EEZ14create_RC_treeIldEvRNS_8sequenceI7clusterIT_T0_ENS_9allocatorISH_EEXsr3std7is_sameISH_cEE5valueEEESF_bSG_EUlSF_E_RZNS3_6filterISB_SM_EENSD_INSF_10value_typeENSI_ISO_EEXsr3std7is_sameISO_cEE5valueEEERKSF_OSG_EUlOSF_E_EEDaSS_ST_OT1_EUlmmmE_EEvmmSS_jEUlmE_EEvRNS_9schedulerINS_15WorkStealingJobEEEmmRSF_mbEUlvE0_ED1Ev, symObjAddr: 0x8E598, symBinAddr: 0x100090940, symSize: 0x4 }
  - { offset: 0x32C80B, size: 0x8, addend: 0x0, symName: __ZN6parlay7JobImplIZNS_19fork_join_scheduler7parfor_IZNS_8internal10sliced_forIZNS3_10filter_mapINS_5sliceIPP4nodeIldESA_EEZ14create_RC_treeIldEvRNS_8sequenceI7clusterIT_T0_ENS_9allocatorISH_EEXsr3std7is_sameISH_cEE5valueEEESF_bSG_EUlSF_E_RZNS3_6filterISB_SM_EENSD_INSF_10value_typeENSI_ISO_EEXsr3std7is_sameISO_cEE5valueEEERKSF_OSG_EUlOSF_E_EEDaSS_ST_OT1_EUlmmmE_EEvmmSS_jEUlmE_EEvRNS_9schedulerINS_15WorkStealingJobEEEmmRSF_mbEUlvE0_ED0Ev, symObjAddr: 0x8E59C, symBinAddr: 0x100090944, symSize: 0x4 }
  - { offset: 0x32C836, size: 0x8, addend: 0x0, symName: __ZN6parlay7JobImplIZNS_19fork_join_scheduler7parfor_IZNS_8internal10sliced_forIZNS3_10filter_mapINS_5sliceIPP4nodeIldESA_EEZ14create_RC_treeIldEvRNS_8sequenceI7clusterIT_T0_ENS_9allocatorISH_EEXsr3std7is_sameISH_cEE5valueEEESF_bSG_EUlSF_E_RZNS3_6filterISB_SM_EENSD_INSF_10value_typeENSI_ISO_EEXsr3std7is_sameISO_cEE5valueEEERKSF_OSG_EUlOSF_E_EEDaSS_ST_OT1_EUlmmmE_EEvmmSS_jEUlmE_EEvRNS_9schedulerINS_15WorkStealingJobEEEmmRSF_mbEUlvE0_E7executeEv, symObjAddr: 0x8E5A0, symBinAddr: 0x100090948, symSize: 0x24 }
  - { offset: 0x32CAA7, size: 0x8, addend: 0x0, symName: __ZN6parlay7JobImplIZNS_19fork_join_scheduler7parfor_IZ17check_consistencyIldEvRNS_8sequenceIP4nodeIT_T0_ENS_9allocatorIS9_EEXsr3std7is_sameIS9_cEE5valueEEEEUllE_EEvRNS_9schedulerINS_15WorkStealingJobEEEmmRS6_mbEUlvE0_ED1Ev, symObjAddr: 0x8EE1C, symBinAddr: 0x1000911C4, symSize: 0x4 }
  - { offset: 0x32CAD2, size: 0x8, addend: 0x0, symName: __ZN6parlay7JobImplIZNS_19fork_join_scheduler7parfor_IZ17check_consistencyIldEvRNS_8sequenceIP4nodeIT_T0_ENS_9allocatorIS9_EEXsr3std7is_sameIS9_cEE5valueEEEEUllE_EEvRNS_9schedulerINS_15WorkStealingJobEEEmmRS6_mbEUlvE0_ED0Ev, symObjAddr: 0x8EE20, symBinAddr: 0x1000911C8, symSize: 0x4 }
  - { offset: 0x32CAFD, size: 0x8, addend: 0x0, symName: __ZN6parlay7JobImplIZNS_19fork_join_scheduler7parfor_IZ17check_consistencyIldEvRNS_8sequenceIP4nodeIT_T0_ENS_9allocatorIS9_EEXsr3std7is_sameIS9_cEE5valueEEEEUllE_EEvRNS_9schedulerINS_15WorkStealingJobEEEmmRS6_mbEUlvE0_E7executeEv, symObjAddr: 0x8EE24, symBinAddr: 0x1000911CC, symSize: 0xD8 }
  - { offset: 0x32CDCF, size: 0x8, addend: 0x0, symName: __ZN6parlay7JobImplIZNS_19fork_join_scheduler7parfor_IZ20recreate_last_levelsIldEvRNS_8sequenceIP4nodeIT_T0_ENS_9allocatorIS9_EEXsr3std7is_sameIS9_cEE5valueEEEEUllE1_EEvRNS_9schedulerINS_15WorkStealingJobEEEmmRS6_mbEUlvE0_ED1Ev, symObjAddr: 0x8FC04, symBinAddr: 0x100091FAC, symSize: 0x4 }
  - { offset: 0x32CDFA, size: 0x8, addend: 0x0, symName: __ZN6parlay7JobImplIZNS_19fork_join_scheduler7parfor_IZ20recreate_last_levelsIldEvRNS_8sequenceIP4nodeIT_T0_ENS_9allocatorIS9_EEXsr3std7is_sameIS9_cEE5valueEEEEUllE1_EEvRNS_9schedulerINS_15WorkStealingJobEEEmmRS6_mbEUlvE0_ED0Ev, symObjAddr: 0x8FC08, symBinAddr: 0x100091FB0, symSize: 0x4 }
  - { offset: 0x32CE25, size: 0x8, addend: 0x0, symName: __ZN6parlay7JobImplIZNS_19fork_join_scheduler7parfor_IZ20recreate_last_levelsIldEvRNS_8sequenceIP4nodeIT_T0_ENS_9allocatorIS9_EEXsr3std7is_sameIS9_cEE5valueEEEEUllE1_EEvRNS_9schedulerINS_15WorkStealingJobEEEmmRS6_mbEUlvE0_E7executeEv, symObjAddr: 0x8FC0C, symBinAddr: 0x100091FB4, symSize: 0xDC }
  - { offset: 0x32D1C1, size: 0x8, addend: 0x0, symName: __ZN6parlay7JobImplIZNS_19fork_join_scheduler7parfor_IZ20recreate_last_levelsIldEvRNS_8sequenceIP4nodeIT_T0_ENS_9allocatorIS9_EEXsr3std7is_sameIS9_cEE5valueEEEEUllE0_EEvRNS_9schedulerINS_15WorkStealingJobEEEmmRS6_mbEUlvE0_ED1Ev, symObjAddr: 0x90310, symBinAddr: 0x1000926B8, symSize: 0x4 }
  - { offset: 0x32D1EC, size: 0x8, addend: 0x0, symName: __ZN6parlay7JobImplIZNS_19fork_join_scheduler7parfor_IZ20recreate_last_levelsIldEvRNS_8sequenceIP4nodeIT_T0_ENS_9allocatorIS9_EEXsr3std7is_sameIS9_cEE5valueEEEEUllE0_EEvRNS_9schedulerINS_15WorkStealingJobEEEmmRS6_mbEUlvE0_ED0Ev, symObjAddr: 0x90314, symBinAddr: 0x1000926BC, symSize: 0x4 }
  - { offset: 0x32D217, size: 0x8, addend: 0x0, symName: __ZN6parlay7JobImplIZNS_19fork_join_scheduler7parfor_IZ20recreate_last_levelsIldEvRNS_8sequenceIP4nodeIT_T0_ENS_9allocatorIS9_EEXsr3std7is_sameIS9_cEE5valueEEEEUllE0_EEvRNS_9schedulerINS_15WorkStealingJobEEEmmRS6_mbEUlvE0_E7executeEv, symObjAddr: 0x90318, symBinAddr: 0x1000926C0, symSize: 0xD8 }
  - { offset: 0x32D4E9, size: 0x8, addend: 0x0, symName: __ZN6parlay7JobImplIZNS_19fork_join_scheduler7parfor_IZ20recreate_last_levelsIldEvRNS_8sequenceIP4nodeIT_T0_ENS_9allocatorIS9_EEXsr3std7is_sameIS9_cEE5valueEEEEUllE_EEvRNS_9schedulerINS_15WorkStealingJobEEEmmRS6_mbEUlvE0_ED1Ev, symObjAddr: 0x90A18, symBinAddr: 0x100092DC0, symSize: 0x4 }
  - { offset: 0x32D514, size: 0x8, addend: 0x0, symName: __ZN6parlay7JobImplIZNS_19fork_join_scheduler7parfor_IZ20recreate_last_levelsIldEvRNS_8sequenceIP4nodeIT_T0_ENS_9allocatorIS9_EEXsr3std7is_sameIS9_cEE5valueEEEEUllE_EEvRNS_9schedulerINS_15WorkStealingJobEEEmmRS6_mbEUlvE0_ED0Ev, symObjAddr: 0x90A1C, symBinAddr: 0x100092DC4, symSize: 0x4 }
  - { offset: 0x32D53F, size: 0x8, addend: 0x0, symName: __ZN6parlay7JobImplIZNS_19fork_join_scheduler7parfor_IZ20recreate_last_levelsIldEvRNS_8sequenceIP4nodeIT_T0_ENS_9allocatorIS9_EEXsr3std7is_sameIS9_cEE5valueEEEEUllE_EEvRNS_9schedulerINS_15WorkStealingJobEEEmmRS6_mbEUlvE0_E7executeEv, symObjAddr: 0x90A20, symBinAddr: 0x100092DC8, symSize: 0xD8 }
  - { offset: 0x32D811, size: 0x8, addend: 0x0, symName: __ZN6parlay7JobImplIZNS_19fork_join_scheduler7parfor_IZNS_8sequenceIP4nodeIldENS_9allocatorIS6_EELb0EEC1IZ14create_RC_treeIldEvRNS3_I7clusterIT_T0_ENS7_ISF_EEXsr3std7is_sameISF_cEE5valueEEESD_bSE_EUllE_EEmOSD_NS9_18_from_function_tagEmEUlmE_EEvRNS_9schedulerINS_15WorkStealingJobEEEmmRSD_mbEUlvE0_ED1Ev, symObjAddr: 0x91168, symBinAddr: 0x100093510, symSize: 0x4 }
  - { offset: 0x32D83C, size: 0x8, addend: 0x0, symName: __ZN6parlay7JobImplIZNS_19fork_join_scheduler7parfor_IZNS_8sequenceIP4nodeIldENS_9allocatorIS6_EELb0EEC1IZ14create_RC_treeIldEvRNS3_I7clusterIT_T0_ENS7_ISF_EEXsr3std7is_sameISF_cEE5valueEEESD_bSE_EUllE_EEmOSD_NS9_18_from_function_tagEmEUlmE_EEvRNS_9schedulerINS_15WorkStealingJobEEEmmRSD_mbEUlvE0_ED0Ev, symObjAddr: 0x9116C, symBinAddr: 0x100093514, symSize: 0x4 }
  - { offset: 0x32D867, size: 0x8, addend: 0x0, symName: __ZN6parlay7JobImplIZNS_19fork_join_scheduler7parfor_IZNS_8sequenceIP4nodeIldENS_9allocatorIS6_EELb0EEC1IZ14create_RC_treeIldEvRNS3_I7clusterIT_T0_ENS7_ISF_EEXsr3std7is_sameISF_cEE5valueEEESD_bSE_EUllE_EEmOSD_NS9_18_from_function_tagEmEUlmE_EEvRNS_9schedulerINS_15WorkStealingJobEEEmmRSD_mbEUlvE0_E7executeEv, symObjAddr: 0x91170, symBinAddr: 0x100093518, symSize: 0xEC }
  - { offset: 0x32DC73, size: 0x8, addend: 0x0, symName: __ZN6parlay7JobImplIZNS_19fork_join_scheduler7parfor_IZ20create_base_clustersIldEvRNS_8sequenceINS4_IT_NS_9allocatorIS5_EEXsr3std7is_sameIS5_cEE5valueEEENS6_IS8_EEXsr3std7is_sameIS8_cEE5valueEEERNS4_I7clusterIS5_T0_ENS6_ISE_EEXsr3std7is_sameISE_cEE5valueEEES5_SD_EUllE2_EEvRNS_9schedulerINS_15WorkStealingJobEEEmmRS5_mbEUlvE0_ED1Ev, symObjAddr: 0x91C0C, symBinAddr: 0x100093FB4, symSize: 0x4 }
  - { offset: 0x32DC9E, size: 0x8, addend: 0x0, symName: __ZN6parlay7JobImplIZNS_19fork_join_scheduler7parfor_IZ20create_base_clustersIldEvRNS_8sequenceINS4_IT_NS_9allocatorIS5_EEXsr3std7is_sameIS5_cEE5valueEEENS6_IS8_EEXsr3std7is_sameIS8_cEE5valueEEERNS4_I7clusterIS5_T0_ENS6_ISE_EEXsr3std7is_sameISE_cEE5valueEEES5_SD_EUllE2_EEvRNS_9schedulerINS_15WorkStealingJobEEEmmRS5_mbEUlvE0_ED0Ev, symObjAddr: 0x91C10, symBinAddr: 0x100093FB8, symSize: 0x4 }
  - { offset: 0x32DCC9, size: 0x8, addend: 0x0, symName: __ZN6parlay7JobImplIZNS_19fork_join_scheduler7parfor_IZ20create_base_clustersIldEvRNS_8sequenceINS4_IT_NS_9allocatorIS5_EEXsr3std7is_sameIS5_cEE5valueEEENS6_IS8_EEXsr3std7is_sameIS8_cEE5valueEEERNS4_I7clusterIS5_T0_ENS6_ISE_EEXsr3std7is_sameISE_cEE5valueEEES5_SD_EUllE2_EEvRNS_9schedulerINS_15WorkStealingJobEEEmmRS5_mbEUlvE0_E7executeEv, symObjAddr: 0x91C14, symBinAddr: 0x100093FBC, symSize: 0xD4 }
  - { offset: 0x32E032, size: 0x8, addend: 0x0, symName: __ZN6parlay7JobImplIZNS_19fork_join_scheduler7parfor_IZ20create_base_clustersIldEvRNS_8sequenceINS4_IT_NS_9allocatorIS5_EEXsr3std7is_sameIS5_cEE5valueEEENS6_IS8_EEXsr3std7is_sameIS8_cEE5valueEEERNS4_I7clusterIS5_T0_ENS6_ISE_EEXsr3std7is_sameISE_cEE5valueEEES5_SD_EUllE1_EEvRNS_9schedulerINS_15WorkStealingJobEEEmmRS5_mbEUlvE0_ED1Ev, symObjAddr: 0x960F8, symBinAddr: 0x1000984A0, symSize: 0x4 }
  - { offset: 0x32E05D, size: 0x8, addend: 0x0, symName: __ZN6parlay7JobImplIZNS_19fork_join_scheduler7parfor_IZ20create_base_clustersIldEvRNS_8sequenceINS4_IT_NS_9allocatorIS5_EEXsr3std7is_sameIS5_cEE5valueEEENS6_IS8_EEXsr3std7is_sameIS8_cEE5valueEEERNS4_I7clusterIS5_T0_ENS6_ISE_EEXsr3std7is_sameISE_cEE5valueEEES5_SD_EUllE1_EEvRNS_9schedulerINS_15WorkStealingJobEEEmmRS5_mbEUlvE0_ED0Ev, symObjAddr: 0x960FC, symBinAddr: 0x1000984A4, symSize: 0x4 }
  - { offset: 0x32E088, size: 0x8, addend: 0x0, symName: __ZN6parlay7JobImplIZNS_19fork_join_scheduler7parfor_IZ20create_base_clustersIldEvRNS_8sequenceINS4_IT_NS_9allocatorIS5_EEXsr3std7is_sameIS5_cEE5valueEEENS6_IS8_EEXsr3std7is_sameIS8_cEE5valueEEERNS4_I7clusterIS5_T0_ENS6_ISE_EEXsr3std7is_sameISE_cEE5valueEEES5_SD_EUllE1_EEvRNS_9schedulerINS_15WorkStealingJobEEEmmRS5_mbEUlvE0_E7executeEv, symObjAddr: 0x96100, symBinAddr: 0x1000984A8, symSize: 0xD4 }
  - { offset: 0x32E435, size: 0x8, addend: 0x0, symName: __ZN6parlay7JobImplIZNS_19fork_join_scheduler7parfor_IZ20create_base_clustersIldEvRNS_8sequenceINS4_IT_NS_9allocatorIS5_EEXsr3std7is_sameIS5_cEE5valueEEENS6_IS8_EEXsr3std7is_sameIS8_cEE5valueEEERNS4_I7clusterIS5_T0_ENS6_ISE_EEXsr3std7is_sameISE_cEE5valueEEES5_SD_EUllE0_EEvRNS_9schedulerINS_15WorkStealingJobEEEmmRS5_mbEUlvE0_ED1Ev, symObjAddr: 0x967CC, symBinAddr: 0x100098B74, symSize: 0x4 }
  - { offset: 0x32E460, size: 0x8, addend: 0x0, symName: __ZN6parlay7JobImplIZNS_19fork_join_scheduler7parfor_IZ20create_base_clustersIldEvRNS_8sequenceINS4_IT_NS_9allocatorIS5_EEXsr3std7is_sameIS5_cEE5valueEEENS6_IS8_EEXsr3std7is_sameIS8_cEE5valueEEERNS4_I7clusterIS5_T0_ENS6_ISE_EEXsr3std7is_sameISE_cEE5valueEEES5_SD_EUllE0_EEvRNS_9schedulerINS_15WorkStealingJobEEEmmRS5_mbEUlvE0_ED0Ev, symObjAddr: 0x967D0, symBinAddr: 0x100098B78, symSize: 0x4 }
  - { offset: 0x32E48B, size: 0x8, addend: 0x0, symName: __ZN6parlay7JobImplIZNS_19fork_join_scheduler7parfor_IZ20create_base_clustersIldEvRNS_8sequenceINS4_IT_NS_9allocatorIS5_EEXsr3std7is_sameIS5_cEE5valueEEENS6_IS8_EEXsr3std7is_sameIS8_cEE5valueEEERNS4_I7clusterIS5_T0_ENS6_ISE_EEXsr3std7is_sameISE_cEE5valueEEES5_SD_EUllE0_EEvRNS_9schedulerINS_15WorkStealingJobEEEmmRS5_mbEUlvE0_E7executeEv, symObjAddr: 0x967D4, symBinAddr: 0x100098B7C, symSize: 0x24 }
  - { offset: 0x32E6FC, size: 0x8, addend: 0x0, symName: __ZN6parlay7JobImplIZNS_19fork_join_scheduler7parfor_IZNS_8sequenceI7clusterIldENS_9allocatorIS5_EELb0EEC1IZ20create_base_clustersIldEvRNS3_INS3_IT_NS6_ISB_EEXsr3std7is_sameISB_cEE5valueEEENS6_ISD_EEXsr3std7is_sameISD_cEE5valueEEERNS3_IS4_ISB_T0_ENS6_ISI_EEXsr3std7is_sameISI_cEE5valueEEESB_SH_EUllE_EEmOSB_NS8_18_from_function_tagEmEUlmE_EEvRNS_9schedulerINS_15WorkStealingJobEEEmmRSB_mbEUlvE0_ED1Ev, symObjAddr: 0x970C8, symBinAddr: 0x100099470, symSize: 0x4 }
  - { offset: 0x32E727, size: 0x8, addend: 0x0, symName: __ZN6parlay7JobImplIZNS_19fork_join_scheduler7parfor_IZNS_8sequenceI7clusterIldENS_9allocatorIS5_EELb0EEC1IZ20create_base_clustersIldEvRNS3_INS3_IT_NS6_ISB_EEXsr3std7is_sameISB_cEE5valueEEENS6_ISD_EEXsr3std7is_sameISD_cEE5valueEEERNS3_IS4_ISB_T0_ENS6_ISI_EEXsr3std7is_sameISI_cEE5valueEEESB_SH_EUllE_EEmOSB_NS8_18_from_function_tagEmEUlmE_EEvRNS_9schedulerINS_15WorkStealingJobEEEmmRSB_mbEUlvE0_ED0Ev, symObjAddr: 0x970CC, symBinAddr: 0x100099474, symSize: 0x4 }
  - { offset: 0x32E752, size: 0x8, addend: 0x0, symName: __ZN6parlay7JobImplIZNS_19fork_join_scheduler7parfor_IZNS_8sequenceI7clusterIldENS_9allocatorIS5_EELb0EEC1IZ20create_base_clustersIldEvRNS3_INS3_IT_NS6_ISB_EEXsr3std7is_sameISB_cEE5valueEEENS6_ISD_EEXsr3std7is_sameISD_cEE5valueEEERNS3_IS4_ISB_T0_ENS6_ISI_EEXsr3std7is_sameISI_cEE5valueEEESB_SH_EUllE_EEmOSB_NS8_18_from_function_tagEmEUlmE_EEvRNS_9schedulerINS_15WorkStealingJobEEEmmRSB_mbEUlvE0_E7executeEv, symObjAddr: 0x970D0, symBinAddr: 0x100099478, symSize: 0xD4 }
  - { offset: 0x32EAFF, size: 0x8, addend: 0x0, symName: __ZN6parlay7JobImplIZNS_19fork_join_scheduler7parfor_IZNS_17sequence_internal13sequence_baseINS_8sequenceIlNS_9allocatorIlEELb0EEENS6_IS8_EELb0EE12storage_impl11destroy_allEvEUlmE_EEvRNS_9schedulerINS_15WorkStealingJobEEEmmRT_mbEUlvE0_ED1Ev, symObjAddr: 0x97738, symBinAddr: 0x100099AE0, symSize: 0x4 }
  - { offset: 0x32EB2A, size: 0x8, addend: 0x0, symName: __ZN6parlay7JobImplIZNS_19fork_join_scheduler7parfor_IZNS_17sequence_internal13sequence_baseINS_8sequenceIlNS_9allocatorIlEELb0EEENS6_IS8_EELb0EE12storage_impl11destroy_allEvEUlmE_EEvRNS_9schedulerINS_15WorkStealingJobEEEmmRT_mbEUlvE0_ED0Ev, symObjAddr: 0x9773C, symBinAddr: 0x100099AE4, symSize: 0x4 }
  - { offset: 0x32EB55, size: 0x8, addend: 0x0, symName: __ZN6parlay7JobImplIZNS_19fork_join_scheduler7parfor_IZNS_17sequence_internal13sequence_baseINS_8sequenceIlNS_9allocatorIlEELb0EEENS6_IS8_EELb0EE12storage_impl11destroy_allEvEUlmE_EEvRNS_9schedulerINS_15WorkStealingJobEEEmmRT_mbEUlvE0_E7executeEv, symObjAddr: 0x97740, symBinAddr: 0x100099AE8, symSize: 0x24 }
  - { offset: 0x331ADB, size: 0x8, addend: 0x0, symName: __ZZN6parlay8internal18group_by_small_intINS_16delayed_sequenceIllZNS0_11delayed_mapIRNS_8sequenceINSt3__14pairIllEENS_9allocatorIS7_EELb0EEEZNS_14group_by_indexImSB_EEDaOT0_T_EUlRKSG_E0_Li0EEESD_OSG_SE_EUlmE_E8iteratorENS2_IllZNS3_ISB_ZNSC_ImSB_EESD_SF_SG_EUlSI_E_Li0EEESD_SK_SE_EUlmE_E8iteratorEEESD_NS_5sliceISG_SG_EENSS_ISE_SE_EEmENKUlmE_clEm, symObjAddr: 0xD3C40, symBinAddr: 0x1000D54CC, symSize: 0x22C }
  - { offset: 0x332082, size: 0x8, addend: 0x0, symName: __ZN6parlay19fork_join_scheduler5pardoIZNS0_7parfor_IZNS_8internal18group_by_small_intINS_16delayed_sequenceIllZNS3_11delayed_mapIRNS_8sequenceINSt3__14pairIllEENS_9allocatorISA_EELb0EEEZNS_14group_by_indexImSE_EEDaOT0_T_EUlRKSJ_E0_Li0EEESG_OSJ_SH_EUlmE_E8iteratorENS5_IllZNS6_ISE_ZNSF_ImSE_EESG_SI_SJ_EUlSL_E_Li0EEESG_SN_SH_EUlmE_E8iteratorEEESG_NS_5sliceISJ_SJ_EENSV_ISH_SH_EEmEUlmE_EEvRNS_9schedulerINS_15WorkStealingJobEEEmmRSJ_mbEUlvE_ZNS2_ISY_EEvS12_mmS13_mbEUlvE0_EEvS12_SN_SI_b, symObjAddr: 0xD3E6C, symBinAddr: 0x1000D56F8, symSize: 0x620 }
  - { offset: 0x33323C, size: 0x8, addend: 0x0, symName: __ZN6parlay8sequenceIPlNS_9allocatorIS1_EELb0EEC2EmNS4_18_uninitialized_tagE, symObjAddr: 0xA419C, symBinAddr: 0x1000A6544, symSize: 0x184 }
  - { offset: 0x3335E2, size: 0x8, addend: 0x0, symName: __ZZN6parlay8internal18group_by_small_intINS_16delayed_sequenceIllZNS0_11delayed_mapIRNS_8sequenceINSt3__14pairIllEENS_9allocatorIS7_EELb0EEEZNS_14group_by_indexImSB_EEDaOT0_T_EUlRKSG_E0_Li0EEESD_OSG_SE_EUlmE_E8iteratorENS2_IllZNS3_ISB_ZNSC_ImSB_EESD_SF_SG_EUlSI_E_Li0EEESD_SK_SE_EUlmE_E8iteratorEEESD_NS_5sliceISG_SG_EENSS_ISE_SE_EEmENKUlmE3_clEm, symObjAddr: 0xD448C, symBinAddr: 0x1000D5D18, symSize: 0x1A4 }
  - { offset: 0x333CA7, size: 0x8, addend: 0x0, symName: __ZN6parlay19fork_join_scheduler5pardoIZNS0_7parfor_IZNS_8internal18group_by_small_intINS_16delayed_sequenceIllZNS3_11delayed_mapIRNS_8sequenceINSt3__14pairIllEENS_9allocatorISA_EELb0EEEZNS_14group_by_indexImSE_EEDaOT0_T_EUlRKSJ_E0_Li0EEESG_OSJ_SH_EUlmE_E8iteratorENS5_IllZNS6_ISE_ZNSF_ImSE_EESG_SI_SJ_EUlSL_E_Li0EEESG_SN_SH_EUlmE_E8iteratorEEESG_NS_5sliceISJ_SJ_EENSV_ISH_SH_EEmEUlmE3_EEvRNS_9schedulerINS_15WorkStealingJobEEEmmRSJ_mbEUlvE_ZNS2_ISY_EEvS12_mmS13_mbEUlvE0_EEvS12_SN_SI_b, symObjAddr: 0xD4630, symBinAddr: 0x1000D5EBC, symSize: 0x620 }
  - { offset: 0x333CBE, size: 0x8, addend: 0x0, symName: __ZN6parlay19fork_join_scheduler5pardoIZNS0_7parfor_IZNS_8internal18group_by_small_intINS_16delayed_sequenceIllZNS3_11delayed_mapIRNS_8sequenceINSt3__14pairIllEENS_9allocatorISA_EELb0EEEZNS_14group_by_indexImSE_EEDaOT0_T_EUlRKSJ_E0_Li0EEESG_OSJ_SH_EUlmE_E8iteratorENS5_IllZNS6_ISE_ZNSF_ImSE_EESG_SI_SJ_EUlSL_E_Li0EEESG_SN_SH_EUlmE_E8iteratorEEESG_NS_5sliceISJ_SJ_EENSV_ISH_SH_EEmEUlmE3_EEvRNS_9schedulerINS_15WorkStealingJobEEEmmRSJ_mbEUlvE_ZNS2_ISY_EEvS12_mmS13_mbEUlvE0_EEvS12_SN_SI_b, symObjAddr: 0xD4630, symBinAddr: 0x1000D5EBC, symSize: 0x620 }
  - { offset: 0x334E84, size: 0x8, addend: 0x0, symName: __ZN6parlay19fork_join_scheduler5pardoIZNS0_7parfor_IZNS_8sequenceINS3_IlNS_9allocatorIlEELb0EEENS4_IS6_EELb0EE16initialize_rangeIPKS6_EEvT_SC_EUlmE_EEvRNS_9schedulerINS_15WorkStealingJobEEEmmRSC_mbEUlvE_ZNS2_ISD_EEvSH_mmSI_mbEUlvE0_EEvSH_OSC_OT0_b, symObjAddr: 0xD6068, symBinAddr: 0x1000D78F4, symSize: 0x640 }
  - { offset: 0x336172, size: 0x8, addend: 0x0, symName: __ZN6parlay9allocatorINSt3__14pairIllEEE10deallocateEPS3_m, symObjAddr: 0xAF15C, symBinAddr: 0x1000B13E0, symSize: 0x124 }
  - { offset: 0x336383, size: 0x8, addend: 0x0, symName: __ZN6parlay8internal22uninitialized_sequenceINSt3__14pairIllEENS_9allocatorIS4_EEED1Ev, symObjAddr: 0xAF280, symBinAddr: 0x1000B1504, symSize: 0x30 }
  - { offset: 0x33638E, size: 0x8, addend: 0x0, symName: __ZN6parlay8internal5timer4nextENSt3__112basic_stringIcNS2_11char_traitsIcEENS2_9allocatorIcEEEE, symObjAddr: 0xA1CE4, symBinAddr: 0x1000A408C, symSize: 0x238 }
  - { offset: 0x336D97, size: 0x8, addend: 0x0, symName: __ZN6parlay19fork_join_scheduler5pardoIZNS0_7parfor_IZNS_8sequenceImNS_9allocatorImEELb0EEC1IZNS_8internal3mapIRNS3_IS6_NS4_IS6_EELb0EEEZNS_13block_delayed10filter_mapINS_16delayed_sequenceImmZNS_14group_by_indexImRNS3_INSt3__14pairIllEENS4_ISJ_EELb0EEEEEDaOT0_T_EUlmE_EEZNSG_ImSM_EESN_SP_SQ_EUlmE0_ZNSD_6filterISS_ST_EESN_RKSQ_RKSO_EUlSQ_E_EESN_SQ_SY_RKT1_EUlRKS6_E_EESN_OSQ_SP_mEUlmE_EEmS16_NS6_18_from_function_tagEmEUlmE_EEvRNS_9schedulerINS_15WorkStealingJobEEEmmRSQ_mbEUlvE_ZNS2_IS19_EEvS1D_mmS1E_mbEUlvE0_EEvS1D_S16_SP_b, symObjAddr: 0xAD918, symBinAddr: 0x1000AFCC0, symSize: 0x830 }
  - { offset: 0x33805B, size: 0x8, addend: 0x0, symName: __ZN6parlay19fork_join_scheduler5pardoIZNS0_7parfor_IZNS_8sequenceINS3_IlNS_9allocatorIlEELb0EEENS4_IS6_EELb0EE18initialize_defaultEmEUlmE_EEvRNS_9schedulerINS_15WorkStealingJobEEEmmRT_mbEUlvE_ZNS2_IS9_EEvSD_mmSF_mbEUlvE0_EEvSD_OSE_OT0_b, symObjAddr: 0xAA958, symBinAddr: 0x1000ACD00, symSize: 0x630 }
  - { offset: 0x3392C9, size: 0x8, addend: 0x0, symName: __ZN6parlay17sequence_internal13sequence_baseINS_8sequenceImNS_9allocatorImEELb0EEENS3_IS5_EELb0EE12storage_implD1Ev, symObjAddr: 0xAE320, symBinAddr: 0x1000B06C8, symSize: 0x7C }
  - { offset: 0x339469, size: 0x8, addend: 0x0, symName: __ZN6parlay8internal22uninitialized_sequenceINSt3__14pairIllEENS_9allocatorIS4_EEED1Ev, symObjAddr: 0xAF280, symBinAddr: 0x1000B1504, symSize: 0x30 }
  - { offset: 0x339502, size: 0x8, addend: 0x0, symName: __ZN6parlay8sequenceINS0_ImNS_9allocatorImEELb0EEENS1_IS3_EELb0EED1Ev, symObjAddr: 0xABE88, symBinAddr: 0x1000AE230, symSize: 0x7C }
  - { offset: 0x3396E5, size: 0x8, addend: 0x0, symName: __ZN6parlay17sequence_internal13sequence_baseINS_8sequenceImNS_9allocatorImEELb0EEENS3_IS5_EELb0EED2Ev, symObjAddr: 0xAE39C, symBinAddr: 0x1000B0744, symSize: 0x7C }
  - { offset: 0x33A292, size: 0x8, addend: 0x0, symName: __ZN6parlay7JobImplIZNS_19fork_join_scheduler7parfor_IZNS_8sequenceINS3_IlNS_9allocatorIlEELb0EEENS4_IS6_EELb0EEC1IZN11graph_utilsIlE10symmetrizeERKS8_EUllE_EEmOT_NS8_18_from_function_tagEmEUlmE_EEvRNS_9schedulerINS_15WorkStealingJobEEEmmRSF_mbEUlvE0_ED1Ev, symObjAddr: 0x9D498, symBinAddr: 0x10009F840, symSize: 0x4 }
  - { offset: 0x33A2BD, size: 0x8, addend: 0x0, symName: __ZN6parlay7JobImplIZNS_19fork_join_scheduler7parfor_IZNS_8sequenceINS3_IlNS_9allocatorIlEELb0EEENS4_IS6_EELb0EEC1IZN11graph_utilsIlE10symmetrizeERKS8_EUllE_EEmOT_NS8_18_from_function_tagEmEUlmE_EEvRNS_9schedulerINS_15WorkStealingJobEEEmmRSF_mbEUlvE0_ED0Ev, symObjAddr: 0x9D49C, symBinAddr: 0x10009F844, symSize: 0x4 }
  - { offset: 0x33A2E8, size: 0x8, addend: 0x0, symName: __ZN6parlay7JobImplIZNS_19fork_join_scheduler7parfor_IZNS_8sequenceINS3_IlNS_9allocatorIlEELb0EEENS4_IS6_EELb0EEC1IZN11graph_utilsIlE10symmetrizeERKS8_EUllE_EEmOT_NS8_18_from_function_tagEmEUlmE_EEvRNS_9schedulerINS_15WorkStealingJobEEEmmRSF_mbEUlvE0_E7executeEv, symObjAddr: 0x9D4A0, symBinAddr: 0x10009F848, symSize: 0x24 }
  - { offset: 0x33BB98, size: 0x8, addend: 0x0, symName: __ZN6parlay8sequenceINSt3__14pairIliEENS_9allocatorIS3_EELb0EEC2EmRKS3_, symObjAddr: 0xA8554, symBinAddr: 0x1000AA8FC, symSize: 0x3B4 }
  - { offset: 0x33C36F, size: 0x8, addend: 0x0, symName: __ZN6parlay9allocatorIlE8allocateEm, symObjAddr: 0xA1BC8, symBinAddr: 0x1000A3F70, symSize: 0x11C }
  - { offset: 0x33C5DB, size: 0x8, addend: 0x0, symName: __ZN6parlay8internal5timer4nextENSt3__112basic_stringIcNS2_11char_traitsIcEENS2_9allocatorIcEEEE, symObjAddr: 0xA1CE4, symBinAddr: 0x1000A408C, symSize: 0x238 }
  - { offset: 0x33C5F2, size: 0x8, addend: 0x0, symName: __ZN6parlay19fork_join_scheduler5pardoIZNS0_7parfor_IZNS_8sequenceImNS_9allocatorImEELb0EEC1IZNS_7flattenIlEEDaONS3_INS3_IT_NS4_ISA_EEXsr3std7is_sameISA_cEE5valueEEENS4_ISC_EEXsr3std7is_sameISC_cEE5valueEEEEUlmE_EEmOSA_NS6_18_from_function_tagEmEUlmE_EEvRNS_9schedulerINS_15WorkStealingJobEEEmmRSA_mbEUlvE_ZNS2_ISJ_EEvSN_mmSO_mbEUlvE0_EEvSN_SH_OT0_b, symObjAddr: 0xA3004, symBinAddr: 0x1000A53AC, symSize: 0x830 }
  - { offset: 0x33D8B8, size: 0x8, addend: 0x0, symName: __ZN6parlay19fork_join_scheduler5pardoIZNS0_7parfor_IZNS_24uninitialized_relocate_nIPllS4_EENSt3__14pairIT_T1_EES7_T0_S8_EUlmE_EEvRNS_9schedulerINS_15WorkStealingJobEEEmmRS7_mbEUlvE_ZNS2_ISB_EEvSF_mmSG_mbEUlvE0_EEvSF_OS7_OSA_b, symObjAddr: 0xA286C, symBinAddr: 0x1000A4C14, symSize: 0x688 }
  - { offset: 0x33EB62, size: 0x8, addend: 0x0, symName: __ZN6parlay9allocatorIlE10deallocateEPlm, symObjAddr: 0xA1F1C, symBinAddr: 0x1000A42C4, symSize: 0x124 }
  - { offset: 0x33ED73, size: 0x8, addend: 0x0, symName: __ZN6parlay8internal22uninitialized_sequenceIlNS_9allocatorIlEEED1Ev, symObjAddr: 0xA2040, symBinAddr: 0x1000A43E8, symSize: 0x30 }
  - { offset: 0x33ED7E, size: 0x8, addend: 0x0, symName: __ZN6parlay8internal22uninitialized_sequenceIlNS_9allocatorIlEEED1Ev, symObjAddr: 0xA2040, symBinAddr: 0x1000A43E8, symSize: 0x30 }
  - { offset: 0x33F10A, size: 0x8, addend: 0x0, symName: __ZN6parlay7JobImplIZNS_19fork_join_scheduler7parfor_IZNS_8internal10sliced_forIZNS3_10filter_mapINS_5sliceIPlS7_EEZZN11graph_utilsIlE10symmetrizeERKNS_8sequenceINSB_IlNS_9allocatorIlEELb0EEENSC_ISE_EELb0EEEENKUllE_clElEUlT_E_RZNS3_6filterIS8_SL_EENSB_INSK_10value_typeENSC_ISN_EEXsr3std7is_sameISN_cEE5valueEEERKSK_OT0_EUlOSK_E_EEDaSR_ST_OT1_EUlmmmE0_EEvmmSR_jEUlmE_EEvRNS_9schedulerINS_15WorkStealingJobEEEmmRSK_mbEUlvE0_ED1Ev, symObjAddr: 0xA1114, symBinAddr: 0x1000A34BC, symSize: 0x4 }
  - { offset: 0x33F135, size: 0x8, addend: 0x0, symName: __ZN6parlay7JobImplIZNS_19fork_join_scheduler7parfor_IZNS_8internal10sliced_forIZNS3_10filter_mapINS_5sliceIPlS7_EEZZN11graph_utilsIlE10symmetrizeERKNS_8sequenceINSB_IlNS_9allocatorIlEELb0EEENSC_ISE_EELb0EEEENKUllE_clElEUlT_E_RZNS3_6filterIS8_SL_EENSB_INSK_10value_typeENSC_ISN_EEXsr3std7is_sameISN_cEE5valueEEERKSK_OT0_EUlOSK_E_EEDaSR_ST_OT1_EUlmmmE0_EEvmmSR_jEUlmE_EEvRNS_9schedulerINS_15WorkStealingJobEEEmmRSK_mbEUlvE0_ED0Ev, symObjAddr: 0xA1118, symBinAddr: 0x1000A34C0, symSize: 0x4 }
  - { offset: 0x33F160, size: 0x8, addend: 0x0, symName: __ZN6parlay7JobImplIZNS_19fork_join_scheduler7parfor_IZNS_8internal10sliced_forIZNS3_10filter_mapINS_5sliceIPlS7_EEZZN11graph_utilsIlE10symmetrizeERKNS_8sequenceINSB_IlNS_9allocatorIlEELb0EEENSC_ISE_EELb0EEEENKUllE_clElEUlT_E_RZNS3_6filterIS8_SL_EENSB_INSK_10value_typeENSC_ISN_EEXsr3std7is_sameISN_cEE5valueEEERKSK_OT0_EUlOSK_E_EEDaSR_ST_OT1_EUlmmmE0_EEvmmSR_jEUlmE_EEvRNS_9schedulerINS_15WorkStealingJobEEEmmRSK_mbEUlvE0_E7executeEv, symObjAddr: 0xA111C, symBinAddr: 0x1000A34C4, symSize: 0x24 }
  - { offset: 0x33F4A5, size: 0x8, addend: 0x0, symName: __ZN6parlay7JobImplIZNS_19fork_join_scheduler7parfor_IZNS_8internal10sliced_forIZNS3_10filter_mapINS_5sliceIPlS7_EEZZN11graph_utilsIlE10symmetrizeERKNS_8sequenceINSB_IlNS_9allocatorIlEELb0EEENSC_ISE_EELb0EEEENKUllE_clElEUlT_E_RZNS3_6filterIS8_SL_EENSB_INSK_10value_typeENSC_ISN_EEXsr3std7is_sameISN_cEE5valueEEERKSK_OT0_EUlOSK_E_EEDaSR_ST_OT1_EUlmmmE_EEvmmSR_jEUlmE_EEvRNS_9schedulerINS_15WorkStealingJobEEEmmRSK_mbEUlvE0_ED1Ev, symObjAddr: 0xA1960, symBinAddr: 0x1000A3D08, symSize: 0x4 }
  - { offset: 0x33F4D0, size: 0x8, addend: 0x0, symName: __ZN6parlay7JobImplIZNS_19fork_join_scheduler7parfor_IZNS_8internal10sliced_forIZNS3_10filter_mapINS_5sliceIPlS7_EEZZN11graph_utilsIlE10symmetrizeERKNS_8sequenceINSB_IlNS_9allocatorIlEELb0EEENSC_ISE_EELb0EEEENKUllE_clElEUlT_E_RZNS3_6filterIS8_SL_EENSB_INSK_10value_typeENSC_ISN_EEXsr3std7is_sameISN_cEE5valueEEERKSK_OT0_EUlOSK_E_EEDaSR_ST_OT1_EUlmmmE_EEvmmSR_jEUlmE_EEvRNS_9schedulerINS_15WorkStealingJobEEEmmRSK_mbEUlvE0_ED0Ev, symObjAddr: 0xA1964, symBinAddr: 0x1000A3D0C, symSize: 0x4 }
  - { offset: 0x33F4FB, size: 0x8, addend: 0x0, symName: __ZN6parlay7JobImplIZNS_19fork_join_scheduler7parfor_IZNS_8internal10sliced_forIZNS3_10filter_mapINS_5sliceIPlS7_EEZZN11graph_utilsIlE10symmetrizeERKNS_8sequenceINSB_IlNS_9allocatorIlEELb0EEENSC_ISE_EELb0EEEENKUllE_clElEUlT_E_RZNS3_6filterIS8_SL_EENSB_INSK_10value_typeENSC_ISN_EEXsr3std7is_sameISN_cEE5valueEEERKSK_OT0_EUlOSK_E_EEDaSR_ST_OT1_EUlmmmE_EEvmmSR_jEUlmE_EEvRNS_9schedulerINS_15WorkStealingJobEEEmmRSK_mbEUlvE0_E7executeEv, symObjAddr: 0xA1968, symBinAddr: 0x1000A3D10, symSize: 0x24 }
  - { offset: 0x33F9FC, size: 0x8, addend: 0x0, symName: __ZN6parlay7JobImplIZNS_19fork_join_scheduler7parfor_IZNS_7flattenIlEEDaONS_8sequenceINS5_IT_NS_9allocatorIS6_EEXsr3std7is_sameIS6_cEE5valueEEENS7_IS9_EEXsr3std7is_sameIS9_cEE5valueEEEEUlmE0_EEvRNS_9schedulerINS_15WorkStealingJobEEEmmRS6_mbEUlvE0_ED1Ev, symObjAddr: 0xA2840, symBinAddr: 0x1000A4BE8, symSize: 0x4 }
  - { offset: 0x33FA27, size: 0x8, addend: 0x0, symName: __ZN6parlay7JobImplIZNS_19fork_join_scheduler7parfor_IZNS_7flattenIlEEDaONS_8sequenceINS5_IT_NS_9allocatorIS6_EEXsr3std7is_sameIS6_cEE5valueEEENS7_IS9_EEXsr3std7is_sameIS9_cEE5valueEEEEUlmE0_EEvRNS_9schedulerINS_15WorkStealingJobEEEmmRS6_mbEUlvE0_ED0Ev, symObjAddr: 0xA2844, symBinAddr: 0x1000A4BEC, symSize: 0x4 }
  - { offset: 0x33FA52, size: 0x8, addend: 0x0, symName: __ZN6parlay7JobImplIZNS_19fork_join_scheduler7parfor_IZNS_7flattenIlEEDaONS_8sequenceINS5_IT_NS_9allocatorIS6_EEXsr3std7is_sameIS6_cEE5valueEEENS7_IS9_EEXsr3std7is_sameIS9_cEE5valueEEEEUlmE0_EEvRNS_9schedulerINS_15WorkStealingJobEEEmmRS6_mbEUlvE0_E7executeEv, symObjAddr: 0xA2848, symBinAddr: 0x1000A4BF0, symSize: 0x24 }
  - { offset: 0x33FCC3, size: 0x8, addend: 0x0, symName: __ZN6parlay7JobImplIZNS_19fork_join_scheduler7parfor_IZNS_24uninitialized_relocate_nIPllS4_EENSt3__14pairIT_T1_EES7_T0_S8_EUlmE_EEvRNS_9schedulerINS_15WorkStealingJobEEEmmRS7_mbEUlvE0_ED1Ev, symObjAddr: 0xA2EF4, symBinAddr: 0x1000A529C, symSize: 0x4 }
  - { offset: 0x33FCEE, size: 0x8, addend: 0x0, symName: __ZN6parlay7JobImplIZNS_19fork_join_scheduler7parfor_IZNS_24uninitialized_relocate_nIPllS4_EENSt3__14pairIT_T1_EES7_T0_S8_EUlmE_EEvRNS_9schedulerINS_15WorkStealingJobEEEmmRS7_mbEUlvE0_ED0Ev, symObjAddr: 0xA2EF8, symBinAddr: 0x1000A52A0, symSize: 0x4 }
  - { offset: 0x33FD19, size: 0x8, addend: 0x0, symName: __ZN6parlay7JobImplIZNS_19fork_join_scheduler7parfor_IZNS_24uninitialized_relocate_nIPllS4_EENSt3__14pairIT_T1_EES7_T0_S8_EUlmE_EEvRNS_9schedulerINS_15WorkStealingJobEEEmmRS7_mbEUlvE0_E7executeEv, symObjAddr: 0xA2EFC, symBinAddr: 0x1000A52A4, symSize: 0x108 }
  - { offset: 0x34006B, size: 0x8, addend: 0x0, symName: __ZN6parlay7JobImplIZNS_19fork_join_scheduler7parfor_IZNS_8sequenceImNS_9allocatorImEELb0EEC1IZNS_7flattenIlEEDaONS3_INS3_IT_NS4_ISA_EEXsr3std7is_sameISA_cEE5valueEEENS4_ISC_EEXsr3std7is_sameISC_cEE5valueEEEEUlmE_EEmOSA_NS6_18_from_function_tagEmEUlmE_EEvRNS_9schedulerINS_15WorkStealingJobEEEmmRSA_mbEUlvE0_ED1Ev, symObjAddr: 0xA3834, symBinAddr: 0x1000A5BDC, symSize: 0x4 }
  - { offset: 0x340096, size: 0x8, addend: 0x0, symName: __ZN6parlay7JobImplIZNS_19fork_join_scheduler7parfor_IZNS_8sequenceImNS_9allocatorImEELb0EEC1IZNS_7flattenIlEEDaONS3_INS3_IT_NS4_ISA_EEXsr3std7is_sameISA_cEE5valueEEENS4_ISC_EEXsr3std7is_sameISC_cEE5valueEEEEUlmE_EEmOSA_NS6_18_from_function_tagEmEUlmE_EEvRNS_9schedulerINS_15WorkStealingJobEEEmmRSA_mbEUlvE0_ED0Ev, symObjAddr: 0xA3838, symBinAddr: 0x1000A5BE0, symSize: 0x4 }
  - { offset: 0x3400C1, size: 0x8, addend: 0x0, symName: __ZN6parlay7JobImplIZNS_19fork_join_scheduler7parfor_IZNS_8sequenceImNS_9allocatorImEELb0EEC1IZNS_7flattenIlEEDaONS3_INS3_IT_NS4_ISA_EEXsr3std7is_sameISA_cEE5valueEEENS4_ISC_EEXsr3std7is_sameISC_cEE5valueEEEEUlmE_EEmOSA_NS6_18_from_function_tagEmEUlmE_EEvRNS_9schedulerINS_15WorkStealingJobEEEmmRSA_mbEUlvE0_E7executeEv, symObjAddr: 0xA383C, symBinAddr: 0x1000A5BE4, symSize: 0x1D0 }
  - { offset: 0x3404CB, size: 0x8, addend: 0x0, symName: __ZN6parlay7JobImplIZNS_19fork_join_scheduler7parfor_IZNS_8sequenceINS3_IlNS_9allocatorIlEELb0EEENS4_IS6_EELb0EEC1IZNS_8internal22collect_reduce_sparse_INS_26uninitialized_relocate_tagENS_5sliceIPlSE_EENS_24remove_duplicates_helperIlNS_4hashIlvEENSt3__18equal_toIvEEEEEEDaT0_RKT1_EUlmE0_EEmOT_NS8_18_from_function_tagEmEUlmE_EEvRNS_9schedulerINS_15WorkStealingJobEEEmmRST_mbEUlvE0_ED1Ev, symObjAddr: 0xA4014, symBinAddr: 0x1000A63BC, symSize: 0x4 }
  - { offset: 0x3404F6, size: 0x8, addend: 0x0, symName: __ZN6parlay7JobImplIZNS_19fork_join_scheduler7parfor_IZNS_8sequenceINS3_IlNS_9allocatorIlEELb0EEENS4_IS6_EELb0EEC1IZNS_8internal22collect_reduce_sparse_INS_26uninitialized_relocate_tagENS_5sliceIPlSE_EENS_24remove_duplicates_helperIlNS_4hashIlvEENSt3__18equal_toIvEEEEEEDaT0_RKT1_EUlmE0_EEmOT_NS8_18_from_function_tagEmEUlmE_EEvRNS_9schedulerINS_15WorkStealingJobEEEmmRST_mbEUlvE0_ED0Ev, symObjAddr: 0xA4018, symBinAddr: 0x1000A63C0, symSize: 0x4 }
  - { offset: 0x340521, size: 0x8, addend: 0x0, symName: __ZN6parlay7JobImplIZNS_19fork_join_scheduler7parfor_IZNS_8sequenceINS3_IlNS_9allocatorIlEELb0EEENS4_IS6_EELb0EEC1IZNS_8internal22collect_reduce_sparse_INS_26uninitialized_relocate_tagENS_5sliceIPlSE_EENS_24remove_duplicates_helperIlNS_4hashIlvEENSt3__18equal_toIvEEEEEEDaT0_RKT1_EUlmE0_EEmOT_NS8_18_from_function_tagEmEUlmE_EEvRNS_9schedulerINS_15WorkStealingJobEEEmmRST_mbEUlvE0_E7executeEv, symObjAddr: 0xA401C, symBinAddr: 0x1000A63C4, symSize: 0x24 }
  - { offset: 0x340C52, size: 0x8, addend: 0x0, symName: __ZN6parlay7JobImplIZNS_19fork_join_scheduler7parfor_IZNS_8internal11count_sort_INS_26uninitialized_relocate_tagEmPlS6_NS_16delayed_sequenceImmZNS3_22collect_reduce_sparse_IS5_NS_5sliceIS6_S6_EENS_24remove_duplicates_helperIlNS_4hashIlvEENSt3__18equal_toIvEEEEEEDaT0_RKT1_EUlmE_E8iteratorEEENSE_4pairINS_8sequenceImNS_9allocatorImEELb0EEEbEENS9_ISK_SK_EENS9_IT2_SX_EENS9_IT3_SZ_EEmfbEUlmE2_EEvRNS_9schedulerINS_15WorkStealingJobEEEmmRT_mbEUlvE0_ED1Ev, symObjAddr: 0xA4AB0, symBinAddr: 0x1000A6E58, symSize: 0x4 }
  - { offset: 0x340C7D, size: 0x8, addend: 0x0, symName: __ZN6parlay7JobImplIZNS_19fork_join_scheduler7parfor_IZNS_8internal11count_sort_INS_26uninitialized_relocate_tagEmPlS6_NS_16delayed_sequenceImmZNS3_22collect_reduce_sparse_IS5_NS_5sliceIS6_S6_EENS_24remove_duplicates_helperIlNS_4hashIlvEENSt3__18equal_toIvEEEEEEDaT0_RKT1_EUlmE_E8iteratorEEENSE_4pairINS_8sequenceImNS_9allocatorImEELb0EEEbEENS9_ISK_SK_EENS9_IT2_SX_EENS9_IT3_SZ_EEmfbEUlmE2_EEvRNS_9schedulerINS_15WorkStealingJobEEEmmRT_mbEUlvE0_ED0Ev, symObjAddr: 0xA4AB4, symBinAddr: 0x1000A6E5C, symSize: 0x4 }
  - { offset: 0x340CA8, size: 0x8, addend: 0x0, symName: __ZN6parlay7JobImplIZNS_19fork_join_scheduler7parfor_IZNS_8internal11count_sort_INS_26uninitialized_relocate_tagEmPlS6_NS_16delayed_sequenceImmZNS3_22collect_reduce_sparse_IS5_NS_5sliceIS6_S6_EENS_24remove_duplicates_helperIlNS_4hashIlvEENSt3__18equal_toIvEEEEEEDaT0_RKT1_EUlmE_E8iteratorEEENSE_4pairINS_8sequenceImNS_9allocatorImEELb0EEEbEENS9_ISK_SK_EENS9_IT2_SX_EENS9_IT3_SZ_EEmfbEUlmE2_EEvRNS_9schedulerINS_15WorkStealingJobEEEmmRT_mbEUlvE0_E7executeEv, symObjAddr: 0xA4AB8, symBinAddr: 0x1000A6E60, symSize: 0x24 }
  - { offset: 0x340FED, size: 0x8, addend: 0x0, symName: __ZN6parlay7JobImplIZNS_19fork_join_scheduler7parfor_IZNS_8internal11count_sort_INS_26uninitialized_relocate_tagEmPlS6_NS_16delayed_sequenceImmZNS3_22collect_reduce_sparse_IS5_NS_5sliceIS6_S6_EENS_24remove_duplicates_helperIlNS_4hashIlvEENSt3__18equal_toIvEEEEEEDaT0_RKT1_EUlmE_E8iteratorEEENSE_4pairINS_8sequenceImNS_9allocatorImEELb0EEEbEENS9_ISK_SK_EENS9_IT2_SX_EENS9_IT3_SZ_EEmfbEUlmE1_EEvRNS_9schedulerINS_15WorkStealingJobEEEmmRT_mbEUlvE0_ED1Ev, symObjAddr: 0xA50D4, symBinAddr: 0x1000A747C, symSize: 0x4 }
  - { offset: 0x341018, size: 0x8, addend: 0x0, symName: __ZN6parlay7JobImplIZNS_19fork_join_scheduler7parfor_IZNS_8internal11count_sort_INS_26uninitialized_relocate_tagEmPlS6_NS_16delayed_sequenceImmZNS3_22collect_reduce_sparse_IS5_NS_5sliceIS6_S6_EENS_24remove_duplicates_helperIlNS_4hashIlvEENSt3__18equal_toIvEEEEEEDaT0_RKT1_EUlmE_E8iteratorEEENSE_4pairINS_8sequenceImNS_9allocatorImEELb0EEEbEENS9_ISK_SK_EENS9_IT2_SX_EENS9_IT3_SZ_EEmfbEUlmE1_EEvRNS_9schedulerINS_15WorkStealingJobEEEmmRT_mbEUlvE0_ED0Ev, symObjAddr: 0xA50D8, symBinAddr: 0x1000A7480, symSize: 0x4 }
  - { offset: 0x341043, size: 0x8, addend: 0x0, symName: __ZN6parlay7JobImplIZNS_19fork_join_scheduler7parfor_IZNS_8internal11count_sort_INS_26uninitialized_relocate_tagEmPlS6_NS_16delayed_sequenceImmZNS3_22collect_reduce_sparse_IS5_NS_5sliceIS6_S6_EENS_24remove_duplicates_helperIlNS_4hashIlvEENSt3__18equal_toIvEEEEEEDaT0_RKT1_EUlmE_E8iteratorEEENSE_4pairINS_8sequenceImNS_9allocatorImEELb0EEEbEENS9_ISK_SK_EENS9_IT2_SX_EENS9_IT3_SZ_EEmfbEUlmE1_EEvRNS_9schedulerINS_15WorkStealingJobEEEmmRT_mbEUlvE0_E7executeEv, symObjAddr: 0xA50DC, symBinAddr: 0x1000A7484, symSize: 0x24 }
  - { offset: 0x341388, size: 0x8, addend: 0x0, symName: __ZN6parlay7JobImplIZNS_19fork_join_scheduler7parfor_IZNS_8internal11count_sort_INS_26uninitialized_relocate_tagEmPlS6_NS_16delayed_sequenceImmZNS3_22collect_reduce_sparse_IS5_NS_5sliceIS6_S6_EENS_24remove_duplicates_helperIlNS_4hashIlvEENSt3__18equal_toIvEEEEEEDaT0_RKT1_EUlmE_E8iteratorEEENSE_4pairINS_8sequenceImNS_9allocatorImEELb0EEEbEENS9_ISK_SK_EENS9_IT2_SX_EENS9_IT3_SZ_EEmfbEUlmE0_EEvRNS_9schedulerINS_15WorkStealingJobEEEmmRT_mbEUlvE0_ED1Ev, symObjAddr: 0xA573C, symBinAddr: 0x1000A7AE4, symSize: 0x4 }
  - { offset: 0x3413B3, size: 0x8, addend: 0x0, symName: __ZN6parlay7JobImplIZNS_19fork_join_scheduler7parfor_IZNS_8internal11count_sort_INS_26uninitialized_relocate_tagEmPlS6_NS_16delayed_sequenceImmZNS3_22collect_reduce_sparse_IS5_NS_5sliceIS6_S6_EENS_24remove_duplicates_helperIlNS_4hashIlvEENSt3__18equal_toIvEEEEEEDaT0_RKT1_EUlmE_E8iteratorEEENSE_4pairINS_8sequenceImNS_9allocatorImEELb0EEEbEENS9_ISK_SK_EENS9_IT2_SX_EENS9_IT3_SZ_EEmfbEUlmE0_EEvRNS_9schedulerINS_15WorkStealingJobEEEmmRT_mbEUlvE0_ED0Ev, symObjAddr: 0xA5740, symBinAddr: 0x1000A7AE8, symSize: 0x4 }
  - { offset: 0x3413DE, size: 0x8, addend: 0x0, symName: __ZN6parlay7JobImplIZNS_19fork_join_scheduler7parfor_IZNS_8internal11count_sort_INS_26uninitialized_relocate_tagEmPlS6_NS_16delayed_sequenceImmZNS3_22collect_reduce_sparse_IS5_NS_5sliceIS6_S6_EENS_24remove_duplicates_helperIlNS_4hashIlvEENSt3__18equal_toIvEEEEEEDaT0_RKT1_EUlmE_E8iteratorEEENSE_4pairINS_8sequenceImNS_9allocatorImEELb0EEEbEENS9_ISK_SK_EENS9_IT2_SX_EENS9_IT3_SZ_EEmfbEUlmE0_EEvRNS_9schedulerINS_15WorkStealingJobEEEmmRT_mbEUlvE0_E7executeEv, symObjAddr: 0xA5744, symBinAddr: 0x1000A7AEC, symSize: 0x24 }
  - { offset: 0x341723, size: 0x8, addend: 0x0, symName: __ZN6parlay7JobImplIZNS_19fork_join_scheduler7parfor_IZNS_8internal11count_sort_INS_26uninitialized_relocate_tagEmPlS6_NS_16delayed_sequenceImmZNS3_22collect_reduce_sparse_IS5_NS_5sliceIS6_S6_EENS_24remove_duplicates_helperIlNS_4hashIlvEENSt3__18equal_toIvEEEEEEDaT0_RKT1_EUlmE_E8iteratorEEENSE_4pairINS_8sequenceImNS_9allocatorImEELb0EEEbEENS9_ISK_SK_EENS9_IT2_SX_EENS9_IT3_SZ_EEmfbEUlmE_EEvRNS_9schedulerINS_15WorkStealingJobEEEmmRT_mbEUlvE0_ED1Ev, symObjAddr: 0xA5F8C, symBinAddr: 0x1000A8334, symSize: 0x4 }
  - { offset: 0x34174E, size: 0x8, addend: 0x0, symName: __ZN6parlay7JobImplIZNS_19fork_join_scheduler7parfor_IZNS_8internal11count_sort_INS_26uninitialized_relocate_tagEmPlS6_NS_16delayed_sequenceImmZNS3_22collect_reduce_sparse_IS5_NS_5sliceIS6_S6_EENS_24remove_duplicates_helperIlNS_4hashIlvEENSt3__18equal_toIvEEEEEEDaT0_RKT1_EUlmE_E8iteratorEEENSE_4pairINS_8sequenceImNS_9allocatorImEELb0EEEbEENS9_ISK_SK_EENS9_IT2_SX_EENS9_IT3_SZ_EEmfbEUlmE_EEvRNS_9schedulerINS_15WorkStealingJobEEEmmRT_mbEUlvE0_ED0Ev, symObjAddr: 0xA5F90, symBinAddr: 0x1000A8338, symSize: 0x4 }
  - { offset: 0x341779, size: 0x8, addend: 0x0, symName: __ZN6parlay7JobImplIZNS_19fork_join_scheduler7parfor_IZNS_8internal11count_sort_INS_26uninitialized_relocate_tagEmPlS6_NS_16delayed_sequenceImmZNS3_22collect_reduce_sparse_IS5_NS_5sliceIS6_S6_EENS_24remove_duplicates_helperIlNS_4hashIlvEENSt3__18equal_toIvEEEEEEDaT0_RKT1_EUlmE_E8iteratorEEENSE_4pairINS_8sequenceImNS_9allocatorImEELb0EEEbEENS9_ISK_SK_EENS9_IT2_SX_EENS9_IT3_SZ_EEmfbEUlmE_EEvRNS_9schedulerINS_15WorkStealingJobEEEmmRT_mbEUlvE0_E7executeEv, symObjAddr: 0xA5F94, symBinAddr: 0x1000A833C, symSize: 0x24 }
  - { offset: 0x341ABE, size: 0x8, addend: 0x0, symName: __ZN6parlay7JobImplIZNS_19fork_join_scheduler7parfor_IZNS_8internal11count_sort_INS_26uninitialized_relocate_tagEjPlS6_NS_16delayed_sequenceImmZNS3_22collect_reduce_sparse_IS5_NS_5sliceIS6_S6_EENS_24remove_duplicates_helperIlNS_4hashIlvEENSt3__18equal_toIvEEEEEEDaT0_RKT1_EUlmE_E8iteratorEEENSE_4pairINS_8sequenceImNS_9allocatorImEELb0EEEbEENS9_ISK_SK_EENS9_IT2_SX_EENS9_IT3_SZ_EEmfbEUlmE2_EEvRNS_9schedulerINS_15WorkStealingJobEEEmmRT_mbEUlvE0_ED1Ev, symObjAddr: 0xA65C4, symBinAddr: 0x1000A896C, symSize: 0x4 }
  - { offset: 0x341AE9, size: 0x8, addend: 0x0, symName: __ZN6parlay7JobImplIZNS_19fork_join_scheduler7parfor_IZNS_8internal11count_sort_INS_26uninitialized_relocate_tagEjPlS6_NS_16delayed_sequenceImmZNS3_22collect_reduce_sparse_IS5_NS_5sliceIS6_S6_EENS_24remove_duplicates_helperIlNS_4hashIlvEENSt3__18equal_toIvEEEEEEDaT0_RKT1_EUlmE_E8iteratorEEENSE_4pairINS_8sequenceImNS_9allocatorImEELb0EEEbEENS9_ISK_SK_EENS9_IT2_SX_EENS9_IT3_SZ_EEmfbEUlmE2_EEvRNS_9schedulerINS_15WorkStealingJobEEEmmRT_mbEUlvE0_ED0Ev, symObjAddr: 0xA65C8, symBinAddr: 0x1000A8970, symSize: 0x4 }
  - { offset: 0x341B14, size: 0x8, addend: 0x0, symName: __ZN6parlay7JobImplIZNS_19fork_join_scheduler7parfor_IZNS_8internal11count_sort_INS_26uninitialized_relocate_tagEjPlS6_NS_16delayed_sequenceImmZNS3_22collect_reduce_sparse_IS5_NS_5sliceIS6_S6_EENS_24remove_duplicates_helperIlNS_4hashIlvEENSt3__18equal_toIvEEEEEEDaT0_RKT1_EUlmE_E8iteratorEEENSE_4pairINS_8sequenceImNS_9allocatorImEELb0EEEbEENS9_ISK_SK_EENS9_IT2_SX_EENS9_IT3_SZ_EEmfbEUlmE2_EEvRNS_9schedulerINS_15WorkStealingJobEEEmmRT_mbEUlvE0_E7executeEv, symObjAddr: 0xA65CC, symBinAddr: 0x1000A8974, symSize: 0x24 }
  - { offset: 0x341E59, size: 0x8, addend: 0x0, symName: __ZN6parlay7JobImplIZNS_19fork_join_scheduler7parfor_IZNS_8internal11count_sort_INS_26uninitialized_relocate_tagEjPlS6_NS_16delayed_sequenceImmZNS3_22collect_reduce_sparse_IS5_NS_5sliceIS6_S6_EENS_24remove_duplicates_helperIlNS_4hashIlvEENSt3__18equal_toIvEEEEEEDaT0_RKT1_EUlmE_E8iteratorEEENSE_4pairINS_8sequenceImNS_9allocatorImEELb0EEEbEENS9_ISK_SK_EENS9_IT2_SX_EENS9_IT3_SZ_EEmfbEUlmE1_EEvRNS_9schedulerINS_15WorkStealingJobEEEmmRT_mbEUlvE0_ED1Ev, symObjAddr: 0xA6BE8, symBinAddr: 0x1000A8F90, symSize: 0x4 }
  - { offset: 0x341E84, size: 0x8, addend: 0x0, symName: __ZN6parlay7JobImplIZNS_19fork_join_scheduler7parfor_IZNS_8internal11count_sort_INS_26uninitialized_relocate_tagEjPlS6_NS_16delayed_sequenceImmZNS3_22collect_reduce_sparse_IS5_NS_5sliceIS6_S6_EENS_24remove_duplicates_helperIlNS_4hashIlvEENSt3__18equal_toIvEEEEEEDaT0_RKT1_EUlmE_E8iteratorEEENSE_4pairINS_8sequenceImNS_9allocatorImEELb0EEEbEENS9_ISK_SK_EENS9_IT2_SX_EENS9_IT3_SZ_EEmfbEUlmE1_EEvRNS_9schedulerINS_15WorkStealingJobEEEmmRT_mbEUlvE0_ED0Ev, symObjAddr: 0xA6BEC, symBinAddr: 0x1000A8F94, symSize: 0x4 }
  - { offset: 0x341EAF, size: 0x8, addend: 0x0, symName: __ZN6parlay7JobImplIZNS_19fork_join_scheduler7parfor_IZNS_8internal11count_sort_INS_26uninitialized_relocate_tagEjPlS6_NS_16delayed_sequenceImmZNS3_22collect_reduce_sparse_IS5_NS_5sliceIS6_S6_EENS_24remove_duplicates_helperIlNS_4hashIlvEENSt3__18equal_toIvEEEEEEDaT0_RKT1_EUlmE_E8iteratorEEENSE_4pairINS_8sequenceImNS_9allocatorImEELb0EEEbEENS9_ISK_SK_EENS9_IT2_SX_EENS9_IT3_SZ_EEmfbEUlmE1_EEvRNS_9schedulerINS_15WorkStealingJobEEEmmRT_mbEUlvE0_E7executeEv, symObjAddr: 0xA6BF0, symBinAddr: 0x1000A8F98, symSize: 0x24 }
