---
triple:          'arm64-apple-darwin'
binary-path:     testMST.out
relocations:
  - { offset: 0x39, size: 0x8, addend: 0x0, symName: __ZN6parlay8internal19ThreadListChunkData22thread_list_chunk_sizeE, symObjAddr: 0x62DC0, symBinAddr: 0x100078000, symSize: 0x0 }
  - { offset: 0x104, size: 0x8, addend: 0x0, symName: __ZN6parlay8internal31default_allocator_max_pool_sizeE, symObjAddr: 0x62DD0, symBinAddr: 0x100078010, symSize: 0x0 }
  - { offset: 0x1E1, size: 0x8, addend: 0x0, symName: __ZN6parlay8internal21get_default_allocatorEv, symObjAddr: 0xEC4, symBinAddr: 0x100002C34, symSize: 0xF0 }
  - { offset: 0x20A, size: 0x8, addend: 0x0, symName: __ZZN6parlay8internal21get_default_allocatorEvE17default_allocator, symObjAddr: 0x62DE0, symBinAddr: 0x100078020, symSize: 0x0 }
  - { offset: 0x1117, size: 0x8, addend: 0x0, symName: __ZN6parlay8internal14get_chunk_dataEv, symObjAddr: 0x6554, symBinAddr: 0x1000082C4, symSize: 0x74 }
  - { offset: 0x1140, size: 0x8, addend: 0x0, symName: __ZZN6parlay8internal14get_chunk_dataEvE4data, symObjAddr: 0x6B8E6, symBinAddr: 0x1000804B0, symSize: 0x0 }
  - { offset: 0x12A6, size: 0x8, addend: 0x0, symName: __ZN6parlay8internal21get_current_schedulerEv, symObjAddr: 0x215C4, symBinAddr: 0x100023334, symSize: 0xC8 }
  - { offset: 0x12CF, size: 0x8, addend: 0x0, symName: __ZZN6parlay8internal21get_current_schedulerEvE15local_scheduler, symObjAddr: 0x6B946, symBinAddr: 0x100080510, symSize: 0x0 }
  - { offset: 0x16CA, size: 0x8, addend: 0x0, symName: __ZN6parlay8internal11merge_sort_IPNSt3__15tupleIJdlllEEES5_NS2_4lessIvEEEEvNS_5sliceIT_S9_EENS8_IT0_SB_EERKT1_b, symObjAddr: 0x321F0, symBinAddr: 0x100033F60, symSize: 0x2A8 }
  - { offset: 0x188E, size: 0x8, addend: 0x0, symName: __ZN6parlay8internal10merge_intoINS_26uninitialized_relocate_tagEPNSt3__15tupleIJdlllEEES6_S6_NS3_4lessIvEEEEvNS_5sliceIT0_SA_EENS9_IT1_SC_EENS9_IT2_SE_EERKT3_b, symObjAddr: 0x32658, symBinAddr: 0x1000343C8, symSize: 0x274 }
  - { offset: 0x1B10, size: 0x8, addend: 0x0, symName: __ZN6parlay8internal11get_bucketsIPNSt3__15tupleIJdlllEEENS2_4lessIvEEEEbNS_5sliceIT_S9_EEPhT0_m, symObjAddr: 0x31B04, symBinAddr: 0x100033874, symSize: 0x39C }
  - { offset: 0x1CDF, size: 0x8, addend: 0x0, symName: __ZN6parlay8internal9quicksortIPmZNS0_11get_bucketsIPNSt3__15tupleIJdlllEEENS4_4lessIvEEEEbNS_5sliceIT_SB_EEPhT0_mEUlmmE_EEvSB_mRKSE_, symObjAddr: 0x37DA0, symBinAddr: 0x100039B10, symSize: 0x140 }
  - { offset: 0x1E51, size: 0x8, addend: 0x0, symName: __ZN6parlay8internal13bucket_sort_rIPNSt3__15tupleIJdlllEEES5_NS2_4lessIvEEEEvNS_5sliceIT_S9_EENS8_IT0_SB_EET1_bb, symObjAddr: 0x31688, symBinAddr: 0x1000333F8, symSize: 0x25C }
  - { offset: 0x1FC0, size: 0x8, addend: 0x0, symName: __ZN6parlay8internal12sample_sort_IjNS_16delayed_sequenceINSt3__15tupleIJdlllEEES5_Z19min_spanning_forestIldENS_8sequenceIlNS_9allocatorIlEELb0EEERKNS7_INS4_IJT_SB_T0_EEENS8_ISD_EEXsr3std7is_sameISD_cEE5valueEEElEUllE_E8iteratorEPS5_NS3_4lessIvEEEEvNS_5sliceISC_SC_EENSO_IT1_SQ_EERKT2_b, symObjAddr: 0x2F410, symBinAddr: 0x100031180, symSize: 0x3B4 }
  - { offset: 0x224D, size: 0x8, addend: 0x0, symName: __ZN6parlay8internal9quicksortIPNSt3__15tupleIJdlllEEENS2_4lessIvEEEEvT_mRKT0_, symObjAddr: 0x30604, symBinAddr: 0x100032374, symSize: 0x140 }
  - { offset: 0x23BF, size: 0x8, addend: 0x0, symName: __ZN6parlay8internal17get_bucket_countsIPNSt3__15tupleIJdlllEEES5_PjNS2_4lessIvEEEEvNS_5sliceIT_SA_EENS9_IT0_SC_EENS9_IT1_SE_EET2_, symObjAddr: 0x40A70, symBinAddr: 0x1000427E0, symSize: 0x350 }
  - { offset: 0x24BE, size: 0x8, addend: 0x0, symName: __ZN6parlay8internal10sliced_forIZNS0_12sample_sort_IjNS_16delayed_sequenceINSt3__15tupleIJdlllEEES6_Z19min_spanning_forestIldENS_8sequenceIlNS_9allocatorIlEELb0EEERKNS8_INS5_IJT_SC_T0_EEENS9_ISE_EEXsr3std7is_sameISE_cEE5valueEEElEUllE_E8iteratorEPS6_NS4_4lessIvEEEEvNS_5sliceISD_SD_EENSP_IT1_SR_EERKT2_bEUlmmmE_EEvmmRKSC_j, symObjAddr: 0x3087C, symBinAddr: 0x1000325EC, symSize: 0x8C }
  - { offset: 0x2572, size: 0x8, addend: 0x0, symName: __ZN6parlay8internal17transpose_bucketsINS_26uninitialized_relocate_tagEPNSt3__15tupleIJdlllEEES6_jEENS_8sequenceImNS_9allocatorImEELb0EEET0_T1_RNS7_IT2_NS8_ISD_EEXsr3std7is_sameISD_cEE5valueEEEmmmm, symObjAddr: 0x30908, symBinAddr: 0x100032678, symSize: 0x4E8 }
  - { offset: 0x27C9, size: 0x8, addend: 0x0, symName: __ZN6parlay8internal10sliced_forIZNS0_5scan_INS_5sliceIPjS4_EES5_RNS_4plusIjEEEEDaRKT_T0_OT1_jbEUlmmmE_EEvmmSC_j, symObjAddr: 0x43168, symBinAddr: 0x100044ED8, symSize: 0x8C }
  - { offset: 0x287D, size: 0x8, addend: 0x0, symName: __ZN6parlay8internal5scan_INS_5sliceIPjS3_EES4_RNS_4plusIjEEEEDaRKT_T0_OT1_jb, symObjAddr: 0x42D7C, symBinAddr: 0x100044AEC, symSize: 0x1D8 }
  - { offset: 0x29F5, size: 0x8, addend: 0x0, symName: __ZN6parlay8internal10sliced_forIZNS0_5scan_INS_5sliceIPjS4_EES5_RNS_4plusIjEEEEDaRKT_T0_OT1_jbEUlmmmE0_EEvmmSC_j, symObjAddr: 0x433E0, symBinAddr: 0x100045150, symSize: 0x8C }
  - { offset: 0x2C19, size: 0x8, addend: 0x0, symName: __ZN6parlay8internal12sample_sort_ImNS_16delayed_sequenceINSt3__15tupleIJdlllEEES5_Z19min_spanning_forestIldENS_8sequenceIlNS_9allocatorIlEELb0EEERKNS7_INS4_IJT_SB_T0_EEENS8_ISD_EEXsr3std7is_sameISD_cEE5valueEEElEUllE_E8iteratorEPS5_NS3_4lessIvEEEEvNS_5sliceISC_SC_EENSO_IT1_SQ_EERKT2_b, symObjAddr: 0x2F810, symBinAddr: 0x100031580, symSize: 0x3A8 }
  - { offset: 0x2EA6, size: 0x8, addend: 0x0, symName: __ZN6parlay8internal17get_bucket_countsIPNSt3__15tupleIJdlllEEES5_PmNS2_4lessIvEEEEvNS_5sliceIT_SA_EENS9_IT0_SC_EENS9_IT1_SE_EET2_, symObjAddr: 0x4CB5C, symBinAddr: 0x10004E8CC, symSize: 0x350 }
  - { offset: 0x2FA5, size: 0x8, addend: 0x0, symName: __ZN6parlay8internal10sliced_forIZNS0_12sample_sort_ImNS_16delayed_sequenceINSt3__15tupleIJdlllEEES6_Z19min_spanning_forestIldENS_8sequenceIlNS_9allocatorIlEELb0EEERKNS8_INS5_IJT_SC_T0_EEENS9_ISE_EEXsr3std7is_sameISE_cEE5valueEEElEUllE_E8iteratorEPS6_NS4_4lessIvEEEEvNS_5sliceISD_SD_EENSP_IT1_SR_EERKT2_bEUlmmmE_EEvmmRKSC_j, symObjAddr: 0x4A6B0, symBinAddr: 0x10004C420, symSize: 0x8C }
  - { offset: 0x3059, size: 0x8, addend: 0x0, symName: __ZN6parlay8internal17transpose_bucketsINS_26uninitialized_relocate_tagEPNSt3__15tupleIJdlllEEES6_mEENS_8sequenceImNS_9allocatorImEELb0EEET0_T1_RNS7_IT2_NS8_ISD_EEXsr3std7is_sameISD_cEE5valueEEEmmmm, symObjAddr: 0x4A73C, symBinAddr: 0x10004C4AC, symSize: 0x4E0 }
  - { offset: 0x32B0, size: 0x8, addend: 0x0, symName: __ZN6parlay8internal10sliced_forIZNS0_5scan_INS_5sliceIPmS4_EES5_RNS_4plusImEEEEDaRKT_T0_OT1_jbEUlmmmE_EEvmmSC_j, symObjAddr: 0x4F000, symBinAddr: 0x100050D70, symSize: 0x8C }
  - { offset: 0x3364, size: 0x8, addend: 0x0, symName: __ZN6parlay8internal5scan_INS_5sliceIPmS3_EES4_RNS_4plusImEEEEDaRKT_T0_OT1_jb, symObjAddr: 0x4EC14, symBinAddr: 0x100050984, symSize: 0x1D8 }
  - { offset: 0x34DC, size: 0x8, addend: 0x0, symName: __ZN6parlay8internal10sliced_forIZNS0_5scan_INS_5sliceIPmS4_EES5_RNS_4plusImEEEEDaRKT_T0_OT1_jbEUlmmmE0_EEvmmSC_j, symObjAddr: 0x4F278, symBinAddr: 0x100050FE8, symSize: 0x8C }
  - { offset: 0x3700, size: 0x8, addend: 0x0, symName: __ZN6parlay8internal10sliced_forIZNS0_4packINS_5sliceIPlS4_EENS3_INS_16delayed_sequenceIbbZNS0_11delayed_mapIRNS_8sequenceI6statusNS_9allocatorIS9_EELb0EEEZ15speculative_forIlZ19min_spanning_forestIldENS8_IlNSA_IlEELb0EEERKNS8_INSt3__15tupleIJT_SK_T0_EEENSA_ISM_EEXsr3std7is_sameISM_cEE5valueEEElEUllE0_ZSF_IldESH_SQ_lEUllE1_EvSK_SK_SL_T1_lEUlS9_E_Li0EEEDaOSK_SL_EUlmE_E8iteratorESZ_EEEENS8_INSK_10value_typeENSA_IS11_EEXsr3std7is_sameIS11_cEE5valueEEERKSK_RKSL_jEUlmmmE_EEvmmS15_j, symObjAddr: 0x5A9E0, symBinAddr: 0x10005C750, symSize: 0x8C }
  - { offset: 0x37B4, size: 0x8, addend: 0x0, symName: __ZN6parlay8internal4packINS_5sliceIPlS3_EENS2_INS_16delayed_sequenceIbbZNS0_11delayed_mapIRNS_8sequenceI6statusNS_9allocatorIS8_EELb0EEEZ15speculative_forIlZ19min_spanning_forestIldENS7_IlNS9_IlEELb0EEERKNS7_INSt3__15tupleIJT_SJ_T0_EEENS9_ISL_EEXsr3std7is_sameISL_cEE5valueEEElEUllE0_ZSE_IldESG_SP_lEUllE1_EvSJ_SJ_SK_T1_lEUlS8_E_Li0EEEDaOSJ_SK_EUlmE_E8iteratorESY_EEEENS7_INSJ_10value_typeENS9_IS10_EEXsr3std7is_sameIS10_cEE5valueEEERKSJ_RKSK_j, symObjAddr: 0x5A5D0, symBinAddr: 0x10005C340, symSize: 0x1EC }
  - { offset: 0x3911, size: 0x8, addend: 0x0, symName: __ZN6parlay8internal10sliced_forIZNS0_5scan_INS_5sliceIPmS4_EES5_NS_4plusImEEEEDaRKT_T0_OT1_jbEUlmmmE_EEvmmSB_j, symObjAddr: 0x5BF54, symBinAddr: 0x10005DCC4, symSize: 0x8C }
  - { offset: 0x39C5, size: 0x8, addend: 0x0, symName: __ZN6parlay8internal5scan_INS_5sliceIPmS3_EES4_NS_4plusImEEEEDaRKT_T0_OT1_jb, symObjAddr: 0x5BD7C, symBinAddr: 0x10005DAEC, symSize: 0x1D8 }
  - { offset: 0x3B3D, size: 0x8, addend: 0x0, symName: __ZN6parlay8internal10sliced_forIZNS0_5scan_INS_5sliceIPmS4_EES5_NS_4plusImEEEEDaRKT_T0_OT1_jbEUlmmmE0_EEvmmSB_j, symObjAddr: 0x5BFE0, symBinAddr: 0x10005DD50, symSize: 0x8C }
  - { offset: 0x3BF1, size: 0x8, addend: 0x0, symName: __ZN6parlay8internal10sliced_forIZNS0_4packINS_5sliceIPlS4_EENS3_INS_16delayed_sequenceIbbZNS0_11delayed_mapIRNS_8sequenceI6statusNS_9allocatorIS9_EELb0EEEZ15speculative_forIlZ19min_spanning_forestIldENS8_IlNSA_IlEELb0EEERKNS8_INSt3__15tupleIJT_SK_T0_EEENSA_ISM_EEXsr3std7is_sameISM_cEE5valueEEElEUllE0_ZSF_IldESH_SQ_lEUllE1_EvSK_SK_SL_T1_lEUlS9_E_Li0EEEDaOSK_SL_EUlmE_E8iteratorESZ_EEEENS8_INSK_10value_typeENSA_IS11_EEXsr3std7is_sameIS11_cEE5valueEEERKSK_RKSL_jEUlmmmE0_EEvmmS15_j, symObjAddr: 0x5AAF8, symBinAddr: 0x10005C868, symSize: 0x8C }
  - { offset: 0x3CA5, size: 0x8, addend: 0x0, symName: __ZN6parlay8internal10sliced_forIZNS0_4packINS_16delayed_sequenceIllZNS0_10pack_indexIlNS_5sliceIPbS6_EEEEDaRKT0_jEUlmE_EES7_EENS_8sequenceINT_10value_typeENS_9allocatorISG_EEXsr3std7is_sameISG_cEE5valueEEERKSF_SB_jEUlmmmE_EEvmmSL_j, symObjAddr: 0x5F090, symBinAddr: 0x100060E00, symSize: 0x8C }
  - { offset: 0x3D59, size: 0x8, addend: 0x0, symName: __ZN6parlay8internal4packINS_16delayed_sequenceIllZNS0_10pack_indexIlNS_5sliceIPbS5_EEEEDaRKT0_jEUlmE_EES6_EENS_8sequenceINT_10value_typeENS_9allocatorISF_EEXsr3std7is_sameISF_cEE5valueEEERKSE_SA_j, symObjAddr: 0x5EC80, symBinAddr: 0x1000609F0, symSize: 0x1EC }
  - { offset: 0x3EB6, size: 0x8, addend: 0x0, symName: __ZN6parlay8internal10sliced_forIZNS0_4packINS_16delayed_sequenceIllZNS0_10pack_indexIlNS_5sliceIPbS6_EEEEDaRKT0_jEUlmE_EES7_EENS_8sequenceINT_10value_typeENS_9allocatorISG_EEXsr3std7is_sameISG_cEE5valueEEERKSF_SB_jEUlmmmE0_EEvmmSL_j, symObjAddr: 0x5F11C, symBinAddr: 0x100060E8C, symSize: 0x8C }
  - { offset: 0x3F6A, size: 0x8, addend: 0x0, symName: __ZN6parlay8internal10pack_indexIlNS_5sliceIPbS3_EEEEDaRKT0_j, symObjAddr: 0x5EBE4, symBinAddr: 0x100060954, symSize: 0x50 }
  - { offset: 0x3FE7, size: 0x8, addend: 0x0, symName: __ZN6parlay8internal23default_allocator_sizesEv, symObjAddr: 0x1070, symBinAddr: 0x100002DE0, symSize: 0xFC }
  - { offset: 0x404C, size: 0x8, addend: 0x0, symName: __ZN6parlay8internal13get_thread_idEv, symObjAddr: 0x6740, symBinAddr: 0x1000084B0, symSize: 0x18 }
  - { offset: 0x4069, size: 0x8, addend: 0x0, symName: __ZN6parlay8internal18get_num_thread_idsEv, symObjAddr: 0x9900, symBinAddr: 0x10000B670, symSize: 0x20 }
  - { offset: 0x4086, size: 0x8, addend: 0x0, symName: __ZN6parlay8internal18intrusive_get_nextEPNS0_12hazptr_stackIPvE4NodeE, symObjAddr: 0x9B84, symBinAddr: 0x10000B8F4, symSize: 0x18 }
  - { offset: 0x40B2, size: 0x8, addend: 0x0, symName: __ZN6parlay8internal18intrusive_set_nextEPNS0_12hazptr_stackIPvE4NodeES5_, symObjAddr: 0x9BE0, symBinAddr: 0x10000B950, symSize: 0x20 }
  - { offset: 0x40E8, size: 0x8, addend: 0x0, symName: __ZN6parlay8internal18intrusive_get_nextEPNS0_12hazptr_stackIPSt4byteE4NodeE, symObjAddr: 0xD4B4, symBinAddr: 0x10000F224, symSize: 0x18 }
  - { offset: 0x4114, size: 0x8, addend: 0x0, symName: __ZN6parlay8internal18intrusive_set_nextEPNS0_12hazptr_stackIPSt4byteE4NodeES6_, symObjAddr: 0xD510, symBinAddr: 0x10000F280, symSize: 0x20 }
  - { offset: 0x414A, size: 0x8, addend: 0x0, symName: __ZN6parlay8internal18intrusive_get_nextEPNS0_12hazptr_stackIPNS0_15block_allocator5blockEE4NodeE, symObjAddr: 0x10428, symBinAddr: 0x100012198, symSize: 0x18 }
  - { offset: 0x4176, size: 0x8, addend: 0x0, symName: __ZN6parlay8internal18intrusive_set_nextEPNS0_12hazptr_stackIPNS0_15block_allocator5blockEE4NodeES7_, symObjAddr: 0x10484, symBinAddr: 0x1000121F4, symSize: 0x20 }
  - { offset: 0x41AC, size: 0x8, addend: 0x0, symName: __ZN6parlay8internal16init_num_workersEv, symObjAddr: 0x216BC, symBinAddr: 0x10002342C, symSize: 0xA8 }
  - { offset: 0x41DE, size: 0x8, addend: 0x0, symName: __ZN6parlay8internal16delayed_tabulateIZ19min_spanning_forestIldENS_8sequenceIlNS_9allocatorIlEELb0EEERKNS3_INSt3__15tupleIJT_S9_T0_EEENS4_ISB_EEXsr3std7is_sameISB_cEE5valueEEElEUllE_EEDamS9_, symObjAddr: 0x2A8E4, symBinAddr: 0x10002C654, symSize: 0x40 }
  - { offset: 0x4221, size: 0x8, addend: 0x0, symName: __ZN6parlay8internal8tabulateINSt3__16atomicIlEEZN10union_findIlEC1EmEUllE_EEDamOT0_m, symObjAddr: 0x2C2F4, symBinAddr: 0x10002E064, symSize: 0x3C }
  - { offset: 0x427B, size: 0x8, addend: 0x0, symName: __ZN6parlay8internal11sample_sortINS_16delayed_sequenceINSt3__15tupleIJdlllEEES5_Z19min_spanning_forestIldENS_8sequenceIlNS_9allocatorIlEELb0EEERKNS7_INS4_IJT_SB_T0_EEENS8_ISD_EEXsr3std7is_sameISD_cEE5valueEEElEUllE_E8iteratorENS3_4lessIvEEEEDaNS_5sliceISB_SB_EERKSC_b, symObjAddr: 0x2F1E4, symBinAddr: 0x100030F54, symSize: 0x15C }
  - { offset: 0x42E9, size: 0x8, addend: 0x0, symName: __ZN6parlay8internal9seq_sort_INS_22uninitialized_copy_tagENS_16delayed_sequenceINSt3__15tupleIJdlllEEES6_Z19min_spanning_forestIldENS_8sequenceIlNS_9allocatorIlEELb0EEERKNS8_INS5_IJT_SC_T0_EEENS9_ISE_EEXsr3std7is_sameISE_cEE5valueEEElEUllE_E8iteratorEPS6_NS4_4lessIvEEEEvNS_5sliceISD_SD_EENSP_IT1_SR_EERKT2_b, symObjAddr: 0x304D8, symBinAddr: 0x100032248, symSize: 0xC8 }
  - { offset: 0x438A, size: 0x8, addend: 0x0, symName: __ZN6parlay8internal16seq_sort_inplaceIPNSt3__15tupleIJdlllEEENS2_4lessIvEEEEvNS_5sliceIT_S9_EERKT0_b, symObjAddr: 0x3103C, symBinAddr: 0x100032DAC, symSize: 0x8C }
  - { offset: 0x43E0, size: 0x8, addend: 0x0, symName: __ZN6parlay8internal11bucket_sortIPNSt3__15tupleIJdlllEEENS2_4lessIvEEEEvNS_5sliceIT_S9_EET0_b, symObjAddr: 0x31590, symBinAddr: 0x100033300, symSize: 0xF8 }
  - { offset: 0x4452, size: 0x8, addend: 0x0, symName: __ZN6parlay8internal9base_sortIPNSt3__15tupleIJdlllEEES5_NS2_4lessIvEEEEvNS_5sliceIT_S9_EENS8_IT0_SB_EET1_bb, symObjAddr: 0x3197C, symBinAddr: 0x1000336EC, symSize: 0xF4 }
  - { offset: 0x44CD, size: 0x8, addend: 0x0, symName: __ZN6parlay8internal11radix_step_IPNSt3__15tupleIJdlllEEES5_hEEvNS_5sliceIT_S7_EENS6_IT0_S9_EEPT1_Pmm, symObjAddr: 0x31EA0, symBinAddr: 0x100033C10, symSize: 0x1F4 }
  - { offset: 0x466F, size: 0x8, addend: 0x0, symName: __ZN6parlay8internal14insertion_sortIPNSt3__15tupleIJdlllEEENS2_4lessIvEEEEvT_mRKT0_, symObjAddr: 0x32504, symBinAddr: 0x100034274, symSize: 0xE8 }
  - { offset: 0x46FD, size: 0x8, addend: 0x0, symName: __ZN6parlay8internal9seq_mergeINS_26uninitialized_relocate_tagEPNSt3__15tupleIJdlllEEES6_S6_NS3_4lessIvEEEEvNS_5sliceIT0_SA_EENS9_IT1_SC_EENS9_IT2_SE_EERKT3_, symObjAddr: 0x33900, symBinAddr: 0x100035670, symSize: 0x218 }
  - { offset: 0x47B7, size: 0x8, addend: 0x0, symName: __ZN6parlay8internal13binary_searchINS_5sliceIPNSt3__15tupleIJdlllEEES6_EENS3_4lessIvEEEEmRKT_RKNSA_10value_typeERKT0_, symObjAddr: 0x33D30, symBinAddr: 0x100035AA0, symSize: 0x108 }
  - { offset: 0x4849, size: 0x8, addend: 0x0, symName: __ZN6parlay8internal13linear_searchINS_5sliceIPNSt3__15tupleIJdlllEEES6_EENS3_4lessIvEEEEmRKT_RKNSA_10value_typeERKT0_, symObjAddr: 0x35434, symBinAddr: 0x1000371A4, symSize: 0xB0 }
  - { offset: 0x48BF, size: 0x8, addend: 0x0, symName: __ZN6parlay8internal16to_balanced_treeINS_15copy_assign_tagEPmS3_EEvT0_T1_mmm, symObjAddr: 0x37F78, symBinAddr: 0x100039CE8, symSize: 0xDC }
  - { offset: 0x4956, size: 0x8, addend: 0x0, symName: __ZN6parlay8internal16quicksort_serialIPmZNS0_11get_bucketsIPNSt3__15tupleIJdlllEEENS4_4lessIvEEEEbNS_5sliceIT_SB_EEPhT0_mEUlmmE_EEvSB_mRKSE_, symObjAddr: 0x38F58, symBinAddr: 0x10003ACC8, symSize: 0x12C }
  - { offset: 0x49E8, size: 0x8, addend: 0x0, symName: __ZN6parlay8internal6split3IPmZNS0_11get_bucketsIPNSt3__15tupleIJdlllEEENS4_4lessIvEEEEbNS_5sliceIT_SB_EEPhT0_mEUlmmE_EENS5_IJSB_SB_bEEESB_mRKSE_, symObjAddr: 0x39084, symBinAddr: 0x10003ADF4, symSize: 0x2D0 }
  - { offset: 0x4A96, size: 0x8, addend: 0x0, symName: __ZN6parlay8internal9base_caseIPmEEbT_m, symObjAddr: 0x39454, symBinAddr: 0x10003B1C4, symSize: 0x54 }
  - { offset: 0x4AE7, size: 0x8, addend: 0x0, symName: __ZN6parlay8internal14insertion_sortIPmZNS0_11get_bucketsIPNSt3__15tupleIJdlllEEENS4_4lessIvEEEEbNS_5sliceIT_SB_EEPhT0_mEUlmmE_EEvSB_mRKSE_, symObjAddr: 0x394A8, symBinAddr: 0x10003B218, symSize: 0xE8 }
  - { offset: 0x4B75, size: 0x8, addend: 0x0, symName: __ZN6parlay8internal5sort5IPmZNS0_11get_bucketsIPNSt3__15tupleIJdlllEEENS4_4lessIvEEEEbNS_5sliceIT_SB_EEPhT0_mEUlmmE_EEvSB_mRKSE_, symObjAddr: 0x395F8, symBinAddr: 0x10003B368, symSize: 0xC0 }
  - { offset: 0x4C11, size: 0x8, addend: 0x0, symName: __ZN6parlay8internal16quicksort_serialIPNSt3__15tupleIJdlllEEENS2_4lessIvEEEEvT_mRKT0_, symObjAddr: 0x3D2F0, symBinAddr: 0x10003F060, symSize: 0x12C }
  - { offset: 0x4CA3, size: 0x8, addend: 0x0, symName: __ZN6parlay8internal6split3IPNSt3__15tupleIJdlllEEENS2_4lessIvEEEENS3_IJT_S8_bEEES8_mRKT0_, symObjAddr: 0x3D41C, symBinAddr: 0x10003F18C, symSize: 0x298 }
  - { offset: 0x4D51, size: 0x8, addend: 0x0, symName: __ZN6parlay8internal9base_caseIPNSt3__15tupleIJdlllEEEEEbT_m, symObjAddr: 0x3D7B4, symBinAddr: 0x10003F524, symSize: 0x54 }
  - { offset: 0x4DA2, size: 0x8, addend: 0x0, symName: __ZN6parlay8internal5sort5IPNSt3__15tupleIJdlllEEENS2_4lessIvEEEEvT_mRKT0_, symObjAddr: 0x3D808, symBinAddr: 0x10003F578, symSize: 0xC0 }
  - { offset: 0x4E3E, size: 0x8, addend: 0x0, symName: __ZN6parlay8internal10num_blocksEmm, symObjAddr: 0x405D0, symBinAddr: 0x100042340, symSize: 0x50 }
  - { offset: 0x4E78, size: 0x8, addend: 0x0, symName: __ZN6parlay8internal12scan_inplaceIPjRNS_4plusIjEEEEDaNS_5sliceIT_S8_EEOT0_j, symObjAddr: 0x41C2C, symBinAddr: 0x10004399C, symSize: 0x54 }
  - { offset: 0x4ED6, size: 0x8, addend: 0x0, symName: __ZN6parlay8internal11scan_serialINS_5sliceIPjS3_EES4_RNS_4plusIjEEEEDaRKT_T0_OT1_NS_13type_identityIDtsr3std18remove_reference_tISD_EE8identityEE4typeEjb, symObjAddr: 0x42F7C, symBinAddr: 0x100044CEC, symSize: 0x1EC }
  - { offset: 0x502F, size: 0x8, addend: 0x0, symName: __ZN6parlay8internal11scan_serialINS_8sequenceIjNS_9allocatorIjEELb0EEENS_5sliceIPjS7_EERNS_4plusIjEEEEDaRKT_T0_OT1_NS_13type_identityIDtsr3std18remove_reference_tISH_EE8identityEE4typeEjb, symObjAddr: 0x431F4, symBinAddr: 0x100044F64, symSize: 0x1EC }
  - { offset: 0x5188, size: 0x8, addend: 0x0, symName: __ZN6parlay8internal13reduce_serialINS_5sliceIPjS3_EERNS_4plusIjEEEEDaRKT_OT0_, symObjAddr: 0x437E4, symBinAddr: 0x100045554, symSize: 0xD8 }
  - { offset: 0x5209, size: 0x8, addend: 0x0, symName: __ZN6parlay8internal5splitEm, symObjAddr: 0x45FB8, symBinAddr: 0x100047D28, symSize: 0x1C }
  - { offset: 0x5235, size: 0x8, addend: 0x0, symName: __ZN6parlay8internal12scan_inplaceIPmRNS_4plusImEEEEDaNS_5sliceIT_S8_EEOT0_j, symObjAddr: 0x4DB20, symBinAddr: 0x10004F890, symSize: 0x54 }
  - { offset: 0x5293, size: 0x8, addend: 0x0, symName: __ZN6parlay8internal11scan_serialINS_5sliceIPmS3_EES4_RNS_4plusImEEEEDaRKT_T0_OT1_NS_13type_identityIDtsr3std18remove_reference_tISD_EE8identityEE4typeEjb, symObjAddr: 0x4EE14, symBinAddr: 0x100050B84, symSize: 0x1EC }
  - { offset: 0x53ED, size: 0x8, addend: 0x0, symName: __ZN6parlay8internal11scan_serialINS_8sequenceImNS_9allocatorImEELb0EEENS_5sliceIPmS7_EERNS_4plusImEEEEDaRKT_T0_OT1_NS_13type_identityIDtsr3std18remove_reference_tISH_EE8identityEE4typeEjb, symObjAddr: 0x4F08C, symBinAddr: 0x100050DFC, symSize: 0x1EC }
  - { offset: 0x5547, size: 0x8, addend: 0x0, symName: __ZN6parlay8internal13reduce_serialINS_5sliceIPmS3_EERNS_4plusImEEEEDaRKT_OT0_, symObjAddr: 0x4F67C, symBinAddr: 0x1000513EC, symSize: 0xD8 }
  - { offset: 0x55C8, size: 0x8, addend: 0x0, symName: __ZN6parlay8internal8tabulateIZ15speculative_forIlZ19min_spanning_forestIldENS_8sequenceIlNS_9allocatorIlEELb0EEERKNS4_INSt3__15tupleIJT_SA_T0_EEENS5_ISC_EEXsr3std7is_sameISC_cEE5valueEEElEUllE0_ZS3_IldES7_SG_lEUllE1_EvSA_SA_SB_T1_lEUllE_EEDamOSA_m, symObjAddr: 0x564AC, symBinAddr: 0x10005821C, symSize: 0x3C }
  - { offset: 0x5619, size: 0x8, addend: 0x0, symName: __ZN6parlay8internal8tabulateIZ15speculative_forIlZ19min_spanning_forestIldENS_8sequenceIlNS_9allocatorIlEELb0EEERKNS4_INSt3__15tupleIJT_SA_T0_EEENS5_ISC_EEXsr3std7is_sameISC_cEE5valueEEElEUllE0_ZS3_IldES7_SG_lEUllE1_EvSA_SA_SB_T1_lEUllE0_EEDamOSA_m, symObjAddr: 0x564E8, symBinAddr: 0x100058258, symSize: 0x3C }
  - { offset: 0x566A, size: 0x8, addend: 0x0, symName: __ZN6parlay8internal11delayed_mapIRNS_8sequenceI6statusNS_9allocatorIS3_EELb0EEEZ15speculative_forIlZ19min_spanning_forestIldENS2_IlNS4_IlEELb0EEERKNS2_INSt3__15tupleIJT_SE_T0_EEENS4_ISG_EEXsr3std7is_sameISG_cEE5valueEEElEUllE0_ZS9_IldESB_SK_lEUllE1_EvSE_SE_SF_T1_lEUlS3_E_Li0EEEDaOSE_SF_, symObjAddr: 0x56524, symBinAddr: 0x100058294, symSize: 0x58 }
  - { offset: 0x56CF, size: 0x8, addend: 0x0, symName: __ZN6parlay8internal9size_impl4sizeIRNS_8sequenceI6statusNS_9allocatorIS4_EELb0EEEEEDaOT_, symObjAddr: 0x5A3AC, symBinAddr: 0x10005C11C, symSize: 0x24 }
  - { offset: 0x5707, size: 0x8, addend: 0x0, symName: __ZN6parlay8internal16delayed_tabulateIZNS0_11delayed_mapIRNS_8sequenceI6statusNS_9allocatorIS4_EELb0EEEZ15speculative_forIlZ19min_spanning_forestIldENS3_IlNS5_IlEELb0EEERKNS3_INSt3__15tupleIJT_SF_T0_EEENS5_ISH_EEXsr3std7is_sameISH_cEE5valueEEElEUllE0_ZSA_IldESC_SL_lEUllE1_EvSF_SF_SG_T1_lEUlS4_E_Li0EEEDaOSF_SG_EUlmE_EESQ_mSF_, symObjAddr: 0x5A3D0, symBinAddr: 0x10005C140, symSize: 0x48 }
  - { offset: 0x574A, size: 0x8, addend: 0x0, symName: __ZN6parlay8internal11pack_serialINS_5sliceIPlS3_EENS2_INS_16delayed_sequenceIbbZNS0_11delayed_mapIRNS_8sequenceI6statusNS_9allocatorIS8_EELb0EEEZ15speculative_forIlZ19min_spanning_forestIldENS7_IlNS9_IlEELb0EEERKNS7_INSt3__15tupleIJT_SJ_T0_EEENS9_ISL_EEXsr3std7is_sameISL_cEE5valueEEElEUllE0_ZSE_IldESG_SP_lEUllE1_EvSJ_SJ_SK_T1_lEUlS8_E_Li0EEEDaOSJ_SK_EUlmE_E8iteratorESY_EEEENS7_INSJ_10value_typeENS9_IS10_EEXsr3std7is_sameIS10_cEE5valueEEERKSJ_RKSK_, symObjAddr: 0x5A888, symBinAddr: 0x10005C5F8, symSize: 0x158 }
  - { offset: 0x5811, size: 0x8, addend: 0x0, symName: __ZN6parlay8internal12scan_inplaceIPmNS_4plusImEEEEDaNS_5sliceIT_S7_EEOT0_j, symObjAddr: 0x5AA6C, symBinAddr: 0x10005C7DC, symSize: 0x54 }
  - { offset: 0x586F, size: 0x8, addend: 0x0, symName: __ZN6parlay8internal16sum_bools_serialINS_5sliceINS_16delayed_sequenceIbbZNS0_11delayed_mapIRNS_8sequenceI6statusNS_9allocatorIS6_EELb0EEEZ15speculative_forIlZ19min_spanning_forestIldENS5_IlNS7_IlEELb0EEERKNS5_INSt3__15tupleIJT_SH_T0_EEENS7_ISJ_EEXsr3std7is_sameISJ_cEE5valueEEElEUllE0_ZSC_IldESE_SN_lEUllE1_EvSH_SH_SI_T1_lEUlS6_E_Li0EEEDaOSH_SI_EUlmE_E8iteratorESW_EEEEmRKSH_, symObjAddr: 0x5AB84, symBinAddr: 0x10005C8F4, symSize: 0x84 }
  - { offset: 0x58D2, size: 0x8, addend: 0x0, symName: __ZN6parlay8internal14pack_serial_atINS_5sliceIPlS3_EENS2_INS_16delayed_sequenceIbbZNS0_11delayed_mapIRNS_8sequenceI6statusNS_9allocatorIS8_EELb0EEEZ15speculative_forIlZ19min_spanning_forestIldENS7_IlNS9_IlEELb0EEERKNS7_INSt3__15tupleIJT_SJ_T0_EEENS9_ISL_EEXsr3std7is_sameISL_cEE5valueEEElEUllE0_ZSE_IldESG_SP_lEUllE1_EvSJ_SJ_SK_T1_lEUlS8_E_Li0EEEDaOSJ_SK_EUlmE_E8iteratorESY_EES4_EEmSJ_SK_SS_, symObjAddr: 0x5DDFC, symBinAddr: 0x10005FB6C, symSize: 0xD0 }
  - { offset: 0x598C, size: 0x8, addend: 0x0, symName: __ZN6parlay8internal16delayed_tabulateIZNS0_10pack_indexIlNS_5sliceIPbS4_EEEEDaRKT0_jEUlmE_EES6_mT_, symObjAddr: 0x5EE6C, symBinAddr: 0x100060BDC, symSize: 0x30 }
  - { offset: 0x59CF, size: 0x8, addend: 0x0, symName: __ZN6parlay8internal11pack_serialINS_16delayed_sequenceIllZNS0_10pack_indexIlNS_5sliceIPbS5_EEEEDaRKT0_jEUlmE_EES6_EENS_8sequenceINT_10value_typeENS_9allocatorISF_EEXsr3std7is_sameISF_cEE5valueEEERKSE_SA_, symObjAddr: 0x5EF2C, symBinAddr: 0x100060C9C, symSize: 0x164 }
  - { offset: 0x5A98, size: 0x8, addend: 0x0, symName: __ZN6parlay8internal16sum_bools_serialINS_5sliceIPbS3_EEEEmRKT_, symObjAddr: 0x5F1A8, symBinAddr: 0x100060F18, symSize: 0x84 }
  - { offset: 0x5AFB, size: 0x8, addend: 0x0, symName: __ZN6parlay8internal14pack_serial_atINS_5sliceINS_16delayed_sequenceIllZNS0_10pack_indexIlNS2_IPbS5_EEEEDaRKT0_jEUlmE_E8iteratorESD_EES6_NS2_IPlSF_EEEEmT_S8_T1_, symObjAddr: 0x604E4, symBinAddr: 0x100062254, symSize: 0xE4 }
  - { offset: 0xFB50, size: 0x8, addend: 0x0, symName: __ZN6parlay24uninitialized_relocate_nIPNSt3__15tupleIJlldEEEmS4_EENS1_4pairIT_T1_EES6_T0_S7_, symObjAddr: 0x28AFC, symBinAddr: 0x10002A86C, symSize: 0xD8 }
  - { offset: 0x11F83, size: 0x8, addend: 0x0, symName: __ZN6parlay24uninitialized_relocate_nIPNSt3__15tupleIJdlllEEElS4_EENS1_4pairIT_T1_EES6_T0_S7_, symObjAddr: 0x35D90, symBinAddr: 0x100037B00, symSize: 0xC4 }
  - { offset: 0x17795, size: 0x8, addend: 0x0, symName: __ZN6parlay7log2_upImEEmT_, symObjAddr: 0x11F8, symBinAddr: 0x100002F68, symSize: 0x9C }
  - { offset: 0x177EA, size: 0x8, addend: 0x0, symName: __ZN6parlay17make_unique_arrayINS_8internal15block_allocatorEZNS1_14pool_allocatorC1ERKNSt3__16vectorImNS4_9allocatorImEEEEEUlmE_EEDamT0_, symObjAddr: 0x35F0, symBinAddr: 0x100005360, symSize: 0xFC }
  - { offset: 0x17874, size: 0x8, addend: 0x0, symName: __ZN6parlay14num_thread_idsEv, symObjAddr: 0x963C, symBinAddr: 0x10000B3AC, symSize: 0x14 }
  - { offset: 0x17891, size: 0x8, addend: 0x0, symName: __ZN6parlay11num_workersEv, symObjAddr: 0x214FC, symBinAddr: 0x10002326C, symSize: 0x20 }
  - { offset: 0x178AE, size: 0x8, addend: 0x0, symName: __ZN6parlay11atomic_waitImEEvPKNSt3__16atomicIT_EENS_13type_identityIS3_E4typeE, symObjAddr: 0x24D70, symBinAddr: 0x100026AE0, symSize: 0x30 }
  - { offset: 0x178F0, size: 0x8, addend: 0x0, symName: __ZN6parlay17atomic_notify_oneImEEvPNSt3__16atomicIT_EE, symObjAddr: 0x264D4, symBinAddr: 0x100028244, symSize: 0x24 }
  - { offset: 0x17923, size: 0x8, addend: 0x0, symName: __ZN6parlay17atomic_notify_allImEEvPNSt3__16atomicIT_EE, symObjAddr: 0x28694, symBinAddr: 0x10002A404, symSize: 0x24 }
  - { offset: 0x1797B, size: 0x8, addend: 0x0, symName: __ZN6parlay12parallel_forIZNS_24uninitialized_relocate_nIPNSt3__15tupleIJlldEEEmS5_EENS2_4pairIT_T1_EES7_T0_S8_EUlmE_EEvmmOS7_lb, symObjAddr: 0x296C0, symBinAddr: 0x10002B430, symSize: 0x10C }
  - { offset: 0x17A25, size: 0x8, addend: 0x0, symName: __ZN6parlay8make_jobIZNS_19fork_join_scheduler7parfor_IZNS_24uninitialized_relocate_nIPNSt3__15tupleIJlldEEEmS7_EENS4_4pairIT_T1_EES9_T0_SA_EUlmE_EEvRNS_9schedulerINS_15WorkStealingJobEEEmmRS9_mbEUlvE0_EENS_7JobImplIS9_EESI_, symObjAddr: 0x29E58, symBinAddr: 0x10002BBC8, symSize: 0x38 }
  - { offset: 0x17A5A, size: 0x8, addend: 0x0, symName: __ZN6parlay4sortIRNS_16delayed_sequenceINSt3__15tupleIJdlllEEES4_Z19min_spanning_forestIldENS_8sequenceIlNS_9allocatorIlEELb0EEERKNS6_INS3_IJT_SA_T0_EEENS7_ISC_EEXsr3std7is_sameISC_cEE5valueEEElEUllE_EEEEDaOSA_, symObjAddr: 0x2A924, symBinAddr: 0x10002C694, symSize: 0x4C }
  - { offset: 0x17A91, size: 0x8, addend: 0x0, symName: __ZN6parlay10pack_indexIlRNS_8sequenceIbNS_9allocatorIbEELb0EEEEEDaOT0_, symObjAddr: 0x2ABE4, symBinAddr: 0x10002C954, symSize: 0x48 }
  - { offset: 0x17ACF, size: 0x8, addend: 0x0, symName: __ZN6parlay12parallel_forIZNS_8sequenceIbNS_9allocatorIbEELb0EE15initialize_fillEmRKbEUlmE_EEvmmOT_lb, symObjAddr: 0x2B2A0, symBinAddr: 0x10002D010, symSize: 0x10C }
  - { offset: 0x17B54, size: 0x8, addend: 0x0, symName: __ZN6parlay8make_jobIZNS_19fork_join_scheduler7parfor_IZNS_8sequenceIbNS_9allocatorIbEELb0EE15initialize_fillEmRKbEUlmE_EEvRNS_9schedulerINS_15WorkStealingJobEEEmmRT_mbEUlvE0_EENS_7JobImplISE_EESF_, symObjAddr: 0x2BD54, symBinAddr: 0x10002DAC4, symSize: 0x38 }
  - { offset: 0x17B89, size: 0x8, addend: 0x0, symName: __ZN6parlay12parallel_forIZNS_8sequenceINSt3__16atomicIlEENS_9allocatorIS4_EELb0EEC1IZN10union_findIlEC1EmEUllE_EEmOT_NS7_18_from_function_tagEmEUlmE_EEvmmSD_lb, symObjAddr: 0x2C620, symBinAddr: 0x10002E390, symSize: 0x10C }
  - { offset: 0x17C0E, size: 0x8, addend: 0x0, symName: __ZN6parlay8make_jobIZNS_19fork_join_scheduler7parfor_IZNS_8sequenceINSt3__16atomicIlEENS_9allocatorIS6_EELb0EEC1IZN10union_findIlEC1EmEUllE_EEmOT_NS9_18_from_function_tagEmEUlmE_EEvRNS_9schedulerINS_15WorkStealingJobEEEmmRSE_mbEUlvE0_EENS_7JobImplISE_EESM_, symObjAddr: 0x2D5B8, symBinAddr: 0x10002F328, symSize: 0x38 }
  - { offset: 0x17C43, size: 0x8, addend: 0x0, symName: __ZN6parlay12parallel_forIZNS_8sequenceI11reservationIlENS_9allocatorIS3_EELb0EE18initialize_defaultEmEUlmE_EEvmmOT_lb, symObjAddr: 0x2E0A0, symBinAddr: 0x10002FE10, symSize: 0x10C }
  - { offset: 0x17CC8, size: 0x8, addend: 0x0, symName: __ZN6parlay8make_jobIZNS_19fork_join_scheduler7parfor_IZNS_8sequenceI11reservationIlENS_9allocatorIS5_EELb0EE18initialize_defaultEmEUlmE_EEvRNS_9schedulerINS_15WorkStealingJobEEEmmRT_mbEUlvE0_EENS_7JobImplISE_EESF_, symObjAddr: 0x2EBA0, symBinAddr: 0x100030910, symSize: 0x38 }
  - { offset: 0x17CFD, size: 0x8, addend: 0x0, symName: __ZN6parlay10make_sliceIRNS_16delayed_sequenceINSt3__15tupleIJdlllEEES4_Z19min_spanning_forestIldENS_8sequenceIlNS_9allocatorIlEELb0EEERKNS6_INS3_IJT_SA_T0_EEENS7_ISC_EEXsr3std7is_sameISC_cEE5valueEEElEUllE_EEEEDaOSA_, symObjAddr: 0x2F340, symBinAddr: 0x1000310B0, symSize: 0x58 }
  - { offset: 0x17D32, size: 0x8, addend: 0x0, symName: __ZN6parlay10make_sliceIRNS_8sequenceINSt3__15tupleIJdlllEEENS_9allocatorIS4_EELb0EEEEEDaOT_, symObjAddr: 0x2F7C4, symBinAddr: 0x100031534, symSize: 0x4C }
  - { offset: 0x17D67, size: 0x8, addend: 0x0, symName: __ZN6parlay12parallel_forIZNS_8internal12sample_sort_IjNS_16delayed_sequenceINSt3__15tupleIJdlllEEES6_Z19min_spanning_forestIldENS_8sequenceIlNS_9allocatorIlEELb0EEERKNS8_INS5_IJT_SC_T0_EEENS9_ISE_EEXsr3std7is_sameISE_cEE5valueEEElEUllE_E8iteratorEPS6_NS4_4lessIvEEEEvNS_5sliceISD_SD_EENSP_IT1_SR_EERKT2_bEUlmE1_EEvmmOSC_lb, symObjAddr: 0x30E20, symBinAddr: 0x100032B90, symSize: 0x10C }
  - { offset: 0x17E41, size: 0x8, addend: 0x0, symName: __ZN6parlay15assign_dispatchINSt3__15tupleIJdlllEEEEEvRT_RKNS_13type_identityIS4_E4typeENS_22uninitialized_copy_tagE, symObjAddr: 0x30FB0, symBinAddr: 0x100032D20, symSize: 0x3C }
  - { offset: 0x17EB4, size: 0x8, addend: 0x0, symName: __ZN6parlay10make_sliceIRNS_5sliceIPNSt3__15tupleIJdlllEEES5_EEEEDaOT_, symObjAddr: 0x318E4, symBinAddr: 0x100033654, symSize: 0x4C }
  - { offset: 0x17EE9, size: 0x8, addend: 0x0, symName: __ZN6parlay10make_sliceIRNS_8internal22uninitialized_sequenceINSt3__15tupleIJdlllEEENS_9allocatorIS5_EEEEEEDaOT_, symObjAddr: 0x31930, symBinAddr: 0x1000336A0, symSize: 0x4C }
  - { offset: 0x17F73, size: 0x8, addend: 0x0, symName: __ZN6parlay12parallel_forIRZNS_8internal13bucket_sort_rIPNSt3__15tupleIJdlllEEES6_NS3_4lessIvEEEEvNS_5sliceIT_SA_EENS9_IT0_SC_EET1_bbEUlmE_EEvmmOSA_lb, symObjAddr: 0x320B8, symBinAddr: 0x100033E28, symSize: 0x10C }
  - { offset: 0x17FF8, size: 0x8, addend: 0x0, symName: __ZN6parlay22uninitialized_relocateIPNSt3__15tupleIJdlllEEES4_EET0_T_S6_S5_, symObjAddr: 0x32498, symBinAddr: 0x100034208, symSize: 0x54 }
  - { offset: 0x18052, size: 0x8, addend: 0x0, symName: __ZN6parlayL9par_do_ifIZNS_8internal11merge_sort_IPNSt3__15tupleIJdlllEEES6_NS3_4lessIvEEEEvNS_5sliceIT_SA_EENS9_IT0_SC_EERKT1_bEUlvE_ZNS2_IS6_S6_S8_EEvSB_SD_SG_bEUlvE0_EEvbOSA_OSC_b, symObjAddr: 0x325EC, symBinAddr: 0x10003435C, symSize: 0x6C }
  - { offset: 0x180B6, size: 0x8, addend: 0x0, symName: __ZN6parlay6par_doIZNS_8internal11merge_sort_IPNSt3__15tupleIJdlllEEES6_NS3_4lessIvEEEEvNS_5sliceIT_SA_EENS9_IT0_SC_EERKT1_bEUlvE_ZNS2_IS6_S6_S8_EEvSB_SD_SG_bEUlvE0_EEvOSA_OSC_b, symObjAddr: 0x33194, symBinAddr: 0x100034F04, symSize: 0x44 }
  - { offset: 0x1810C, size: 0x8, addend: 0x0, symName: __ZN6parlay8make_jobIZNS_8internal11merge_sort_IPNSt3__15tupleIJdlllEEES6_NS3_4lessIvEEEEvNS_5sliceIT_SA_EENS9_IT0_SC_EERKT1_bEUlvE0_EENS_7JobImplISA_EERSA_, symObjAddr: 0x33468, symBinAddr: 0x1000351D8, symSize: 0x38 }
  - { offset: 0x18141, size: 0x8, addend: 0x0, symName: __ZN6parlay12parallel_forIZNS_8internal10merge_intoINS_26uninitialized_relocate_tagEPNSt3__15tupleIJdlllEEES7_S7_NS4_4lessIvEEEEvNS_5sliceIT0_SB_EENSA_IT1_SD_EENSA_IT2_SF_EERKT3_bEUlmE_EEvmmOT_lb, symObjAddr: 0x33B18, symBinAddr: 0x100035888, symSize: 0x10C }
  - { offset: 0x181C6, size: 0x8, addend: 0x0, symName: __ZN6parlay12parallel_forIZNS_8internal10merge_intoINS_26uninitialized_relocate_tagEPNSt3__15tupleIJdlllEEES7_S7_NS4_4lessIvEEEEvNS_5sliceIT0_SB_EENSA_IT1_SD_EENSA_IT2_SF_EERKT3_bEUlmE0_EEvmmOT_lb, symObjAddr: 0x33C24, symBinAddr: 0x100035994, symSize: 0x10C }
  - { offset: 0x1824B, size: 0x8, addend: 0x0, symName: __ZN6parlay6par_doIRZNS_8internal10merge_intoINS_26uninitialized_relocate_tagEPNSt3__15tupleIJdlllEEES7_S7_NS4_4lessIvEEEEvNS_5sliceIT0_SB_EENSA_IT1_SD_EENSA_IT2_SF_EERKT3_bEUlvE_RZNS2_IS3_S7_S7_S7_S9_EEvSC_SE_SG_SJ_bEUlvE0_EEvOT_OSB_b, symObjAddr: 0x33E38, symBinAddr: 0x100035BA8, symSize: 0x44 }
  - { offset: 0x182A1, size: 0x8, addend: 0x0, symName: __ZN6parlay15assign_dispatchINSt3__15tupleIJdlllEEEEEvRT_S5_NS_26uninitialized_relocate_tagE, symObjAddr: 0x33E7C, symBinAddr: 0x100035BEC, symSize: 0x4C }
  - { offset: 0x1834E, size: 0x8, addend: 0x0, symName: __ZN6parlay8make_jobIZNS_19fork_join_scheduler7parfor_IZNS_8internal10merge_intoINS_26uninitialized_relocate_tagEPNSt3__15tupleIJdlllEEES9_S9_NS6_4lessIvEEEEvNS_5sliceIT0_SD_EENSC_IT1_SF_EENSC_IT2_SH_EERKT3_bEUlmE_EEvRNS_9schedulerINS_15WorkStealingJobEEEmmRT_mbEUlvE0_EENS_7JobImplISR_EESS_, symObjAddr: 0x3442C, symBinAddr: 0x10003619C, symSize: 0x38 }
  - { offset: 0x18383, size: 0x8, addend: 0x0, symName: __ZN6parlay8make_jobIZNS_19fork_join_scheduler7parfor_IZNS_8internal10merge_intoINS_26uninitialized_relocate_tagEPNSt3__15tupleIJdlllEEES9_S9_NS6_4lessIvEEEEvNS_5sliceIT0_SD_EENSC_IT1_SF_EENSC_IT2_SH_EERKT3_bEUlmE0_EEvRNS_9schedulerINS_15WorkStealingJobEEEmmRT_mbEUlvE0_EENS_7JobImplISR_EESS_, symObjAddr: 0x34EC8, symBinAddr: 0x100036C38, symSize: 0x38 }
  - { offset: 0x183B8, size: 0x8, addend: 0x0, symName: __ZN6parlay10make_sliceIRKNS_5sliceIPNSt3__15tupleIJdlllEEES5_EEEEDaOT_, symObjAddr: 0x354E4, symBinAddr: 0x100037254, symSize: 0x4C }
  - { offset: 0x183ED, size: 0x8, addend: 0x0, symName: __ZN6parlay10make_sliceIPNSt3__15tupleIJdlllEEES4_EEDaT_T0_, symObjAddr: 0x35530, symBinAddr: 0x1000372A0, symSize: 0x38 }
  - { offset: 0x18439, size: 0x8, addend: 0x0, symName: __ZN6parlay8make_jobIZNS_8internal10merge_intoINS_26uninitialized_relocate_tagEPNSt3__15tupleIJdlllEEES7_S7_NS4_4lessIvEEEEvNS_5sliceIT0_SB_EENSA_IT1_SD_EENSA_IT2_SF_EERKT3_bEUlvE0_EENS_7JobImplIT_EERSM_, symObjAddr: 0x35780, symBinAddr: 0x1000374F0, symSize: 0x38 }
  - { offset: 0x1846E, size: 0x8, addend: 0x0, symName: __ZN6parlay12parallel_forIZNS_24uninitialized_relocate_nIPNSt3__15tupleIJdlllEEElS5_EENS2_4pairIT_T1_EES7_T0_S8_EUlmE_EEvmmOS7_lb, symObjAddr: 0x35E80, symBinAddr: 0x100037BF0, symSize: 0x10C }
  - { offset: 0x184F3, size: 0x8, addend: 0x0, symName: __ZN6parlay8make_jobIZNS_19fork_join_scheduler7parfor_IZNS_24uninitialized_relocate_nIPNSt3__15tupleIJdlllEEElS7_EENS4_4pairIT_T1_EES9_T0_SA_EUlmE_EEvRNS_9schedulerINS_15WorkStealingJobEEEmmRS9_mbEUlvE0_EENS_7JobImplIS9_EESI_, symObjAddr: 0x3658C, symBinAddr: 0x1000382FC, symSize: 0x38 }
  - { offset: 0x18528, size: 0x8, addend: 0x0, symName: __ZN6parlay12parallel_forIZNS_8sequenceImNS_9allocatorImEELb0EEC1IZNS_8internal11get_bucketsIPNSt3__15tupleIJdlllEEENS8_4lessIvEEEEbNS_5sliceIT_SF_EEPhT0_mEUlmE_EEmOSF_NS4_18_from_function_tagEmEUlmE_EEvmmSK_lb, symObjAddr: 0x381A0, symBinAddr: 0x100039F10, symSize: 0x10C }
  - { offset: 0x185AD, size: 0x8, addend: 0x0, symName: __ZN6parlay6hash64Ey, symObjAddr: 0x38544, symBinAddr: 0x10003A2B4, symSize: 0xC0 }
  - { offset: 0x185E7, size: 0x8, addend: 0x0, symName: __ZN6parlay8make_jobIZNS_19fork_join_scheduler7parfor_IZNS_8sequenceImNS_9allocatorImEELb0EEC1IZNS_8internal11get_bucketsIPNSt3__15tupleIJdlllEEENSA_4lessIvEEEEbNS_5sliceIT_SH_EEPhT0_mEUlmE_EEmOSH_NS6_18_from_function_tagEmEUlmE_EEvRNS_9schedulerINS_15WorkStealingJobEEEmmRSH_mbEUlvE0_EENS_7JobImplISH_EEST_, symObjAddr: 0x38A20, symBinAddr: 0x10003A790, symSize: 0x38 }
  - { offset: 0x1861C, size: 0x8, addend: 0x0, symName: __ZN6parlay7par_do3IRZNS_8internal9quicksortIPmZNS1_11get_bucketsIPNSt3__15tupleIJdlllEEENS5_4lessIvEEEEbNS_5sliceIT_SC_EEPhT0_mEUlmmE_EEvSC_mRKSF_EUlvE_RZNS2_IS3_SG_EEvSC_mSI_EUlvE0_RZNS2_IS3_SG_EEvSC_mSI_EUlvE1_EEvOSC_OSF_OT1_, symObjAddr: 0x393C8, symBinAddr: 0x10003B138, symSize: 0x48 }
  - { offset: 0x186B5, size: 0x8, addend: 0x0, symName: __ZN6parlay6par_doIRZNS_8internal9quicksortIPmZNS1_11get_bucketsIPNSt3__15tupleIJdlllEEENS5_4lessIvEEEEbNS_5sliceIT_SC_EEPhT0_mEUlmmE_EEvSC_mRKSF_EUlvE_RZNS2_IS3_SG_EEvSC_mSI_EUlvE1_EEvOSC_OSF_b, symObjAddr: 0x39410, symBinAddr: 0x10003B180, symSize: 0x44 }
  - { offset: 0x1870B, size: 0x8, addend: 0x0, symName: __ZN6parlay6par_doIRZNS_7par_do3IRZNS_8internal9quicksortIPmZNS2_11get_bucketsIPNSt3__15tupleIJdlllEEENS6_4lessIvEEEEbNS_5sliceIT_SD_EEPhT0_mEUlmmE_EEvSD_mRKSG_EUlvE_RZNS3_IS4_SH_EEvSD_mSJ_EUlvE0_RZNS3_IS4_SH_EEvSD_mSJ_EUlvE1_EEvOSD_OSG_OT1_EUlvE_SP_EEvSQ_SR_b, symObjAddr: 0x398CC, symBinAddr: 0x10003B63C, symSize: 0x44 }
  - { offset: 0x18761, size: 0x8, addend: 0x0, symName: __ZN6parlay8make_jobIZNS_8internal9quicksortIPmZNS1_11get_bucketsIPNSt3__15tupleIJdlllEEENS5_4lessIvEEEEbNS_5sliceIT_SC_EEPhT0_mEUlmmE_EEvSC_mRKSF_EUlvE1_EENS_7JobImplISC_EERSC_, symObjAddr: 0x39A78, symBinAddr: 0x10003B7E8, symSize: 0x38 }
  - { offset: 0x18796, size: 0x8, addend: 0x0, symName: __ZN6parlay6par_doIRZNS_8internal9quicksortIPmZNS1_11get_bucketsIPNSt3__15tupleIJdlllEEENS5_4lessIvEEEEbNS_5sliceIT_SC_EEPhT0_mEUlmmE_EEvSC_mRKSF_EUlvE_RZNS2_IS3_SG_EEvSC_mSI_EUlvE0_EEvOSC_OSF_b, symObjAddr: 0x39CCC, symBinAddr: 0x10003BA3C, symSize: 0x44 }
  - { offset: 0x187EC, size: 0x8, addend: 0x0, symName: __ZN6parlay8make_jobIZNS_8internal9quicksortIPmZNS1_11get_bucketsIPNSt3__15tupleIJdlllEEENS5_4lessIvEEEEbNS_5sliceIT_SC_EEPhT0_mEUlmmE_EEvSC_mRKSF_EUlvE0_EENS_7JobImplISC_EERSC_, symObjAddr: 0x39E78, symBinAddr: 0x10003BBE8, symSize: 0x38 }
  - { offset: 0x18821, size: 0x8, addend: 0x0, symName: __ZN6parlay12parallel_forIZNS_8sequenceImNS_9allocatorImEELb0EEC1IZNS_8internal11get_bucketsIPNSt3__15tupleIJdlllEEENS8_4lessIvEEEEbNS_5sliceIT_SF_EEPhT0_mEUlmE0_EEmOSF_NS4_18_from_function_tagEmEUlmE_EEvmmSK_lb, symObjAddr: 0x3AC14, symBinAddr: 0x10003C984, symSize: 0x10C }
  - { offset: 0x188A6, size: 0x8, addend: 0x0, symName: __ZN6parlay8make_jobIZNS_19fork_join_scheduler7parfor_IZNS_8sequenceImNS_9allocatorImEELb0EEC1IZNS_8internal11get_bucketsIPNSt3__15tupleIJdlllEEENSA_4lessIvEEEEbNS_5sliceIT_SH_EEPhT0_mEUlmE0_EEmOSH_NS6_18_from_function_tagEmEUlmE_EEvRNS_9schedulerINS_15WorkStealingJobEEEmmRSH_mbEUlvE0_EENS_7JobImplISH_EEST_, symObjAddr: 0x3B2E0, symBinAddr: 0x10003D050, symSize: 0x38 }
  - { offset: 0x188DB, size: 0x8, addend: 0x0, symName: __ZN6parlay15assign_dispatchImEEvRT_RKNS_13type_identityIS1_E4typeENS_15copy_assign_tagE, symObjAddr: 0x3B848, symBinAddr: 0x10003D5B8, symSize: 0x24 }
  - { offset: 0x18928, size: 0x8, addend: 0x0, symName: __ZN6parlay8make_jobIZNS_19fork_join_scheduler7parfor_IZNS_8internal13bucket_sort_rIPNSt3__15tupleIJdlllEEES8_NS5_4lessIvEEEEvNS_5sliceIT_SC_EENSB_IT0_SE_EET1_bbEUlmE_EEvRNS_9schedulerINS_15WorkStealingJobEEEmmRSC_mbEUlvE0_EENS_7JobImplISC_EESM_, symObjAddr: 0x3BE8C, symBinAddr: 0x10003DBFC, symSize: 0x38 }
  - { offset: 0x1895D, size: 0x8, addend: 0x0, symName: __ZN6parlay12parallel_forIZNS_8sequenceINSt3__15tupleIJdlllEEENS_9allocatorIS4_EELb0EEC1IZNS_8internal12sample_sort_IjNS_16delayed_sequenceIS4_S4_Z19min_spanning_forestIldENS1_IlNS5_IlEELb0EEERKNS1_INS3_IJT_SF_T0_EEENS5_ISH_EEXsr3std7is_sameISH_cEE5valueEEElEUllE_E8iteratorEPS4_NS2_4lessIvEEEEvNS_5sliceISG_SG_EENSS_IT1_SU_EERKT2_bEUlmE_EEmOSF_NS7_18_from_function_tagEmEUlmE_EEvmmS10_lb, symObjAddr: 0x3C5D4, symBinAddr: 0x10003E344, symSize: 0x10C }
  - { offset: 0x189E2, size: 0x8, addend: 0x0, symName: __ZN6parlay8make_jobIZNS_19fork_join_scheduler7parfor_IZNS_8sequenceINSt3__15tupleIJdlllEEENS_9allocatorIS6_EELb0EEC1IZNS_8internal12sample_sort_IjNS_16delayed_sequenceIS6_S6_Z19min_spanning_forestIldENS3_IlNS7_IlEELb0EEERKNS3_INS5_IJT_SH_T0_EEENS7_ISJ_EEXsr3std7is_sameISJ_cEE5valueEEElEUllE_E8iteratorEPS6_NS4_4lessIvEEEEvNS_5sliceISI_SI_EENSU_IT1_SW_EERKT2_bEUlmE_EEmOSH_NS9_18_from_function_tagEmEUlmE_EEvRNS_9schedulerINS_15WorkStealingJobEEEmmRSH_mbEUlvE0_EENS_7JobImplISH_EES19_, symObjAddr: 0x3CDB8, symBinAddr: 0x10003EB28, symSize: 0x38 }
  - { offset: 0x18A17, size: 0x8, addend: 0x0, symName: __ZN6parlay7par_do3IRZNS_8internal9quicksortIPNSt3__15tupleIJdlllEEENS3_4lessIvEEEEvT_mRKT0_EUlvE_RZNS2_IS6_S8_EEvS9_mSC_EUlvE0_RZNS2_IS6_S8_EEvS9_mSC_EUlvE1_EEvOS9_OSA_OT1_, symObjAddr: 0x3D728, symBinAddr: 0x10003F498, symSize: 0x48 }
  - { offset: 0x18AB0, size: 0x8, addend: 0x0, symName: __ZN6parlay6par_doIRZNS_8internal9quicksortIPNSt3__15tupleIJdlllEEENS3_4lessIvEEEEvT_mRKT0_EUlvE_RZNS2_IS6_S8_EEvS9_mSC_EUlvE1_EEvOS9_OSA_b, symObjAddr: 0x3D770, symBinAddr: 0x10003F4E0, symSize: 0x44 }
  - { offset: 0x18B06, size: 0x8, addend: 0x0, symName: __ZN6parlay6par_doIRZNS_7par_do3IRZNS_8internal9quicksortIPNSt3__15tupleIJdlllEEENS4_4lessIvEEEEvT_mRKT0_EUlvE_RZNS3_IS7_S9_EEvSA_mSD_EUlvE0_RZNS3_IS7_S9_EEvSA_mSD_EUlvE1_EEvOSA_OSB_OT1_EUlvE_SJ_EEvSK_SL_b, symObjAddr: 0x3DB08, symBinAddr: 0x10003F878, symSize: 0x44 }
  - { offset: 0x18B5C, size: 0x8, addend: 0x0, symName: __ZN6parlay8make_jobIZNS_8internal9quicksortIPNSt3__15tupleIJdlllEEENS3_4lessIvEEEEvT_mRKT0_EUlvE1_EENS_7JobImplIS9_EERS9_, symObjAddr: 0x3DCB4, symBinAddr: 0x10003FA24, symSize: 0x38 }
  - { offset: 0x18B91, size: 0x8, addend: 0x0, symName: __ZN6parlay6par_doIRZNS_8internal9quicksortIPNSt3__15tupleIJdlllEEENS3_4lessIvEEEEvT_mRKT0_EUlvE_RZNS2_IS6_S8_EEvS9_mSC_EUlvE0_EEvOS9_OSA_b, symObjAddr: 0x3DF08, symBinAddr: 0x10003FC78, symSize: 0x44 }
  - { offset: 0x18BE7, size: 0x8, addend: 0x0, symName: __ZN6parlay8make_jobIZNS_8internal9quicksortIPNSt3__15tupleIJdlllEEENS3_4lessIvEEEEvT_mRKT0_EUlvE0_EENS_7JobImplIS9_EERS9_, symObjAddr: 0x3E0B4, symBinAddr: 0x10003FE24, symSize: 0x38 }
  - { offset: 0x18C1C, size: 0x8, addend: 0x0, symName: __ZN6parlay12parallel_forIZNS_8sequenceINSt3__15tupleIJdlllEEENS_9allocatorIS4_EELb0EEC1IZNS_8internal12sample_sort_IjNS_16delayed_sequenceIS4_S4_Z19min_spanning_forestIldENS1_IlNS5_IlEELb0EEERKNS1_INS3_IJT_SF_T0_EEENS5_ISH_EEXsr3std7is_sameISH_cEE5valueEEElEUllE_E8iteratorEPS4_NS2_4lessIvEEEEvNS_5sliceISG_SG_EENSS_IT1_SU_EERKT2_bEUlmE0_EEmOSF_NS7_18_from_function_tagEmEUlmE_EEvmmS10_lb, symObjAddr: 0x3EE50, symBinAddr: 0x100040BC0, symSize: 0x10C }
  - { offset: 0x18CA1, size: 0x8, addend: 0x0, symName: __ZN6parlay8make_jobIZNS_19fork_join_scheduler7parfor_IZNS_8sequenceINSt3__15tupleIJdlllEEENS_9allocatorIS6_EELb0EEC1IZNS_8internal12sample_sort_IjNS_16delayed_sequenceIS6_S6_Z19min_spanning_forestIldENS3_IlNS7_IlEELb0EEERKNS3_INS5_IJT_SH_T0_EEENS7_ISJ_EEXsr3std7is_sameISJ_cEE5valueEEElEUllE_E8iteratorEPS6_NS4_4lessIvEEEEvNS_5sliceISI_SI_EENSU_IT1_SW_EERKT2_bEUlmE0_EEmOSH_NS9_18_from_function_tagEmEUlmE_EEvRNS_9schedulerINS_15WorkStealingJobEEEmmRSH_mbEUlvE0_EENS_7JobImplISH_EES19_, symObjAddr: 0x3F584, symBinAddr: 0x1000412F4, symSize: 0x38 }
  - { offset: 0x18CD6, size: 0x8, addend: 0x0, symName: __ZN6parlay12parallel_forIRZNS_8internal10sliced_forIZNS1_12sample_sort_IjNS_16delayed_sequenceINSt3__15tupleIJdlllEEES7_Z19min_spanning_forestIldENS_8sequenceIlNS_9allocatorIlEELb0EEERKNS9_INS6_IJT_SD_T0_EEENSA_ISF_EEXsr3std7is_sameISF_cEE5valueEEElEUllE_E8iteratorEPS7_NS5_4lessIvEEEEvNS_5sliceISE_SE_EENSQ_IT1_SS_EERKT2_bEUlmmmE_EEvmmRKSD_jEUlmE_EEvmmOSD_lb, symObjAddr: 0x40620, symBinAddr: 0x100042390, symSize: 0x10C }
  - { offset: 0x18D5B, size: 0x8, addend: 0x0, symName: __ZN6parlay10make_sliceIRNS_8sequenceIjNS_9allocatorIjEELb0EEEEEDaOT_, symObjAddr: 0x40DC0, symBinAddr: 0x100042B30, symSize: 0x4C }
  - { offset: 0x18D90, size: 0x8, addend: 0x0, symName: __ZN6parlay10make_sliceINS_16delayed_sequenceINSt3__15tupleIJdlllEEES4_Z19min_spanning_forestIldENS_8sequenceIlNS_9allocatorIlEELb0EEERKNS6_INS3_IJT_SA_T0_EEENS7_ISC_EEXsr3std7is_sameISC_cEE5valueEEElEUllE_E8iteratorESJ_EEDaSA_SB_, symObjAddr: 0x40E60, symBinAddr: 0x100042BD0, symSize: 0x58 }
  - { offset: 0x18DDC, size: 0x8, addend: 0x0, symName: __ZN6parlay10make_sliceIPjS1_EEDaT_T0_, symObjAddr: 0x41064, symBinAddr: 0x100042DD4, symSize: 0x38 }
  - { offset: 0x18E28, size: 0x8, addend: 0x0, symName: __ZN6parlay8make_jobIZNS_19fork_join_scheduler7parfor_IZNS_8internal10sliced_forIZNS3_12sample_sort_IjNS_16delayed_sequenceINSt3__15tupleIJdlllEEES9_Z19min_spanning_forestIldENS_8sequenceIlNS_9allocatorIlEELb0EEERKNSB_INS8_IJT_SF_T0_EEENSC_ISH_EEXsr3std7is_sameISH_cEE5valueEEElEUllE_E8iteratorEPS9_NS7_4lessIvEEEEvNS_5sliceISG_SG_EENSS_IT1_SU_EERKT2_bEUlmmmE_EEvmmRKSF_jEUlmE_EEvRNS_9schedulerINS_15WorkStealingJobEEEmmRSF_mbEUlvE0_EENS_7JobImplISF_EES17_, symObjAddr: 0x41620, symBinAddr: 0x100043390, symSize: 0x38 }
  - { offset: 0x18E5D, size: 0x8, addend: 0x0, symName: __ZN6parlay12parallel_forIRZNS_8internal17transpose_bucketsINS_26uninitialized_relocate_tagEPNSt3__15tupleIJdlllEEES7_jEENS_8sequenceImNS_9allocatorImEELb0EEET0_T1_RNS8_IT2_NS9_ISE_EEXsr3std7is_sameISE_cEE5valueEEEmmmmEUlmE0_EEvmmOT_lb, symObjAddr: 0x41C80, symBinAddr: 0x1000439F0, symSize: 0x10C }
  - { offset: 0x18EE2, size: 0x8, addend: 0x0, symName: __ZN6parlay12parallel_forIZNS_8sequenceIjNS_9allocatorIjEELb0EEC1IRZNS_8internal17transpose_bucketsINS_26uninitialized_relocate_tagEPNSt3__15tupleIJdlllEEESC_jEENS1_ImNS2_ImEELb0EEET0_T1_RNS1_IT2_NS2_ISH_EEXsr3std7is_sameISH_cEE5valueEEEmmmmEUlmE_EEmOT_NS4_18_from_function_tagEmEUlmE_EEvmmSO_lb, symObjAddr: 0x42038, symBinAddr: 0x100043DA8, symSize: 0x10C }
  - { offset: 0x18F67, size: 0x8, addend: 0x0, symName: __ZN6parlay8make_jobIZNS_19fork_join_scheduler7parfor_IZNS_8sequenceIjNS_9allocatorIjEELb0EEC1IRZNS_8internal17transpose_bucketsINS_26uninitialized_relocate_tagEPNSt3__15tupleIJdlllEEESE_jEENS3_ImNS4_ImEELb0EEET0_T1_RNS3_IT2_NS4_ISJ_EEXsr3std7is_sameISJ_cEE5valueEEEmmmmEUlmE_EEmOT_NS6_18_from_function_tagEmEUlmE_EEvRNS_9schedulerINS_15WorkStealingJobEEEmmRSP_mbEUlvE0_EENS_7JobImplISP_EESX_, symObjAddr: 0x4277C, symBinAddr: 0x1000444EC, symSize: 0x38 }
  - { offset: 0x18FF1, size: 0x8, addend: 0x0, symName: __ZN6parlay12parallel_forIRZNS_8internal10sliced_forIZNS1_5scan_INS_5sliceIPjS5_EES6_RNS_4plusIjEEEEDaRKT_T0_OT1_jbEUlmmmE_EEvmmSD_jEUlmE_EEvmmOSB_lb, symObjAddr: 0x434BC, symBinAddr: 0x10004522C, symSize: 0x10C }
  - { offset: 0x190A2, size: 0x8, addend: 0x0, symName: __ZN6parlay10make_sliceIRKNS_5sliceIPjS2_EEEEDaOT_, symObjAddr: 0x438BC, symBinAddr: 0x10004562C, symSize: 0x4C }
  - { offset: 0x190D7, size: 0x8, addend: 0x0, symName: __ZN6parlay8make_jobIZNS_19fork_join_scheduler7parfor_IZNS_8internal10sliced_forIZNS3_5scan_INS_5sliceIPjS7_EES8_RNS_4plusIjEEEEDaRKT_T0_OT1_jbEUlmmmE_EEvmmSF_jEUlmE_EEvRNS_9schedulerINS_15WorkStealingJobEEEmmRSD_mbEUlvE0_EENS_7JobImplISD_EESP_, symObjAddr: 0x43D6C, symBinAddr: 0x100045ADC, symSize: 0x38 }
  - { offset: 0x1910C, size: 0x8, addend: 0x0, symName: __ZN6parlay12parallel_forIRZNS_8internal10sliced_forIZNS1_5scan_INS_5sliceIPjS5_EES6_RNS_4plusIjEEEEDaRKT_T0_OT1_jbEUlmmmE0_EEvmmSD_jEUlmE_EEvmmOSB_lb, symObjAddr: 0x443F0, symBinAddr: 0x100046160, symSize: 0x10C }
  - { offset: 0x19191, size: 0x8, addend: 0x0, symName: __ZN6parlay10make_sliceIRNS_5sliceIPjS2_EEEEDaOT_, symObjAddr: 0x44754, symBinAddr: 0x1000464C4, symSize: 0x4C }
  - { offset: 0x191C6, size: 0x8, addend: 0x0, symName: __ZN6parlay8make_jobIZNS_19fork_join_scheduler7parfor_IZNS_8internal10sliced_forIZNS3_5scan_INS_5sliceIPjS7_EES8_RNS_4plusIjEEEEDaRKT_T0_OT1_jbEUlmmmE0_EEvmmSF_jEUlmE_EEvRNS_9schedulerINS_15WorkStealingJobEEEmmRSD_mbEUlvE0_EENS_7JobImplISD_EESP_, symObjAddr: 0x44C04, symBinAddr: 0x100046974, symSize: 0x38 }
  - { offset: 0x191FB, size: 0x8, addend: 0x0, symName: __ZN6parlay8make_jobIZNS_19fork_join_scheduler7parfor_IZNS_8internal17transpose_bucketsINS_26uninitialized_relocate_tagEPNSt3__15tupleIJdlllEEES9_jEENS_8sequenceImNS_9allocatorImEELb0EEET0_T1_RNSA_IT2_NSB_ISG_EEXsr3std7is_sameISG_cEE5valueEEEmmmmEUlmE0_EEvRNS_9schedulerINS_15WorkStealingJobEEEmmRT_mbEUlvE0_EENS_7JobImplISP_EESQ_, symObjAddr: 0x45788, symBinAddr: 0x1000474F8, symSize: 0x38 }
  - { offset: 0x19230, size: 0x8, addend: 0x0, symName: __ZN6parlay15assign_dispatchIjEEvRT_RKNS_13type_identityIS1_E4typeENS_22uninitialized_copy_tagE, symObjAddr: 0x45F84, symBinAddr: 0x100047CF4, symSize: 0x34 }
  - { offset: 0x192A3, size: 0x8, addend: 0x0, symName: __ZN6parlay6par_doIRZNS_8internal9transposeINS_22uninitialized_copy_tagEPjS4_E6transREmmmmmmEUlvE_RZNS5_6transREmmmmmmEUlvE0_EEvOT_OT0_b, symObjAddr: 0x45FD4, symBinAddr: 0x100047D44, symSize: 0x44 }
  - { offset: 0x192F9, size: 0x8, addend: 0x0, symName: __ZN6parlay6par_doIRZNS_8internal9transposeINS_22uninitialized_copy_tagEPjS4_E6transREmmmmmmEUlvE1_RZNS5_6transREmmmmmmEUlvE2_EEvOT_OT0_b, symObjAddr: 0x46018, symBinAddr: 0x100047D88, symSize: 0x44 }
  - { offset: 0x1934F, size: 0x8, addend: 0x0, symName: __ZN6parlay8make_jobIZNS_8internal9transposeINS_22uninitialized_copy_tagEPjS4_E6transREmmmmmmEUlvE0_EENS_7JobImplIT_EERS8_, symObjAddr: 0x461C4, symBinAddr: 0x100047F34, symSize: 0x38 }
  - { offset: 0x19384, size: 0x8, addend: 0x0, symName: __ZN6parlay8make_jobIZNS_8internal9transposeINS_22uninitialized_copy_tagEPjS4_E6transREmmmmmmEUlvE2_EENS_7JobImplIT_EERS8_, symObjAddr: 0x46880, symBinAddr: 0x1000485F0, symSize: 0x38 }
  - { offset: 0x193B9, size: 0x8, addend: 0x0, symName: __ZN6parlay12parallel_forIZNS_8internal10blockTransINS_26uninitialized_relocate_tagEPNSt3__15tupleIJdlllEEES7_PjS8_E6transREmmmmmmEUlmE_EEvmmOT_lb, symObjAddr: 0x47038, symBinAddr: 0x100048DA8, symSize: 0x10C }
  - { offset: 0x1943E, size: 0x8, addend: 0x0, symName: __ZN6parlay6par_doIRZNS_8internal10blockTransINS_26uninitialized_relocate_tagEPNSt3__15tupleIJdlllEEES7_PjS8_E6transREmmmmmmEUlvE_RZNS9_6transREmmmmmmEUlvE0_EEvOT_OT0_b, symObjAddr: 0x47144, symBinAddr: 0x100048EB4, symSize: 0x44 }
  - { offset: 0x19494, size: 0x8, addend: 0x0, symName: __ZN6parlay6par_doIRZNS_8internal10blockTransINS_26uninitialized_relocate_tagEPNSt3__15tupleIJdlllEEES7_PjS8_E6transREmmmmmmEUlvE1_RZNS9_6transREmmmmmmEUlvE2_EEvOT_OT0_b, symObjAddr: 0x47188, symBinAddr: 0x100048EF8, symSize: 0x44 }
  - { offset: 0x194EA, size: 0x8, addend: 0x0, symName: __ZN6parlay8make_jobIZNS_19fork_join_scheduler7parfor_IZNS_8internal10blockTransINS_26uninitialized_relocate_tagEPNSt3__15tupleIJdlllEEES9_PjSA_E6transREmmmmmmEUlmE_EEvRNS_9schedulerINS_15WorkStealingJobEEEmmRT_mbEUlvE0_EENS_7JobImplISH_EESI_, symObjAddr: 0x47840, symBinAddr: 0x1000495B0, symSize: 0x38 }
  - { offset: 0x1951F, size: 0x8, addend: 0x0, symName: __ZN6parlay8make_jobIZNS_8internal10blockTransINS_26uninitialized_relocate_tagEPNSt3__15tupleIJdlllEEES7_PjS8_E6transREmmmmmmEUlvE0_EENS_7JobImplIT_EERSC_, symObjAddr: 0x47EE0, symBinAddr: 0x100049C50, symSize: 0x38 }
  - { offset: 0x19554, size: 0x8, addend: 0x0, symName: __ZN6parlay8make_jobIZNS_8internal10blockTransINS_26uninitialized_relocate_tagEPNSt3__15tupleIJdlllEEES7_PjS8_E6transREmmmmmmEUlvE2_EENS_7JobImplIT_EERSC_, symObjAddr: 0x4859C, symBinAddr: 0x10004A30C, symSize: 0x38 }
  - { offset: 0x19589, size: 0x8, addend: 0x0, symName: __ZN6parlay12parallel_forIZNS_8sequenceImNS_9allocatorImEELb0EEC1IZNS_8internal17transpose_bucketsINS_26uninitialized_relocate_tagEPNSt3__15tupleIJdlllEEESC_jEES4_T0_T1_RNS1_IT2_NS2_ISF_EEXsr3std7is_sameISF_cEE5valueEEEmmmmEUlmE1_EEmOT_NS4_18_from_function_tagEmEUlmE_EEvmmSL_lb, symObjAddr: 0x48C00, symBinAddr: 0x10004A970, symSize: 0x10C }
  - { offset: 0x1960E, size: 0x8, addend: 0x0, symName: __ZN6parlay8make_jobIZNS_19fork_join_scheduler7parfor_IZNS_8sequenceImNS_9allocatorImEELb0EEC1IZNS_8internal17transpose_bucketsINS_26uninitialized_relocate_tagEPNSt3__15tupleIJdlllEEESE_jEES6_T0_T1_RNS3_IT2_NS4_ISH_EEXsr3std7is_sameISH_cEE5valueEEEmmmmEUlmE1_EEmOT_NS6_18_from_function_tagEmEUlmE_EEvRNS_9schedulerINS_15WorkStealingJobEEEmmRSM_mbEUlvE0_EENS_7JobImplISM_EESU_, symObjAddr: 0x4930C, symBinAddr: 0x10004B07C, symSize: 0x38 }
  - { offset: 0x19643, size: 0x8, addend: 0x0, symName: __ZN6parlay8make_jobIZNS_19fork_join_scheduler7parfor_IZNS_8internal12sample_sort_IjNS_16delayed_sequenceINSt3__15tupleIJdlllEEES8_Z19min_spanning_forestIldENS_8sequenceIlNS_9allocatorIlEELb0EEERKNSA_INS7_IJT_SE_T0_EEENSB_ISG_EEXsr3std7is_sameISG_cEE5valueEEElEUllE_E8iteratorEPS8_NS6_4lessIvEEEEvNS_5sliceISF_SF_EENSR_IT1_ST_EERKT2_bEUlmE1_EEvRNS_9schedulerINS_15WorkStealingJobEEEmmRSE_mbEUlvE0_EENS_7JobImplISE_EES13_, symObjAddr: 0x49E6C, symBinAddr: 0x10004BBDC, symSize: 0x38 }
  - { offset: 0x19678, size: 0x8, addend: 0x0, symName: __ZN6parlay12parallel_forIZNS_8internal12sample_sort_ImNS_16delayed_sequenceINSt3__15tupleIJdlllEEES6_Z19min_spanning_forestIldENS_8sequenceIlNS_9allocatorIlEELb0EEERKNS8_INS5_IJT_SC_T0_EEENS9_ISE_EEXsr3std7is_sameISE_cEE5valueEEElEUllE_E8iteratorEPS6_NS4_4lessIvEEEEvNS_5sliceISD_SD_EENSP_IT1_SR_EERKT2_bEUlmE1_EEvmmOSC_lb, symObjAddr: 0x4AC1C, symBinAddr: 0x10004C98C, symSize: 0x10C }
  - { offset: 0x196FD, size: 0x8, addend: 0x0, symName: __ZN6parlay12parallel_forIZNS_8sequenceINSt3__15tupleIJdlllEEENS_9allocatorIS4_EELb0EEC1IZNS_8internal12sample_sort_ImNS_16delayed_sequenceIS4_S4_Z19min_spanning_forestIldENS1_IlNS5_IlEELb0EEERKNS1_INS3_IJT_SF_T0_EEENS5_ISH_EEXsr3std7is_sameISH_cEE5valueEEElEUllE_E8iteratorEPS4_NS2_4lessIvEEEEvNS_5sliceISG_SG_EENSS_IT1_SU_EERKT2_bEUlmE_EEmOSF_NS7_18_from_function_tagEmEUlmE_EEvmmS10_lb, symObjAddr: 0x4AE38, symBinAddr: 0x10004CBA8, symSize: 0x10C }
  - { offset: 0x19782, size: 0x8, addend: 0x0, symName: __ZN6parlay8make_jobIZNS_19fork_join_scheduler7parfor_IZNS_8sequenceINSt3__15tupleIJdlllEEENS_9allocatorIS6_EELb0EEC1IZNS_8internal12sample_sort_ImNS_16delayed_sequenceIS6_S6_Z19min_spanning_forestIldENS3_IlNS7_IlEELb0EEERKNS3_INS5_IJT_SH_T0_EEENS7_ISJ_EEXsr3std7is_sameISJ_cEE5valueEEElEUllE_E8iteratorEPS6_NS4_4lessIvEEEEvNS_5sliceISI_SI_EENSU_IT1_SW_EERKT2_bEUlmE_EEmOSH_NS9_18_from_function_tagEmEUlmE_EEvRNS_9schedulerINS_15WorkStealingJobEEEmmRSH_mbEUlvE0_EENS_7JobImplISH_EES19_, symObjAddr: 0x4B524, symBinAddr: 0x10004D294, symSize: 0x38 }
  - { offset: 0x197B7, size: 0x8, addend: 0x0, symName: __ZN6parlay12parallel_forIZNS_8sequenceINSt3__15tupleIJdlllEEENS_9allocatorIS4_EELb0EEC1IZNS_8internal12sample_sort_ImNS_16delayed_sequenceIS4_S4_Z19min_spanning_forestIldENS1_IlNS5_IlEELb0EEERKNS1_INS3_IJT_SF_T0_EEENS5_ISH_EEXsr3std7is_sameISH_cEE5valueEEElEUllE_E8iteratorEPS4_NS2_4lessIvEEEEvNS_5sliceISG_SG_EENSS_IT1_SU_EERKT2_bEUlmE0_EEmOSF_NS7_18_from_function_tagEmEUlmE_EEvmmS10_lb, symObjAddr: 0x4BB6C, symBinAddr: 0x10004D8DC, symSize: 0x10C }
  - { offset: 0x1983C, size: 0x8, addend: 0x0, symName: __ZN6parlay8make_jobIZNS_19fork_join_scheduler7parfor_IZNS_8sequenceINSt3__15tupleIJdlllEEENS_9allocatorIS6_EELb0EEC1IZNS_8internal12sample_sort_ImNS_16delayed_sequenceIS6_S6_Z19min_spanning_forestIldENS3_IlNS7_IlEELb0EEERKNS3_INS5_IJT_SH_T0_EEENS7_ISJ_EEXsr3std7is_sameISJ_cEE5valueEEElEUllE_E8iteratorEPS6_NS4_4lessIvEEEEvNS_5sliceISI_SI_EENSU_IT1_SW_EERKT2_bEUlmE0_EEmOSH_NS9_18_from_function_tagEmEUlmE_EEvRNS_9schedulerINS_15WorkStealingJobEEEmmRSH_mbEUlvE0_EENS_7JobImplISH_EES19_, symObjAddr: 0x4C244, symBinAddr: 0x10004DFB4, symSize: 0x38 }
  - { offset: 0x19871, size: 0x8, addend: 0x0, symName: __ZN6parlay12parallel_forIRZNS_8internal10sliced_forIZNS1_12sample_sort_ImNS_16delayed_sequenceINSt3__15tupleIJdlllEEES7_Z19min_spanning_forestIldENS_8sequenceIlNS_9allocatorIlEELb0EEERKNS9_INS6_IJT_SD_T0_EEENSA_ISF_EEXsr3std7is_sameISF_cEE5valueEEElEUllE_E8iteratorEPS7_NS5_4lessIvEEEEvNS_5sliceISE_SE_EENSQ_IT1_SS_EERKT2_bEUlmmmE_EEvmmRKSD_jEUlmE_EEvmmOSD_lb, symObjAddr: 0x4C77C, symBinAddr: 0x10004E4EC, symSize: 0x10C }
  - { offset: 0x198F6, size: 0x8, addend: 0x0, symName: __ZN6parlay10make_sliceIRNS_8sequenceImNS_9allocatorImEELb0EEEEEDaOT_, symObjAddr: 0x4CEAC, symBinAddr: 0x10004EC1C, symSize: 0x4C }
  - { offset: 0x1992B, size: 0x8, addend: 0x0, symName: __ZN6parlay10make_sliceIPmS1_EEDaT_T0_, symObjAddr: 0x4CF7C, symBinAddr: 0x10004ECEC, symSize: 0x38 }
  - { offset: 0x19977, size: 0x8, addend: 0x0, symName: __ZN6parlay8make_jobIZNS_19fork_join_scheduler7parfor_IZNS_8internal10sliced_forIZNS3_12sample_sort_ImNS_16delayed_sequenceINSt3__15tupleIJdlllEEES9_Z19min_spanning_forestIldENS_8sequenceIlNS_9allocatorIlEELb0EEERKNSB_INS8_IJT_SF_T0_EEENSC_ISH_EEXsr3std7is_sameISH_cEE5valueEEElEUllE_E8iteratorEPS9_NS7_4lessIvEEEEvNS_5sliceISG_SG_EENSS_IT1_SU_EERKT2_bEUlmmmE_EEvmmRKSF_jEUlmE_EEvRNS_9schedulerINS_15WorkStealingJobEEEmmRSF_mbEUlvE0_EENS_7JobImplISF_EES17_, symObjAddr: 0x4D514, symBinAddr: 0x10004F284, symSize: 0x38 }
  - { offset: 0x199AC, size: 0x8, addend: 0x0, symName: __ZN6parlay12parallel_forIRZNS_8internal17transpose_bucketsINS_26uninitialized_relocate_tagEPNSt3__15tupleIJdlllEEES7_mEENS_8sequenceImNS_9allocatorImEELb0EEET0_T1_RNS8_IT2_NS9_ISE_EEXsr3std7is_sameISE_cEE5valueEEEmmmmEUlmE0_EEvmmOT_lb, symObjAddr: 0x4DB74, symBinAddr: 0x10004F8E4, symSize: 0x10C }
  - { offset: 0x19A31, size: 0x8, addend: 0x0, symName: __ZN6parlay12parallel_forIZNS_8sequenceImNS_9allocatorImEELb0EEC1IRZNS_8internal17transpose_bucketsINS_26uninitialized_relocate_tagEPNSt3__15tupleIJdlllEEESC_mEES4_T0_T1_RNS1_IT2_NS2_ISF_EEXsr3std7is_sameISF_cEE5valueEEEmmmmEUlmE_EEmOT_NS4_18_from_function_tagEmEUlmE_EEvmmSM_lb, symObjAddr: 0x4DF2C, symBinAddr: 0x10004FC9C, symSize: 0x10C }
  - { offset: 0x19AB6, size: 0x8, addend: 0x0, symName: __ZN6parlay8make_jobIZNS_19fork_join_scheduler7parfor_IZNS_8sequenceImNS_9allocatorImEELb0EEC1IRZNS_8internal17transpose_bucketsINS_26uninitialized_relocate_tagEPNSt3__15tupleIJdlllEEESE_mEES6_T0_T1_RNS3_IT2_NS4_ISH_EEXsr3std7is_sameISH_cEE5valueEEEmmmmEUlmE_EEmOT_NS6_18_from_function_tagEmEUlmE_EEvRNS_9schedulerINS_15WorkStealingJobEEEmmRSN_mbEUlvE0_EENS_7JobImplISN_EESV_, symObjAddr: 0x4E614, symBinAddr: 0x100050384, symSize: 0x38 }
  - { offset: 0x19B40, size: 0x8, addend: 0x0, symName: __ZN6parlay12parallel_forIRZNS_8internal10sliced_forIZNS1_5scan_INS_5sliceIPmS5_EES6_RNS_4plusImEEEEDaRKT_T0_OT1_jbEUlmmmE_EEvmmSD_jEUlmE_EEvmmOSB_lb, symObjAddr: 0x4F354, symBinAddr: 0x1000510C4, symSize: 0x10C }
  - { offset: 0x19BF1, size: 0x8, addend: 0x0, symName: __ZN6parlay10make_sliceIRKNS_5sliceIPmS2_EEEEDaOT_, symObjAddr: 0x4F754, symBinAddr: 0x1000514C4, symSize: 0x4C }
  - { offset: 0x19C26, size: 0x8, addend: 0x0, symName: __ZN6parlay8make_jobIZNS_19fork_join_scheduler7parfor_IZNS_8internal10sliced_forIZNS3_5scan_INS_5sliceIPmS7_EES8_RNS_4plusImEEEEDaRKT_T0_OT1_jbEUlmmmE_EEvmmSF_jEUlmE_EEvRNS_9schedulerINS_15WorkStealingJobEEEmmRSD_mbEUlvE0_EENS_7JobImplISD_EESP_, symObjAddr: 0x4FC04, symBinAddr: 0x100051974, symSize: 0x38 }
  - { offset: 0x19C5B, size: 0x8, addend: 0x0, symName: __ZN6parlay12parallel_forIRZNS_8internal10sliced_forIZNS1_5scan_INS_5sliceIPmS5_EES6_RNS_4plusImEEEEDaRKT_T0_OT1_jbEUlmmmE0_EEvmmSD_jEUlmE_EEvmmOSB_lb, symObjAddr: 0x50288, symBinAddr: 0x100051FF8, symSize: 0x10C }
  - { offset: 0x19CE0, size: 0x8, addend: 0x0, symName: __ZN6parlay10make_sliceIRNS_5sliceIPmS2_EEEEDaOT_, symObjAddr: 0x505EC, symBinAddr: 0x10005235C, symSize: 0x4C }
  - { offset: 0x19D15, size: 0x8, addend: 0x0, symName: __ZN6parlay8make_jobIZNS_19fork_join_scheduler7parfor_IZNS_8internal10sliced_forIZNS3_5scan_INS_5sliceIPmS7_EES8_RNS_4plusImEEEEDaRKT_T0_OT1_jbEUlmmmE0_EEvmmSF_jEUlmE_EEvRNS_9schedulerINS_15WorkStealingJobEEEmmRSD_mbEUlvE0_EENS_7JobImplISD_EESP_, symObjAddr: 0x50A9C, symBinAddr: 0x10005280C, symSize: 0x38 }
  - { offset: 0x19D4A, size: 0x8, addend: 0x0, symName: __ZN6parlay8make_jobIZNS_19fork_join_scheduler7parfor_IZNS_8internal17transpose_bucketsINS_26uninitialized_relocate_tagEPNSt3__15tupleIJdlllEEES9_mEENS_8sequenceImNS_9allocatorImEELb0EEET0_T1_RNSA_IT2_NSB_ISG_EEXsr3std7is_sameISG_cEE5valueEEEmmmmEUlmE0_EEvRNS_9schedulerINS_15WorkStealingJobEEEmmRT_mbEUlvE0_EENS_7JobImplISP_EESQ_, symObjAddr: 0x51620, symBinAddr: 0x100053390, symSize: 0x38 }
  - { offset: 0x19D7F, size: 0x8, addend: 0x0, symName: __ZN6parlay15assign_dispatchImEEvRT_RKNS_13type_identityIS1_E4typeENS_22uninitialized_copy_tagE, symObjAddr: 0x51E1C, symBinAddr: 0x100053B8C, symSize: 0x34 }
  - { offset: 0x19DF2, size: 0x8, addend: 0x0, symName: __ZN6parlay6par_doIRZNS_8internal9transposeINS_22uninitialized_copy_tagEPmS4_E6transREmmmmmmEUlvE_RZNS5_6transREmmmmmmEUlvE0_EEvOT_OT0_b, symObjAddr: 0x51E50, symBinAddr: 0x100053BC0, symSize: 0x44 }
  - { offset: 0x19E48, size: 0x8, addend: 0x0, symName: __ZN6parlay6par_doIRZNS_8internal9transposeINS_22uninitialized_copy_tagEPmS4_E6transREmmmmmmEUlvE1_RZNS5_6transREmmmmmmEUlvE2_EEvOT_OT0_b, symObjAddr: 0x51E94, symBinAddr: 0x100053C04, symSize: 0x44 }
  - { offset: 0x19E9E, size: 0x8, addend: 0x0, symName: __ZN6parlay8make_jobIZNS_8internal9transposeINS_22uninitialized_copy_tagEPmS4_E6transREmmmmmmEUlvE0_EENS_7JobImplIT_EERS8_, symObjAddr: 0x52040, symBinAddr: 0x100053DB0, symSize: 0x38 }
  - { offset: 0x19ED3, size: 0x8, addend: 0x0, symName: __ZN6parlay8make_jobIZNS_8internal9transposeINS_22uninitialized_copy_tagEPmS4_E6transREmmmmmmEUlvE2_EENS_7JobImplIT_EERS8_, symObjAddr: 0x526FC, symBinAddr: 0x10005446C, symSize: 0x38 }
  - { offset: 0x19F08, size: 0x8, addend: 0x0, symName: __ZN6parlay12parallel_forIZNS_8internal10blockTransINS_26uninitialized_relocate_tagEPNSt3__15tupleIJdlllEEES7_PmS8_E6transREmmmmmmEUlmE_EEvmmOT_lb, symObjAddr: 0x52EB4, symBinAddr: 0x100054C24, symSize: 0x10C }
  - { offset: 0x19F8D, size: 0x8, addend: 0x0, symName: __ZN6parlay6par_doIRZNS_8internal10blockTransINS_26uninitialized_relocate_tagEPNSt3__15tupleIJdlllEEES7_PmS8_E6transREmmmmmmEUlvE_RZNS9_6transREmmmmmmEUlvE0_EEvOT_OT0_b, symObjAddr: 0x52FC0, symBinAddr: 0x100054D30, symSize: 0x44 }
  - { offset: 0x19FE3, size: 0x8, addend: 0x0, symName: __ZN6parlay6par_doIRZNS_8internal10blockTransINS_26uninitialized_relocate_tagEPNSt3__15tupleIJdlllEEES7_PmS8_E6transREmmmmmmEUlvE1_RZNS9_6transREmmmmmmEUlvE2_EEvOT_OT0_b, symObjAddr: 0x53004, symBinAddr: 0x100054D74, symSize: 0x44 }
  - { offset: 0x1A039, size: 0x8, addend: 0x0, symName: __ZN6parlay8make_jobIZNS_19fork_join_scheduler7parfor_IZNS_8internal10blockTransINS_26uninitialized_relocate_tagEPNSt3__15tupleIJdlllEEES9_PmSA_E6transREmmmmmmEUlmE_EEvRNS_9schedulerINS_15WorkStealingJobEEEmmRT_mbEUlvE0_EENS_7JobImplISH_EESI_, symObjAddr: 0x536BC, symBinAddr: 0x10005542C, symSize: 0x38 }
  - { offset: 0x1A06E, size: 0x8, addend: 0x0, symName: __ZN6parlay8make_jobIZNS_8internal10blockTransINS_26uninitialized_relocate_tagEPNSt3__15tupleIJdlllEEES7_PmS8_E6transREmmmmmmEUlvE0_EENS_7JobImplIT_EERSC_, symObjAddr: 0x53D5C, symBinAddr: 0x100055ACC, symSize: 0x38 }
  - { offset: 0x1A0A3, size: 0x8, addend: 0x0, symName: __ZN6parlay8make_jobIZNS_8internal10blockTransINS_26uninitialized_relocate_tagEPNSt3__15tupleIJdlllEEES7_PmS8_E6transREmmmmmmEUlvE2_EENS_7JobImplIT_EERSC_, symObjAddr: 0x54418, symBinAddr: 0x100056188, symSize: 0x38 }
  - { offset: 0x1A0D8, size: 0x8, addend: 0x0, symName: __ZN6parlay12parallel_forIZNS_8sequenceImNS_9allocatorImEELb0EEC1IZNS_8internal17transpose_bucketsINS_26uninitialized_relocate_tagEPNSt3__15tupleIJdlllEEESC_mEES4_T0_T1_RNS1_IT2_NS2_ISF_EEXsr3std7is_sameISF_cEE5valueEEEmmmmEUlmE1_EEmOT_NS4_18_from_function_tagEmEUlmE_EEvmmSL_lb, symObjAddr: 0x54A7C, symBinAddr: 0x1000567EC, symSize: 0x10C }
  - { offset: 0x1A15D, size: 0x8, addend: 0x0, symName: __ZN6parlay8make_jobIZNS_19fork_join_scheduler7parfor_IZNS_8sequenceImNS_9allocatorImEELb0EEC1IZNS_8internal17transpose_bucketsINS_26uninitialized_relocate_tagEPNSt3__15tupleIJdlllEEESE_mEES6_T0_T1_RNS3_IT2_NS4_ISH_EEXsr3std7is_sameISH_cEE5valueEEEmmmmEUlmE1_EEmOT_NS6_18_from_function_tagEmEUlmE_EEvRNS_9schedulerINS_15WorkStealingJobEEEmmRSM_mbEUlvE0_EENS_7JobImplISM_EESU_, symObjAddr: 0x55188, symBinAddr: 0x100056EF8, symSize: 0x38 }
  - { offset: 0x1A192, size: 0x8, addend: 0x0, symName: __ZN6parlay8make_jobIZNS_19fork_join_scheduler7parfor_IZNS_8internal12sample_sort_ImNS_16delayed_sequenceINSt3__15tupleIJdlllEEES8_Z19min_spanning_forestIldENS_8sequenceIlNS_9allocatorIlEELb0EEERKNSA_INS7_IJT_SE_T0_EEENSB_ISG_EEXsr3std7is_sameISG_cEE5valueEEElEUllE_E8iteratorEPS8_NS6_4lessIvEEEEvNS_5sliceISF_SF_EENSR_IT1_ST_EERKT2_bEUlmE1_EEvRNS_9schedulerINS_15WorkStealingJobEEEmmRSE_mbEUlvE0_EENS_7JobImplISE_EES13_, symObjAddr: 0x55CE8, symBinAddr: 0x100057A58, symSize: 0x38 }
  - { offset: 0x1A1C7, size: 0x8, addend: 0x0, symName: __ZN6parlay4packIRNS_8sequenceIlNS_9allocatorIlEELb0EEERNS_16delayed_sequenceIbbZNS_8internal11delayed_mapIRNS1_I6statusNS2_IS9_EELb0EEEZ15speculative_forIlZ19min_spanning_forestIldES4_RKNS1_INSt3__15tupleIJT_SH_T0_EEENS2_ISJ_EEXsr3std7is_sameISJ_cEE5valueEEElEUllE0_ZSE_IldES4_SN_lEUllE1_EvSH_SH_SI_T1_lEUlS9_E_Li0EEEDaOSH_SI_EUlmE_EEEESS_ST_OSI_, symObjAddr: 0x5657C, symBinAddr: 0x1000582EC, symSize: 0x64 }
  - { offset: 0x1A213, size: 0x8, addend: 0x0, symName: __ZN6parlay12parallel_forIZNS_8sequenceI6statusNS_9allocatorIS2_EELb0EEC1IZ15speculative_forIlZ19min_spanning_forestIldENS1_IlNS3_IlEELb0EEERKNS1_INSt3__15tupleIJT_SD_T0_EEENS3_ISF_EEXsr3std7is_sameISF_cEE5valueEEElEUllE0_ZS8_IldESA_SJ_lEUllE1_EvSD_SD_SE_T1_lEUllE_EEmOSD_NS5_18_from_function_tagEmEUlmE_EEvmmSO_lb, symObjAddr: 0x56B64, symBinAddr: 0x1000588D4, symSize: 0x10C }
  - { offset: 0x1A298, size: 0x8, addend: 0x0, symName: __ZN6parlay9write_minIlNSt3__14lessIlEEEEbPNS1_6atomicIT_EES5_T0_, symObjAddr: 0x57CAC, symBinAddr: 0x100059A1C, symSize: 0x98 }
  - { offset: 0x1A30E, size: 0x8, addend: 0x0, symName: __ZN6parlay8make_jobIZNS_19fork_join_scheduler7parfor_IZNS_8sequenceI6statusNS_9allocatorIS4_EELb0EEC1IZ15speculative_forIlZ19min_spanning_forestIldENS3_IlNS5_IlEELb0EEERKNS3_INSt3__15tupleIJT_SF_T0_EEENS5_ISH_EEXsr3std7is_sameISH_cEE5valueEEElEUllE0_ZSA_IldESC_SL_lEUllE1_EvSF_SF_SG_T1_lEUllE_EEmOSF_NS7_18_from_function_tagEmEUlmE_EEvRNS_9schedulerINS_15WorkStealingJobEEEmmRSF_mbEUlvE0_EENS_7JobImplISF_EESX_, symObjAddr: 0x58868, symBinAddr: 0x10005A5D8, symSize: 0x38 }
  - { offset: 0x1A343, size: 0x8, addend: 0x0, symName: __ZN6parlay12parallel_forIZNS_8sequenceIlNS_9allocatorIlEELb0EEC1IZ15speculative_forIlZ19min_spanning_forestIldES4_RKNS1_INSt3__15tupleIJT_SA_T0_EEENS2_ISC_EEXsr3std7is_sameISC_cEE5valueEEElEUllE0_ZS7_IldES4_SG_lEUllE1_EvSA_SA_SB_T1_lEUllE0_EEmOSA_NS4_18_from_function_tagEmEUlmE_EEvmmSL_lb, symObjAddr: 0x59014, symBinAddr: 0x10005AD84, symSize: 0x10C }
  - { offset: 0x1A3C8, size: 0x8, addend: 0x0, symName: __ZN6parlay8make_jobIZNS_19fork_join_scheduler7parfor_IZNS_8sequenceIlNS_9allocatorIlEELb0EEC1IZ15speculative_forIlZ19min_spanning_forestIldES6_RKNS3_INSt3__15tupleIJT_SC_T0_EEENS4_ISE_EEXsr3std7is_sameISE_cEE5valueEEElEUllE0_ZS9_IldES6_SI_lEUllE1_EvSC_SC_SD_T1_lEUllE0_EEmOSC_NS6_18_from_function_tagEmEUlmE_EEvRNS_9schedulerINS_15WorkStealingJobEEEmmRSC_mbEUlvE0_EENS_7JobImplISC_EESU_, symObjAddr: 0x59E74, symBinAddr: 0x10005BBE4, symSize: 0x38 }
  - { offset: 0x1A3FD, size: 0x8, addend: 0x0, symName: __ZN6parlay10make_sliceIRNS_8sequenceIlNS_9allocatorIlEELb0EEEEEDaOT_, symObjAddr: 0x5A7BC, symBinAddr: 0x10005C52C, symSize: 0x4C }
  - { offset: 0x1A432, size: 0x8, addend: 0x0, symName: __ZN6parlay10make_sliceIRNS_16delayed_sequenceIbbZNS_8internal11delayed_mapIRNS_8sequenceI6statusNS_9allocatorIS5_EELb0EEEZ15speculative_forIlZ19min_spanning_forestIldENS4_IlNS6_IlEELb0EEERKNS4_INSt3__15tupleIJT_SG_T0_EEENS6_ISI_EEXsr3std7is_sameISI_cEE5valueEEElEUllE0_ZSB_IldESD_SM_lEUllE1_EvSG_SG_SH_T1_lEUlS5_E_Li0EEEDaOSG_SH_EUlmE_EEEESR_SS_, symObjAddr: 0x5A808, symBinAddr: 0x10005C578, symSize: 0x58 }
  - { offset: 0x1A4BC, size: 0x8, addend: 0x0, symName: __ZN6parlay12parallel_forIRZNS_8internal10sliced_forIZNS1_4packINS_5sliceIPlS5_EENS4_INS_16delayed_sequenceIbbZNS1_11delayed_mapIRNS_8sequenceI6statusNS_9allocatorISA_EELb0EEEZ15speculative_forIlZ19min_spanning_forestIldENS9_IlNSB_IlEELb0EEERKNS9_INSt3__15tupleIJT_SL_T0_EEENSB_ISN_EEXsr3std7is_sameISN_cEE5valueEEElEUllE0_ZSG_IldESI_SR_lEUllE1_EvSL_SL_SM_T1_lEUlSA_E_Li0EEEDaOSL_SM_EUlmE_E8iteratorES10_EEEENS9_INSL_10value_typeENSB_IS12_EEXsr3std7is_sameIS12_cEE5valueEEERKSL_RKSM_jEUlmmmE_EEvmmS16_jEUlmE_EEvmmSX_lb, symObjAddr: 0x5ADC4, symBinAddr: 0x10005CB34, symSize: 0x10C }
  - { offset: 0x1A541, size: 0x8, addend: 0x0, symName: __ZN6parlay10make_sliceIRKNS_5sliceINS_16delayed_sequenceIbbZNS_8internal11delayed_mapIRNS_8sequenceI6statusNS_9allocatorIS6_EELb0EEEZ15speculative_forIlZ19min_spanning_forestIldENS5_IlNS7_IlEELb0EEERKNS5_INSt3__15tupleIJT_SH_T0_EEENS7_ISJ_EEXsr3std7is_sameISJ_cEE5valueEEElEUllE0_ZSC_IldESE_SN_lEUllE1_EvSH_SH_SI_T1_lEUlS6_E_Li0EEEDaOSH_SI_EUlmE_E8iteratorESW_EEEESS_ST_, symObjAddr: 0x5B0DC, symBinAddr: 0x10005CE4C, symSize: 0x58 }
  - { offset: 0x1A576, size: 0x8, addend: 0x0, symName: __ZN6parlay10make_sliceINS_16delayed_sequenceIbbZNS_8internal11delayed_mapIRNS_8sequenceI6statusNS_9allocatorIS5_EELb0EEEZ15speculative_forIlZ19min_spanning_forestIldENS4_IlNS6_IlEELb0EEERKNS4_INSt3__15tupleIJT_SG_T0_EEENS6_ISI_EEXsr3std7is_sameISI_cEE5valueEEElEUllE0_ZSB_IldESD_SM_lEUllE1_EvSG_SG_SH_T1_lEUlS5_E_Li0EEEDaOSG_SH_EUlmE_E8iteratorESV_EESR_SG_SH_, symObjAddr: 0x5B1A4, symBinAddr: 0x10005CF14, symSize: 0x58 }
  - { offset: 0x1A5C2, size: 0x8, addend: 0x0, symName: __ZN6parlay8make_jobIZNS_19fork_join_scheduler7parfor_IZNS_8internal10sliced_forIZNS3_4packINS_5sliceIPlS7_EENS6_INS_16delayed_sequenceIbbZNS3_11delayed_mapIRNS_8sequenceI6statusNS_9allocatorISC_EELb0EEEZ15speculative_forIlZ19min_spanning_forestIldENSB_IlNSD_IlEELb0EEERKNSB_INSt3__15tupleIJT_SN_T0_EEENSD_ISP_EEXsr3std7is_sameISP_cEE5valueEEElEUllE0_ZSI_IldESK_ST_lEUllE1_EvSN_SN_SO_T1_lEUlSC_E_Li0EEEDaOSN_SO_EUlmE_E8iteratorES12_EEEENSB_INSN_10value_typeENSD_IS14_EEXsr3std7is_sameIS14_cEE5valueEEERKSN_RKSO_jEUlmmmE_EEvmmS18_jEUlmE_EEvRNS_9schedulerINS_15WorkStealingJobEEEmmRSN_mbEUlvE0_EENS_7JobImplISN_EES1H_, symObjAddr: 0x5B844, symBinAddr: 0x10005D5B4, symSize: 0x38 }
  - { offset: 0x1A5F7, size: 0x8, addend: 0x0, symName: __ZN6parlay12parallel_forIRZNS_8internal10sliced_forIZNS1_5scan_INS_5sliceIPmS5_EES6_NS_4plusImEEEEDaRKT_T0_OT1_jbEUlmmmE_EEvmmSC_jEUlmE_EEvmmOSA_lb, symObjAddr: 0x5C06C, symBinAddr: 0x10005DDDC, symSize: 0x10C }
  - { offset: 0x1A67C, size: 0x8, addend: 0x0, symName: __ZN6parlay8make_jobIZNS_19fork_join_scheduler7parfor_IZNS_8internal10sliced_forIZNS3_5scan_INS_5sliceIPmS7_EES8_NS_4plusImEEEEDaRKT_T0_OT1_jbEUlmmmE_EEvmmSE_jEUlmE_EEvRNS_9schedulerINS_15WorkStealingJobEEEmmRSC_mbEUlvE0_EENS_7JobImplISC_EESO_, symObjAddr: 0x5C7B0, symBinAddr: 0x10005E520, symSize: 0x38 }
  - { offset: 0x1A6B1, size: 0x8, addend: 0x0, symName: __ZN6parlay12parallel_forIRZNS_8internal10sliced_forIZNS1_5scan_INS_5sliceIPmS5_EES6_NS_4plusImEEEEDaRKT_T0_OT1_jbEUlmmmE0_EEvmmSC_jEUlmE_EEvmmOSA_lb, symObjAddr: 0x5CCE8, symBinAddr: 0x10005EA58, symSize: 0x10C }
  - { offset: 0x1A736, size: 0x8, addend: 0x0, symName: __ZN6parlay8make_jobIZNS_19fork_join_scheduler7parfor_IZNS_8internal10sliced_forIZNS3_5scan_INS_5sliceIPmS7_EES8_NS_4plusImEEEEDaRKT_T0_OT1_jbEUlmmmE0_EEvmmSE_jEUlmE_EEvRNS_9schedulerINS_15WorkStealingJobEEEmmRSC_mbEUlvE0_EENS_7JobImplISC_EESO_, symObjAddr: 0x5D468, symBinAddr: 0x10005F1D8, symSize: 0x38 }
  - { offset: 0x1A76B, size: 0x8, addend: 0x0, symName: __ZN6parlay12parallel_forIRZNS_8internal10sliced_forIZNS1_4packINS_5sliceIPlS5_EENS4_INS_16delayed_sequenceIbbZNS1_11delayed_mapIRNS_8sequenceI6statusNS_9allocatorISA_EELb0EEEZ15speculative_forIlZ19min_spanning_forestIldENS9_IlNSB_IlEELb0EEERKNS9_INSt3__15tupleIJT_SL_T0_EEENSB_ISN_EEXsr3std7is_sameISN_cEE5valueEEElEUllE0_ZSG_IldESI_SR_lEUllE1_EvSL_SL_SM_T1_lEUlSA_E_Li0EEEDaOSL_SM_EUlmE_E8iteratorES10_EEEENS9_INSL_10value_typeENSB_IS12_EEXsr3std7is_sameIS12_cEE5valueEEERKSL_RKSM_jEUlmmmE0_EEvmmS16_jEUlmE_EEvmmSX_lb, symObjAddr: 0x5DA48, symBinAddr: 0x10005F7B8, symSize: 0x10C }
  - { offset: 0x1A7F0, size: 0x8, addend: 0x0, symName: __ZN6parlay10make_sliceIRKNS_5sliceIPlS2_EEEEDaOT_, symObjAddr: 0x5DECC, symBinAddr: 0x10005FC3C, symSize: 0x4C }
  - { offset: 0x1A825, size: 0x8, addend: 0x0, symName: __ZN6parlay10make_sliceIPlS1_EEDaT_T0_, symObjAddr: 0x5DF6C, symBinAddr: 0x10005FCDC, symSize: 0x38 }
  - { offset: 0x1A871, size: 0x8, addend: 0x0, symName: __ZN6parlay8make_jobIZNS_19fork_join_scheduler7parfor_IZNS_8internal10sliced_forIZNS3_4packINS_5sliceIPlS7_EENS6_INS_16delayed_sequenceIbbZNS3_11delayed_mapIRNS_8sequenceI6statusNS_9allocatorISC_EELb0EEEZ15speculative_forIlZ19min_spanning_forestIldENSB_IlNSD_IlEELb0EEERKNSB_INSt3__15tupleIJT_SN_T0_EEENSD_ISP_EEXsr3std7is_sameISP_cEE5valueEEElEUllE0_ZSI_IldESK_ST_lEUllE1_EvSN_SN_SO_T1_lEUlSC_E_Li0EEEDaOSN_SO_EUlmE_E8iteratorES12_EEEENSB_INSN_10value_typeENSD_IS14_EEXsr3std7is_sameIS14_cEE5valueEEERKSN_RKSO_jEUlmmmE0_EEvmmS18_jEUlmE_EEvRNS_9schedulerINS_15WorkStealingJobEEEmmRSN_mbEUlvE0_EENS_7JobImplISN_EES1H_, symObjAddr: 0x5E4A0, symBinAddr: 0x100060210, symSize: 0x38 }
  - { offset: 0x1A8A6, size: 0x8, addend: 0x0, symName: __ZN6parlay10make_sliceIRNS_8sequenceIbNS_9allocatorIbEELb0EEEEEDaOT_, symObjAddr: 0x5EC34, symBinAddr: 0x1000609A4, symSize: 0x4C }
  - { offset: 0x1A907, size: 0x8, addend: 0x0, symName: __ZN6parlay12parallel_forIRZNS_8internal10sliced_forIZNS1_4packINS_16delayed_sequenceIllZNS1_10pack_indexIlNS_5sliceIPbS7_EEEEDaRKT0_jEUlmE_EES8_EENS_8sequenceINT_10value_typeENS_9allocatorISH_EEXsr3std7is_sameISH_cEE5valueEEERKSG_SC_jEUlmmmE_EEvmmSM_jEUlmE_EEvmmOSG_lb, symObjAddr: 0x5F304, symBinAddr: 0x100061074, symSize: 0x10C }
  - { offset: 0x1A98C, size: 0x8, addend: 0x0, symName: __ZN6parlay10make_sliceIRKNS_5sliceIPbS2_EEEEDaOT_, symObjAddr: 0x5F624, symBinAddr: 0x100061394, symSize: 0x4C }
  - { offset: 0x1A9C1, size: 0x8, addend: 0x0, symName: __ZN6parlay10make_sliceIPbS1_EEDaT_T0_, symObjAddr: 0x5F6C4, symBinAddr: 0x100061434, symSize: 0x38 }
  - { offset: 0x1AA0D, size: 0x8, addend: 0x0, symName: __ZN6parlay8make_jobIZNS_19fork_join_scheduler7parfor_IZNS_8internal10sliced_forIZNS3_4packINS_16delayed_sequenceIllZNS3_10pack_indexIlNS_5sliceIPbS9_EEEEDaRKT0_jEUlmE_EESA_EENS_8sequenceINT_10value_typeENS_9allocatorISJ_EEXsr3std7is_sameISJ_cEE5valueEEERKSI_SE_jEUlmmmE_EEvmmSO_jEUlmE_EEvRNS_9schedulerINS_15WorkStealingJobEEEmmRSI_mbEUlvE0_EENS_7JobImplISI_EESV_, symObjAddr: 0x5FBF8, symBinAddr: 0x100061968, symSize: 0x38 }
  - { offset: 0x1AA42, size: 0x8, addend: 0x0, symName: __ZN6parlay12parallel_forIRZNS_8internal10sliced_forIZNS1_4packINS_16delayed_sequenceIllZNS1_10pack_indexIlNS_5sliceIPbS7_EEEEDaRKT0_jEUlmE_EES8_EENS_8sequenceINT_10value_typeENS_9allocatorISH_EEXsr3std7is_sameISH_cEE5valueEEERKSG_SC_jEUlmmmE0_EEvmmSM_jEUlmE_EEvmmOSG_lb, symObjAddr: 0x60130, symBinAddr: 0x100061EA0, symSize: 0x10C }
  - { offset: 0x1AAC7, size: 0x8, addend: 0x0, symName: __ZN6parlay10make_sliceIRKNS_16delayed_sequenceIllZNS_8internal10pack_indexIlNS_5sliceIPbS5_EEEEDaRKT0_jEUlmE_EEEES7_OT_, symObjAddr: 0x605C8, symBinAddr: 0x100062338, symSize: 0x58 }
  - { offset: 0x1AC0E, size: 0x8, addend: 0x0, symName: __ZN6parlay10make_sliceINS_16delayed_sequenceIllZNS_8internal10pack_indexIlNS_5sliceIPbS5_EEEEDaRKT0_jEUlmE_E8iteratorESD_EES7_T_S8_, symObjAddr: 0x6075C, symBinAddr: 0x1000624CC, symSize: 0x58 }
  - { offset: 0x1AC5A, size: 0x8, addend: 0x0, symName: __ZN6parlay8make_jobIZNS_19fork_join_scheduler7parfor_IZNS_8internal10sliced_forIZNS3_4packINS_16delayed_sequenceIllZNS3_10pack_indexIlNS_5sliceIPbS9_EEEEDaRKT0_jEUlmE_EESA_EENS_8sequenceINT_10value_typeENS_9allocatorISJ_EEXsr3std7is_sameISJ_cEE5valueEEERKSI_SE_jEUlmmmE0_EEvmmSO_jEUlmE_EEvRNS_9schedulerINS_15WorkStealingJobEEEmmRSI_mbEUlvE0_EENS_7JobImplISI_EESV_, symObjAddr: 0x60E1C, symBinAddr: 0x100062B8C, symSize: 0x38 }
  - { offset: 0x1AD1A, size: 0x8, addend: 0x0, symName: __ZN6parlay9schedulerINS_15WorkStealingJobEE11worker_infoE, symObjAddr: 0x6B8B6, symBinAddr: 0x100080480, symSize: 0x0 }
  - { offset: 0x1B825, size: 0x8, addend: 0x0, symName: __ZNSt3__16chronomiB8ue170006IxNS_5ratioILl1ELl1000000000EEExS3_EENS_11common_typeIJNS0_8durationIT_T0_EENS5_IT1_T2_EEEE4typeERKS8_RKSB_, symObjAddr: 0x267F0, symBinAddr: 0x100028560, symSize: 0x70 }
  - { offset: 0x1B892, size: 0x8, addend: 0x0, symName: __ZNSt3__16chronoltB8ue170006IxNS_5ratioILl1ELl1000000000EEExNS2_ILl1ELl1000000EEEEEbRKNS0_8durationIT_T0_EERKNS5_IT1_T2_EE, symObjAddr: 0x26098, symBinAddr: 0x100027E08, symSize: 0x34 }
  - { offset: 0x1B8F3, size: 0x8, addend: 0x0, symName: __ZNSt3__16chronomiB8ue170006INS0_12steady_clockENS0_8durationIxNS_5ratioILl1ELl1000000000EEEEES6_EENS_11common_typeIJT0_T1_EE4typeERKNS0_10time_pointIT_S8_EERKNSC_ISD_S9_EE, symObjAddr: 0x260CC, symBinAddr: 0x100027E3C, symSize: 0x58 }
  - { offset: 0x1B94B, size: 0x8, addend: 0x0, symName: __ZNSt3__16chrono13duration_castB8ue170006INS0_8durationIxNS_5ratioILl1ELl1000000000EEEEExNS3_ILl1ELl1000000EEEEENS_9enable_ifIXsr13__is_durationIT_EE5valueES8_E4typeERKNS2_IT0_T1_EE, symObjAddr: 0x266FC, symBinAddr: 0x10002846C, symSize: 0x30 }
  - { offset: 0x1BA86, size: 0x8, addend: 0x0, symName: __ZNSt3__16chrono13duration_castB8ue170006INS0_8durationIxNS_5ratioILl1ELl1000000000EEEEExS4_EENS_9enable_ifIXsr13__is_durationIT_EE5valueES7_E4typeERKNS2_IT0_T1_EE, symObjAddr: 0x29C80, symBinAddr: 0x10002B9F0, symSize: 0x30 }
  - { offset: 0x240EC, size: 0x8, addend: 0x0, symName: __ZNSt3__110__function10__not_nullB8ue170006IZN6parlay14ThreadSpecificINS2_8internal24intrusive_acquire_retireINS4_12hazptr_stackIPvE4NodeENS_14default_deleteIS9_EELm1EE10ThreadDataEEC1EvEUlmE_EEbRKT_, symObjAddr: 0x4CA8, symBinAddr: 0x100006A18, symSize: 0x18 }
  - { offset: 0x2411E, size: 0x8, addend: 0x0, symName: __ZNSt3__110__function10__not_nullB8ue170006IZN6parlay14ThreadSpecificINS2_8internal24intrusive_acquire_retireINS4_12hazptr_stackIPSt4byteE4NodeENS_14default_deleteISA_EELm1EE10ThreadDataEEC1EvEUlmE_EEbRKT_, symObjAddr: 0xAF70, symBinAddr: 0x10000CCE0, symSize: 0x18 }
  - { offset: 0x24150, size: 0x8, addend: 0x0, symName: __ZNSt3__110__function10__not_nullB8ue170006IZN6parlay14ThreadSpecificINS2_8internal24intrusive_acquire_retireINS4_12hazptr_stackIPNS4_15block_allocator5blockEE4NodeENS_14default_deleteISB_EELm1EE10ThreadDataEEC1EvEUlmE_EEbRKT_, symObjAddr: 0xDEE4, symBinAddr: 0x10000FC54, symSize: 0x18 }
  - { offset: 0x24182, size: 0x8, addend: 0x0, symName: __ZNSt3__110__function10__not_nullB8ue170006IZN6parlay14ThreadSpecificINS2_8internal15block_allocator10local_listEEC1EvEUlmE_EEbRKT_, symObjAddr: 0x10B94, symBinAddr: 0x100012904, symSize: 0x18 }
  - { offset: 0x29FD3, size: 0x8, addend: 0x0, symName: __ZNSt3__119piecewise_constructE, symObjAddr: 0x6CC3F, symBinAddr: 0x1000697A7, symSize: 0x0 }
  - { offset: 0x2AC75, size: 0x8, addend: 0x0, symName: __ZNSt3__18in_placeE, symObjAddr: 0x6D2C8, symBinAddr: 0x100069E30, symSize: 0x0 }
  - { offset: 0x2F2D5, size: 0x8, addend: 0x0, symName: __ZNSt3__117__cxx_atomic_loadB8ue170006IPN6parlay8internal12ThreadIdPool8ThreadIdEEET_PKNS_22__cxx_atomic_base_implIS6_EENS_12memory_orderE, symObjAddr: 0x74E8, symBinAddr: 0x100009258, symSize: 0x80 }
  - { offset: 0x2F333, size: 0x8, addend: 0x0, symName: __ZNSt3__117__cxx_atomic_loadB8ue170006ImEET_PKNS_22__cxx_atomic_base_implIS1_EENS_12memory_orderE, symObjAddr: 0x7568, symBinAddr: 0x1000092D8, symSize: 0x80 }
  - { offset: 0x2F39C, size: 0x8, addend: 0x0, symName: __ZNSt3__117__cxx_atomic_loadB8ue170006IPN6parlay8internal13UninitializedINS2_24intrusive_acquire_retireINS2_12hazptr_stackIPvE4NodeENS_14default_deleteIS8_EELm1EE10ThreadDataEEEEET_PKNS_22__cxx_atomic_base_implISF_EENS_12memory_orderE, symObjAddr: 0x8F9C, symBinAddr: 0x10000AD0C, symSize: 0x80 }
  - { offset: 0x2F3FA, size: 0x8, addend: 0x0, symName: __ZNSt3__117__cxx_atomic_loadB8ue170006IPN6parlay8internal12hazptr_stackIPvE4NodeEEET_PKNS_22__cxx_atomic_base_implIS8_EENS_12memory_orderE, symObjAddr: 0x9F6C, symBinAddr: 0x10000BCDC, symSize: 0x80 }
  - { offset: 0x303F1, size: 0x8, addend: 0x0, symName: __ZNSt3__117__cxx_atomic_loadB8ue170006IPN6parlay8internal13UninitializedINS2_24intrusive_acquire_retireINS2_12hazptr_stackIPSt4byteE4NodeENS_14default_deleteIS9_EELm1EE10ThreadDataEEEEET_PKNS_22__cxx_atomic_base_implISG_EENS_12memory_orderE, symObjAddr: 0xCA28, symBinAddr: 0x10000E798, symSize: 0x80 }
  - { offset: 0x313E8, size: 0x8, addend: 0x0, symName: __ZNSt3__117__cxx_atomic_loadB8ue170006IPN6parlay8internal13UninitializedINS2_24intrusive_acquire_retireINS2_12hazptr_stackIPNS2_15block_allocator5blockEE4NodeENS_14default_deleteISA_EELm1EE10ThreadDataEEEEET_PKNS_22__cxx_atomic_base_implISH_EENS_12memory_orderE, symObjAddr: 0xF99C, symBinAddr: 0x10001170C, symSize: 0x80 }
  - { offset: 0x323DF, size: 0x8, addend: 0x0, symName: __ZNSt3__117__cxx_atomic_loadB8ue170006IPN6parlay8internal13UninitializedINS2_15block_allocator10local_listEEEEET_PKNS_22__cxx_atomic_base_implIS8_EENS_12memory_orderE, symObjAddr: 0x12604, symBinAddr: 0x100014374, symSize: 0x80 }
  - { offset: 0x3243D, size: 0x8, addend: 0x0, symName: __ZNSt3__117__cxx_atomic_loadB8ue170006IPN6parlay8internal12hazptr_stackIPNS2_15block_allocator5blockEE4NodeEEET_PKNS_22__cxx_atomic_base_implISA_EENS_12memory_orderE, symObjAddr: 0x12A08, symBinAddr: 0x100014778, symSize: 0x80 }
  - { offset: 0x3249B, size: 0x8, addend: 0x0, symName: __ZNSt3__117__cxx_atomic_loadB8ue170006IPN6parlay8internal12hazptr_stackIPSt4byteE4NodeEEET_PKNS_22__cxx_atomic_base_implIS9_EENS_12memory_orderE, symObjAddr: 0x12B40, symBinAddr: 0x1000148B0, symSize: 0x80 }
  - { offset: 0x398EE, size: 0x8, addend: 0x0, symName: __ZNSt3__124__put_character_sequenceB8ue170006IcNS_11char_traitsIcEEEERNS_13basic_ostreamIT_T0_EES7_PKS4_m, symObjAddr: 0x20934, symBinAddr: 0x1000226A4, symSize: 0x1EC }
  - { offset: 0x3B5BD, size: 0x8, addend: 0x0, symName: __ZNSt3__117__cxx_atomic_loadB8ue170006IiEET_PKNS_22__cxx_atomic_base_implIS1_EENS_12memory_orderE, symObjAddr: 0x25110, symBinAddr: 0x100026E80, symSize: 0x80 }
  - { offset: 0x3B61B, size: 0x8, addend: 0x0, symName: __ZNSt3__117__cxx_atomic_loadB8ue170006IjEET_PKNS_22__cxx_atomic_base_implIS1_EENS_12memory_orderE, symObjAddr: 0x25684, symBinAddr: 0x1000273F4, symSize: 0x80 }
  - { offset: 0x3B679, size: 0x8, addend: 0x0, symName: __ZNSt3__117__cxx_atomic_loadB8ue170006IPN6parlay15WorkStealingJobEEET_PKNS_22__cxx_atomic_base_implIS4_EENS_12memory_orderE, symObjAddr: 0x25788, symBinAddr: 0x1000274F8, symSize: 0x80 }
  - { offset: 0x3B6D7, size: 0x8, addend: 0x0, symName: __ZNSt3__117__cxx_atomic_loadB8ue170006IN6parlay8internal5DequeINS1_15WorkStealingJobEE5age_tEEET_PKNS_22__cxx_atomic_base_implIS7_EENS_12memory_orderE, symObjAddr: 0x25808, symBinAddr: 0x100027578, symSize: 0x88 }
  - { offset: 0x3B7ED, size: 0x8, addend: 0x0, symName: __ZNSt3__117__cxx_atomic_loadB8ue170006IbEET_PKNS_22__cxx_atomic_base_implIS1_EENS_12memory_orderE, symObjAddr: 0x268F0, symBinAddr: 0x100028660, symSize: 0x84 }
  - { offset: 0x3E254, size: 0x8, addend: 0x0, symName: __ZNSt3__117__cxx_atomic_loadB8ue170006IlEET_PKNS_22__cxx_atomic_base_implIS1_EENS_12memory_orderE, symObjAddr: 0x57B44, symBinAddr: 0x1000598B4, symSize: 0x80 }
  - { offset: 0x3EAAC, size: 0x8, addend: 0x0, symName: __ZNSt3__1lsB8ue170006INS_11char_traitsIcEEEERNS_13basic_ostreamIcT_EES6_PKc, symObjAddr: 0x734, symBinAddr: 0x1000024A4, symSize: 0x48 }
  - { offset: 0x3EAF2, size: 0x8, addend: 0x0, symName: __ZNSt3__14endlB8ue170006IcNS_11char_traitsIcEEEERNS_13basic_ostreamIT_T0_EES7_, symObjAddr: 0x7CC, symBinAddr: 0x10000253C, symSize: 0x58 }
  - { offset: 0x3EB32, size: 0x8, addend: 0x0, symName: __ZNSt3__13getB8ue170006ILm0EJlldEEERNS_13tuple_elementIXT_ENS_5tupleIJDpT0_EEEE4typeERS5_, symObjAddr: 0x88C, symBinAddr: 0x1000025FC, symSize: 0x24 }
  - { offset: 0x3EB7F, size: 0x8, addend: 0x0, symName: __ZNSt3__13getB8ue170006ILm1EJlldEEERNS_13tuple_elementIXT_ENS_5tupleIJDpT0_EEEE4typeERS5_, symObjAddr: 0x8DC, symBinAddr: 0x10000264C, symSize: 0x28 }
  - { offset: 0x3EBCC, size: 0x8, addend: 0x0, symName: __ZNSt3__13getB8ue170006ILm2EJlldEEERNS_13tuple_elementIXT_ENS_5tupleIJDpT0_EEEE4typeERS5_, symObjAddr: 0x904, symBinAddr: 0x100002674, symSize: 0x28 }
  - { offset: 0x3ECBE, size: 0x8, addend: 0x0, symName: __ZNSt3__112__to_addressB8ue170006ImEEPT_S2_, symObjAddr: 0x16DC, symBinAddr: 0x10000344C, symSize: 0x14 }
  - { offset: 0x3ECF3, size: 0x8, addend: 0x0, symName: __ZNSt3__13maxB8ue170006ImEERKT_S3_S3_, symObjAddr: 0x1AF8, symBinAddr: 0x100003868, symSize: 0x2C }
  - { offset: 0x3ED36, size: 0x8, addend: 0x0, symName: __ZNSt3__13minB8ue170006ImEERKT_S3_S3_, symObjAddr: 0x1B24, symBinAddr: 0x100003894, symSize: 0x2C }
  - { offset: 0x3EF7A, size: 0x8, addend: 0x0, symName: __ZNSt3__13minB8ue170006ImNS_6__lessIvvEEEERKT_S5_S5_T0_, symObjAddr: 0x1BB0, symBinAddr: 0x100003920, symSize: 0x54 }
  - { offset: 0x3F04D, size: 0x8, addend: 0x0, symName: __ZNSt3__120__throw_length_errorB8ue170006EPKc, symObjAddr: 0x1C8C, symBinAddr: 0x1000039FC, symSize: 0x64 }
  - { offset: 0x3F077, size: 0x8, addend: 0x0, symName: __ZNSt3__13maxB8ue170006ImNS_6__lessIvvEEEERKT_S5_S5_T0_, symObjAddr: 0x1DC8, symBinAddr: 0x100003B38, symSize: 0x54 }
  - { offset: 0x3F0D1, size: 0x8, addend: 0x0, symName: __ZNSt3__119__allocate_at_leastB8ue170006INS_9allocatorImEEEENS_19__allocation_resultINS_16allocator_traitsIT_E7pointerEEERS5_m, symObjAddr: 0x1F2C, symBinAddr: 0x100003C9C, symSize: 0x40 }
  - { offset: 0x3F114, size: 0x8, addend: 0x0, symName: __ZNSt3__117__libcpp_allocateB8ue170006Emm, symObjAddr: 0x20B0, symBinAddr: 0x100003E20, symSize: 0x60 }
  - { offset: 0x3F16F, size: 0x8, addend: 0x0, symName: __ZNSt3__124__is_overaligned_for_newB8ue170006Em, symObjAddr: 0x2110, symBinAddr: 0x100003E80, symSize: 0x20 }
  - { offset: 0x3F19D, size: 0x8, addend: 0x0, symName: __ZNSt3__121__libcpp_operator_newB8ue170006IJmSt11align_val_tEEEPvDpT_, symObjAddr: 0x2130, symBinAddr: 0x100003EA0, symSize: 0x2C }
  - { offset: 0x3F1EA, size: 0x8, addend: 0x0, symName: __ZNSt3__121__libcpp_operator_newB8ue170006IJmEEEPvDpT_, symObjAddr: 0x215C, symBinAddr: 0x100003ECC, symSize: 0x24 }
  - { offset: 0x3F223, size: 0x8, addend: 0x0, symName: __ZNSt3__142__uninitialized_allocator_move_if_noexceptB8ue170006INS_9allocatorImEENS_16reverse_iteratorIPmEES5_mvEET1_RT_T0_S9_S6_, symObjAddr: 0x229C, symBinAddr: 0x10000400C, symSize: 0x78 }
  - { offset: 0x3F2A0, size: 0x8, addend: 0x0, symName: __ZNSt3__14swapB8ue170006IPmEENS_9enable_ifIXaasr21is_move_constructibleIT_EE5valuesr18is_move_assignableIS3_EE5valueEvE4typeERS3_S6_, symObjAddr: 0x2360, symBinAddr: 0x1000040D0, symSize: 0x3C }
  - { offset: 0x3F2F1, size: 0x8, addend: 0x0, symName: __ZNSt3__14moveB8ue170006INS_16reverse_iteratorIPmEES3_EET0_T_S5_S4_, symObjAddr: 0x2490, symBinAddr: 0x100004200, symSize: 0x78 }
  - { offset: 0x3F34B, size: 0x8, addend: 0x0, symName: __ZNSt3__16__moveB8ue170006INS_17_ClassicAlgPolicyENS_16reverse_iteratorIPmEES4_S4_EENS_4pairIT0_T2_EES6_T1_S7_, symObjAddr: 0x2508, symBinAddr: 0x100004278, symSize: 0x64 }
  - { offset: 0x3F3B7, size: 0x8, addend: 0x0, symName: __ZNSt3__123__dispatch_copy_or_moveB8ue170006INS_17_ClassicAlgPolicyENS_11__move_loopIS1_EENS_14__move_trivialENS_16reverse_iteratorIPmEES7_S7_EENS_4pairIT2_T4_EES9_T3_SA_, symObjAddr: 0x256C, symBinAddr: 0x1000042DC, symSize: 0x64 }
  - { offset: 0x3F435, size: 0x8, addend: 0x0, symName: __ZNSt3__121__unwrap_and_dispatchB8ue170006INS_10__overloadINS_11__move_loopINS_17_ClassicAlgPolicyEEENS_14__move_trivialEEENS_16reverse_iteratorIPmEES9_S9_Li0EEENS_4pairIT0_T2_EESB_T1_SC_, symObjAddr: 0x25D0, symBinAddr: 0x100004340, symSize: 0x12C }
  - { offset: 0x3F4C5, size: 0x8, addend: 0x0, symName: __ZNSt3__114__unwrap_rangeB8ue170006INS_16reverse_iteratorIPmEES3_EENS_4pairIT0_S5_EET_S7_, symObjAddr: 0x26FC, symBinAddr: 0x10000446C, symSize: 0x84 }
  - { offset: 0x3F641, size: 0x8, addend: 0x0, symName: __ZNSt3__113__unwrap_iterB8ue170006INS_16reverse_iteratorIPmEENS_18__unwrap_iter_implIS3_Lb0EEELi0EEEDTclsrT0_8__unwrapclsr3stdE7declvalIT_EEEES7_, symObjAddr: 0x2820, symBinAddr: 0x100004590, symSize: 0x44 }
  - { offset: 0x3F685, size: 0x8, addend: 0x0, symName: __ZNSt3__19make_pairB8ue170006INS_16reverse_iteratorIPmEES3_EENS_4pairINS_18__unwrap_ref_decayIT_E4typeENS5_IT0_E4typeEEEOS6_OS9_, symObjAddr: 0x2864, symBinAddr: 0x1000045D4, symSize: 0x38 }
  - { offset: 0x3F6D4, size: 0x8, addend: 0x0, symName: __ZNSt3__114__rewrap_rangeB8ue170006INS_16reverse_iteratorIPmEES3_EET_S4_T0_, symObjAddr: 0x289C, symBinAddr: 0x10000460C, symSize: 0x5C }
  - { offset: 0x3F720, size: 0x8, addend: 0x0, symName: __ZNSt3__113__rewrap_iterB8ue170006INS_16reverse_iteratorIPmEES3_NS_18__unwrap_iter_implIS3_Lb0EEEEET_S6_T0_, symObjAddr: 0x28F8, symBinAddr: 0x100004668, symSize: 0x74 }
  - { offset: 0x3F775, size: 0x8, addend: 0x0, symName: __ZNSt3__1neB8ue170006IPmS1_EEbRKNS_16reverse_iteratorIT_EERKNS2_IT0_EE, symObjAddr: 0x296C, symBinAddr: 0x1000046DC, symSize: 0x48 }
  - { offset: 0x3F873, size: 0x8, addend: 0x0, symName: __ZNSt3__119__libcpp_deallocateB8ue170006EPvmm, symObjAddr: 0x2D64, symBinAddr: 0x100004AD4, symSize: 0x60 }
  - { offset: 0x3F8D8, size: 0x8, addend: 0x0, symName: __ZNSt3__127__do_deallocate_handle_sizeB8ue170006IJSt11align_val_tEEEvPvmDpT_, symObjAddr: 0x2DC4, symBinAddr: 0x100004B34, symSize: 0x30 }
  - { offset: 0x3F92B, size: 0x8, addend: 0x0, symName: __ZNSt3__127__do_deallocate_handle_sizeB8ue170006IJEEEvPvmDpT_, symObjAddr: 0x2DF4, symBinAddr: 0x100004B64, symSize: 0x28 }
  - { offset: 0x3F969, size: 0x8, addend: 0x0, symName: __ZNSt3__124__libcpp_operator_deleteB8ue170006IJPvSt11align_val_tEEEvDpT_, symObjAddr: 0x2E1C, symBinAddr: 0x100004B8C, symSize: 0x2C }
  - { offset: 0x3F9B2, size: 0x8, addend: 0x0, symName: __ZNSt3__124__libcpp_operator_deleteB8ue170006IJPvEEEvDpT_, symObjAddr: 0x2E48, symBinAddr: 0x100004BB8, symSize: 0x24 }
  - { offset: 0x3F9E7, size: 0x8, addend: 0x0, symName: __ZNSt3__111make_uniqueB8ue170006IA_mEENS_11__unique_ifIT_E28__unique_array_unknown_boundEm, symObjAddr: 0x325C, symBinAddr: 0x100004FCC, symSize: 0x68 }
  - { offset: 0x3FA1E, size: 0x8, addend: 0x0, symName: __ZNSt3__14copyB8ue170006INS_11__wrap_iterIPKmEEPmEET0_T_S7_S6_, symObjAddr: 0x331C, symBinAddr: 0x10000508C, symSize: 0x50 }
  - { offset: 0x3FA78, size: 0x8, addend: 0x0, symName: __ZNSt3__15beginB8ue170006INS_6vectorImNS_9allocatorImEEEEEEDTcldtfp_5beginEERKT_, symObjAddr: 0x336C, symBinAddr: 0x1000050DC, symSize: 0x2C }
  - { offset: 0x3FAAD, size: 0x8, addend: 0x0, symName: __ZNSt3__13endB8ue170006INS_6vectorImNS_9allocatorImEEEEEEDTcldtfp_3endEERKT_, symObjAddr: 0x3398, symBinAddr: 0x100005108, symSize: 0x2C }
  - { offset: 0x3FAE2, size: 0x8, addend: 0x0, symName: __ZNSt3__111make_uniqueB8ue170006IA_N6parlay8internal12hazptr_stackIPvEEEENS_11__unique_ifIT_E28__unique_array_unknown_boundEm, symObjAddr: 0x3420, symBinAddr: 0x100005190, symSize: 0x154 }
  - { offset: 0x3FB19, size: 0x8, addend: 0x0, symName: __ZNSt3__16__copyB8ue170006INS_17_ClassicAlgPolicyENS_11__wrap_iterIPKmEES5_PmEENS_4pairIT0_T2_EES8_T1_S9_, symObjAddr: 0x3BC4, symBinAddr: 0x100005934, symSize: 0x54 }
  - { offset: 0x3FB85, size: 0x8, addend: 0x0, symName: __ZNSt3__123__dispatch_copy_or_moveB8ue170006INS_17_ClassicAlgPolicyENS_11__copy_loopIS1_EENS_14__copy_trivialENS_11__wrap_iterIPKmEES8_PmEENS_4pairIT2_T4_EESB_T3_SC_, symObjAddr: 0x3C18, symBinAddr: 0x100005988, symSize: 0x54 }
  - { offset: 0x3FC03, size: 0x8, addend: 0x0, symName: __ZNSt3__121__unwrap_and_dispatchB8ue170006INS_10__overloadINS_11__copy_loopINS_17_ClassicAlgPolicyEEENS_14__copy_trivialEEENS_11__wrap_iterIPKmEESA_PmLi0EEENS_4pairIT0_T2_EESD_T1_SE_, symObjAddr: 0x3C6C, symBinAddr: 0x1000059DC, symSize: 0xCC }
  - { offset: 0x3FC91, size: 0x8, addend: 0x0, symName: __ZNSt3__114__unwrap_rangeB8ue170006INS_11__wrap_iterIPKmEES3_EENS_4pairIT0_S6_EET_S8_, symObjAddr: 0x3D38, symBinAddr: 0x100005AA8, symSize: 0x70 }
  - { offset: 0x3FDF7, size: 0x8, addend: 0x0, symName: __ZNSt3__113__unwrap_iterB8ue170006IPmNS_18__unwrap_iter_implIS1_Lb1EEELi0EEEDTclsrT0_8__unwrapclsr3stdE7declvalIT_EEEES5_, symObjAddr: 0x3DF0, symBinAddr: 0x100005B60, symSize: 0x24 }
  - { offset: 0x3FE3B, size: 0x8, addend: 0x0, symName: __ZNSt3__19make_pairB8ue170006INS_11__wrap_iterIPKmEEPmEENS_4pairINS_18__unwrap_ref_decayIT_E4typeENS7_IT0_E4typeEEEOS8_OSB_, symObjAddr: 0x3E14, symBinAddr: 0x100005B84, symSize: 0x38 }
  - { offset: 0x3FE8A, size: 0x8, addend: 0x0, symName: __ZNSt3__114__rewrap_rangeB8ue170006INS_11__wrap_iterIPKmEES3_EET_S5_T0_, symObjAddr: 0x3E4C, symBinAddr: 0x100005BBC, symSize: 0x3C }
  - { offset: 0x3FED6, size: 0x8, addend: 0x0, symName: __ZNSt3__113__rewrap_iterB8ue170006IPmS1_NS_18__unwrap_iter_implIS1_Lb1EEEEET_S4_T0_, symObjAddr: 0x3E88, symBinAddr: 0x100005BF8, symSize: 0x3C }
  - { offset: 0x3FF2B, size: 0x8, addend: 0x0, symName: __ZNSt3__19make_pairB8ue170006IPKmS2_EENS_4pairINS_18__unwrap_ref_decayIT_E4typeENS4_IT0_E4typeEEEOS5_OS8_, symObjAddr: 0x3EC4, symBinAddr: 0x100005C34, symSize: 0x38 }
  - { offset: 0x3FF7A, size: 0x8, addend: 0x0, symName: __ZNSt3__113__unwrap_iterB8ue170006INS_11__wrap_iterIPKmEENS_18__unwrap_iter_implIS4_Lb1EEELi0EEEDTclsrT0_8__unwrapclsr3stdE7declvalIT_EEEES8_, symObjAddr: 0x3EFC, symBinAddr: 0x100005C6C, symSize: 0x2C }
  - { offset: 0x400E5, size: 0x8, addend: 0x0, symName: __ZNSt3__112__to_addressB8ue170006INS_11__wrap_iterIPKmEEvEEu7__decayIDTclsr19__to_address_helperIT_EE6__callclsr3stdE7declvalIRKS5_EEEEES7_, symObjAddr: 0x3FC0, symBinAddr: 0x100005D30, symSize: 0x24 }
  - { offset: 0x401C1, size: 0x8, addend: 0x0, symName: __ZNSt3__112__to_addressB8ue170006IKmEEPT_S3_, symObjAddr: 0x4040, symBinAddr: 0x100005DB0, symSize: 0x14 }
  - { offset: 0x401F6, size: 0x8, addend: 0x0, symName: __ZNSt3__119__copy_trivial_implB8ue170006IKmmEENS_4pairIPT_PT0_EES4_S4_S6_, symObjAddr: 0x406C, symBinAddr: 0x100005DDC, symSize: 0x80 }
  - { offset: 0x4025E, size: 0x8, addend: 0x0, symName: __ZNSt3__119__constexpr_memmoveB8ue170006ImKmLi0EEEPT_S3_PT0_NS_15__element_countE, symObjAddr: 0x40EC, symBinAddr: 0x100005E5C, symSize: 0x64 }
  - { offset: 0x402CC, size: 0x8, addend: 0x0, symName: __ZNSt3__19make_pairB8ue170006IRPKmPmEENS_4pairINS_18__unwrap_ref_decayIT_E4typeENS6_IT0_E4typeEEEOS7_OSA_, symObjAddr: 0x4150, symBinAddr: 0x100005EC0, symSize: 0x38 }
  - { offset: 0x40442, size: 0x8, addend: 0x0, symName: __ZNSt3__113__rewrap_iterB8ue170006INS_11__wrap_iterIPKmEES3_NS_18__unwrap_iter_implIS4_Lb1EEEEET_S7_T0_, symObjAddr: 0x428C, symBinAddr: 0x100005FFC, symSize: 0x4C }
  - { offset: 0x405FA, size: 0x8, addend: 0x0, symName: __ZNSt3__116forward_as_tupleB8ue170006IJZN6parlay14ThreadSpecificINS1_8internal24intrusive_acquire_retireINS3_12hazptr_stackIPvE4NodeENS_14default_deleteIS8_EELm1EE10ThreadDataEEC1EvEUlmE_EEENS_5tupleIJDpOT_EEESI_, symObjAddr: 0x5228, symBinAddr: 0x100006F98, symSize: 0x2C }
  - { offset: 0x40633, size: 0x8, addend: 0x0, symName: __ZNSt3__116forward_as_tupleB8ue170006IJNS_9allocatorIZN6parlay14ThreadSpecificINS2_8internal24intrusive_acquire_retireINS4_12hazptr_stackIPvE4NodeENS_14default_deleteIS9_EELm1EE10ThreadDataEEC1EvEUlmE_EEEEENS_5tupleIJDpOT_EEESK_, symObjAddr: 0x5254, symBinAddr: 0x100006FC4, symSize: 0x2C }
  - { offset: 0x40696, size: 0x8, addend: 0x0, symName: __ZNSt3__13getB8ue170006ILm0EJOZN6parlay14ThreadSpecificINS1_8internal24intrusive_acquire_retireINS3_12hazptr_stackIPvE4NodeENS_14default_deleteIS8_EELm1EE10ThreadDataEEC1EvEUlmE_EEERNS_13tuple_elementIXT_ENS_5tupleIJDpT0_EEEE4typeERSK_, symObjAddr: 0x5560, symBinAddr: 0x1000072D0, symSize: 0x24 }
  - { offset: 0x406D8, size: 0x8, addend: 0x0, symName: __ZNSt3__13getB8ue170006ILm0EJONS_9allocatorIZN6parlay14ThreadSpecificINS2_8internal24intrusive_acquire_retireINS4_12hazptr_stackIPvE4NodeENS_14default_deleteIS9_EELm1EE10ThreadDataEEC1EvEUlmE_EEEEERNS_13tuple_elementIXT_ENS_5tupleIJDpT0_EEEE4typeERSM_, symObjAddr: 0x559C, symBinAddr: 0x10000730C, symSize: 0x24 }
  - { offset: 0x40BFF, size: 0x8, addend: 0x0, symName: __ZNSt3__116forward_as_tupleB8ue170006IJRKZN6parlay14ThreadSpecificINS1_8internal24intrusive_acquire_retireINS3_12hazptr_stackIPvE4NodeENS_14default_deleteIS8_EELm1EE10ThreadDataEEC1EvEUlmE_EEENS_5tupleIJDpOT_EEESK_, symObjAddr: 0x5B28, symBinAddr: 0x100007898, symSize: 0x2C }
  - { offset: 0x40C4D, size: 0x8, addend: 0x0, symName: __ZNSt3__13getB8ue170006ILm0EJRKZN6parlay14ThreadSpecificINS1_8internal24intrusive_acquire_retireINS3_12hazptr_stackIPvE4NodeENS_14default_deleteIS8_EELm1EE10ThreadDataEEC1EvEUlmE_EEERNS_13tuple_elementIXT_ENS_5tupleIJDpT0_EEEE4typeERSL_, symObjAddr: 0x5D0C, symBinAddr: 0x100007A7C, symSize: 0x24 }
  - { offset: 0x40C8F, size: 0x8, addend: 0x0, symName: __ZNSt3__116forward_as_tupleB8ue170006IJRKNS_9allocatorIZN6parlay14ThreadSpecificINS2_8internal24intrusive_acquire_retireINS4_12hazptr_stackIPvE4NodeENS_14default_deleteIS9_EELm1EE10ThreadDataEEC1EvEUlmE_EEEEENS_5tupleIJDpOT_EEESM_, symObjAddr: 0x6060, symBinAddr: 0x100007DD0, symSize: 0x2C }
  - { offset: 0x40CDD, size: 0x8, addend: 0x0, symName: __ZNSt3__13getB8ue170006ILm0EJRKNS_9allocatorIZN6parlay14ThreadSpecificINS2_8internal24intrusive_acquire_retireINS4_12hazptr_stackIPvE4NodeENS_14default_deleteIS9_EELm1EE10ThreadDataEEC1EvEUlmE_EEEEERNS_13tuple_elementIXT_ENS_5tupleIJDpT0_EEEE4typeERSN_, symObjAddr: 0x6244, symBinAddr: 0x100007FB4, symSize: 0x24 }
  - { offset: 0x40D64, size: 0x8, addend: 0x0, symName: __ZNSt3__18__invokeB8ue170006IRZN6parlay14ThreadSpecificINS1_8internal24intrusive_acquire_retireINS3_12hazptr_stackIPvE4NodeENS_14default_deleteIS8_EELm1EE10ThreadDataEEC1EvEUlmE_JjEEEDTclclsr3stdE7declvalIT_EEspclsr3stdE7declvalIT0_EEEEOSG_DpOSH_, symObjAddr: 0x6324, symBinAddr: 0x100008094, symSize: 0x3C }
  - { offset: 0x40DB5, size: 0x8, addend: 0x0, symName: __ZNSt3__14fillB8ue170006IPNS_6atomicIPN6parlay8internal13UninitializedINS3_24intrusive_acquire_retireINS3_12hazptr_stackIPvE4NodeENS_14default_deleteIS9_EELm1EE10ThreadDataEEEEEDnEEvT_SI_RKT0_, symObjAddr: 0x6648, symBinAddr: 0x1000083B8, symSize: 0x34 }
  - { offset: 0x40E0B, size: 0x8, addend: 0x0, symName: __ZNSt3__111make_sharedB8ue170006IN6parlay8internal12ThreadIdPoolEJNS3_19private_constructorEEvEENS_10shared_ptrIT_EEDpOT0_, symObjAddr: 0x6948, symBinAddr: 0x1000086B8, symSize: 0x40 }
  - { offset: 0x40E4E, size: 0x8, addend: 0x0, symName: __ZNSt3__115allocate_sharedB8ue170006IN6parlay8internal12ThreadIdPoolENS_9allocatorIS3_EEJNS3_19private_constructorEEvEENS_10shared_ptrIT_EERKT0_DpOT1_, symObjAddr: 0x69CC, symBinAddr: 0x10000873C, symSize: 0x98 }
  - { offset: 0x411C6, size: 0x8, addend: 0x0, symName: __ZNSt3__18exchangeB8ue170006IPN6parlay8internal12ThreadIdPool8ThreadIdERS5_EET_RS7_OT0_, symObjAddr: 0x745C, symBinAddr: 0x1000091CC, symSize: 0x34 }
  - { offset: 0x41277, size: 0x8, addend: 0x0, symName: __ZNSt3__121__libcpp_relaxed_loadB8ue170006IlEET_PKS1_, symObjAddr: 0x7934, symBinAddr: 0x1000096A4, symSize: 0x20 }
  - { offset: 0x412AC, size: 0x8, addend: 0x0, symName: __ZNSt3__134__libcpp_atomic_refcount_incrementB8ue170006IlEET_RS1_, symObjAddr: 0x7A10, symBinAddr: 0x100009780, symSize: 0x30 }
  - { offset: 0x41305, size: 0x8, addend: 0x0, symName: __ZNSt3__14swapB8ue170006IPN6parlay8internal12ThreadIdPoolEEENS_9enable_ifIXaasr21is_move_constructibleIT_EE5valuesr18is_move_assignableIS6_EE5valueEvE4typeERS6_S9_, symObjAddr: 0x7B5C, symBinAddr: 0x1000098CC, symSize: 0x3C }
  - { offset: 0x41356, size: 0x8, addend: 0x0, symName: __ZNSt3__14swapB8ue170006IPNS_19__shared_weak_countEEENS_9enable_ifIXaasr21is_move_constructibleIT_EE5valuesr18is_move_assignableIS4_EE5valueEvE4typeERS4_S7_, symObjAddr: 0x7B98, symBinAddr: 0x100009908, symSize: 0x3C }
  - { offset: 0x413A7, size: 0x8, addend: 0x0, symName: __ZNSt3__134__libcpp_atomic_refcount_decrementB8ue170006IlEET_RS1_, symObjAddr: 0x7DE8, symBinAddr: 0x100009B58, symSize: 0x30 }
  - { offset: 0x413DD, size: 0x8, addend: 0x0, symName: __ZNSt3__120__throw_bad_weak_ptrB8ue170006Ev, symObjAddr: 0x8178, symBinAddr: 0x100009EE8, symSize: 0x38 }
  - { offset: 0x414F3, size: 0x8, addend: 0x0, symName: __ZNSt3__134__cxx_atomic_compare_exchange_weakB8ue170006IPN6parlay8internal12ThreadIdPool8ThreadIdEEEbPNS_22__cxx_atomic_base_implIT_EEPS7_S7_NS_12memory_orderESB_, symObjAddr: 0x8388, symBinAddr: 0x10000A0F8, symSize: 0x648 }
  - { offset: 0x41567, size: 0x8, addend: 0x0, symName: __ZNSt3__118__to_failure_orderB8ue170006ENS_12memory_orderE, symObjAddr: 0x89E4, symBinAddr: 0x10000A754, symSize: 0x6C }
  - { offset: 0x41596, size: 0x8, addend: 0x0, symName: __ZNSt3__122__cxx_atomic_fetch_addB8ue170006ImEET_PNS_22__cxx_atomic_base_implIS1_EES1_NS_12memory_orderE, symObjAddr: 0x8A80, symBinAddr: 0x10000A7F0, symSize: 0xC8 }
  - { offset: 0x415EB, size: 0x8, addend: 0x0, symName: __ZNSt3__118__cxx_atomic_storeB8ue170006IPN6parlay8internal13UninitializedINS2_24intrusive_acquire_retireINS2_12hazptr_stackIPvE4NodeENS_14default_deleteIS8_EELm1EE10ThreadDataEEEEEvPNS_22__cxx_atomic_base_implIT_EESG_NS_12memory_orderE, symObjAddr: 0x8DB4, symBinAddr: 0x10000AB24, symSize: 0x84 }
  - { offset: 0x4163C, size: 0x8, addend: 0x0, symName: __ZNSt3__16__fillB8ue170006IPNS_6atomicIPN6parlay8internal13UninitializedINS3_24intrusive_acquire_retireINS3_12hazptr_stackIPvE4NodeENS_14default_deleteIS9_EELm1EE10ThreadDataEEEEEDnEEvT_SI_RKT0_NS_26random_access_iterator_tagE, symObjAddr: 0x8E4C, symBinAddr: 0x10000ABBC, symSize: 0x44 }
  - { offset: 0x4169D, size: 0x8, addend: 0x0, symName: __ZNSt3__16fill_nB8ue170006IPNS_6atomicIPN6parlay8internal13UninitializedINS3_24intrusive_acquire_retireINS3_12hazptr_stackIPvE4NodeENS_14default_deleteIS9_EELm1EE10ThreadDataEEEEElDnEET_SI_T0_RKT1_, symObjAddr: 0x8E90, symBinAddr: 0x10000AC00, symSize: 0x44 }
  - { offset: 0x41700, size: 0x8, addend: 0x0, symName: __ZNSt3__18__fill_nB8ue170006IPNS_6atomicIPN6parlay8internal13UninitializedINS3_24intrusive_acquire_retireINS3_12hazptr_stackIPvE4NodeENS_14default_deleteIS9_EELm1EE10ThreadDataEEEEElDnEET_SI_T0_RKT1_, symObjAddr: 0x8ED4, symBinAddr: 0x10000AC44, symSize: 0x6C }
  - { offset: 0x41763, size: 0x8, addend: 0x0, symName: __ZNSt3__121__convert_to_integralB8ue170006El, symObjAddr: 0x8F40, symBinAddr: 0x10000ACB0, symSize: 0x14 }
  - { offset: 0x41790, size: 0x8, addend: 0x0, symName: __ZNSt3__125__throw_bad_function_callB8ue170006Ev, symObjAddr: 0x9080, symBinAddr: 0x10000ADF0, symSize: 0x38 }
  - { offset: 0x417E2, size: 0x8, addend: 0x0, symName: __ZNSt3__18exchangeB8ue170006IPN6parlay8internal12hazptr_stackIPvE4NodeES7_EET_RS8_OT0_, symObjAddr: 0x9B50, symBinAddr: 0x10000B8C0, symSize: 0x34 }
  - { offset: 0x419DB, size: 0x8, addend: 0x0, symName: __ZNSt3__116forward_as_tupleB8ue170006IJZN6parlay14ThreadSpecificINS1_8internal24intrusive_acquire_retireINS3_12hazptr_stackIPSt4byteE4NodeENS_14default_deleteIS9_EELm1EE10ThreadDataEEC1EvEUlmE_EEENS_5tupleIJDpOT_EEESJ_, symObjAddr: 0xB4F0, symBinAddr: 0x10000D260, symSize: 0x2C }
  - { offset: 0x41A14, size: 0x8, addend: 0x0, symName: __ZNSt3__116forward_as_tupleB8ue170006IJNS_9allocatorIZN6parlay14ThreadSpecificINS2_8internal24intrusive_acquire_retireINS4_12hazptr_stackIPSt4byteE4NodeENS_14default_deleteISA_EELm1EE10ThreadDataEEC1EvEUlmE_EEEEENS_5tupleIJDpOT_EEESL_, symObjAddr: 0xB51C, symBinAddr: 0x10000D28C, symSize: 0x2C }
  - { offset: 0x41A77, size: 0x8, addend: 0x0, symName: __ZNSt3__13getB8ue170006ILm0EJOZN6parlay14ThreadSpecificINS1_8internal24intrusive_acquire_retireINS3_12hazptr_stackIPSt4byteE4NodeENS_14default_deleteIS9_EELm1EE10ThreadDataEEC1EvEUlmE_EEERNS_13tuple_elementIXT_ENS_5tupleIJDpT0_EEEE4typeERSL_, symObjAddr: 0xB828, symBinAddr: 0x10000D598, symSize: 0x24 }
  - { offset: 0x41AB9, size: 0x8, addend: 0x0, symName: __ZNSt3__13getB8ue170006ILm0EJONS_9allocatorIZN6parlay14ThreadSpecificINS2_8internal24intrusive_acquire_retireINS4_12hazptr_stackIPSt4byteE4NodeENS_14default_deleteISA_EELm1EE10ThreadDataEEC1EvEUlmE_EEEEERNS_13tuple_elementIXT_ENS_5tupleIJDpT0_EEEE4typeERSN_, symObjAddr: 0xB864, symBinAddr: 0x10000D5D4, symSize: 0x24 }
  - { offset: 0x41FE0, size: 0x8, addend: 0x0, symName: __ZNSt3__116forward_as_tupleB8ue170006IJRKZN6parlay14ThreadSpecificINS1_8internal24intrusive_acquire_retireINS3_12hazptr_stackIPSt4byteE4NodeENS_14default_deleteIS9_EELm1EE10ThreadDataEEC1EvEUlmE_EEENS_5tupleIJDpOT_EEESL_, symObjAddr: 0xBDF0, symBinAddr: 0x10000DB60, symSize: 0x2C }
  - { offset: 0x4202E, size: 0x8, addend: 0x0, symName: __ZNSt3__13getB8ue170006ILm0EJRKZN6parlay14ThreadSpecificINS1_8internal24intrusive_acquire_retireINS3_12hazptr_stackIPSt4byteE4NodeENS_14default_deleteIS9_EELm1EE10ThreadDataEEC1EvEUlmE_EEERNS_13tuple_elementIXT_ENS_5tupleIJDpT0_EEEE4typeERSM_, symObjAddr: 0xBFD4, symBinAddr: 0x10000DD44, symSize: 0x24 }
  - { offset: 0x42070, size: 0x8, addend: 0x0, symName: __ZNSt3__116forward_as_tupleB8ue170006IJRKNS_9allocatorIZN6parlay14ThreadSpecificINS2_8internal24intrusive_acquire_retireINS4_12hazptr_stackIPSt4byteE4NodeENS_14default_deleteISA_EELm1EE10ThreadDataEEC1EvEUlmE_EEEEENS_5tupleIJDpOT_EEESN_, symObjAddr: 0xC328, symBinAddr: 0x10000E098, symSize: 0x2C }
  - { offset: 0x420BE, size: 0x8, addend: 0x0, symName: __ZNSt3__13getB8ue170006ILm0EJRKNS_9allocatorIZN6parlay14ThreadSpecificINS2_8internal24intrusive_acquire_retireINS4_12hazptr_stackIPSt4byteE4NodeENS_14default_deleteISA_EELm1EE10ThreadDataEEC1EvEUlmE_EEEEERNS_13tuple_elementIXT_ENS_5tupleIJDpT0_EEEE4typeERSO_, symObjAddr: 0xC50C, symBinAddr: 0x10000E27C, symSize: 0x24 }
  - { offset: 0x42145, size: 0x8, addend: 0x0, symName: __ZNSt3__18__invokeB8ue170006IRZN6parlay14ThreadSpecificINS1_8internal24intrusive_acquire_retireINS3_12hazptr_stackIPSt4byteE4NodeENS_14default_deleteIS9_EELm1EE10ThreadDataEEC1EvEUlmE_JjEEEDTclclsr3stdE7declvalIT_EEspclsr3stdE7declvalIT0_EEEEOSH_DpOSI_, symObjAddr: 0xC5EC, symBinAddr: 0x10000E35C, symSize: 0x3C }
  - { offset: 0x42196, size: 0x8, addend: 0x0, symName: __ZNSt3__14fillB8ue170006IPNS_6atomicIPN6parlay8internal13UninitializedINS3_24intrusive_acquire_retireINS3_12hazptr_stackIPSt4byteE4NodeENS_14default_deleteISA_EELm1EE10ThreadDataEEEEEDnEEvT_SJ_RKT0_, symObjAddr: 0xC75C, symBinAddr: 0x10000E4CC, symSize: 0x34 }
  - { offset: 0x421EC, size: 0x8, addend: 0x0, symName: __ZNSt3__118__cxx_atomic_storeB8ue170006IPN6parlay8internal13UninitializedINS2_24intrusive_acquire_retireINS2_12hazptr_stackIPSt4byteE4NodeENS_14default_deleteIS9_EELm1EE10ThreadDataEEEEEvPNS_22__cxx_atomic_base_implIT_EESH_NS_12memory_orderE, symObjAddr: 0xC854, symBinAddr: 0x10000E5C4, symSize: 0x84 }
  - { offset: 0x4223D, size: 0x8, addend: 0x0, symName: __ZNSt3__16__fillB8ue170006IPNS_6atomicIPN6parlay8internal13UninitializedINS3_24intrusive_acquire_retireINS3_12hazptr_stackIPSt4byteE4NodeENS_14default_deleteISA_EELm1EE10ThreadDataEEEEEDnEEvT_SJ_RKT0_NS_26random_access_iterator_tagE, symObjAddr: 0xC8EC, symBinAddr: 0x10000E65C, symSize: 0x44 }
  - { offset: 0x4229E, size: 0x8, addend: 0x0, symName: __ZNSt3__16fill_nB8ue170006IPNS_6atomicIPN6parlay8internal13UninitializedINS3_24intrusive_acquire_retireINS3_12hazptr_stackIPSt4byteE4NodeENS_14default_deleteISA_EELm1EE10ThreadDataEEEEElDnEET_SJ_T0_RKT1_, symObjAddr: 0xC930, symBinAddr: 0x10000E6A0, symSize: 0x44 }
  - { offset: 0x42301, size: 0x8, addend: 0x0, symName: __ZNSt3__18__fill_nB8ue170006IPNS_6atomicIPN6parlay8internal13UninitializedINS3_24intrusive_acquire_retireINS3_12hazptr_stackIPSt4byteE4NodeENS_14default_deleteISA_EELm1EE10ThreadDataEEEEElDnEET_SJ_T0_RKT1_, symObjAddr: 0xC974, symBinAddr: 0x10000E6E4, symSize: 0x6C }
  - { offset: 0x42364, size: 0x8, addend: 0x0, symName: __ZNSt3__18exchangeB8ue170006IPN6parlay8internal12hazptr_stackIPSt4byteE4NodeES8_EET_RS9_OT0_, symObjAddr: 0xD480, symBinAddr: 0x10000F1F0, symSize: 0x34 }
  - { offset: 0x42521, size: 0x8, addend: 0x0, symName: __ZNSt3__116forward_as_tupleB8ue170006IJZN6parlay14ThreadSpecificINS1_8internal24intrusive_acquire_retireINS3_12hazptr_stackIPNS3_15block_allocator5blockEE4NodeENS_14default_deleteISA_EELm1EE10ThreadDataEEC1EvEUlmE_EEENS_5tupleIJDpOT_EEESK_, symObjAddr: 0xE464, symBinAddr: 0x1000101D4, symSize: 0x2C }
  - { offset: 0x4255A, size: 0x8, addend: 0x0, symName: __ZNSt3__116forward_as_tupleB8ue170006IJNS_9allocatorIZN6parlay14ThreadSpecificINS2_8internal24intrusive_acquire_retireINS4_12hazptr_stackIPNS4_15block_allocator5blockEE4NodeENS_14default_deleteISB_EELm1EE10ThreadDataEEC1EvEUlmE_EEEEENS_5tupleIJDpOT_EEESM_, symObjAddr: 0xE490, symBinAddr: 0x100010200, symSize: 0x2C }
  - { offset: 0x425BD, size: 0x8, addend: 0x0, symName: __ZNSt3__13getB8ue170006ILm0EJOZN6parlay14ThreadSpecificINS1_8internal24intrusive_acquire_retireINS3_12hazptr_stackIPNS3_15block_allocator5blockEE4NodeENS_14default_deleteISA_EELm1EE10ThreadDataEEC1EvEUlmE_EEERNS_13tuple_elementIXT_ENS_5tupleIJDpT0_EEEE4typeERSM_, symObjAddr: 0xE79C, symBinAddr: 0x10001050C, symSize: 0x24 }
  - { offset: 0x425FF, size: 0x8, addend: 0x0, symName: __ZNSt3__13getB8ue170006ILm0EJONS_9allocatorIZN6parlay14ThreadSpecificINS2_8internal24intrusive_acquire_retireINS4_12hazptr_stackIPNS4_15block_allocator5blockEE4NodeENS_14default_deleteISB_EELm1EE10ThreadDataEEC1EvEUlmE_EEEEERNS_13tuple_elementIXT_ENS_5tupleIJDpT0_EEEE4typeERSO_, symObjAddr: 0xE7D8, symBinAddr: 0x100010548, symSize: 0x24 }
  - { offset: 0x42B26, size: 0x8, addend: 0x0, symName: __ZNSt3__116forward_as_tupleB8ue170006IJRKZN6parlay14ThreadSpecificINS1_8internal24intrusive_acquire_retireINS3_12hazptr_stackIPNS3_15block_allocator5blockEE4NodeENS_14default_deleteISA_EELm1EE10ThreadDataEEC1EvEUlmE_EEENS_5tupleIJDpOT_EEESM_, symObjAddr: 0xED64, symBinAddr: 0x100010AD4, symSize: 0x2C }
  - { offset: 0x42B74, size: 0x8, addend: 0x0, symName: __ZNSt3__13getB8ue170006ILm0EJRKZN6parlay14ThreadSpecificINS1_8internal24intrusive_acquire_retireINS3_12hazptr_stackIPNS3_15block_allocator5blockEE4NodeENS_14default_deleteISA_EELm1EE10ThreadDataEEC1EvEUlmE_EEERNS_13tuple_elementIXT_ENS_5tupleIJDpT0_EEEE4typeERSN_, symObjAddr: 0xEF48, symBinAddr: 0x100010CB8, symSize: 0x24 }
  - { offset: 0x42BB6, size: 0x8, addend: 0x0, symName: __ZNSt3__116forward_as_tupleB8ue170006IJRKNS_9allocatorIZN6parlay14ThreadSpecificINS2_8internal24intrusive_acquire_retireINS4_12hazptr_stackIPNS4_15block_allocator5blockEE4NodeENS_14default_deleteISB_EELm1EE10ThreadDataEEC1EvEUlmE_EEEEENS_5tupleIJDpOT_EEESO_, symObjAddr: 0xF29C, symBinAddr: 0x10001100C, symSize: 0x2C }
  - { offset: 0x42C04, size: 0x8, addend: 0x0, symName: __ZNSt3__13getB8ue170006ILm0EJRKNS_9allocatorIZN6parlay14ThreadSpecificINS2_8internal24intrusive_acquire_retireINS4_12hazptr_stackIPNS4_15block_allocator5blockEE4NodeENS_14default_deleteISB_EELm1EE10ThreadDataEEC1EvEUlmE_EEEEERNS_13tuple_elementIXT_ENS_5tupleIJDpT0_EEEE4typeERSP_, symObjAddr: 0xF480, symBinAddr: 0x1000111F0, symSize: 0x24 }
  - { offset: 0x42C8B, size: 0x8, addend: 0x0, symName: __ZNSt3__18__invokeB8ue170006IRZN6parlay14ThreadSpecificINS1_8internal24intrusive_acquire_retireINS3_12hazptr_stackIPNS3_15block_allocator5blockEE4NodeENS_14default_deleteISA_EELm1EE10ThreadDataEEC1EvEUlmE_JjEEEDTclclsr3stdE7declvalIT_EEspclsr3stdE7declvalIT0_EEEEOSI_DpOSJ_, symObjAddr: 0xF560, symBinAddr: 0x1000112D0, symSize: 0x3C }
  - { offset: 0x42CDC, size: 0x8, addend: 0x0, symName: __ZNSt3__14fillB8ue170006IPNS_6atomicIPN6parlay8internal13UninitializedINS3_24intrusive_acquire_retireINS3_12hazptr_stackIPNS3_15block_allocator5blockEE4NodeENS_14default_deleteISB_EELm1EE10ThreadDataEEEEEDnEEvT_SK_RKT0_, symObjAddr: 0xF6D0, symBinAddr: 0x100011440, symSize: 0x34 }
  - { offset: 0x42D32, size: 0x8, addend: 0x0, symName: __ZNSt3__118__cxx_atomic_storeB8ue170006IPN6parlay8internal13UninitializedINS2_24intrusive_acquire_retireINS2_12hazptr_stackIPNS2_15block_allocator5blockEE4NodeENS_14default_deleteISA_EELm1EE10ThreadDataEEEEEvPNS_22__cxx_atomic_base_implIT_EESI_NS_12memory_orderE, symObjAddr: 0xF7C8, symBinAddr: 0x100011538, symSize: 0x84 }
  - { offset: 0x42D83, size: 0x8, addend: 0x0, symName: __ZNSt3__16__fillB8ue170006IPNS_6atomicIPN6parlay8internal13UninitializedINS3_24intrusive_acquire_retireINS3_12hazptr_stackIPNS3_15block_allocator5blockEE4NodeENS_14default_deleteISB_EELm1EE10ThreadDataEEEEEDnEEvT_SK_RKT0_NS_26random_access_iterator_tagE, symObjAddr: 0xF860, symBinAddr: 0x1000115D0, symSize: 0x44 }
  - { offset: 0x42DE4, size: 0x8, addend: 0x0, symName: __ZNSt3__16fill_nB8ue170006IPNS_6atomicIPN6parlay8internal13UninitializedINS3_24intrusive_acquire_retireINS3_12hazptr_stackIPNS3_15block_allocator5blockEE4NodeENS_14default_deleteISB_EELm1EE10ThreadDataEEEEElDnEET_SK_T0_RKT1_, symObjAddr: 0xF8A4, symBinAddr: 0x100011614, symSize: 0x44 }
  - { offset: 0x42E47, size: 0x8, addend: 0x0, symName: __ZNSt3__18__fill_nB8ue170006IPNS_6atomicIPN6parlay8internal13UninitializedINS3_24intrusive_acquire_retireINS3_12hazptr_stackIPNS3_15block_allocator5blockEE4NodeENS_14default_deleteISB_EELm1EE10ThreadDataEEEEElDnEET_SK_T0_RKT1_, symObjAddr: 0xF8E8, symBinAddr: 0x100011658, symSize: 0x6C }
  - { offset: 0x42EAA, size: 0x8, addend: 0x0, symName: __ZNSt3__18exchangeB8ue170006IPN6parlay8internal12hazptr_stackIPNS2_15block_allocator5blockEE4NodeES9_EET_RSA_OT0_, symObjAddr: 0x103F4, symBinAddr: 0x100012164, symSize: 0x34 }
  - { offset: 0x43067, size: 0x8, addend: 0x0, symName: __ZNSt3__116forward_as_tupleB8ue170006IJZN6parlay14ThreadSpecificINS1_8internal15block_allocator10local_listEEC1EvEUlmE_EEENS_5tupleIJDpOT_EEESB_, symObjAddr: 0x1110C, symBinAddr: 0x100012E7C, symSize: 0x2C }
  - { offset: 0x430A0, size: 0x8, addend: 0x0, symName: __ZNSt3__116forward_as_tupleB8ue170006IJNS_9allocatorIZN6parlay14ThreadSpecificINS2_8internal15block_allocator10local_listEEC1EvEUlmE_EEEEENS_5tupleIJDpOT_EEESD_, symObjAddr: 0x11138, symBinAddr: 0x100012EA8, symSize: 0x2C }
  - { offset: 0x43103, size: 0x8, addend: 0x0, symName: __ZNSt3__13getB8ue170006ILm0EJOZN6parlay14ThreadSpecificINS1_8internal15block_allocator10local_listEEC1EvEUlmE_EEERNS_13tuple_elementIXT_ENS_5tupleIJDpT0_EEEE4typeERSD_, symObjAddr: 0x11444, symBinAddr: 0x1000131B4, symSize: 0x24 }
  - { offset: 0x43145, size: 0x8, addend: 0x0, symName: __ZNSt3__13getB8ue170006ILm0EJONS_9allocatorIZN6parlay14ThreadSpecificINS2_8internal15block_allocator10local_listEEC1EvEUlmE_EEEEERNS_13tuple_elementIXT_ENS_5tupleIJDpT0_EEEE4typeERSF_, symObjAddr: 0x11480, symBinAddr: 0x1000131F0, symSize: 0x24 }
  - { offset: 0x4366C, size: 0x8, addend: 0x0, symName: __ZNSt3__116forward_as_tupleB8ue170006IJRKZN6parlay14ThreadSpecificINS1_8internal15block_allocator10local_listEEC1EvEUlmE_EEENS_5tupleIJDpOT_EEESD_, symObjAddr: 0x11A0C, symBinAddr: 0x10001377C, symSize: 0x2C }
  - { offset: 0x436BA, size: 0x8, addend: 0x0, symName: __ZNSt3__13getB8ue170006ILm0EJRKZN6parlay14ThreadSpecificINS1_8internal15block_allocator10local_listEEC1EvEUlmE_EEERNS_13tuple_elementIXT_ENS_5tupleIJDpT0_EEEE4typeERSE_, symObjAddr: 0x11BF0, symBinAddr: 0x100013960, symSize: 0x24 }
  - { offset: 0x436FC, size: 0x8, addend: 0x0, symName: __ZNSt3__116forward_as_tupleB8ue170006IJRKNS_9allocatorIZN6parlay14ThreadSpecificINS2_8internal15block_allocator10local_listEEC1EvEUlmE_EEEEENS_5tupleIJDpOT_EEESF_, symObjAddr: 0x11F44, symBinAddr: 0x100013CB4, symSize: 0x2C }
  - { offset: 0x4374A, size: 0x8, addend: 0x0, symName: __ZNSt3__13getB8ue170006ILm0EJRKNS_9allocatorIZN6parlay14ThreadSpecificINS2_8internal15block_allocator10local_listEEC1EvEUlmE_EEEEERNS_13tuple_elementIXT_ENS_5tupleIJDpT0_EEEE4typeERSG_, symObjAddr: 0x12128, symBinAddr: 0x100013E98, symSize: 0x24 }
  - { offset: 0x437D1, size: 0x8, addend: 0x0, symName: __ZNSt3__18__invokeB8ue170006IRZN6parlay14ThreadSpecificINS1_8internal15block_allocator10local_listEEC1EvEUlmE_JjEEEDTclclsr3stdE7declvalIT_EEspclsr3stdE7declvalIT0_EEEEOS9_DpOSA_, symObjAddr: 0x121FC, symBinAddr: 0x100013F6C, symSize: 0x34 }
  - { offset: 0x43822, size: 0x8, addend: 0x0, symName: __ZNSt3__14fillB8ue170006IPNS_6atomicIPN6parlay8internal13UninitializedINS3_15block_allocator10local_listEEEEEDnEEvT_SB_RKT0_, symObjAddr: 0x12340, symBinAddr: 0x1000140B0, symSize: 0x34 }
  - { offset: 0x43878, size: 0x8, addend: 0x0, symName: __ZNSt3__118__cxx_atomic_storeB8ue170006IPN6parlay8internal13UninitializedINS2_15block_allocator10local_listEEEEEvPNS_22__cxx_atomic_base_implIT_EES9_NS_12memory_orderE, symObjAddr: 0x12430, symBinAddr: 0x1000141A0, symSize: 0x84 }
  - { offset: 0x438C9, size: 0x8, addend: 0x0, symName: __ZNSt3__16__fillB8ue170006IPNS_6atomicIPN6parlay8internal13UninitializedINS3_15block_allocator10local_listEEEEEDnEEvT_SB_RKT0_NS_26random_access_iterator_tagE, symObjAddr: 0x124C8, symBinAddr: 0x100014238, symSize: 0x44 }
  - { offset: 0x4392A, size: 0x8, addend: 0x0, symName: __ZNSt3__16fill_nB8ue170006IPNS_6atomicIPN6parlay8internal13UninitializedINS3_15block_allocator10local_listEEEEElDnEET_SB_T0_RKT1_, symObjAddr: 0x1250C, symBinAddr: 0x10001427C, symSize: 0x44 }
  - { offset: 0x4398D, size: 0x8, addend: 0x0, symName: __ZNSt3__18__fill_nB8ue170006IPNS_6atomicIPN6parlay8internal13UninitializedINS3_15block_allocator10local_listEEEEElDnEET_SB_T0_RKT1_, symObjAddr: 0x12550, symBinAddr: 0x1000142C0, symSize: 0x6C }
  - { offset: 0x439F0, size: 0x8, addend: 0x0, symName: __ZNSt3__118__cxx_atomic_storeB8ue170006IPN6parlay8internal12hazptr_stackIPNS2_15block_allocator5blockEE4NodeEEEvPNS_22__cxx_atomic_base_implIT_EESB_NS_12memory_orderE, symObjAddr: 0x13870, symBinAddr: 0x1000155E0, symSize: 0x84 }
  - { offset: 0x43A41, size: 0x8, addend: 0x0, symName: __ZNSt3__113make_optionalB8ue170006IPSt4byteEENS_8optionalIu7__decayIT_EEEOS4_, symObjAddr: 0x13DBC, symBinAddr: 0x100015B2C, symSize: 0x30 }
  - { offset: 0x43A78, size: 0x8, addend: 0x0, symName: __ZNSt3__118__cxx_atomic_storeB8ue170006IPN6parlay8internal12hazptr_stackIPSt4byteE4NodeEEEvPNS_22__cxx_atomic_base_implIT_EESA_NS_12memory_orderE, symObjAddr: 0x14024, symBinAddr: 0x100015D94, symSize: 0x84 }
  - { offset: 0x43AC9, size: 0x8, addend: 0x0, symName: __ZNSt3__134__cxx_atomic_compare_exchange_weakB8ue170006IPN6parlay8internal12hazptr_stackIPSt4byteE4NodeEEEbPNS_22__cxx_atomic_base_implIT_EEPSA_SA_NS_12memory_orderESE_, symObjAddr: 0x140A8, symBinAddr: 0x100015E18, symSize: 0x640 }
  - { offset: 0x43B3C, size: 0x8, addend: 0x0, symName: __ZNSt3__18exchangeB8ue170006IPN6parlay8internal12hazptr_stackIPSt4byteE4NodeERS8_EET_RSA_OT0_, symObjAddr: 0x14A98, symBinAddr: 0x100016808, symSize: 0x34 }
  - { offset: 0x449AF, size: 0x8, addend: 0x0, symName: __ZNSt3__119atomic_thread_fenceB8ue170006ENS_12memory_orderE, symObjAddr: 0x152E8, symBinAddr: 0x100017058, symSize: 0x24 }
  - { offset: 0x449D7, size: 0x8, addend: 0x0, symName: __ZNSt3__125__cxx_atomic_thread_fenceB8ue170006ENS_12memory_orderE, symObjAddr: 0x1548C, symBinAddr: 0x1000171FC, symSize: 0x68 }
  - { offset: 0x44A01, size: 0x8, addend: 0x0, symName: __ZNSt3__116__constrain_hashB8ue170006Emm, symObjAddr: 0x15BFC, symBinAddr: 0x10001796C, symSize: 0x98 }
  - { offset: 0x44A3B, size: 0x8, addend: 0x0, symName: __ZNSt3__116__is_hash_power2B8ue170006Em, symObjAddr: 0x15F1C, symBinAddr: 0x100017C8C, symSize: 0x50 }
  - { offset: 0x44A67, size: 0x8, addend: 0x0, symName: __ZNSt3__110__loadwordB8ue170006ImEET_PKv, symObjAddr: 0x16AF4, symBinAddr: 0x100018864, symSize: 0x20 }
  - { offset: 0x44AAA, size: 0x8, addend: 0x0, symName: __ZNSt3__14swapB8ue170006ImEENS_9enable_ifIXaasr21is_move_constructibleIT_EE5valuesr18is_move_assignableIS2_EE5valueEvE4typeERS2_S5_, symObjAddr: 0x16CB0, symBinAddr: 0x100018A20, symSize: 0x3C }
  - { offset: 0x44AFB, size: 0x8, addend: 0x0, symName: __ZNSt3__110__loadwordB8ue170006IjEET_PKv, symObjAddr: 0x16D40, symBinAddr: 0x100018AB0, symSize: 0x20 }
  - { offset: 0x44B8F, size: 0x8, addend: 0x0, symName: __ZNSt3__116__next_hash_pow2B8ue170006Em, symObjAddr: 0x17850, symBinAddr: 0x1000195C0, symSize: 0x6C }
  - { offset: 0x44BBB, size: 0x8, addend: 0x0, symName: __ZNSt3__112__libcpp_clzB8ue170006Em, symObjAddr: 0x17BF8, symBinAddr: 0x100019968, symSize: 0x1C }
  - { offset: 0x44BE7, size: 0x8, addend: 0x0, symName: __ZNSt3__1neB8ue170006ERKNS_21__hash_const_iteratorIPNS_11__hash_nodeIPN6parlay8internal12hazptr_stackIPSt4byteE4NodeEPvEEEESF_, symObjAddr: 0x18020, symBinAddr: 0x100019D90, symSize: 0x34 }
  - { offset: 0x44C25, size: 0x8, addend: 0x0, symName: __ZNSt3__1eqB8ue170006ERKNS_21__hash_const_iteratorIPNS_11__hash_nodeIPN6parlay8internal12hazptr_stackIPSt4byteE4NodeEPvEEEESF_, symObjAddr: 0x1823C, symBinAddr: 0x100019FAC, symSize: 0x30 }
  - { offset: 0x44C62, size: 0x8, addend: 0x0, symName: __ZNSt3__113make_optionalB8ue170006IPN6parlay8internal15block_allocator5blockEEENS_8optionalIu7__decayIT_EEEOS7_, symObjAddr: 0x186F4, symBinAddr: 0x10001A464, symSize: 0x30 }
  - { offset: 0x44C99, size: 0x8, addend: 0x0, symName: __ZNSt3__134__cxx_atomic_compare_exchange_weakB8ue170006IPN6parlay8internal12hazptr_stackIPNS2_15block_allocator5blockEE4NodeEEEbPNS_22__cxx_atomic_base_implIT_EEPSB_SB_NS_12memory_orderESF_, symObjAddr: 0x1888C, symBinAddr: 0x10001A5FC, symSize: 0x640 }
  - { offset: 0x44D0C, size: 0x8, addend: 0x0, symName: __ZNSt3__18exchangeB8ue170006IPN6parlay8internal12hazptr_stackIPNS2_15block_allocator5blockEE4NodeERS9_EET_RSB_OT0_, symObjAddr: 0x1927C, symBinAddr: 0x10001AFEC, symSize: 0x34 }
  - { offset: 0x45BD0, size: 0x8, addend: 0x0, symName: __ZNSt3__1neB8ue170006ERKNS_21__hash_const_iteratorIPNS_11__hash_nodeIPN6parlay8internal12hazptr_stackIPNS3_15block_allocator5blockEE4NodeEPvEEEESG_, symObjAddr: 0x1B7C8, symBinAddr: 0x10001D538, symSize: 0x34 }
  - { offset: 0x45C0E, size: 0x8, addend: 0x0, symName: __ZNSt3__1eqB8ue170006ERKNS_21__hash_const_iteratorIPNS_11__hash_nodeIPN6parlay8internal12hazptr_stackIPNS3_15block_allocator5blockEE4NodeEPvEEEESG_, symObjAddr: 0x1B9E4, symBinAddr: 0x10001D754, symSize: 0x30 }
  - { offset: 0x45C4B, size: 0x8, addend: 0x0, symName: __ZNSt3__118__cxx_atomic_storeB8ue170006ImEEvPNS_22__cxx_atomic_base_implIT_EES2_NS_12memory_orderE, symObjAddr: 0x1BD44, symBinAddr: 0x10001DAB4, symSize: 0x84 }
  - { offset: 0x45C9C, size: 0x8, addend: 0x0, symName: __ZNSt3__113make_optionalB8ue170006IPvEENS_8optionalIu7__decayIT_EEEOS3_, symObjAddr: 0x1C57C, symBinAddr: 0x10001E2EC, symSize: 0x30 }
  - { offset: 0x45CD3, size: 0x8, addend: 0x0, symName: __ZNSt3__118__cxx_atomic_storeB8ue170006IPN6parlay8internal12hazptr_stackIPvE4NodeEEEvPNS_22__cxx_atomic_base_implIT_EES9_NS_12memory_orderE, symObjAddr: 0x1C7E4, symBinAddr: 0x10001E554, symSize: 0x84 }
  - { offset: 0x45D24, size: 0x8, addend: 0x0, symName: __ZNSt3__134__cxx_atomic_compare_exchange_weakB8ue170006IPN6parlay8internal12hazptr_stackIPvE4NodeEEEbPNS_22__cxx_atomic_base_implIT_EEPS9_S9_NS_12memory_orderESD_, symObjAddr: 0x1C98C, symBinAddr: 0x10001E6FC, symSize: 0x640 }
  - { offset: 0x45D97, size: 0x8, addend: 0x0, symName: __ZNSt3__18exchangeB8ue170006IPN6parlay8internal12hazptr_stackIPvE4NodeERS7_EET_RS9_OT0_, symObjAddr: 0x1D37C, symBinAddr: 0x10001F0EC, symSize: 0x34 }
  - { offset: 0x46C5B, size: 0x8, addend: 0x0, symName: __ZNSt3__1neB8ue170006ERKNS_21__hash_const_iteratorIPNS_11__hash_nodeIPN6parlay8internal12hazptr_stackIPvE4NodeES5_EEEESD_, symObjAddr: 0x1F8C8, symBinAddr: 0x100021638, symSize: 0x34 }
  - { offset: 0x46C99, size: 0x8, addend: 0x0, symName: __ZNSt3__1eqB8ue170006ERKNS_21__hash_const_iteratorIPNS_11__hash_nodeIPN6parlay8internal12hazptr_stackIPvE4NodeES5_EEEESD_, symObjAddr: 0x1FAE4, symBinAddr: 0x100021854, symSize: 0x30 }
  - { offset: 0x46CD7, size: 0x8, addend: 0x0, symName: __ZNSt3__122__cxx_atomic_fetch_subB8ue170006ImEET_PNS_22__cxx_atomic_base_implIS1_EES1_NS_12memory_orderE, symObjAddr: 0x1FE78, symBinAddr: 0x100021BE8, symSize: 0xDC }
  - { offset: 0x46D2C, size: 0x8, addend: 0x0, symName: __ZNSt3__116__pad_and_outputB8ue170006IcNS_11char_traitsIcEEEENS_19ostreambuf_iteratorIT_T0_EES6_PKS4_S8_S8_RNS_8ios_baseES4_, symObjAddr: 0x20B70, symBinAddr: 0x1000228E0, symSize: 0x240 }
  - { offset: 0x46DFB, size: 0x8, addend: 0x0, symName: __ZNSt3__112__to_addressB8ue170006IcEEPT_S2_, symObjAddr: 0x210D8, symBinAddr: 0x100022E48, symSize: 0x14 }
  - { offset: 0x46E63, size: 0x8, addend: 0x0, symName: __ZNSt3__19use_facetB8ue170006INS_5ctypeIcEEEERKT_RKNS_6localeE, symObjAddr: 0x21390, symBinAddr: 0x100023100, symSize: 0x2C }
  - { offset: 0x47349, size: 0x8, addend: 0x0, symName: __ZNSt3__118__constexpr_strlenB8ue170006EPKc, symObjAddr: 0x21428, symBinAddr: 0x100023198, symSize: 0x24 }
  - { offset: 0x47375, size: 0x8, addend: 0x0, symName: __ZNSt3__18exchangeB8ue170006IN6parlay9schedulerINS1_15WorkStealingJobEE10workerInfoES5_EET_RS6_OT0_, symObjAddr: 0x21A0C, symBinAddr: 0x10002377C, symSize: 0x40 }
  - { offset: 0x473CF, size: 0x8, addend: 0x0, symName: __ZNSt3__18exchangeB8ue170006IjRKjEET_RS3_OT0_, symObjAddr: 0x21D28, symBinAddr: 0x100023A98, symSize: 0x34 }
  - { offset: 0x47429, size: 0x8, addend: 0x0, symName: __ZNSt3__18exchangeB8ue170006IPN6parlay9schedulerINS1_15WorkStealingJobEEEDnEET_RS6_OT0_, symObjAddr: 0x21D5C, symBinAddr: 0x100023ACC, symSize: 0x2C }
  - { offset: 0x47483, size: 0x8, addend: 0x0, symName: __ZNSt3__122__make_exception_guardB8ue170006INS_6vectorIN6parlay8internal5DequeINS2_15WorkStealingJobEEENS_9allocatorIS6_EEE16__destroy_vectorEEENS_28__exception_guard_exceptionsIT_EESC_, symObjAddr: 0x21EC4, symBinAddr: 0x100023C34, symSize: 0x40 }
  - { offset: 0x474B8, size: 0x8, addend: 0x0, symName: __ZNSt3__119__allocate_at_leastB8ue170006INS_9allocatorIN6parlay8internal5DequeINS2_15WorkStealingJobEEEEEEENS_19__allocation_resultINS_16allocator_traitsIT_E7pointerEEERSA_m, symObjAddr: 0x222B8, symBinAddr: 0x100024028, symSize: 0x40 }
  - { offset: 0x474FB, size: 0x8, addend: 0x0, symName: __ZNSt3__112__to_addressB8ue170006IN6parlay8internal5DequeINS1_15WorkStealingJobEEEEEPT_S7_, symObjAddr: 0x22608, symBinAddr: 0x100024378, symSize: 0x14 }
  - { offset: 0x47530, size: 0x8, addend: 0x0, symName: __ZNSt3__122__make_exception_guardB8ue170006INS_6vectorIN6parlay9schedulerINS2_15WorkStealingJobEE7attemptENS_9allocatorIS6_EEE16__destroy_vectorEEENS_28__exception_guard_exceptionsIT_EESC_, symObjAddr: 0x22F08, symBinAddr: 0x100024C78, symSize: 0x40 }
  - { offset: 0x47565, size: 0x8, addend: 0x0, symName: __ZNSt3__119__allocate_at_leastB8ue170006INS_9allocatorIN6parlay9schedulerINS2_15WorkStealingJobEE7attemptEEEEENS_19__allocation_resultINS_16allocator_traitsIT_E7pointerEEERSA_m, symObjAddr: 0x232F4, symBinAddr: 0x100025064, symSize: 0x40 }
  - { offset: 0x475A8, size: 0x8, addend: 0x0, symName: __ZNSt3__112__to_addressB8ue170006IN6parlay9schedulerINS1_15WorkStealingJobEE7attemptEEEPT_S7_, symObjAddr: 0x23618, symBinAddr: 0x100025388, symSize: 0x14 }
  - { offset: 0x475DD, size: 0x8, addend: 0x0, symName: __ZNSt3__112__to_addressB8ue170006INS_6threadEEEPT_S3_, symObjAddr: 0x23FCC, symBinAddr: 0x100025D3C, symSize: 0x14 }
  - { offset: 0x47A10, size: 0x8, addend: 0x0, symName: __ZNSt3__122__libcpp_thread_createB8ue170006EPP17_opaque_pthread_tPFPvS3_ES3_, symObjAddr: 0x242A0, symBinAddr: 0x100026010, symSize: 0x38 }
  - { offset: 0x47A5C, size: 0x8, addend: 0x0, symName: __ZNSt3__114__thread_proxyB8ue170006INS_5tupleIJNS_10unique_ptrINS_15__thread_structENS_14default_deleteIS3_EEEEZN6parlay9schedulerINS7_15WorkStealingJobEEC1EmEUlvE_EEEEEPvSD_, symObjAddr: 0x242D8, symBinAddr: 0x100026048, symSize: 0x90 }
  - { offset: 0x47BA0, size: 0x8, addend: 0x0, symName: __ZNSt3__13getB8ue170006ILm0EJNS_10unique_ptrINS_15__thread_structENS_14default_deleteIS2_EEEEZN6parlay9schedulerINS6_15WorkStealingJobEEC1EmEUlvE_EEERNS_13tuple_elementIXT_ENS_5tupleIJDpT0_EEEE4typeERSF_, symObjAddr: 0x2498C, symBinAddr: 0x1000266FC, symSize: 0x24 }
  - { offset: 0x47BE8, size: 0x8, addend: 0x0, symName: __ZNSt3__116__thread_executeB8ue170006INS_10unique_ptrINS_15__thread_structENS_14default_deleteIS2_EEEEZN6parlay9schedulerINS6_15WorkStealingJobEEC1EmEUlvE_JEJEEEvRNS_5tupleIJT_T0_DpT1_EEENS_15__tuple_indicesIJXspT2_EEEE, symObjAddr: 0x249B0, symBinAddr: 0x100026720, symSize: 0x28 }
  - { offset: 0x47C37, size: 0x8, addend: 0x0, symName: __ZNSt3__116__libcpp_tls_setB8ue170006EmPv, symObjAddr: 0x249D8, symBinAddr: 0x100026748, symSize: 0x2C }
  - { offset: 0x47C74, size: 0x8, addend: 0x0, symName: __ZNSt3__18__invokeB8ue170006IZN6parlay9schedulerINS1_15WorkStealingJobEEC1EmEUlvE_JEEEDTclclsr3stdE7declvalIT_EEspclsr3stdE7declvalIT0_EEEEOS6_DpOS7_, symObjAddr: 0x24A18, symBinAddr: 0x100026788, symSize: 0x24 }
  - { offset: 0x47CAC, size: 0x8, addend: 0x0, symName: __ZNSt3__13getB8ue170006ILm1EJNS_10unique_ptrINS_15__thread_structENS_14default_deleteIS2_EEEEZN6parlay9schedulerINS6_15WorkStealingJobEEC1EmEUlvE_EEERNS_13tuple_elementIXT_ENS_5tupleIJDpT0_EEEE4typeERSF_, symObjAddr: 0x24A3C, symBinAddr: 0x1000267AC, symSize: 0x28 }
  - { offset: 0x47CF4, size: 0x8, addend: 0x0, symName: __ZNSt3__118__cxx_atomic_storeB8ue170006IjEEvPNS_22__cxx_atomic_base_implIT_EES2_NS_12memory_orderE, symObjAddr: 0x25704, symBinAddr: 0x100027474, symSize: 0x84 }
  - { offset: 0x47D45, size: 0x8, addend: 0x0, symName: __ZNSt3__136__cxx_atomic_compare_exchange_strongB8ue170006IN6parlay8internal5DequeINS1_15WorkStealingJobEE5age_tEEEbPNS_22__cxx_atomic_base_implIT_EEPS8_S8_NS_12memory_orderESC_, symObjAddr: 0x25890, symBinAddr: 0x100027600, symSize: 0x640 }
  - { offset: 0x47DB8, size: 0x8, addend: 0x0, symName: __ZNSt3__118__cxx_atomic_storeB8ue170006IN6parlay8internal5DequeINS1_15WorkStealingJobEE5age_tEEEvPNS_22__cxx_atomic_base_implIT_EES8_NS_12memory_orderE, symObjAddr: 0x25EE4, symBinAddr: 0x100027C54, symSize: 0x84 }
  - { offset: 0x47E09, size: 0x8, addend: 0x0, symName: __ZNSt3__13getB8ue170006ILm0EPN6parlay15WorkStealingJobEbEEONS_13tuple_elementIXT_ENS_4pairIT0_T1_EEE4typeEOS8_, symObjAddr: 0x26314, symBinAddr: 0x100028084, symSize: 0x24 }
  - { offset: 0x47E53, size: 0x8, addend: 0x0, symName: __ZNSt3__13getB8ue170006ILm1EPN6parlay15WorkStealingJobEbEEONS_13tuple_elementIXT_ENS_4pairIT0_T1_EEE4typeEOS8_, symObjAddr: 0x26338, symBinAddr: 0x1000280A8, symSize: 0x24 }
  - { offset: 0x47F17, size: 0x8, addend: 0x0, symName: __ZNSt3__118__cxx_atomic_storeB8ue170006IbEEvPNS_22__cxx_atomic_base_implIT_EES2_NS_12memory_orderE, symObjAddr: 0x26974, symBinAddr: 0x1000286E4, symSize: 0x90 }
  - { offset: 0x47F68, size: 0x8, addend: 0x0, symName: __ZNSt3__119__allocate_at_leastB8ue170006INS_9allocatorINS_6threadEEEEENS_19__allocation_resultINS_16allocator_traitsIT_E7pointerEEERS6_m, symObjAddr: 0x272FC, symBinAddr: 0x10002906C, symSize: 0x40 }
  - { offset: 0x47FAB, size: 0x8, addend: 0x0, symName: __ZNSt3__142__uninitialized_allocator_move_if_noexceptB8ue170006INS_9allocatorINS_6threadEEENS_16reverse_iteratorIPS2_EES6_S6_EET2_RT_T0_T1_S7_, symObjAddr: 0x27568, symBinAddr: 0x1000292D8, symSize: 0x12C }
  - { offset: 0x4804B, size: 0x8, addend: 0x0, symName: __ZNSt3__14swapB8ue170006IPNS_6threadEEENS_9enable_ifIXaasr21is_move_constructibleIT_EE5valuesr18is_move_assignableIS4_EE5valueEvE4typeERS4_S7_, symObjAddr: 0x276E0, symBinAddr: 0x100029450, symSize: 0x3C }
  - { offset: 0x4809C, size: 0x8, addend: 0x0, symName: __ZNSt3__122__make_exception_guardB8ue170006INS_29_AllocatorDestroyRangeReverseINS_9allocatorINS_6threadEEENS_16reverse_iteratorIPS3_EEEEEENS_28__exception_guard_exceptionsIT_EESA_, symObjAddr: 0x27810, symBinAddr: 0x100029580, symSize: 0x4C }
  - { offset: 0x480D2, size: 0x8, addend: 0x0, symName: __ZNSt3__1neB8ue170006IPNS_6threadES2_EEbRKNS_16reverse_iteratorIT_EERKNS3_IT0_EE, symObjAddr: 0x278A0, symBinAddr: 0x100029610, symSize: 0x48 }
  - { offset: 0x4811E, size: 0x8, addend: 0x0, symName: __ZNSt3__112__to_addressB8ue170006INS_16reverse_iteratorIPNS_6threadEEEvEEu7__decayIDTclsr19__to_address_helperIT_EE6__callclsr3stdE7declvalIRKS5_EEEEES7_, symObjAddr: 0x2791C, symBinAddr: 0x10002968C, symSize: 0x24 }
  - { offset: 0x4817E, size: 0x8, addend: 0x0, symName: __ZNSt3__119__allocator_destroyB8ue170006INS_9allocatorINS_6threadEEENS_16reverse_iteratorINS4_IPS2_EEEES7_EEvRT_T0_T1_, symObjAddr: 0x27C5C, symBinAddr: 0x1000299CC, symSize: 0x70 }
  - { offset: 0x481E3, size: 0x8, addend: 0x0, symName: __ZNSt3__1neB8ue170006INS_16reverse_iteratorIPNS_6threadEEES4_EEbRKNS1_IT_EERKNS1_IT0_EE, symObjAddr: 0x27D08, symBinAddr: 0x100029A78, symSize: 0x60 }
  - { offset: 0x4822F, size: 0x8, addend: 0x0, symName: __ZNSt3__112__to_addressB8ue170006INS_16reverse_iteratorINS1_IPNS_6threadEEEEEvEEu7__decayIDTclsr19__to_address_helperIT_EE6__callclsr3stdE7declvalIRKS6_EEEEES8_, symObjAddr: 0x27D94, symBinAddr: 0x100029B04, symSize: 0x24 }
  - { offset: 0x48295, size: 0x8, addend: 0x0, symName: __ZNSt3__111this_thread5yieldB8ue170006Ev, symObjAddr: 0x285D0, symBinAddr: 0x10002A340, symSize: 0x1C }
  - { offset: 0x482AF, size: 0x8, addend: 0x0, symName: __ZNSt3__118__cxx_atomic_storeB8ue170006IiEEvPNS_22__cxx_atomic_base_implIT_EES2_NS_12memory_orderE, symObjAddr: 0x28610, symBinAddr: 0x10002A380, symSize: 0x84 }
  - { offset: 0x48301, size: 0x8, addend: 0x0, symName: __ZNSt3__121__libcpp_thread_yieldB8ue170006Ev, symObjAddr: 0x286B8, symBinAddr: 0x10002A428, symSize: 0x14 }
  - { offset: 0x4831B, size: 0x8, addend: 0x0, symName: __ZNSt3__17launderB8ue170006IN6parlay8internal15block_allocator5blockEEEPT_S6_, symObjAddr: 0x29600, symBinAddr: 0x10002B370, symSize: 0x24 }
  - { offset: 0x48353, size: 0x8, addend: 0x0, symName: __ZNSt3__19__launderB8ue170006IN6parlay8internal15block_allocator5blockEEEPT_S6_, symObjAddr: 0x29624, symBinAddr: 0x10002B394, symSize: 0x14 }
  - { offset: 0x484CD, size: 0x8, addend: 0x0, symName: __ZNSt3__118__cxx_atomic_storeB8ue170006IPN6parlay15WorkStealingJobEEEvPNS_22__cxx_atomic_base_implIT_EES5_NS_12memory_orderE, symObjAddr: 0x2A418, symBinAddr: 0x10002C188, symSize: 0x84 }
  - { offset: 0x4874F, size: 0x8, addend: 0x0, symName: __ZNSt3__16invokeB8ue170006IRKZ19min_spanning_forestIldEN6parlay8sequenceIlNS2_9allocatorIlEELb0EEERKNS3_INS_5tupleIJT_S8_T0_EEENS4_ISA_EEXsr3std7is_sameISA_cEE5valueEEElEUllE_JRmEEENS_13invoke_resultIS8_JDpT0_EE4typeEOS8_DpOSK_, symObjAddr: 0x31114, symBinAddr: 0x100032E84, symSize: 0x2C }
  - { offset: 0x4879D, size: 0x8, addend: 0x0, symName: __ZNSt3__18__invokeB8ue170006IRKZ19min_spanning_forestIldEN6parlay8sequenceIlNS2_9allocatorIlEELb0EEERKNS3_INS_5tupleIJT_S8_T0_EEENS4_ISA_EEXsr3std7is_sameISA_cEE5valueEEElEUllE_JRmEEEDTclclsr3stdE7declvalIS8_EEspclsr3stdE7declvalIT0_EEEEOS8_DpOSJ_, symObjAddr: 0x31140, symBinAddr: 0x100032EB0, symSize: 0x30 }
  - { offset: 0x487EE, size: 0x8, addend: 0x0, symName: __ZNSt3__13getB8ue170006ILm0EJlldEEEONS_13tuple_elementIXT_ENS_5tupleIJDpT0_EEEE4typeEOS5_, symObjAddr: 0x31238, symBinAddr: 0x100032FA8, symSize: 0x24 }
  - { offset: 0x4883B, size: 0x8, addend: 0x0, symName: __ZNSt3__13getB8ue170006ILm1EJlldEEEONS_13tuple_elementIXT_ENS_5tupleIJDpT0_EEEE4typeEOS5_, symObjAddr: 0x3125C, symBinAddr: 0x100032FCC, symSize: 0x28 }
  - { offset: 0x48888, size: 0x8, addend: 0x0, symName: __ZNSt3__13getB8ue170006ILm2EJlldEEEONS_13tuple_elementIXT_ENS_5tupleIJDpT0_EEEE4typeEOS5_, symObjAddr: 0x31284, symBinAddr: 0x100032FF4, symSize: 0x28 }
  - { offset: 0x488F9, size: 0x8, addend: 0x0, symName: __ZNSt3__14swapB8ue170006IJdlllEEENS_9enable_ifIXsr5__allIXspsr14__is_swappableIT_EE5valueEEE5valueEvE4typeERNS_5tupleIJDpS2_EEES8_, symObjAddr: 0x32954, symBinAddr: 0x1000346C4, symSize: 0x2C }
  - { offset: 0x48950, size: 0x8, addend: 0x0, symName: __ZNSt3__1ltB8ue170006IJdlllEJdlllEEEbRKNS_5tupleIJDpT_EEERKNS1_IJDpT0_EEE, symObjAddr: 0x32980, symBinAddr: 0x1000346F0, symSize: 0x34 }
  - { offset: 0x48A08, size: 0x8, addend: 0x0, symName: __ZNSt3__13getB8ue170006ILm0EJdlllEEERKNS_13tuple_elementIXT_ENS_5tupleIJDpT0_EEEE4typeERKS5_, symObjAddr: 0x32A8C, symBinAddr: 0x1000347FC, symSize: 0x24 }
  - { offset: 0x48AA1, size: 0x8, addend: 0x0, symName: __ZNSt3__13getB8ue170006ILm1EJdlllEEERKNS_13tuple_elementIXT_ENS_5tupleIJDpT0_EEEE4typeERKS5_, symObjAddr: 0x32BA0, symBinAddr: 0x100034910, symSize: 0x28 }
  - { offset: 0x48B3A, size: 0x8, addend: 0x0, symName: __ZNSt3__13getB8ue170006ILm2EJdlllEEERKNS_13tuple_elementIXT_ENS_5tupleIJDpT0_EEEE4typeERKS5_, symObjAddr: 0x32CB8, symBinAddr: 0x100034A28, symSize: 0x28 }
  - { offset: 0x48BD3, size: 0x8, addend: 0x0, symName: __ZNSt3__13getB8ue170006ILm3EJdlllEEERKNS_13tuple_elementIXT_ENS_5tupleIJDpT0_EEEE4typeERKS5_, symObjAddr: 0x32DD0, symBinAddr: 0x100034B40, symSize: 0x28 }
  - { offset: 0x48C6C, size: 0x8, addend: 0x0, symName: __ZNSt3__19__swallowB8ue170006IJiiiiEEEvDpOT_, symObjAddr: 0x32F04, symBinAddr: 0x100034C74, symSize: 0x1C }
  - { offset: 0x48CCD, size: 0x8, addend: 0x0, symName: __ZNSt3__14swapB8ue170006ILm0EdLb0EEEvRNS_12__tuple_leafIXT_ET0_XT1_EEES4_, symObjAddr: 0x32FE0, symBinAddr: 0x100034D50, symSize: 0x40 }
  - { offset: 0x48D23, size: 0x8, addend: 0x0, symName: __ZNSt3__14swapB8ue170006IdEENS_9enable_ifIXaasr21is_move_constructibleIT_EE5valuesr18is_move_assignableIS2_EE5valueEvE4typeERS2_S5_, symObjAddr: 0x33020, symBinAddr: 0x100034D90, symSize: 0x3C }
  - { offset: 0x48D74, size: 0x8, addend: 0x0, symName: __ZNSt3__14swapB8ue170006ILm1ElLb0EEEvRNS_12__tuple_leafIXT_ET0_XT1_EEES4_, symObjAddr: 0x33070, symBinAddr: 0x100034DE0, symSize: 0x40 }
  - { offset: 0x48DCA, size: 0x8, addend: 0x0, symName: __ZNSt3__14swapB8ue170006IlEENS_9enable_ifIXaasr21is_move_constructibleIT_EE5valuesr18is_move_assignableIS2_EE5valueEvE4typeERS2_S5_, symObjAddr: 0x330B0, symBinAddr: 0x100034E20, symSize: 0x3C }
  - { offset: 0x48E1B, size: 0x8, addend: 0x0, symName: __ZNSt3__14swapB8ue170006ILm2ElLb0EEEvRNS_12__tuple_leafIXT_ET0_XT1_EEES4_, symObjAddr: 0x330EC, symBinAddr: 0x100034E5C, symSize: 0x40 }
  - { offset: 0x48E71, size: 0x8, addend: 0x0, symName: __ZNSt3__14swapB8ue170006ILm3ElLb0EEEvRNS_12__tuple_leafIXT_ET0_XT1_EEES4_, symObjAddr: 0x33140, symBinAddr: 0x100034EB0, symSize: 0x40 }
  - { offset: 0x48EC7, size: 0x8, addend: 0x0, symName: __ZNSt3__15beginB8ue170006IN6parlay5sliceIPNS_5tupleIJdlllEEES5_EEEEDTcldtfp_5beginEERKT_, symObjAddr: 0x35568, symBinAddr: 0x1000372D8, symSize: 0x24 }
  - { offset: 0x48EFC, size: 0x8, addend: 0x0, symName: __ZNSt3__13endB8ue170006IN6parlay5sliceIPNS_5tupleIJdlllEEES5_EEEEDTcldtfp_3endEERKT_, symObjAddr: 0x3558C, symBinAddr: 0x1000372FC, symSize: 0x24 }
  - { offset: 0x48F31, size: 0x8, addend: 0x0, symName: __ZNSt3__18distanceB8ue170006IPNS_5tupleIJdlllEEEEENS_15iterator_traitsIT_E15difference_typeES5_S5_, symObjAddr: 0x35E54, symBinAddr: 0x100037BC4, symSize: 0x2C }
  - { offset: 0x49048, size: 0x8, addend: 0x0, symName: __ZNSt3__110__distanceB8ue170006IPNS_5tupleIJdlllEEEEENS_15iterator_traitsIT_E15difference_typeES5_S5_NS_26random_access_iterator_tagE, symObjAddr: 0x36AF8, symBinAddr: 0x100038868, symSize: 0x28 }
  - { offset: 0x49297, size: 0x8, addend: 0x0, symName: __ZNSt3__13getB8ue170006ILm0EJPmS1_bEEEONS_13tuple_elementIXT_ENS_5tupleIJDpT0_EEEE4typeEOS6_, symObjAddr: 0x39354, symBinAddr: 0x10003B0C4, symSize: 0x24 }
  - { offset: 0x492E4, size: 0x8, addend: 0x0, symName: __ZNSt3__13getB8ue170006ILm1EJPmS1_bEEEONS_13tuple_elementIXT_ENS_5tupleIJDpT0_EEEE4typeEOS6_, symObjAddr: 0x39378, symBinAddr: 0x10003B0E8, symSize: 0x28 }
  - { offset: 0x49331, size: 0x8, addend: 0x0, symName: __ZNSt3__13getB8ue170006ILm2EJPmS1_bEEEONS_13tuple_elementIXT_ENS_5tupleIJDpT0_EEEE4typeEOS6_, symObjAddr: 0x393A0, symBinAddr: 0x10003B110, symSize: 0x28 }
  - { offset: 0x4937E, size: 0x8, addend: 0x0, symName: __ZNSt3__110make_tupleB8ue170006IJRPmS2_RbEEENS_5tupleIJDpNS_18__unwrap_ref_decayIT_E4typeEEEEDpOS6_, symObjAddr: 0x396B8, symBinAddr: 0x10003B428, symSize: 0x40 }
  - { offset: 0x49917, size: 0x8, addend: 0x0, symName: __ZNSt3__15beginB8ue170006IN6parlay5sliceIPNS_5tupleIJdlllEEES5_EEEEDTcldtfp_5beginEERT_, symObjAddr: 0x3C3F0, symBinAddr: 0x10003E160, symSize: 0x24 }
  - { offset: 0x4994C, size: 0x8, addend: 0x0, symName: __ZNSt3__13endB8ue170006IN6parlay5sliceIPNS_5tupleIJdlllEEES5_EEEEDTcldtfp_3endEERT_, symObjAddr: 0x3C414, symBinAddr: 0x10003E184, symSize: 0x24 }
  - { offset: 0x49981, size: 0x8, addend: 0x0, symName: __ZNSt3__15beginB8ue170006IN6parlay8internal22uninitialized_sequenceINS_5tupleIJdlllEEENS1_9allocatorIS5_EEEEEEDTcldtfp_5beginEERT_, symObjAddr: 0x3C438, symBinAddr: 0x10003E1A8, symSize: 0x24 }
  - { offset: 0x499B6, size: 0x8, addend: 0x0, symName: __ZNSt3__13endB8ue170006IN6parlay8internal22uninitialized_sequenceINS_5tupleIJdlllEEENS1_9allocatorIS5_EEEEEEDTcldtfp_3endEERT_, symObjAddr: 0x3C45C, symBinAddr: 0x10003E1CC, symSize: 0x24 }
  - { offset: 0x499EB, size: 0x8, addend: 0x0, symName: __ZNSt3__13getB8ue170006ILm0EJPNS_5tupleIJdlllEEES3_bEEEONS_13tuple_elementIXT_ENS1_IJDpT0_EEEE4typeEOS7_, symObjAddr: 0x3D6B4, symBinAddr: 0x10003F424, symSize: 0x24 }
  - { offset: 0x49A38, size: 0x8, addend: 0x0, symName: __ZNSt3__13getB8ue170006ILm1EJPNS_5tupleIJdlllEEES3_bEEEONS_13tuple_elementIXT_ENS1_IJDpT0_EEEE4typeEOS7_, symObjAddr: 0x3D6D8, symBinAddr: 0x10003F448, symSize: 0x28 }
  - { offset: 0x49A85, size: 0x8, addend: 0x0, symName: __ZNSt3__13getB8ue170006ILm2EJPNS_5tupleIJdlllEEES3_bEEEONS_13tuple_elementIXT_ENS1_IJDpT0_EEEE4typeEOS7_, symObjAddr: 0x3D700, symBinAddr: 0x10003F470, symSize: 0x28 }
  - { offset: 0x49AD2, size: 0x8, addend: 0x0, symName: __ZNSt3__110make_tupleB8ue170006IJRPNS_5tupleIJdlllEEES4_RbEEENS1_IJDpNS_18__unwrap_ref_decayIT_E4typeEEEEDpOS7_, symObjAddr: 0x3D930, symBinAddr: 0x10003F6A0, symSize: 0x40 }
  - { offset: 0x49F64, size: 0x8, addend: 0x0, symName: __ZNSt3__15beginB8ue170006IN6parlay8sequenceIjNS1_9allocatorIjEELb0EEEEEDTcldtfp_5beginEERT_, symObjAddr: 0x4109C, symBinAddr: 0x100042E0C, symSize: 0x24 }
  - { offset: 0x49F99, size: 0x8, addend: 0x0, symName: __ZNSt3__13endB8ue170006IN6parlay8sequenceIjNS1_9allocatorIjEELb0EEEEEDTcldtfp_3endEERT_, symObjAddr: 0x410C0, symBinAddr: 0x100042E30, symSize: 0x24 }
  - { offset: 0x49FCE, size: 0x8, addend: 0x0, symName: __ZNSt3__15beginB8ue170006IN6parlay5sliceIPjS3_EEEEDTcldtfp_5beginEERKT_, symObjAddr: 0x43908, symBinAddr: 0x100045678, symSize: 0x24 }
  - { offset: 0x4A003, size: 0x8, addend: 0x0, symName: __ZNSt3__13endB8ue170006IN6parlay5sliceIPjS3_EEEEDTcldtfp_3endEERKT_, symObjAddr: 0x4392C, symBinAddr: 0x10004569C, symSize: 0x24 }
  - { offset: 0x4A038, size: 0x8, addend: 0x0, symName: __ZNSt3__15beginB8ue170006IN6parlay5sliceIPjS3_EEEEDTcldtfp_5beginEERT_, symObjAddr: 0x447A0, symBinAddr: 0x100046510, symSize: 0x24 }
  - { offset: 0x4A06D, size: 0x8, addend: 0x0, symName: __ZNSt3__13endB8ue170006IN6parlay5sliceIPjS3_EEEEDTcldtfp_3endEERT_, symObjAddr: 0x447C4, symBinAddr: 0x100046534, symSize: 0x24 }
  - { offset: 0x4A0A2, size: 0x8, addend: 0x0, symName: __ZNSt3__15beginB8ue170006IN6parlay8sequenceINS_5tupleIJdlllEEENS1_9allocatorIS4_EELb0EEEEEDTcldtfp_5beginEERT_, symObjAddr: 0x4A544, symBinAddr: 0x10004C2B4, symSize: 0x24 }
  - { offset: 0x4A0D7, size: 0x8, addend: 0x0, symName: __ZNSt3__13endB8ue170006IN6parlay8sequenceINS_5tupleIJdlllEEENS1_9allocatorIS4_EELb0EEEEEDTcldtfp_3endEERT_, symObjAddr: 0x4A568, symBinAddr: 0x10004C2D8, symSize: 0x24 }
  - { offset: 0x4A10C, size: 0x8, addend: 0x0, symName: __ZNSt3__15beginB8ue170006IN6parlay8sequenceImNS1_9allocatorImEELb0EEEEEDTcldtfp_5beginEERT_, symObjAddr: 0x4CFB4, symBinAddr: 0x10004ED24, symSize: 0x24 }
  - { offset: 0x4A141, size: 0x8, addend: 0x0, symName: __ZNSt3__13endB8ue170006IN6parlay8sequenceImNS1_9allocatorImEELb0EEEEEDTcldtfp_3endEERT_, symObjAddr: 0x4CFD8, symBinAddr: 0x10004ED48, symSize: 0x24 }
  - { offset: 0x4A176, size: 0x8, addend: 0x0, symName: __ZNSt3__15beginB8ue170006IN6parlay5sliceIPmS3_EEEEDTcldtfp_5beginEERKT_, symObjAddr: 0x4F7A0, symBinAddr: 0x100051510, symSize: 0x24 }
  - { offset: 0x4A1AB, size: 0x8, addend: 0x0, symName: __ZNSt3__13endB8ue170006IN6parlay5sliceIPmS3_EEEEDTcldtfp_3endEERKT_, symObjAddr: 0x4F7C4, symBinAddr: 0x100051534, symSize: 0x24 }
  - { offset: 0x4A1E0, size: 0x8, addend: 0x0, symName: __ZNSt3__15beginB8ue170006IN6parlay5sliceIPmS3_EEEEDTcldtfp_5beginEERT_, symObjAddr: 0x50638, symBinAddr: 0x1000523A8, symSize: 0x24 }
  - { offset: 0x4A215, size: 0x8, addend: 0x0, symName: __ZNSt3__13endB8ue170006IN6parlay5sliceIPmS3_EEEEDTcldtfp_3endEERT_, symObjAddr: 0x5065C, symBinAddr: 0x1000523CC, symSize: 0x24 }
  - { offset: 0x4A24A, size: 0x8, addend: 0x0, symName: __ZNSt3__15beginB8ue170006IN6parlay16delayed_sequenceINS_5tupleIJdlllEEES4_Z19min_spanning_forestIldENS1_8sequenceIlNS1_9allocatorIlEELb0EEERKNS6_INS3_IJT_SA_T0_EEENS7_ISC_EEXsr3std7is_sameISC_cEE5valueEEElEUllE_EEEEDTcldtfp_5beginEERSA_, symObjAddr: 0x56358, symBinAddr: 0x1000580C8, symSize: 0x34 }
  - { offset: 0x4A27F, size: 0x8, addend: 0x0, symName: __ZNSt3__13endB8ue170006IN6parlay16delayed_sequenceINS_5tupleIJdlllEEES4_Z19min_spanning_forestIldENS1_8sequenceIlNS1_9allocatorIlEELb0EEERKNS6_INS3_IJT_SA_T0_EEENS7_ISC_EEXsr3std7is_sameISC_cEE5valueEEElEUllE_EEEEDTcldtfp_3endEERSA_, symObjAddr: 0x5638C, symBinAddr: 0x1000580FC, symSize: 0x34 }
  - { offset: 0x4A2B4, size: 0x8, addend: 0x0, symName: __ZNSt3__13maxB8ue170006IlEERKT_S3_S3_, symObjAddr: 0x56428, symBinAddr: 0x100058198, symSize: 0x2C }
  - { offset: 0x4A2F7, size: 0x8, addend: 0x0, symName: __ZNSt3__13minB8ue170006IlEERKT_S3_S3_, symObjAddr: 0x56480, symBinAddr: 0x1000581F0, symSize: 0x2C }
  - { offset: 0x4A33A, size: 0x8, addend: 0x0, symName: __ZNSt3__13maxB8ue170006IlNS_6__lessIvvEEEERKT_S5_S5_T0_, symObjAddr: 0x56640, symBinAddr: 0x1000583B0, symSize: 0x54 }
  - { offset: 0x4A394, size: 0x8, addend: 0x0, symName: __ZNSt3__13minB8ue170006IlNS_6__lessIvvEEEERKT_S5_S5_T0_, symObjAddr: 0x56820, symBinAddr: 0x100058590, symSize: 0x54 }
  - { offset: 0x4A3EE, size: 0x8, addend: 0x0, symName: __ZNSt3__13getB8ue170006ILm0EJdlllEEEONS_13tuple_elementIXT_ENS_5tupleIJDpT0_EEEE4typeEOS5_, symObjAddr: 0x57840, symBinAddr: 0x1000595B0, symSize: 0x24 }
  - { offset: 0x4A440, size: 0x8, addend: 0x0, symName: __ZNSt3__13getB8ue170006ILm1EJdlllEEEONS_13tuple_elementIXT_ENS_5tupleIJDpT0_EEEE4typeEOS5_, symObjAddr: 0x57864, symBinAddr: 0x1000595D4, symSize: 0x28 }
  - { offset: 0x4A492, size: 0x8, addend: 0x0, symName: __ZNSt3__13getB8ue170006ILm2EJdlllEEEONS_13tuple_elementIXT_ENS_5tupleIJDpT0_EEEE4typeEOS5_, symObjAddr: 0x5788C, symBinAddr: 0x1000595FC, symSize: 0x28 }
  - { offset: 0x4A4E4, size: 0x8, addend: 0x0, symName: __ZNSt3__13getB8ue170006ILm3EJdlllEEEONS_13tuple_elementIXT_ENS_5tupleIJDpT0_EEEE4typeEOS5_, symObjAddr: 0x578B4, symBinAddr: 0x100059624, symSize: 0x28 }
  - { offset: 0x4A536, size: 0x8, addend: 0x0, symName: __ZNSt3__118__cxx_atomic_storeB8ue170006IlEEvPNS_22__cxx_atomic_base_implIT_EES2_NS_12memory_orderE, symObjAddr: 0x57BF8, symBinAddr: 0x100059968, symSize: 0x84 }
  - { offset: 0x4A5F1, size: 0x8, addend: 0x0, symName: __ZNSt3__128atomic_compare_exchange_weakB8ue170006IlEEbPNS_6atomicIT_EEPNS3_10value_typeES5_, symObjAddr: 0x57D78, symBinAddr: 0x100059AE8, symSize: 0x3C }
  - { offset: 0x4A646, size: 0x8, addend: 0x0, symName: __ZNSt3__134__cxx_atomic_compare_exchange_weakB8ue170006IlEEbPNS_22__cxx_atomic_base_implIT_EEPS2_S2_NS_12memory_orderES6_, symObjAddr: 0x57DF8, symBinAddr: 0x100059B68, symSize: 0x640 }
  - { offset: 0x4A6B9, size: 0x8, addend: 0x0, symName: __ZNSt3__15beginB8ue170006IN6parlay8sequenceI6statusNS1_9allocatorIS3_EELb0EEEEEDTcldtfp_5beginEERT_, symObjAddr: 0x5A418, symBinAddr: 0x10005C188, symSize: 0x24 }
  - { offset: 0x4A71E, size: 0x8, addend: 0x0, symName: __ZNSt3__16invokeB8ue170006IRKZN6parlay8internal11delayed_mapIRNS1_8sequenceI6statusNS1_9allocatorIS5_EELb0EEEZ15speculative_forIlZ19min_spanning_forestIldENS4_IlNS6_IlEELb0EEERKNS4_INS_5tupleIJT_SF_T0_EEENS6_ISH_EEXsr3std7is_sameISH_cEE5valueEEElEUllE0_ZSB_IldESD_SL_lEUllE1_EvSF_SF_SG_T1_lEUlS5_E_Li0EEEDaOSF_SG_EUlmE_JRmEEENS_13invoke_resultISF_JDpT0_EE4typeESR_DpOSX_, symObjAddr: 0x5AD00, symBinAddr: 0x10005CA70, symSize: 0x30 }
  - { offset: 0x4A76C, size: 0x8, addend: 0x0, symName: __ZNSt3__18__invokeB8ue170006IRKZN6parlay8internal11delayed_mapIRNS1_8sequenceI6statusNS1_9allocatorIS5_EELb0EEEZ15speculative_forIlZ19min_spanning_forestIldENS4_IlNS6_IlEELb0EEERKNS4_INS_5tupleIJT_SF_T0_EEENS6_ISH_EEXsr3std7is_sameISH_cEE5valueEEElEUllE0_ZSB_IldESD_SL_lEUllE1_EvSF_SF_SG_T1_lEUlS5_E_Li0EEEDaOSF_SG_EUlmE_JRmEEEDTclclsr3stdE7declvalISF_EEspclsr3stdE7declvalIT0_EEEESR_DpOSW_, symObjAddr: 0x5AD30, symBinAddr: 0x10005CAA0, symSize: 0x34 }
  - { offset: 0x4A7BD, size: 0x8, addend: 0x0, symName: __ZNSt3__15beginB8ue170006IN6parlay5sliceINS1_16delayed_sequenceIbbZNS1_8internal11delayed_mapIRNS1_8sequenceI6statusNS1_9allocatorIS7_EELb0EEEZ15speculative_forIlZ19min_spanning_forestIldENS6_IlNS8_IlEELb0EEERKNS6_INS_5tupleIJT_SH_T0_EEENS8_ISJ_EEXsr3std7is_sameISJ_cEE5valueEEElEUllE0_ZSD_IldESF_SN_lEUllE1_EvSH_SH_SI_T1_lEUlS7_E_Li0EEEDaOSH_SI_EUlmE_E8iteratorESW_EEEEDTcldtfp_5beginEERKSH_, symObjAddr: 0x5B1FC, symBinAddr: 0x10005CF6C, symSize: 0x34 }
  - { offset: 0x4A7F2, size: 0x8, addend: 0x0, symName: __ZNSt3__13endB8ue170006IN6parlay5sliceINS1_16delayed_sequenceIbbZNS1_8internal11delayed_mapIRNS1_8sequenceI6statusNS1_9allocatorIS7_EELb0EEEZ15speculative_forIlZ19min_spanning_forestIldENS6_IlNS8_IlEELb0EEERKNS6_INS_5tupleIJT_SH_T0_EEENS8_ISJ_EEXsr3std7is_sameISJ_cEE5valueEEElEUllE0_ZSD_IldESF_SN_lEUllE1_EvSH_SH_SI_T1_lEUlS7_E_Li0EEEDaOSH_SI_EUlmE_E8iteratorESW_EEEEDTcldtfp_3endEERKSH_, symObjAddr: 0x5B230, symBinAddr: 0x10005CFA0, symSize: 0x34 }
  - { offset: 0x4A827, size: 0x8, addend: 0x0, symName: __ZNSt3__15beginB8ue170006IN6parlay5sliceIPlS3_EEEEDTcldtfp_5beginEERKT_, symObjAddr: 0x5DFA4, symBinAddr: 0x10005FD14, symSize: 0x24 }
  - { offset: 0x4A85C, size: 0x8, addend: 0x0, symName: __ZNSt3__13endB8ue170006IN6parlay5sliceIPlS3_EEEEDTcldtfp_3endEERKT_, symObjAddr: 0x5DFC8, symBinAddr: 0x10005FD38, symSize: 0x24 }
  - { offset: 0x4A891, size: 0x8, addend: 0x0, symName: __ZNSt3__15beginB8ue170006IN6parlay8sequenceIlNS1_9allocatorIlEELb0EEEEEDTcldtfp_5beginEERT_, symObjAddr: 0x5E9D8, symBinAddr: 0x100060748, symSize: 0x24 }
  - { offset: 0x4A8C6, size: 0x8, addend: 0x0, symName: __ZNSt3__13endB8ue170006IN6parlay8sequenceIlNS1_9allocatorIlEELb0EEEEEDTcldtfp_3endEERT_, symObjAddr: 0x5E9FC, symBinAddr: 0x10006076C, symSize: 0x24 }
  - { offset: 0x4A8FB, size: 0x8, addend: 0x0, symName: __ZNSt3__15beginB8ue170006IN6parlay16delayed_sequenceIbbZNS1_8internal11delayed_mapIRNS1_8sequenceI6statusNS1_9allocatorIS6_EELb0EEEZ15speculative_forIlZ19min_spanning_forestIldENS5_IlNS7_IlEELb0EEERKNS5_INS_5tupleIJT_SG_T0_EEENS7_ISI_EEXsr3std7is_sameISI_cEE5valueEEElEUllE0_ZSC_IldESE_SM_lEUllE1_EvSG_SG_SH_T1_lEUlS6_E_Li0EEEDaOSG_SH_EUlmE_EEEEDTcldtfp_5beginEERSG_, symObjAddr: 0x5EA20, symBinAddr: 0x100060790, symSize: 0x34 }
  - { offset: 0x4A930, size: 0x8, addend: 0x0, symName: __ZNSt3__13endB8ue170006IN6parlay16delayed_sequenceIbbZNS1_8internal11delayed_mapIRNS1_8sequenceI6statusNS1_9allocatorIS6_EELb0EEEZ15speculative_forIlZ19min_spanning_forestIldENS5_IlNS7_IlEELb0EEERKNS5_INS_5tupleIJT_SG_T0_EEENS7_ISI_EEXsr3std7is_sameISI_cEE5valueEEElEUllE0_ZSC_IldESE_SM_lEUllE1_EvSG_SG_SH_T1_lEUlS6_E_Li0EEEDaOSG_SH_EUlmE_EEEEDTcldtfp_3endEERSG_, symObjAddr: 0x5EA54, symBinAddr: 0x1000607C4, symSize: 0x34 }
  - { offset: 0x4A995, size: 0x8, addend: 0x0, symName: __ZNSt3__16invokeB8ue170006IRKZN6parlay8internal10pack_indexIlNS1_5sliceIPbS5_EEEEDaRKT0_jEUlmE_JRmEEENS_13invoke_resultIT_JDpT0_EE4typeEOSG_DpOSH_, symObjAddr: 0x5F290, symBinAddr: 0x100061000, symSize: 0x2C }
  - { offset: 0x4A9E3, size: 0x8, addend: 0x0, symName: __ZNSt3__18__invokeB8ue170006IRKZN6parlay8internal10pack_indexIlNS1_5sliceIPbS5_EEEEDaRKT0_jEUlmE_JRmEEEDTclclsr3stdE7declvalIT_EEspclsr3stdE7declvalIT0_EEEEOSF_DpOSG_, symObjAddr: 0x5F2BC, symBinAddr: 0x10006102C, symSize: 0x30 }
  - { offset: 0x4AA34, size: 0x8, addend: 0x0, symName: __ZNSt3__15beginB8ue170006IN6parlay5sliceIPbS3_EEEEDTcldtfp_5beginEERKT_, symObjAddr: 0x5F6FC, symBinAddr: 0x10006146C, symSize: 0x24 }
  - { offset: 0x4AA69, size: 0x8, addend: 0x0, symName: __ZNSt3__13endB8ue170006IN6parlay5sliceIPbS3_EEEEDTcldtfp_3endEERKT_, symObjAddr: 0x5F720, symBinAddr: 0x100061490, symSize: 0x24 }
  - { offset: 0x4AAC4, size: 0x8, addend: 0x0, symName: __ZNSt3__15beginB8ue170006IN6parlay16delayed_sequenceIllZNS1_8internal10pack_indexIlNS1_5sliceIPbS6_EEEEDaRKT0_jEUlmE_EEEEDTcldtfp_5beginEERKT_, symObjAddr: 0x607B4, symBinAddr: 0x100062524, symSize: 0x34 }
  - { offset: 0x4AAF9, size: 0x8, addend: 0x0, symName: __ZNSt3__13endB8ue170006IN6parlay16delayed_sequenceIllZNS1_8internal10pack_indexIlNS1_5sliceIPbS6_EEEEDaRKT0_jEUlmE_EEEEDTcldtfp_3endEERKT_, symObjAddr: 0x607E8, symBinAddr: 0x100062558, symSize: 0x34 }
  - { offset: 0x4AB2E, size: 0x8, addend: 0x0, symName: __ZNSt3__15beginB8ue170006IN6parlay8sequenceIbNS1_9allocatorIbEELb0EEEEEDTcldtfp_5beginEERT_, symObjAddr: 0x61408, symBinAddr: 0x100063178, symSize: 0x24 }
  - { offset: 0x4AB63, size: 0x8, addend: 0x0, symName: __ZNSt3__13endB8ue170006IN6parlay8sequenceIbNS1_9allocatorIbEELb0EEEEEDTcldtfp_3endEERT_, symObjAddr: 0x6142C, symBinAddr: 0x10006319C, symSize: 0x24 }
  - { offset: 0x4C3BD, size: 0x8, addend: 0x0, symName: __ZSt28__throw_bad_array_new_lengthB8ue170006v, symObjAddr: 0x207C, symBinAddr: 0x100003DEC, symSize: 0x34 }
  - { offset: 0x4DC07, size: 0x8, addend: 0x0, symName: __ZN6parlay8internal12hazptr_stackIPvE15hazptr_instanceEv, symObjAddr: 0x45E4, symBinAddr: 0x100006354, symSize: 0xBC }
  - { offset: 0x4DC26, size: 0x8, addend: 0x0, symName: __ZZN6parlay8internal12hazptr_stackIPvE15hazptr_instanceEvE8instance, symObjAddr: 0x62E38, symBinAddr: 0x100078078, symSize: 0x0 }
  - { offset: 0x4DD6B, size: 0x8, addend: 0x0, symName: __ZN6parlay8internal12ThreadIdPool19get_local_thread_idEv, symObjAddr: 0x678C, symBinAddr: 0x1000084FC, symSize: 0x98 }
  - { offset: 0x4DD8A, size: 0x8, addend: 0x0, symName: __ZZN6parlay8internal12ThreadIdPool19get_local_thread_idEvE5my_id, symObjAddr: 0x6B916, symBinAddr: 0x1000804E0, symSize: 0x0 }
  - { offset: 0x4DD96, size: 0x8, addend: 0x0, symName: __ZN6parlay8internal12ThreadIdPool8instanceEv, symObjAddr: 0x6824, symBinAddr: 0x100008594, symSize: 0xC4 }
  - { offset: 0x4DDB5, size: 0x8, addend: 0x0, symName: __ZZN6parlay8internal12ThreadIdPool8instanceEvE4pool, symObjAddr: 0x62F68, symBinAddr: 0x1000781A8, symSize: 0x0 }
  - { offset: 0x4DDC0, size: 0x8, addend: 0x0, symName: __ZN6parlay8internal12ThreadIdPool7acquireEv, symObjAddr: 0x7EE8, symBinAddr: 0x100009C58, symSize: 0x1BC }
  - { offset: 0x4DDE3, size: 0x8, addend: 0x0, symName: __ZZN6parlay8internal12ThreadIdPool7acquireEvE2m_, symObjAddr: 0x62F80, symBinAddr: 0x1000781C0, symSize: 0x0 }
  - { offset: 0x4DE1D, size: 0x8, addend: 0x0, symName: __ZN6parlay8internal12hazptr_stackIPSt4byteE15hazptr_instanceEv, symObjAddr: 0xA8D8, symBinAddr: 0x10000C648, symSize: 0xBC }
  - { offset: 0x4DE3C, size: 0x8, addend: 0x0, symName: __ZZN6parlay8internal12hazptr_stackIPSt4byteE15hazptr_instanceEvE8instance, symObjAddr: 0x62FC8, symBinAddr: 0x100078208, symSize: 0x0 }
  - { offset: 0x4DE47, size: 0x8, addend: 0x0, symName: __ZN6parlay8internal12hazptr_stackIPNS0_15block_allocator5blockEE15hazptr_instanceEv, symObjAddr: 0xD84C, symBinAddr: 0x10000F5BC, symSize: 0xBC }
  - { offset: 0x4DE66, size: 0x8, addend: 0x0, symName: __ZZN6parlay8internal12hazptr_stackIPNS0_15block_allocator5blockEE15hazptr_instanceEvE8instance, symObjAddr: 0x630F8, symBinAddr: 0x100078338, symSize: 0x0 }
  - { offset: 0x4DE76, size: 0x8, addend: 0x0, symName: __ZN6parlay8internal15block_allocator13min_alignmentE, symObjAddr: 0x6CD48, symBinAddr: 0x1000698B0, symSize: 0x0 }
  - { offset: 0x4DE93, size: 0x8, addend: 0x0, symName: __ZN6parlay9schedulerINS_15WorkStealingJobEE10workerInfo13UNINITIALIZEDE, symObjAddr: 0x6D2CC, symBinAddr: 0x100069E34, symSize: 0x0 }
  - { offset: 0x4DEA1, size: 0x8, addend: 0x0, symName: __Z12__contentionPVKv, symObjAddr: 0x250C0, symBinAddr: 0x100026E30, symSize: 0x24 }
  - { offset: 0x4DECD, size: 0x8, addend: 0x0, symName: __ZZ12__contentionPVKvE10contention, symObjAddr: 0x63240, symBinAddr: 0x100078480, symSize: 0x0 }
  - { offset: 0x4DF70, size: 0x8, addend: 0x0, symName: __ZN6parlay9schedulerINS_15WorkStealingJobEE13STEAL_TIMEOUTE, symObjAddr: 0x6D2D0, symBinAddr: 0x100069E38, symSize: 0x0 }
  - { offset: 0x4E30C, size: 0x8, addend: 0x0, symName: __ZNSt3__16vectorImNS_9allocatorImEEE26__swap_out_circular_bufferERNS_14__split_bufferImRS2_EE, symObjAddr: 0x1900, symBinAddr: 0x100003670, symSize: 0x110 }
  - { offset: 0x4E364, size: 0x8, addend: 0x0, symName: __ZN6parlay14ThreadSpecificINS_8internal24intrusive_acquire_retireINS1_12hazptr_stackIPvE4NodeENSt3__114default_deleteIS6_EELm1EE10ThreadDataEEC2Ev, symObjAddr: 0x4840, symBinAddr: 0x1000065B0, symSize: 0x70 }
  - { offset: 0x4E698, size: 0x8, addend: 0x0, symName: __ZNSt3__110shared_ptrIN6parlay8internal12ThreadIdPoolEE18__enable_weak_thisB8ue170006IS3_S3_vEEvPKNS_23enable_shared_from_thisIT_EEPT0_, symObjAddr: 0x7748, symBinAddr: 0x1000094B8, symSize: 0x7C }
  - { offset: 0x4E705, size: 0x8, addend: 0x0, symName: __ZN6parlay14ThreadSpecificINS_8internal24intrusive_acquire_retireINS1_12hazptr_stackIPSt4byteE4NodeENSt3__114default_deleteIS7_EELm1EE10ThreadDataEEC2Ev, symObjAddr: 0xAB34, symBinAddr: 0x10000C8A4, symSize: 0x70 }
  - { offset: 0x4E97A, size: 0x8, addend: 0x0, symName: __ZN6parlay14ThreadSpecificINS_8internal24intrusive_acquire_retireINS1_12hazptr_stackIPNS1_15block_allocator5blockEE4NodeENSt3__114default_deleteIS8_EELm1EE10ThreadDataEEC2Ev, symObjAddr: 0xDAA8, symBinAddr: 0x10000F818, symSize: 0x70 }
  - { offset: 0x4EBEF, size: 0x8, addend: 0x0, symName: __ZN6parlay14ThreadSpecificINS_8internal15block_allocator10local_listEEC2Ev, symObjAddr: 0x10758, symBinAddr: 0x1000124C8, symSize: 0x70 }
  - { offset: 0x4FFA4, size: 0x8, addend: 0x0, symName: __ZN6parlay9schedulerINS_15WorkStealingJobEEC2Em, symObjAddr: 0x21874, symBinAddr: 0x1000235E4, symSize: 0x198 }
  - { offset: 0x500D0, size: 0x8, addend: 0x0, symName: __ZNKSt3__16chrono13__duration_ltINS0_8durationIxNS_5ratioILl1ELl1000000000EEEEENS2_IxNS3_ILl1ELl1000000EEEEEEclB8ue170006ERKS5_RKS7_, symObjAddr: 0x265EC, symBinAddr: 0x10002835C, symSize: 0x6C }
  - { offset: 0x5012A, size: 0x8, addend: 0x0, symName: __ZNKSt3__16chrono15__duration_castINS0_8durationIxNS_5ratioILl1ELl1000000EEEEENS2_IxNS3_ILl1ELl1000000000EEEEENS3_ILl1000ELl1EEELb0ELb1EEclB8ue170006ERKS5_, symObjAddr: 0x2672C, symBinAddr: 0x10002849C, symSize: 0x48 }
  - { offset: 0x5016E, size: 0x8, addend: 0x0, symName: __ZNSt3__16vectorINS_6threadENS_9allocatorIS1_EEE26__swap_out_circular_bufferERNS_14__split_bufferIS1_RS3_EE, symObjAddr: 0x26EFC, symBinAddr: 0x100028C6C, symSize: 0x110 }
  - { offset: 0x5022F, size: 0x8, addend: 0x0, symName: __ZN6parlay19fork_join_scheduler7parfor_IZNS_24uninitialized_relocate_nIPNSt3__15tupleIJlldEEEmS6_EENS3_4pairIT_T1_EES8_T0_S9_EUlmE_EEvRNS_9schedulerINS_15WorkStealingJobEEEmmRS8_mb, symObjAddr: 0x29B30, symBinAddr: 0x10002B8A0, symSize: 0x150 }
  - { offset: 0x504D6, size: 0x8, addend: 0x0, symName: __ZN6parlay8sequenceIbNS_9allocatorIbEELb0EE15initialize_fillEmRKb, symObjAddr: 0x2ADA0, symBinAddr: 0x10002CB10, symSize: 0x98 }
  - { offset: 0x5057C, size: 0x8, addend: 0x0, symName: __ZN6parlay19fork_join_scheduler7parfor_IZNS_8sequenceIbNS_9allocatorIbEELb0EE15initialize_fillEmRKbEUlmE_EEvRNS_9schedulerINS_15WorkStealingJobEEEmmRT_mb, symObjAddr: 0x2BA9C, symBinAddr: 0x10002D80C, symSize: 0x150 }
  - { offset: 0x508F7, size: 0x8, addend: 0x0, symName: __ZN10union_findIlEC2Em, symObjAddr: 0x2C2B8, symBinAddr: 0x10002E028, symSize: 0x3C }
  - { offset: 0x50952, size: 0x8, addend: 0x0, symName: __ZN6parlay8sequenceINSt3__16atomicIlEENS_9allocatorIS3_EELb0EEC2IZN10union_findIlEC1EmEUllE_EEmOT_NS6_18_from_function_tagEm, symObjAddr: 0x2C3BC, symBinAddr: 0x10002E12C, symSize: 0xCC }
  - { offset: 0x50A2B, size: 0x8, addend: 0x0, symName: __ZN6parlay19fork_join_scheduler7parfor_IZNS_8sequenceINSt3__16atomicIlEENS_9allocatorIS5_EELb0EEC1IZN10union_findIlEC1EmEUllE_EEmOT_NS8_18_from_function_tagEmEUlmE_EEvRNS_9schedulerINS_15WorkStealingJobEEEmmRSD_mb, symObjAddr: 0x2D300, symBinAddr: 0x10002F070, symSize: 0x150 }
  - { offset: 0x50D99, size: 0x8, addend: 0x0, symName: __ZN6parlay8sequenceI11reservationIlENS_9allocatorIS2_EELb0EE18initialize_defaultEm, symObjAddr: 0x2DBAC, symBinAddr: 0x10002F91C, symSize: 0x8C }
  - { offset: 0x50E23, size: 0x8, addend: 0x0, symName: __ZN6parlay19fork_join_scheduler7parfor_IZNS_8sequenceI11reservationIlENS_9allocatorIS4_EELb0EE18initialize_defaultEmEUlmE_EEvRNS_9schedulerINS_15WorkStealingJobEEEmmRT_mb, symObjAddr: 0x2E8E8, symBinAddr: 0x100030658, symSize: 0x150 }
  - { offset: 0x511FE, size: 0x8, addend: 0x0, symName: __ZN6parlay19fork_join_scheduler7parfor_IZNS_8internal10merge_intoINS_26uninitialized_relocate_tagEPNSt3__15tupleIJdlllEEES8_S8_NS5_4lessIvEEEEvNS_5sliceIT0_SC_EENSB_IT1_SE_EENSB_IT2_SG_EERKT3_bEUlmE_EEvRNS_9schedulerINS_15WorkStealingJobEEEmmRT_mb, symObjAddr: 0x34174, symBinAddr: 0x100035EE4, symSize: 0x150 }
  - { offset: 0x51399, size: 0x8, addend: 0x0, symName: __ZN6parlay19fork_join_scheduler7parfor_IZNS_8internal10merge_intoINS_26uninitialized_relocate_tagEPNSt3__15tupleIJdlllEEES8_S8_NS5_4lessIvEEEEvNS_5sliceIT0_SC_EENSB_IT1_SE_EENSB_IT2_SG_EERKT3_bEUlmE0_EEvRNS_9schedulerINS_15WorkStealingJobEEEmmRT_mb, symObjAddr: 0x34C10, symBinAddr: 0x100036980, symSize: 0x150 }
  - { offset: 0x51545, size: 0x8, addend: 0x0, symName: __ZN6parlay19fork_join_scheduler7parfor_IZNS_24uninitialized_relocate_nIPNSt3__15tupleIJdlllEEElS6_EENS3_4pairIT_T1_EES8_T0_S9_EUlmE_EEvRNS_9schedulerINS_15WorkStealingJobEEEmmRS8_mb, symObjAddr: 0x362D4, symBinAddr: 0x100038044, symSize: 0x150 }
  - { offset: 0x518BD, size: 0x8, addend: 0x0, symName: __ZN6parlay8sequenceImNS_9allocatorImEELb0EEC2IZNS_8internal11get_bucketsIPNSt3__15tupleIJdlllEEENS7_4lessIvEEEEbNS_5sliceIT_SE_EEPhT0_mEUlmE_EEmOSE_NS3_18_from_function_tagEm, symObjAddr: 0x380B0, symBinAddr: 0x100039E20, symSize: 0xCC }
  - { offset: 0x51996, size: 0x8, addend: 0x0, symName: __ZN6parlay19fork_join_scheduler7parfor_IZNS_8sequenceImNS_9allocatorImEELb0EEC1IZNS_8internal11get_bucketsIPNSt3__15tupleIJdlllEEENS9_4lessIvEEEEbNS_5sliceIT_SG_EEPhT0_mEUlmE_EEmOSG_NS5_18_from_function_tagEmEUlmE_EEvRNS_9schedulerINS_15WorkStealingJobEEEmmRSG_mb, symObjAddr: 0x38768, symBinAddr: 0x10003A4D8, symSize: 0x150 }
  - { offset: 0x51B58, size: 0x8, addend: 0x0, symName: __ZN6parlay8sequenceImNS_9allocatorImEELb0EEC2IZNS_8internal11get_bucketsIPNSt3__15tupleIJdlllEEENS7_4lessIvEEEEbNS_5sliceIT_SE_EEPhT0_mEUlmE0_EEmOSE_NS3_18_from_function_tagEm, symObjAddr: 0x3AB48, symBinAddr: 0x10003C8B8, symSize: 0xCC }
  - { offset: 0x51C26, size: 0x8, addend: 0x0, symName: __ZN6parlay19fork_join_scheduler7parfor_IZNS_8sequenceImNS_9allocatorImEELb0EEC1IZNS_8internal11get_bucketsIPNSt3__15tupleIJdlllEEENS9_4lessIvEEEEbNS_5sliceIT_SG_EEPhT0_mEUlmE0_EEmOSG_NS5_18_from_function_tagEmEUlmE_EEvRNS_9schedulerINS_15WorkStealingJobEEEmmRSG_mb, symObjAddr: 0x3B028, symBinAddr: 0x10003CD98, symSize: 0x150 }
  - { offset: 0x51DC1, size: 0x8, addend: 0x0, symName: __ZN6parlay19fork_join_scheduler7parfor_IZNS_8internal13bucket_sort_rIPNSt3__15tupleIJdlllEEES7_NS4_4lessIvEEEEvNS_5sliceIT_SB_EENSA_IT0_SD_EET1_bbEUlmE_EEvRNS_9schedulerINS_15WorkStealingJobEEEmmRSB_mb, symObjAddr: 0x3BBD4, symBinAddr: 0x10003D944, symSize: 0x150 }
  - { offset: 0x51F5B, size: 0x8, addend: 0x0, symName: __Z19min_spanning_forestIldEN6parlay8sequenceIlNS0_9allocatorIlEELb0EEERKNS1_INSt3__15tupleIJT_S7_T0_EEENS2_IS9_EEXsr3std7is_sameIS9_cEE5valueEEEl, symObjAddr: 0x580, symBinAddr: 0x1000022F0, symSize: 0x1B4 }
  - { offset: 0x521CE, size: 0x8, addend: 0x0, symName: __ZN6parlay8sequenceINSt3__15tupleIJdlllEEENS_9allocatorIS3_EELb0EEC2IZNS_8internal12sample_sort_IjNS_16delayed_sequenceIS3_S3_Z19min_spanning_forestIldENS0_IlNS4_IlEELb0EEERKNS0_INS2_IJT_SE_T0_EEENS4_ISG_EEXsr3std7is_sameISG_cEE5valueEEElEUllE_E8iteratorEPS3_NS1_4lessIvEEEEvNS_5sliceISF_SF_EENSR_IT1_ST_EERKT2_bEUlmE_EEmOSE_NS6_18_from_function_tagEm, symObjAddr: 0x3C4E4, symBinAddr: 0x10003E254, symSize: 0xCC }
  - { offset: 0x522A7, size: 0x8, addend: 0x0, symName: __ZN6parlay19fork_join_scheduler7parfor_IZNS_8sequenceINSt3__15tupleIJdlllEEENS_9allocatorIS5_EELb0EEC1IZNS_8internal12sample_sort_IjNS_16delayed_sequenceIS5_S5_Z19min_spanning_forestIldENS2_IlNS6_IlEELb0EEERKNS2_INS4_IJT_SG_T0_EEENS6_ISI_EEXsr3std7is_sameISI_cEE5valueEEElEUllE_E8iteratorEPS5_NS3_4lessIvEEEEvNS_5sliceISH_SH_EENST_IT1_SV_EERKT2_bEUlmE_EEmOSG_NS8_18_from_function_tagEmEUlmE_EEvRNS_9schedulerINS_15WorkStealingJobEEEmmRSG_mb, symObjAddr: 0x3CB00, symBinAddr: 0x10003E870, symSize: 0x150 }
  - { offset: 0x52458, size: 0x8, addend: 0x0, symName: __ZN6parlay8sequenceINSt3__15tupleIJdlllEEENS_9allocatorIS3_EELb0EEC2IZNS_8internal12sample_sort_IjNS_16delayed_sequenceIS3_S3_Z19min_spanning_forestIldENS0_IlNS4_IlEELb0EEERKNS0_INS2_IJT_SE_T0_EEENS4_ISG_EEXsr3std7is_sameISG_cEE5valueEEElEUllE_E8iteratorEPS3_NS1_4lessIvEEEEvNS_5sliceISF_SF_EENSR_IT1_ST_EERKT2_bEUlmE0_EEmOSE_NS6_18_from_function_tagEm, symObjAddr: 0x3ED84, symBinAddr: 0x100040AF4, symSize: 0xCC }
  - { offset: 0x52526, size: 0x8, addend: 0x0, symName: __ZN6parlay19fork_join_scheduler7parfor_IZNS_8sequenceINSt3__15tupleIJdlllEEENS_9allocatorIS5_EELb0EEC1IZNS_8internal12sample_sort_IjNS_16delayed_sequenceIS5_S5_Z19min_spanning_forestIldENS2_IlNS6_IlEELb0EEERKNS2_INS4_IJT_SG_T0_EEENS6_ISI_EEXsr3std7is_sameISI_cEE5valueEEElEUllE_E8iteratorEPS5_NS3_4lessIvEEEEvNS_5sliceISH_SH_EENST_IT1_SV_EERKT2_bEUlmE0_EEmOSG_NS8_18_from_function_tagEmEUlmE_EEvRNS_9schedulerINS_15WorkStealingJobEEEmmRSG_mb, symObjAddr: 0x3F2CC, symBinAddr: 0x10004103C, symSize: 0x150 }
  - { offset: 0x528DA, size: 0x8, addend: 0x0, symName: __ZN6parlay19fork_join_scheduler7parfor_IZNS_8internal10sliced_forIZNS2_12sample_sort_IjNS_16delayed_sequenceINSt3__15tupleIJdlllEEES8_Z19min_spanning_forestIldENS_8sequenceIlNS_9allocatorIlEELb0EEERKNSA_INS7_IJT_SE_T0_EEENSB_ISG_EEXsr3std7is_sameISG_cEE5valueEEElEUllE_E8iteratorEPS8_NS6_4lessIvEEEEvNS_5sliceISF_SF_EENSR_IT1_ST_EERKT2_bEUlmmmE_EEvmmRKSE_jEUlmE_EEvRNS_9schedulerINS_15WorkStealingJobEEEmmRSE_mb, symObjAddr: 0x41368, symBinAddr: 0x1000430D8, symSize: 0x150 }
  - { offset: 0x52A7B, size: 0x8, addend: 0x0, symName: __ZN6parlay8sequenceIjNS_9allocatorIjEELb0EEC2IRZNS_8internal17transpose_bucketsINS_26uninitialized_relocate_tagEPNSt3__15tupleIJdlllEEESB_jEENS0_ImNS1_ImEELb0EEET0_T1_RNS0_IT2_NS1_ISG_EEXsr3std7is_sameISG_cEE5valueEEEmmmmEUlmE_EEmOT_NS3_18_from_function_tagEm, symObjAddr: 0x41F6C, symBinAddr: 0x100043CDC, symSize: 0xCC }
  - { offset: 0x52B4E, size: 0x8, addend: 0x0, symName: __ZN6parlay19fork_join_scheduler7parfor_IZNS_8sequenceIjNS_9allocatorIjEELb0EEC1IRZNS_8internal17transpose_bucketsINS_26uninitialized_relocate_tagEPNSt3__15tupleIJdlllEEESD_jEENS2_ImNS3_ImEELb0EEET0_T1_RNS2_IT2_NS3_ISI_EEXsr3std7is_sameISI_cEE5valueEEEmmmmEUlmE_EEmOT_NS5_18_from_function_tagEmEUlmE_EEvRNS_9schedulerINS_15WorkStealingJobEEEmmRSO_mb, symObjAddr: 0x424C4, symBinAddr: 0x100044234, symSize: 0x150 }
  - { offset: 0x52D1A, size: 0x8, addend: 0x0, symName: __ZN6parlay19fork_join_scheduler7parfor_IZNS_8internal10sliced_forIZNS2_5scan_INS_5sliceIPjS6_EES7_RNS_4plusIjEEEEDaRKT_T0_OT1_jbEUlmmmE_EEvmmSE_jEUlmE_EEvRNS_9schedulerINS_15WorkStealingJobEEEmmRSC_mb, symObjAddr: 0x43AB4, symBinAddr: 0x100045824, symSize: 0x150 }
  - { offset: 0x52EC6, size: 0x8, addend: 0x0, symName: __ZN6parlay19fork_join_scheduler7parfor_IZNS_8internal10sliced_forIZNS2_5scan_INS_5sliceIPjS6_EES7_RNS_4plusIjEEEEDaRKT_T0_OT1_jbEUlmmmE0_EEvmmSE_jEUlmE_EEvRNS_9schedulerINS_15WorkStealingJobEEEmmRSC_mb, symObjAddr: 0x4494C, symBinAddr: 0x1000466BC, symSize: 0x150 }
  - { offset: 0x53061, size: 0x8, addend: 0x0, symName: __ZN6parlay19fork_join_scheduler7parfor_IZNS_8internal17transpose_bucketsINS_26uninitialized_relocate_tagEPNSt3__15tupleIJdlllEEES8_jEENS_8sequenceImNS_9allocatorImEELb0EEET0_T1_RNS9_IT2_NSA_ISF_EEXsr3std7is_sameISF_cEE5valueEEEmmmmEUlmE0_EEvRNS_9schedulerINS_15WorkStealingJobEEEmmRT_mb, symObjAddr: 0x454D0, symBinAddr: 0x100047240, symSize: 0x150 }
  - { offset: 0x531FB, size: 0x8, addend: 0x0, symName: __ZN6parlay8internal9transposeINS_22uninitialized_copy_tagEPjS3_E6transREmmmmmm, symObjAddr: 0x45CEC, symBinAddr: 0x100047A5C, symSize: 0x298 }
  - { offset: 0x5351B, size: 0x8, addend: 0x0, symName: __ZN6parlay8internal10blockTransINS_26uninitialized_relocate_tagEPNSt3__15tupleIJdlllEEES6_PjS7_E6transREmmmmmm, symObjAddr: 0x46E18, symBinAddr: 0x100048B88, symSize: 0x220 }
  - { offset: 0x53841, size: 0x8, addend: 0x0, symName: __ZN6parlay19fork_join_scheduler7parfor_IZNS_8internal10blockTransINS_26uninitialized_relocate_tagEPNSt3__15tupleIJdlllEEES8_PjS9_E6transREmmmmmmEUlmE_EEvRNS_9schedulerINS_15WorkStealingJobEEEmmRT_mb, symObjAddr: 0x47588, symBinAddr: 0x1000492F8, symSize: 0x150 }
  - { offset: 0x539F2, size: 0x8, addend: 0x0, symName: __ZN6parlay8sequenceImNS_9allocatorImEELb0EEC2IZNS_8internal17transpose_bucketsINS_26uninitialized_relocate_tagEPNSt3__15tupleIJdlllEEESB_jEES3_T0_T1_RNS0_IT2_NS1_ISE_EEXsr3std7is_sameISE_cEE5valueEEEmmmmEUlmE1_EEmOT_NS3_18_from_function_tagEm, symObjAddr: 0x48B34, symBinAddr: 0x10004A8A4, symSize: 0xCC }
  - { offset: 0x53AC0, size: 0x8, addend: 0x0, symName: __ZN6parlay19fork_join_scheduler7parfor_IZNS_8sequenceImNS_9allocatorImEELb0EEC1IZNS_8internal17transpose_bucketsINS_26uninitialized_relocate_tagEPNSt3__15tupleIJdlllEEESD_jEES5_T0_T1_RNS2_IT2_NS3_ISG_EEXsr3std7is_sameISG_cEE5valueEEEmmmmEUlmE1_EEmOT_NS5_18_from_function_tagEmEUlmE_EEvRNS_9schedulerINS_15WorkStealingJobEEEmmRSL_mb, symObjAddr: 0x49054, symBinAddr: 0x10004ADC4, symSize: 0x150 }
  - { offset: 0x53C61, size: 0x8, addend: 0x0, symName: __ZN6parlay19fork_join_scheduler7parfor_IZNS_8internal12sample_sort_IjNS_16delayed_sequenceINSt3__15tupleIJdlllEEES7_Z19min_spanning_forestIldENS_8sequenceIlNS_9allocatorIlEELb0EEERKNS9_INS6_IJT_SD_T0_EEENSA_ISF_EEXsr3std7is_sameISF_cEE5valueEEElEUllE_E8iteratorEPS7_NS5_4lessIvEEEEvNS_5sliceISE_SE_EENSQ_IT1_SS_EERKT2_bEUlmE1_EEvRNS_9schedulerINS_15WorkStealingJobEEEmmRSD_mb, symObjAddr: 0x49BB4, symBinAddr: 0x10004B924, symSize: 0x150 }
  - { offset: 0x53DFC, size: 0x8, addend: 0x0, symName: __ZN6parlay8sequenceINSt3__15tupleIJdlllEEENS_9allocatorIS3_EELb0EEC2IZNS_8internal12sample_sort_ImNS_16delayed_sequenceIS3_S3_Z19min_spanning_forestIldENS0_IlNS4_IlEELb0EEERKNS0_INS2_IJT_SE_T0_EEENS4_ISG_EEXsr3std7is_sameISG_cEE5valueEEElEUllE_E8iteratorEPS3_NS1_4lessIvEEEEvNS_5sliceISF_SF_EENSR_IT1_ST_EERKT2_bEUlmE_EEmOSE_NS6_18_from_function_tagEm, symObjAddr: 0x4AD6C, symBinAddr: 0x10004CADC, symSize: 0xCC }
  - { offset: 0x53ECA, size: 0x8, addend: 0x0, symName: __ZN6parlay19fork_join_scheduler7parfor_IZNS_8sequenceINSt3__15tupleIJdlllEEENS_9allocatorIS5_EELb0EEC1IZNS_8internal12sample_sort_ImNS_16delayed_sequenceIS5_S5_Z19min_spanning_forestIldENS2_IlNS6_IlEELb0EEERKNS2_INS4_IJT_SG_T0_EEENS6_ISI_EEXsr3std7is_sameISI_cEE5valueEEElEUllE_E8iteratorEPS5_NS3_4lessIvEEEEvNS_5sliceISH_SH_EENST_IT1_SV_EERKT2_bEUlmE_EEmOSG_NS8_18_from_function_tagEmEUlmE_EEvRNS_9schedulerINS_15WorkStealingJobEEEmmRSG_mb, symObjAddr: 0x4B26C, symBinAddr: 0x10004CFDC, symSize: 0x150 }
  - { offset: 0x54065, size: 0x8, addend: 0x0, symName: __ZN6parlay8sequenceINSt3__15tupleIJdlllEEENS_9allocatorIS3_EELb0EEC2IZNS_8internal12sample_sort_ImNS_16delayed_sequenceIS3_S3_Z19min_spanning_forestIldENS0_IlNS4_IlEELb0EEERKNS0_INS2_IJT_SE_T0_EEENS4_ISG_EEXsr3std7is_sameISG_cEE5valueEEElEUllE_E8iteratorEPS3_NS1_4lessIvEEEEvNS_5sliceISF_SF_EENSR_IT1_ST_EERKT2_bEUlmE0_EEmOSE_NS6_18_from_function_tagEm, symObjAddr: 0x4BAA0, symBinAddr: 0x10004D810, symSize: 0xCC }
  - { offset: 0x54133, size: 0x8, addend: 0x0, symName: __ZN6parlay19fork_join_scheduler7parfor_IZNS_8sequenceINSt3__15tupleIJdlllEEENS_9allocatorIS5_EELb0EEC1IZNS_8internal12sample_sort_ImNS_16delayed_sequenceIS5_S5_Z19min_spanning_forestIldENS2_IlNS6_IlEELb0EEERKNS2_INS4_IJT_SG_T0_EEENS6_ISI_EEXsr3std7is_sameISI_cEE5valueEEElEUllE_E8iteratorEPS5_NS3_4lessIvEEEEvNS_5sliceISH_SH_EENST_IT1_SV_EERKT2_bEUlmE0_EEmOSG_NS8_18_from_function_tagEmEUlmE_EEvRNS_9schedulerINS_15WorkStealingJobEEEmmRSG_mb, symObjAddr: 0x4BF8C, symBinAddr: 0x10004DCFC, symSize: 0x150 }
  - { offset: 0x542D9, size: 0x8, addend: 0x0, symName: __ZN6parlay19fork_join_scheduler7parfor_IZNS_8internal10sliced_forIZNS2_12sample_sort_ImNS_16delayed_sequenceINSt3__15tupleIJdlllEEES8_Z19min_spanning_forestIldENS_8sequenceIlNS_9allocatorIlEELb0EEERKNSA_INS7_IJT_SE_T0_EEENSB_ISG_EEXsr3std7is_sameISG_cEE5valueEEElEUllE_E8iteratorEPS8_NS6_4lessIvEEEEvNS_5sliceISF_SF_EENSR_IT1_ST_EERKT2_bEUlmmmE_EEvmmRKSE_jEUlmE_EEvRNS_9schedulerINS_15WorkStealingJobEEEmmRSE_mb, symObjAddr: 0x4D25C, symBinAddr: 0x10004EFCC, symSize: 0x150 }
  - { offset: 0x54474, size: 0x8, addend: 0x0, symName: __ZN6parlay8sequenceImNS_9allocatorImEELb0EEC2IRZNS_8internal17transpose_bucketsINS_26uninitialized_relocate_tagEPNSt3__15tupleIJdlllEEESB_mEES3_T0_T1_RNS0_IT2_NS1_ISE_EEXsr3std7is_sameISE_cEE5valueEEEmmmmEUlmE_EEmOT_NS3_18_from_function_tagEm, symObjAddr: 0x4DE60, symBinAddr: 0x10004FBD0, symSize: 0xCC }
  - { offset: 0x5453C, size: 0x8, addend: 0x0, symName: __ZN6parlay19fork_join_scheduler7parfor_IZNS_8sequenceImNS_9allocatorImEELb0EEC1IRZNS_8internal17transpose_bucketsINS_26uninitialized_relocate_tagEPNSt3__15tupleIJdlllEEESD_mEES5_T0_T1_RNS2_IT2_NS3_ISG_EEXsr3std7is_sameISG_cEE5valueEEEmmmmEUlmE_EEmOT_NS5_18_from_function_tagEmEUlmE_EEvRNS_9schedulerINS_15WorkStealingJobEEEmmRSM_mb, symObjAddr: 0x4E35C, symBinAddr: 0x1000500CC, symSize: 0x150 }
  - { offset: 0x54708, size: 0x8, addend: 0x0, symName: __ZN6parlay19fork_join_scheduler7parfor_IZNS_8internal10sliced_forIZNS2_5scan_INS_5sliceIPmS6_EES7_RNS_4plusImEEEEDaRKT_T0_OT1_jbEUlmmmE_EEvmmSE_jEUlmE_EEvRNS_9schedulerINS_15WorkStealingJobEEEmmRSC_mb, symObjAddr: 0x4F94C, symBinAddr: 0x1000516BC, symSize: 0x150 }
  - { offset: 0x548AE, size: 0x8, addend: 0x0, symName: __ZN6parlay19fork_join_scheduler7parfor_IZNS_8internal10sliced_forIZNS2_5scan_INS_5sliceIPmS6_EES7_RNS_4plusImEEEEDaRKT_T0_OT1_jbEUlmmmE0_EEvmmSE_jEUlmE_EEvRNS_9schedulerINS_15WorkStealingJobEEEmmRSC_mb, symObjAddr: 0x507E4, symBinAddr: 0x100052554, symSize: 0x150 }
  - { offset: 0x54A49, size: 0x8, addend: 0x0, symName: __ZN6parlay19fork_join_scheduler7parfor_IZNS_8internal17transpose_bucketsINS_26uninitialized_relocate_tagEPNSt3__15tupleIJdlllEEES8_mEENS_8sequenceImNS_9allocatorImEELb0EEET0_T1_RNS9_IT2_NSA_ISF_EEXsr3std7is_sameISF_cEE5valueEEEmmmmEUlmE0_EEvRNS_9schedulerINS_15WorkStealingJobEEEmmRT_mb, symObjAddr: 0x51368, symBinAddr: 0x1000530D8, symSize: 0x150 }
  - { offset: 0x54BE3, size: 0x8, addend: 0x0, symName: __ZN6parlay8internal9transposeINS_22uninitialized_copy_tagEPmS3_E6transREmmmmmm, symObjAddr: 0x51B84, symBinAddr: 0x1000538F4, symSize: 0x298 }
  - { offset: 0x54F03, size: 0x8, addend: 0x0, symName: __ZN6parlay8internal10blockTransINS_26uninitialized_relocate_tagEPNSt3__15tupleIJdlllEEES6_PmS7_E6transREmmmmmm, symObjAddr: 0x52C94, symBinAddr: 0x100054A04, symSize: 0x220 }
  - { offset: 0x55229, size: 0x8, addend: 0x0, symName: __ZN6parlay19fork_join_scheduler7parfor_IZNS_8internal10blockTransINS_26uninitialized_relocate_tagEPNSt3__15tupleIJdlllEEES8_PmS9_E6transREmmmmmmEUlmE_EEvRNS_9schedulerINS_15WorkStealingJobEEEmmRT_mb, symObjAddr: 0x53404, symBinAddr: 0x100055174, symSize: 0x150 }
  - { offset: 0x553DA, size: 0x8, addend: 0x0, symName: __ZN6parlay8sequenceImNS_9allocatorImEELb0EEC2IZNS_8internal17transpose_bucketsINS_26uninitialized_relocate_tagEPNSt3__15tupleIJdlllEEESB_mEES3_T0_T1_RNS0_IT2_NS1_ISE_EEXsr3std7is_sameISE_cEE5valueEEEmmmmEUlmE1_EEmOT_NS3_18_from_function_tagEm, symObjAddr: 0x549B0, symBinAddr: 0x100056720, symSize: 0xCC }
  - { offset: 0x554A8, size: 0x8, addend: 0x0, symName: __ZN6parlay19fork_join_scheduler7parfor_IZNS_8sequenceImNS_9allocatorImEELb0EEC1IZNS_8internal17transpose_bucketsINS_26uninitialized_relocate_tagEPNSt3__15tupleIJdlllEEESD_mEES5_T0_T1_RNS2_IT2_NS3_ISG_EEXsr3std7is_sameISG_cEE5valueEEEmmmmEUlmE1_EEmOT_NS5_18_from_function_tagEmEUlmE_EEvRNS_9schedulerINS_15WorkStealingJobEEEmmRSL_mb, symObjAddr: 0x54ED0, symBinAddr: 0x100056C40, symSize: 0x150 }
  - { offset: 0x55643, size: 0x8, addend: 0x0, symName: __ZN6parlay19fork_join_scheduler7parfor_IZNS_8internal12sample_sort_ImNS_16delayed_sequenceINSt3__15tupleIJdlllEEES7_Z19min_spanning_forestIldENS_8sequenceIlNS_9allocatorIlEELb0EEERKNS9_INS6_IJT_SD_T0_EEENSA_ISF_EEXsr3std7is_sameISF_cEE5valueEEElEUllE_E8iteratorEPS7_NS5_4lessIvEEEEvNS_5sliceISE_SE_EENSQ_IT1_SS_EERKT2_bEUlmE1_EEvRNS_9schedulerINS_15WorkStealingJobEEEmmRSD_mb, symObjAddr: 0x55A30, symBinAddr: 0x1000577A0, symSize: 0x150 }
  - { offset: 0x558D2, size: 0x8, addend: 0x0, symName: __Z15speculative_forIlZ19min_spanning_forestIldEN6parlay8sequenceIlNS1_9allocatorIlEELb0EEERKNS2_INSt3__15tupleIJT_S8_T0_EEENS3_ISA_EEXsr3std7is_sameISA_cEE5valueEEElEUllE0_ZS0_IldES5_SE_lEUllE1_EvS8_S8_S9_T1_l, symObjAddr: 0x2A970, symBinAddr: 0x10002C6E0, symSize: 0x274 }
  - { offset: 0x55B17, size: 0x8, addend: 0x0, symName: __ZN6parlay8sequenceI6statusNS_9allocatorIS1_EELb0EEC2IZ15speculative_forIlZ19min_spanning_forestIldENS0_IlNS2_IlEELb0EEERKNS0_INSt3__15tupleIJT_SC_T0_EEENS2_ISE_EEXsr3std7is_sameISE_cEE5valueEEElEUllE0_ZS7_IldES9_SI_lEUllE1_EvSC_SC_SD_T1_lEUllE_EEmOSC_NS4_18_from_function_tagEm, symObjAddr: 0x56900, symBinAddr: 0x100058670, symSize: 0xCC }
  - { offset: 0x55BF0, size: 0x8, addend: 0x0, symName: __ZN6parlay19fork_join_scheduler7parfor_IZNS_8sequenceI6statusNS_9allocatorIS3_EELb0EEC1IZ15speculative_forIlZ19min_spanning_forestIldENS2_IlNS4_IlEELb0EEERKNS2_INSt3__15tupleIJT_SE_T0_EEENS4_ISG_EEXsr3std7is_sameISG_cEE5valueEEElEUllE0_ZS9_IldESB_SK_lEUllE1_EvSE_SE_SF_T1_lEUllE_EEmOSE_NS6_18_from_function_tagEmEUlmE_EEvRNS_9schedulerINS_15WorkStealingJobEEEmmRSE_mb, symObjAddr: 0x585B0, symBinAddr: 0x10005A320, symSize: 0x150 }
  - { offset: 0x55DA7, size: 0x8, addend: 0x0, symName: __ZN6parlay8sequenceIlNS_9allocatorIlEELb0EEC2IZ15speculative_forIlZ19min_spanning_forestIldES3_RKNS0_INSt3__15tupleIJT_S9_T0_EEENS1_ISB_EEXsr3std7is_sameISB_cEE5valueEEElEUllE0_ZS6_IldES3_SF_lEUllE1_EvS9_S9_SA_T1_lEUllE0_EEmOS9_NS3_18_from_function_tagEm, symObjAddr: 0x58E2C, symBinAddr: 0x10005AB9C, symSize: 0xCC }
  - { offset: 0x55E80, size: 0x8, addend: 0x0, symName: __ZN6parlay19fork_join_scheduler7parfor_IZNS_8sequenceIlNS_9allocatorIlEELb0EEC1IZ15speculative_forIlZ19min_spanning_forestIldES5_RKNS2_INSt3__15tupleIJT_SB_T0_EEENS3_ISD_EEXsr3std7is_sameISD_cEE5valueEEElEUllE0_ZS8_IldES5_SH_lEUllE1_EvSB_SB_SC_T1_lEUllE0_EEmOSB_NS5_18_from_function_tagEmEUlmE_EEvRNS_9schedulerINS_15WorkStealingJobEEEmmRSB_mb, symObjAddr: 0x59BBC, symBinAddr: 0x10005B92C, symSize: 0x150 }
  - { offset: 0x560E7, size: 0x8, addend: 0x0, symName: __ZN6parlay19fork_join_scheduler7parfor_IZNS_8internal10sliced_forIZNS2_4packINS_5sliceIPlS6_EENS5_INS_16delayed_sequenceIbbZNS2_11delayed_mapIRNS_8sequenceI6statusNS_9allocatorISB_EELb0EEEZ15speculative_forIlZ19min_spanning_forestIldENSA_IlNSC_IlEELb0EEERKNSA_INSt3__15tupleIJT_SM_T0_EEENSC_ISO_EEXsr3std7is_sameISO_cEE5valueEEElEUllE0_ZSH_IldESJ_SS_lEUllE1_EvSM_SM_SN_T1_lEUlSB_E_Li0EEEDaOSM_SN_EUlmE_E8iteratorES11_EEEENSA_INSM_10value_typeENSC_IS13_EEXsr3std7is_sameIS13_cEE5valueEEERKSM_RKSN_jEUlmmmE_EEvmmS17_jEUlmE_EEvRNS_9schedulerINS_15WorkStealingJobEEEmmRSM_mb, symObjAddr: 0x5B58C, symBinAddr: 0x10005D2FC, symSize: 0x150 }
  - { offset: 0x5628D, size: 0x8, addend: 0x0, symName: __ZN6parlay19fork_join_scheduler7parfor_IZNS_8internal10sliced_forIZNS2_5scan_INS_5sliceIPmS6_EES7_NS_4plusImEEEEDaRKT_T0_OT1_jbEUlmmmE_EEvmmSD_jEUlmE_EEvRNS_9schedulerINS_15WorkStealingJobEEEmmRSB_mb, symObjAddr: 0x5C4F8, symBinAddr: 0x10005E268, symSize: 0x150 }
  - { offset: 0x56433, size: 0x8, addend: 0x0, symName: __ZN6parlay19fork_join_scheduler7parfor_IZNS_8internal10sliced_forIZNS2_5scan_INS_5sliceIPmS6_EES7_NS_4plusImEEEEDaRKT_T0_OT1_jbEUlmmmE0_EEvmmSD_jEUlmE_EEvRNS_9schedulerINS_15WorkStealingJobEEEmmRSB_mb, symObjAddr: 0x5D1B0, symBinAddr: 0x10005EF20, symSize: 0x150 }
  - { offset: 0x565F4, size: 0x8, addend: 0x0, symName: __ZN6parlay19fork_join_scheduler7parfor_IZNS_8internal10sliced_forIZNS2_4packINS_5sliceIPlS6_EENS5_INS_16delayed_sequenceIbbZNS2_11delayed_mapIRNS_8sequenceI6statusNS_9allocatorISB_EELb0EEEZ15speculative_forIlZ19min_spanning_forestIldENSA_IlNSC_IlEELb0EEERKNSA_INSt3__15tupleIJT_SM_T0_EEENSC_ISO_EEXsr3std7is_sameISO_cEE5valueEEElEUllE0_ZSH_IldESJ_SS_lEUllE1_EvSM_SM_SN_T1_lEUlSB_E_Li0EEEDaOSM_SN_EUlmE_E8iteratorES11_EEEENSA_INSM_10value_typeENSC_IS13_EEXsr3std7is_sameIS13_cEE5valueEEERKSM_RKSN_jEUlmmmE0_EEvmmS17_jEUlmE_EEvRNS_9schedulerINS_15WorkStealingJobEEEmmRSM_mb, symObjAddr: 0x5E1E8, symBinAddr: 0x10005FF58, symSize: 0x150 }
  - { offset: 0x567B5, size: 0x8, addend: 0x0, symName: __ZN6parlay19fork_join_scheduler7parfor_IZNS_8internal10sliced_forIZNS2_4packINS_16delayed_sequenceIllZNS2_10pack_indexIlNS_5sliceIPbS8_EEEEDaRKT0_jEUlmE_EES9_EENS_8sequenceINT_10value_typeENS_9allocatorISI_EEXsr3std7is_sameISI_cEE5valueEEERKSH_SD_jEUlmmmE_EEvmmSN_jEUlmE_EEvRNS_9schedulerINS_15WorkStealingJobEEEmmRSH_mb, symObjAddr: 0x5F940, symBinAddr: 0x1000616B0, symSize: 0x150 }
  - { offset: 0x569D1, size: 0x8, addend: 0x0, symName: __ZN6parlay19fork_join_scheduler7parfor_IZNS_8internal10sliced_forIZNS2_4packINS_16delayed_sequenceIllZNS2_10pack_indexIlNS_5sliceIPbS8_EEEEDaRKT0_jEUlmE_EES9_EENS_8sequenceINT_10value_typeENS_9allocatorISI_EEXsr3std7is_sameISI_cEE5valueEEERKSH_SD_jEUlmmmE0_EEvmmSN_jEUlmE_EEvRNS_9schedulerINS_15WorkStealingJobEEEmmRSH_mb, symObjAddr: 0x60B64, symBinAddr: 0x1000628D4, symSize: 0x150 }
  - { offset: 0x56B93, size: 0x8, addend: 0x0, symName: __ZNK6parlay8internal19ThreadListChunkData22thread_list_chunk_sizeMUlvE_clEv, symObjAddr: 0x0, symBinAddr: 0x100001D70, symSize: 0x5C }
  - { offset: 0x56BC7, size: 0x8, addend: 0x0, symName: __ZL13getMemorySizev, symObjAddr: 0x5C, symBinAddr: 0x100001DCC, symSize: 0xB4 }
  - { offset: 0x56C10, size: 0x8, addend: 0x0, symName: _main, symObjAddr: 0x110, symBinAddr: 0x100001E80, symSize: 0x3D4 }
  - { offset: 0x56CA9, size: 0x8, addend: 0x0, symName: __ZN6parlay8sequenceINSt3__15tupleIJlldEEENS_9allocatorIS3_EELb0EEC1Ev, symObjAddr: 0x4E4, symBinAddr: 0x100002254, symSize: 0x2C }
  - { offset: 0x56CD3, size: 0x8, addend: 0x0, symName: __ZN6parlay8sequenceINSt3__15tupleIJlldEEENS_9allocatorIS3_EELb0EE9push_backEOS3_, symObjAddr: 0x510, symBinAddr: 0x100002280, symSize: 0x2C }
  - { offset: 0x56D14, size: 0x8, addend: 0x0, symName: __ZNSt3__15tupleIJlldEEC1B8ue170006IJiidELi0EEEDpOT_, symObjAddr: 0x53C, symBinAddr: 0x1000022AC, symSize: 0x44 }
  - { offset: 0x56D86, size: 0x8, addend: 0x0, symName: __ZNK6parlay8sequenceIlNS_9allocatorIlEELb0EE4sizeEv, symObjAddr: 0x77C, symBinAddr: 0x1000024EC, symSize: 0x24 }
  - { offset: 0x56DAC, size: 0x8, addend: 0x0, symName: __ZNSt3__113basic_ostreamIcNS_11char_traitsIcEEElsB8ue170006EPFRS3_S4_E, symObjAddr: 0x7A0, symBinAddr: 0x100002510, symSize: 0x2C }
  - { offset: 0x56DE0, size: 0x8, addend: 0x0, symName: __ZN6parlay8sequenceIlNS_9allocatorIlEELb0EE5beginEv, symObjAddr: 0x824, symBinAddr: 0x100002594, symSize: 0x24 }
  - { offset: 0x56E06, size: 0x8, addend: 0x0, symName: __ZN6parlay8sequenceIlNS_9allocatorIlEELb0EE3endEv, symObjAddr: 0x848, symBinAddr: 0x1000025B8, symSize: 0x44 }
  - { offset: 0x56E2C, size: 0x8, addend: 0x0, symName: __ZN6parlay8sequenceINSt3__15tupleIJlldEEENS_9allocatorIS3_EELb0EEixEm, symObjAddr: 0x8B0, symBinAddr: 0x100002620, symSize: 0x2C }
  - { offset: 0x56E60, size: 0x8, addend: 0x0, symName: __ZN6parlay8sequenceIlNS_9allocatorIlEELb0EED1Ev, symObjAddr: 0x92C, symBinAddr: 0x10000269C, symSize: 0x2C }
  - { offset: 0x56E8C, size: 0x8, addend: 0x0, symName: __ZN6parlay8sequenceINSt3__15tupleIJlldEEENS_9allocatorIS3_EELb0EED1Ev, symObjAddr: 0x958, symBinAddr: 0x1000026C8, symSize: 0x2C }
  - { offset: 0x56EB8, size: 0x8, addend: 0x0, symName: __ZN6parlay9schedulerINS_15WorkStealingJobEE10workerInfoC1Ev, symObjAddr: 0x984, symBinAddr: 0x1000026F4, symSize: 0x2C }
  - { offset: 0x56EE2, size: 0x8, addend: 0x0, symName: __ZNSt3__15tupleIJlldEEC2B8ue170006IJiidELi0EEEDpOT_, symObjAddr: 0x9B0, symBinAddr: 0x100002720, symSize: 0x44 }
  - { offset: 0x56F54, size: 0x8, addend: 0x0, symName: __ZNSt3__112__tuple_implINS_15__tuple_indicesIJLm0ELm1ELm2EEEEJlldEEC1B8ue170006IJLm0ELm1ELm2EEJlldEJEJEJiidEEENS1_IJXspT_EEEENS_13__tuple_typesIJDpT0_EEENS1_IJXspT1_EEEENS6_IJDpT2_EEEDpOT3_, symObjAddr: 0x9F4, symBinAddr: 0x100002764, symSize: 0x44 }
  - { offset: 0x57023, size: 0x8, addend: 0x0, symName: __ZNSt3__112__tuple_implINS_15__tuple_indicesIJLm0ELm1ELm2EEEEJlldEEC2B8ue170006IJLm0ELm1ELm2EEJlldEJEJEJiidEEENS1_IJXspT_EEEENS_13__tuple_typesIJDpT0_EEENS1_IJXspT1_EEEENS6_IJDpT2_EEEDpOT3_, symObjAddr: 0xA38, symBinAddr: 0x1000027A8, symSize: 0x5C }
  - { offset: 0x570F2, size: 0x8, addend: 0x0, symName: __ZNSt3__112__tuple_leafILm0ElLb0EEC2B8ue170006IivEEOT_, symObjAddr: 0xA94, symBinAddr: 0x100002804, symSize: 0x24 }
  - { offset: 0x57135, size: 0x8, addend: 0x0, symName: __ZNSt3__112__tuple_leafILm1ElLb0EEC2B8ue170006IivEEOT_, symObjAddr: 0xAB8, symBinAddr: 0x100002828, symSize: 0x24 }
  - { offset: 0x57178, size: 0x8, addend: 0x0, symName: __ZNSt3__112__tuple_leafILm2EdLb0EEC2B8ue170006IdvEEOT_, symObjAddr: 0xADC, symBinAddr: 0x10000284C, symSize: 0x24 }
  - { offset: 0x571BB, size: 0x8, addend: 0x0, symName: __ZNSt3__112__tuple_leafILm0ElLb0EE3getB8ue170006Ev, symObjAddr: 0xB00, symBinAddr: 0x100002870, symSize: 0x14 }
  - { offset: 0x571E1, size: 0x8, addend: 0x0, symName: __ZNSt3__112__tuple_leafILm1ElLb0EE3getB8ue170006Ev, symObjAddr: 0xB14, symBinAddr: 0x100002884, symSize: 0x14 }
  - { offset: 0x57207, size: 0x8, addend: 0x0, symName: __ZNSt3__112__tuple_leafILm2EdLb0EE3getB8ue170006Ev, symObjAddr: 0xB28, symBinAddr: 0x100002898, symSize: 0x14 }
  - { offset: 0x5722D, size: 0x8, addend: 0x0, symName: __ZN6parlay8sequenceIlNS_9allocatorIlEELb0EED2Ev, symObjAddr: 0xB3C, symBinAddr: 0x1000028AC, symSize: 0x2C }
  - { offset: 0x57259, size: 0x8, addend: 0x0, symName: __ZN6parlay17sequence_internal13sequence_baseIlNS_9allocatorIlEELb0EED2Ev, symObjAddr: 0xB68, symBinAddr: 0x1000028D8, symSize: 0x2C }
  - { offset: 0x57283, size: 0x8, addend: 0x0, symName: __ZN6parlay17sequence_internal13sequence_baseIlNS_9allocatorIlEELb0EE12storage_implD1Ev, symObjAddr: 0xB94, symBinAddr: 0x100002904, symSize: 0x2C }
  - { offset: 0x572AD, size: 0x8, addend: 0x0, symName: __ZN6parlay17sequence_internal13sequence_baseIlNS_9allocatorIlEELb0EE12storage_implD2Ev, symObjAddr: 0xBC0, symBinAddr: 0x100002930, symSize: 0x3C }
  - { offset: 0x572D7, size: 0x8, addend: 0x0, symName: __ZN6parlay17sequence_internal13sequence_baseIlNS_9allocatorIlEELb0EE12storage_impl5clearEv, symObjAddr: 0xBFC, symBinAddr: 0x10000296C, symSize: 0x58 }
  - { offset: 0x57319, size: 0x8, addend: 0x0, symName: __ZN6parlay17sequence_internal13sequence_baseIlNS_9allocatorIlEELb0EE12storage_impl10_data_implD1Ev, symObjAddr: 0xC64, symBinAddr: 0x1000029D4, symSize: 0x2C }
  - { offset: 0x57343, size: 0x8, addend: 0x0, symName: __ZNK6parlay17sequence_internal13sequence_baseIlNS_9allocatorIlEELb0EE12storage_impl8is_smallEv, symObjAddr: 0xC90, symBinAddr: 0x100002A00, symSize: 0x18 }
  - { offset: 0x57369, size: 0x8, addend: 0x0, symName: __ZN6parlay17sequence_internal13sequence_baseIlNS_9allocatorIlEELb0EE12storage_impl11destroy_allEv, symObjAddr: 0xCA8, symBinAddr: 0x100002A18, symSize: 0x10 }
  - { offset: 0x5738F, size: 0x8, addend: 0x0, symName: __ZNK6parlay17sequence_internal13sequence_baseIlNS_9allocatorIlEELb0EE12storage_impl17get_raw_allocatorEv, symObjAddr: 0xCB8, symBinAddr: 0x100002A28, symSize: 0x30 }
  - { offset: 0x573B5, size: 0x8, addend: 0x0, symName: __ZN6parlay17sequence_internal13sequence_baseIlNS_9allocatorIlEELb0EE12storage_impl18capacitated_buffer11free_bufferERNS2_ISt4byteEE, symObjAddr: 0xCE8, symBinAddr: 0x100002A58, symSize: 0x58 }
  - { offset: 0x573EA, size: 0x8, addend: 0x0, symName: __ZN6parlay17sequence_internal13sequence_baseIlNS_9allocatorIlEELb0EE12storage_impl27set_to_empty_representationEv, symObjAddr: 0xD40, symBinAddr: 0x100002AB0, symSize: 0x1C }
  - { offset: 0x57410, size: 0x8, addend: 0x0, symName: __ZNK6parlay17sequence_internal13sequence_baseIlNS_9allocatorIlEELb0EE12storage_impl15get_T_allocatorEv, symObjAddr: 0xD5C, symBinAddr: 0x100002ACC, symSize: 0x14 }
  - { offset: 0x57441, size: 0x8, addend: 0x0, symName: __ZN6parlay9allocatorISt4byteEC1IlEERKNS0_IT_EE, symObjAddr: 0xD70, symBinAddr: 0x100002AE0, symSize: 0x34 }
  - { offset: 0x5747F, size: 0x8, addend: 0x0, symName: __ZN6parlay9allocatorISt4byteEC2IlEERKNS0_IT_EE, symObjAddr: 0xDA4, symBinAddr: 0x100002B14, symSize: 0x18 }
  - { offset: 0x574BD, size: 0x8, addend: 0x0, symName: __ZN6parlay17sequence_internal13sequence_baseIlNS_9allocatorIlEELb0EE12storage_impl18capacitated_buffer6header7destroyEPS7_RNS2_ISt4byteEE, symObjAddr: 0xDBC, symBinAddr: 0x100002B2C, symSize: 0x4C }
  - { offset: 0x57514, size: 0x8, addend: 0x0, symName: __ZNSt3__116allocator_traitsIN6parlay9allocatorISt4byteEEE10deallocateB8ue170006ERS4_PS3_m, symObjAddr: 0xE08, symBinAddr: 0x100002B78, symSize: 0x3C }
  - { offset: 0x57556, size: 0x8, addend: 0x0, symName: __ZN6parlay9allocatorISt4byteE10deallocateEPS1_m, symObjAddr: 0xE44, symBinAddr: 0x100002BB4, symSize: 0x80 }
  - { offset: 0x57598, size: 0x8, addend: 0x0, symName: __ZN6parlay8internal14pool_allocator10deallocateEPvm, symObjAddr: 0xFB4, symBinAddr: 0x100002D24, symSize: 0xBC }
  - { offset: 0x575F6, size: 0x8, addend: 0x0, symName: __ZN6parlay8internal14pool_allocatorC1ERKNSt3__16vectorImNS2_9allocatorImEEEE, symObjAddr: 0x116C, symBinAddr: 0x100002EDC, symSize: 0x34 }
  - { offset: 0x5762E, size: 0x8, addend: 0x0, symName: __ZNSt3__16vectorImNS_9allocatorImEEED1B8ue170006Ev, symObjAddr: 0x11A0, symBinAddr: 0x100002F10, symSize: 0x2C }
  - { offset: 0x57658, size: 0x8, addend: 0x0, symName: __ZN6parlay8internal14pool_allocatorD1Ev, symObjAddr: 0x11CC, symBinAddr: 0x100002F3C, symSize: 0x2C }
  - { offset: 0x57682, size: 0x8, addend: 0x0, symName: __ZNSt3__16vectorImNS_9allocatorImEEEC1B8ue170006Ev, symObjAddr: 0x1294, symBinAddr: 0x100003004, symSize: 0x2C }
  - { offset: 0x576AC, size: 0x8, addend: 0x0, symName: __ZNSt3__16vectorImNS_9allocatorImEEE9push_backB8ue170006EOm, symObjAddr: 0x12C0, symBinAddr: 0x100003030, symSize: 0x6C }
  - { offset: 0x576E3, size: 0x8, addend: 0x0, symName: __ZNSt3__16vectorImNS_9allocatorImEEEC2B8ue170006Ev, symObjAddr: 0x132C, symBinAddr: 0x10000309C, symSize: 0x4C }
  - { offset: 0x57719, size: 0x8, addend: 0x0, symName: __ZNSt3__117__compressed_pairIPmNS_9allocatorImEEEC1B8ue170006IDnNS_18__default_init_tagEEEOT_OT0_, symObjAddr: 0x1378, symBinAddr: 0x1000030E8, symSize: 0x3C }
  - { offset: 0x57771, size: 0x8, addend: 0x0, symName: __ZNSt3__117__compressed_pairIPmNS_9allocatorImEEEC2B8ue170006IDnNS_18__default_init_tagEEEOT_OT0_, symObjAddr: 0x13B4, symBinAddr: 0x100003124, symSize: 0x40 }
  - { offset: 0x577C9, size: 0x8, addend: 0x0, symName: __ZNSt3__122__compressed_pair_elemIPmLi0ELb0EEC2B8ue170006IDnvEEOT_, symObjAddr: 0x13F4, symBinAddr: 0x100003164, symSize: 0x1C }
  - { offset: 0x5780B, size: 0x8, addend: 0x0, symName: __ZNSt3__122__compressed_pair_elemINS_9allocatorImEELi1ELb1EEC2B8ue170006ENS_18__default_init_tagE, symObjAddr: 0x1410, symBinAddr: 0x100003180, symSize: 0x2C }
  - { offset: 0x57840, size: 0x8, addend: 0x0, symName: __ZNSt3__19allocatorImEC2B8ue170006Ev, symObjAddr: 0x143C, symBinAddr: 0x1000031AC, symSize: 0x2C }
  - { offset: 0x5786A, size: 0x8, addend: 0x0, symName: __ZNSt3__116__non_trivial_ifILb1ENS_9allocatorImEEEC2B8ue170006Ev, symObjAddr: 0x1468, symBinAddr: 0x1000031D8, symSize: 0x14 }
  - { offset: 0x57894, size: 0x8, addend: 0x0, symName: __ZNSt3__16vectorImNS_9allocatorImEEE9__end_capB8ue170006Ev, symObjAddr: 0x147C, symBinAddr: 0x1000031EC, symSize: 0x28 }
  - { offset: 0x578C0, size: 0x8, addend: 0x0, symName: __ZNSt3__16vectorImNS_9allocatorImEEE22__construct_one_at_endB8ue170006IJmEEEvDpOT_, symObjAddr: 0x14A4, symBinAddr: 0x100003214, symSize: 0x90 }
  - { offset: 0x5790F, size: 0x8, addend: 0x0, symName: __ZNSt3__16vectorImNS_9allocatorImEEE21__push_back_slow_pathImEEvOT_, symObjAddr: 0x1534, symBinAddr: 0x1000032A4, symSize: 0xD8 }
  - { offset: 0x5796D, size: 0x8, addend: 0x0, symName: __ZNSt3__117__compressed_pairIPmNS_9allocatorImEEE5firstB8ue170006Ev, symObjAddr: 0x160C, symBinAddr: 0x10000337C, symSize: 0x24 }
  - { offset: 0x57993, size: 0x8, addend: 0x0, symName: __ZNSt3__122__compressed_pair_elemIPmLi0ELb0EE5__getB8ue170006Ev, symObjAddr: 0x1630, symBinAddr: 0x1000033A0, symSize: 0x14 }
  - { offset: 0x579D4, size: 0x8, addend: 0x0, symName: __ZNSt3__16vectorImNS_9allocatorImEEE21_ConstructTransactionC1B8ue170006ERS3_m, symObjAddr: 0x1644, symBinAddr: 0x1000033B4, symSize: 0x3C }
  - { offset: 0x57A1C, size: 0x8, addend: 0x0, symName: __ZNSt3__116allocator_traitsINS_9allocatorImEEE9constructB8ue170006ImJmEvEEvRS2_PT_DpOT0_, symObjAddr: 0x1680, symBinAddr: 0x1000033F0, symSize: 0x34 }
  - { offset: 0x57A73, size: 0x8, addend: 0x0, symName: __ZNSt3__16vectorImNS_9allocatorImEEE7__allocB8ue170006Ev, symObjAddr: 0x16B4, symBinAddr: 0x100003424, symSize: 0x28 }
  - { offset: 0x57A99, size: 0x8, addend: 0x0, symName: __ZNSt3__16vectorImNS_9allocatorImEEE21_ConstructTransactionD1B8ue170006Ev, symObjAddr: 0x16F0, symBinAddr: 0x100003460, symSize: 0x2C }
  - { offset: 0x57AC3, size: 0x8, addend: 0x0, symName: __ZNSt3__16vectorImNS_9allocatorImEEE21_ConstructTransactionC2B8ue170006ERS3_m, symObjAddr: 0x171C, symBinAddr: 0x10000348C, symSize: 0x44 }
  - { offset: 0x57B0B, size: 0x8, addend: 0x0, symName: __ZNSt3__19allocatorImE9constructB8ue170006ImJmEEEvPT_DpOT0_, symObjAddr: 0x1760, symBinAddr: 0x1000034D0, symSize: 0x28 }
  - { offset: 0x57B61, size: 0x8, addend: 0x0, symName: __ZNSt3__117__compressed_pairIPmNS_9allocatorImEEE6secondB8ue170006Ev, symObjAddr: 0x1788, symBinAddr: 0x1000034F8, symSize: 0x24 }
  - { offset: 0x57B87, size: 0x8, addend: 0x0, symName: __ZNSt3__122__compressed_pair_elemINS_9allocatorImEELi1ELb1EE5__getB8ue170006Ev, symObjAddr: 0x17AC, symBinAddr: 0x10000351C, symSize: 0x14 }
  - { offset: 0x57BAD, size: 0x8, addend: 0x0, symName: __ZNSt3__16vectorImNS_9allocatorImEEE21_ConstructTransactionD2B8ue170006Ev, symObjAddr: 0x17C0, symBinAddr: 0x100003530, symSize: 0x20 }
  - { offset: 0x57BD7, size: 0x8, addend: 0x0, symName: __ZNKSt3__16vectorImNS_9allocatorImEEE11__recommendB8ue170006Em, symObjAddr: 0x17E0, symBinAddr: 0x100003550, symSize: 0xB4 }
  - { offset: 0x57C2C, size: 0x8, addend: 0x0, symName: __ZNKSt3__16vectorImNS_9allocatorImEEE4sizeB8ue170006Ev, symObjAddr: 0x1894, symBinAddr: 0x100003604, symSize: 0x28 }
  - { offset: 0x57C52, size: 0x8, addend: 0x0, symName: __ZNSt3__114__split_bufferImRNS_9allocatorImEEEC1EmmS3_, symObjAddr: 0x18BC, symBinAddr: 0x10000362C, symSize: 0x44 }
  - { offset: 0x57CA8, size: 0x8, addend: 0x0, symName: __ZNSt3__114__split_bufferImRNS_9allocatorImEEED1Ev, symObjAddr: 0x1A10, symBinAddr: 0x100003780, symSize: 0x2C }
  - { offset: 0x57CD4, size: 0x8, addend: 0x0, symName: __ZNKSt3__16vectorImNS_9allocatorImEEE8max_sizeEv, symObjAddr: 0x1A3C, symBinAddr: 0x1000037AC, symSize: 0x60 }
  - { offset: 0x57CFC, size: 0x8, addend: 0x0, symName: __ZNKSt3__16vectorImNS_9allocatorImEEE20__throw_length_errorB8ue170006Ev, symObjAddr: 0x1A9C, symBinAddr: 0x10000380C, symSize: 0x1C }
  - { offset: 0x57D22, size: 0x8, addend: 0x0, symName: __ZNKSt3__16vectorImNS_9allocatorImEEE8capacityB8ue170006Ev, symObjAddr: 0x1AB8, symBinAddr: 0x100003828, symSize: 0x40 }
  - { offset: 0x57D53, size: 0x8, addend: 0x0, symName: __ZNSt3__116allocator_traitsINS_9allocatorImEEE8max_sizeB8ue170006IS2_vEEmRKS2_, symObjAddr: 0x1B50, symBinAddr: 0x1000038C0, symSize: 0x24 }
  - { offset: 0x57D81, size: 0x8, addend: 0x0, symName: __ZNKSt3__16vectorImNS_9allocatorImEEE7__allocB8ue170006Ev, symObjAddr: 0x1B74, symBinAddr: 0x1000038E4, symSize: 0x28 }
  - { offset: 0x57DA7, size: 0x8, addend: 0x0, symName: __ZNSt3__114numeric_limitsIlE3maxB8ue170006Ev, symObjAddr: 0x1B9C, symBinAddr: 0x10000390C, symSize: 0x14 }
  - { offset: 0x57DC5, size: 0x8, addend: 0x0, symName: __ZNKSt3__16__lessIvvEclB8ue170006ImmEEbRKT_RKT0_, symObjAddr: 0x1C04, symBinAddr: 0x100003974, symSize: 0x34 }
  - { offset: 0x57E19, size: 0x8, addend: 0x0, symName: __ZNKSt3__19allocatorImE8max_sizeB8ue170006Ev, symObjAddr: 0x1C38, symBinAddr: 0x1000039A8, symSize: 0x14 }
  - { offset: 0x57E3F, size: 0x8, addend: 0x0, symName: __ZNKSt3__117__compressed_pairIPmNS_9allocatorImEEE6secondB8ue170006Ev, symObjAddr: 0x1C4C, symBinAddr: 0x1000039BC, symSize: 0x24 }
  - { offset: 0x57E65, size: 0x8, addend: 0x0, symName: __ZNKSt3__122__compressed_pair_elemINS_9allocatorImEELi1ELb1EE5__getB8ue170006Ev, symObjAddr: 0x1C70, symBinAddr: 0x1000039E0, symSize: 0x14 }
  - { offset: 0x57E8B, size: 0x8, addend: 0x0, symName: __ZNSt3__123__libcpp_numeric_limitsIlLb1EE3maxB8ue170006Ev, symObjAddr: 0x1C84, symBinAddr: 0x1000039F4, symSize: 0x8 }
  - { offset: 0x57E9F, size: 0x8, addend: 0x0, symName: __ZNSt12length_errorC1B8ue170006EPKc, symObjAddr: 0x1CF0, symBinAddr: 0x100003A60, symSize: 0x34 }
  - { offset: 0x57ED7, size: 0x8, addend: 0x0, symName: __ZNSt12length_errorC2B8ue170006EPKc, symObjAddr: 0x1D24, symBinAddr: 0x100003A94, symSize: 0x44 }
  - { offset: 0x57F0F, size: 0x8, addend: 0x0, symName: __ZNKSt3__16vectorImNS_9allocatorImEEE9__end_capB8ue170006Ev, symObjAddr: 0x1D68, symBinAddr: 0x100003AD8, symSize: 0x28 }
  - { offset: 0x57F35, size: 0x8, addend: 0x0, symName: __ZNKSt3__117__compressed_pairIPmNS_9allocatorImEEE5firstB8ue170006Ev, symObjAddr: 0x1D90, symBinAddr: 0x100003B00, symSize: 0x24 }
  - { offset: 0x57F5B, size: 0x8, addend: 0x0, symName: __ZNKSt3__122__compressed_pair_elemIPmLi0ELb0EE5__getB8ue170006Ev, symObjAddr: 0x1DB4, symBinAddr: 0x100003B24, symSize: 0x14 }
  - { offset: 0x57F81, size: 0x8, addend: 0x0, symName: __ZNSt3__114__split_bufferImRNS_9allocatorImEEEC2EmmS3_, symObjAddr: 0x1E1C, symBinAddr: 0x100003B8C, symSize: 0xD4 }
  - { offset: 0x57FF4, size: 0x8, addend: 0x0, symName: __ZNSt3__117__compressed_pairIPmRNS_9allocatorImEEEC1B8ue170006IDnS4_EEOT_OT0_, symObjAddr: 0x1EF0, symBinAddr: 0x100003C60, symSize: 0x3C }
  - { offset: 0x5804C, size: 0x8, addend: 0x0, symName: __ZNSt3__114__split_bufferImRNS_9allocatorImEEE7__allocB8ue170006Ev, symObjAddr: 0x1F6C, symBinAddr: 0x100003CDC, symSize: 0x28 }
  - { offset: 0x58072, size: 0x8, addend: 0x0, symName: __ZNSt3__114__split_bufferImRNS_9allocatorImEEE9__end_capB8ue170006Ev, symObjAddr: 0x1F94, symBinAddr: 0x100003D04, symSize: 0x28 }
  - { offset: 0x58098, size: 0x8, addend: 0x0, symName: __ZNSt3__117__compressed_pairIPmRNS_9allocatorImEEEC2B8ue170006IDnS4_EEOT_OT0_, symObjAddr: 0x1FBC, symBinAddr: 0x100003D2C, symSize: 0x48 }
  - { offset: 0x580F0, size: 0x8, addend: 0x0, symName: __ZNSt3__122__compressed_pair_elemIRNS_9allocatorImEELi1ELb0EEC2B8ue170006IS3_vEEOT_, symObjAddr: 0x2004, symBinAddr: 0x100003D74, symSize: 0x20 }
  - { offset: 0x58132, size: 0x8, addend: 0x0, symName: __ZNSt3__19allocatorImE8allocateB8ue170006Em, symObjAddr: 0x2024, symBinAddr: 0x100003D94, symSize: 0x58 }
  - { offset: 0x58166, size: 0x8, addend: 0x0, symName: __ZNSt3__117__compressed_pairIPmRNS_9allocatorImEEE6secondB8ue170006Ev, symObjAddr: 0x2180, symBinAddr: 0x100003EF0, symSize: 0x28 }
  - { offset: 0x5818C, size: 0x8, addend: 0x0, symName: __ZNSt3__122__compressed_pair_elemIRNS_9allocatorImEELi1ELb0EE5__getB8ue170006Ev, symObjAddr: 0x21A8, symBinAddr: 0x100003F18, symSize: 0x18 }
  - { offset: 0x581B2, size: 0x8, addend: 0x0, symName: __ZNSt3__117__compressed_pairIPmRNS_9allocatorImEEE5firstB8ue170006Ev, symObjAddr: 0x21C0, symBinAddr: 0x100003F30, symSize: 0x24 }
  - { offset: 0x581D8, size: 0x8, addend: 0x0, symName: __ZNKSt3__16vectorImNS_9allocatorImEEE17__annotate_deleteB8ue170006Ev, symObjAddr: 0x21E4, symBinAddr: 0x100003F54, symSize: 0xB8 }
  - { offset: 0x581FE, size: 0x8, addend: 0x0, symName: __ZNSt3__116reverse_iteratorIPmEC1B8ue170006ES1_, symObjAddr: 0x2314, symBinAddr: 0x100004084, symSize: 0x34 }
  - { offset: 0x58236, size: 0x8, addend: 0x0, symName: __ZNKSt3__116reverse_iteratorIPmE4baseB8ue170006Ev, symObjAddr: 0x2348, symBinAddr: 0x1000040B8, symSize: 0x18 }
  - { offset: 0x5825C, size: 0x8, addend: 0x0, symName: __ZNKSt3__16vectorImNS_9allocatorImEEE14__annotate_newB8ue170006Em, symObjAddr: 0x239C, symBinAddr: 0x10000410C, symSize: 0xAC }
  - { offset: 0x58291, size: 0x8, addend: 0x0, symName: __ZNKSt3__16vectorImNS_9allocatorImEEE31__annotate_contiguous_containerB8ue170006EPKvS5_S5_S5_, symObjAddr: 0x2448, symBinAddr: 0x1000041B8, symSize: 0x20 }
  - { offset: 0x582E3, size: 0x8, addend: 0x0, symName: __ZNKSt3__16vectorImNS_9allocatorImEEE4dataB8ue170006Ev, symObjAddr: 0x2468, symBinAddr: 0x1000041D8, symSize: 0x28 }
  - { offset: 0x5832F, size: 0x8, addend: 0x0, symName: __ZNKSt3__111__move_loopINS_17_ClassicAlgPolicyEEclB8ue170006INS_16reverse_iteratorIPmEES6_S6_EENS_4pairIT_T1_EES8_T0_S9_, symObjAddr: 0x2780, symBinAddr: 0x1000044F0, symSize: 0xA0 }
  - { offset: 0x5839A, size: 0x8, addend: 0x0, symName: __ZNSt3__18_IterOpsINS_17_ClassicAlgPolicyEE11__iter_moveB8ue170006IRNS_16reverse_iteratorIPmEEEENS_9enable_ifIXsr12is_referenceIDTdeclsr3stdE7declvalIRT_EEEEE5valueEDTclsr3stdE4movedeclsr3stdE7declvalISA_EEEEE4typeEOS9_, symObjAddr: 0x29B4, symBinAddr: 0x100004724, symSize: 0x28 }
  - { offset: 0x583C6, size: 0x8, addend: 0x0, symName: __ZNKSt3__116reverse_iteratorIPmEdeB8ue170006Ev, symObjAddr: 0x29DC, symBinAddr: 0x10000474C, symSize: 0x28 }
  - { offset: 0x583FA, size: 0x8, addend: 0x0, symName: __ZNSt3__116reverse_iteratorIPmEppB8ue170006Ev, symObjAddr: 0x2A04, symBinAddr: 0x100004774, symSize: 0x20 }
  - { offset: 0x58420, size: 0x8, addend: 0x0, symName: __ZNSt3__18_IterOpsINS_17_ClassicAlgPolicyEE25__validate_iter_referenceB8ue170006IRNS_16reverse_iteratorIPmEEEEvv, symObjAddr: 0x2A24, symBinAddr: 0x100004794, symSize: 0x4 }
  - { offset: 0x5843E, size: 0x8, addend: 0x0, symName: __ZNSt3__118__unwrap_iter_implINS_16reverse_iteratorIPmEELb0EE8__unwrapB8ue170006ES3_, symObjAddr: 0x2A28, symBinAddr: 0x100004798, symSize: 0x24 }
  - { offset: 0x58467, size: 0x8, addend: 0x0, symName: __ZNSt3__14pairINS_16reverse_iteratorIPmEES3_EC1B8ue170006IS3_S3_LPv0EEEOT_OT0_, symObjAddr: 0x2A4C, symBinAddr: 0x1000047BC, symSize: 0x3C }
  - { offset: 0x584C5, size: 0x8, addend: 0x0, symName: __ZNSt3__14pairINS_16reverse_iteratorIPmEES3_EC2B8ue170006IS3_S3_LPv0EEEOT_OT0_, symObjAddr: 0x2A88, symBinAddr: 0x1000047F8, symSize: 0x34 }
  - { offset: 0x58523, size: 0x8, addend: 0x0, symName: __ZNSt3__118__unwrap_iter_implINS_16reverse_iteratorIPmEELb0EE8__rewrapB8ue170006ES3_S3_, symObjAddr: 0x2ABC, symBinAddr: 0x10000482C, symSize: 0x2C }
  - { offset: 0x58551, size: 0x8, addend: 0x0, symName: __ZNSt3__116reverse_iteratorIPmEC2B8ue170006ES1_, symObjAddr: 0x2AE8, symBinAddr: 0x100004858, symSize: 0x28 }
  - { offset: 0x58589, size: 0x8, addend: 0x0, symName: __ZNSt3__114__split_bufferImRNS_9allocatorImEEED2Ev, symObjAddr: 0x2B10, symBinAddr: 0x100004880, symSize: 0x8C }
  - { offset: 0x585B5, size: 0x8, addend: 0x0, symName: __ZNSt3__114__split_bufferImRNS_9allocatorImEEE5clearB8ue170006Ev, symObjAddr: 0x2B9C, symBinAddr: 0x10000490C, symSize: 0x28 }
  - { offset: 0x585DB, size: 0x8, addend: 0x0, symName: __ZNSt3__116allocator_traitsINS_9allocatorImEEE10deallocateB8ue170006ERS2_Pmm, symObjAddr: 0x2BC4, symBinAddr: 0x100004934, symSize: 0x34 }
  - { offset: 0x5861D, size: 0x8, addend: 0x0, symName: __ZNKSt3__114__split_bufferImRNS_9allocatorImEEE8capacityB8ue170006Ev, symObjAddr: 0x2BF8, symBinAddr: 0x100004968, symSize: 0x40 }
  - { offset: 0x58643, size: 0x8, addend: 0x0, symName: __ZNSt3__114__split_bufferImRNS_9allocatorImEEE17__destruct_at_endB8ue170006EPm, symObjAddr: 0x2C38, symBinAddr: 0x1000049A8, symSize: 0x2C }
  - { offset: 0x58677, size: 0x8, addend: 0x0, symName: __ZNSt3__114__split_bufferImRNS_9allocatorImEEE17__destruct_at_endB8ue170006EPmNS_17integral_constantIbLb0EEE, symObjAddr: 0x2C64, symBinAddr: 0x1000049D4, symSize: 0x80 }
  - { offset: 0x586B8, size: 0x8, addend: 0x0, symName: __ZNSt3__116allocator_traitsINS_9allocatorImEEE7destroyB8ue170006ImvEEvRS2_PT_, symObjAddr: 0x2CE4, symBinAddr: 0x100004A54, symSize: 0x2C }
  - { offset: 0x586F5, size: 0x8, addend: 0x0, symName: __ZNSt3__19allocatorImE7destroyB8ue170006EPm, symObjAddr: 0x2D10, symBinAddr: 0x100004A80, symSize: 0x14 }
  - { offset: 0x58729, size: 0x8, addend: 0x0, symName: __ZNSt3__19allocatorImE10deallocateB8ue170006EPmm, symObjAddr: 0x2D24, symBinAddr: 0x100004A94, symSize: 0x40 }
  - { offset: 0x5876B, size: 0x8, addend: 0x0, symName: __ZNKSt3__114__split_bufferImRNS_9allocatorImEEE9__end_capB8ue170006Ev, symObjAddr: 0x2E6C, symBinAddr: 0x100004BDC, symSize: 0x28 }
  - { offset: 0x58791, size: 0x8, addend: 0x0, symName: __ZNKSt3__117__compressed_pairIPmRNS_9allocatorImEEE5firstB8ue170006Ev, symObjAddr: 0x2E94, symBinAddr: 0x100004C04, symSize: 0x24 }
  - { offset: 0x587B7, size: 0x8, addend: 0x0, symName: __ZN6parlay8internal14pool_allocatorC2ERKNSt3__16vectorImNS2_9allocatorImEEEE, symObjAddr: 0x2EB8, symBinAddr: 0x100004C28, symSize: 0x370 }
  - { offset: 0x58867, size: 0x8, addend: 0x0, symName: __ZNSt3__16atomicImEC1B8ue170006Em, symObjAddr: 0x3228, symBinAddr: 0x100004F98, symSize: 0x34 }
  - { offset: 0x5889F, size: 0x8, addend: 0x0, symName: __ZNSt3__110unique_ptrIA_N6parlay8internal12hazptr_stackIPvEENS_14default_deleteIS6_EEEC1B8ue170006ILb1EvEEv, symObjAddr: 0x32C4, symBinAddr: 0x100005034, symSize: 0x2C }
  - { offset: 0x588D4, size: 0x8, addend: 0x0, symName: __ZNSt3__110unique_ptrIA_N6parlay8internal15block_allocatorENS2_20unique_array_deleterIS3_EEEC1B8ue170006ILb1EvEEv, symObjAddr: 0x32F0, symBinAddr: 0x100005060, symSize: 0x2C }
  - { offset: 0x58909, size: 0x8, addend: 0x0, symName: __ZNKSt3__110unique_ptrIA_mNS_14default_deleteIS1_EEE3getB8ue170006Ev, symObjAddr: 0x33C4, symBinAddr: 0x100005134, symSize: 0x28 }
  - { offset: 0x5892F, size: 0x8, addend: 0x0, symName: __ZNKSt3__110unique_ptrIA_mNS_14default_deleteIS1_EEEixB8ue170006Em, symObjAddr: 0x33EC, symBinAddr: 0x10000515C, symSize: 0x34 }
  - { offset: 0x58964, size: 0x8, addend: 0x0, symName: __ZNSt3__110unique_ptrIA_N6parlay8internal12hazptr_stackIPvEENS_14default_deleteIS6_EEEaSB8ue170006EOS9_, symObjAddr: 0x3574, symBinAddr: 0x1000052E4, symSize: 0x50 }
  - { offset: 0x58999, size: 0x8, addend: 0x0, symName: __ZNSt3__110unique_ptrIA_N6parlay8internal12hazptr_stackIPvEENS_14default_deleteIS6_EEED1B8ue170006Ev, symObjAddr: 0x35C4, symBinAddr: 0x100005334, symSize: 0x2C }
  - { offset: 0x589C3, size: 0x8, addend: 0x0, symName: __ZNSt3__110unique_ptrIA_N6parlay8internal15block_allocatorENS2_20unique_array_deleterIS3_EEEaSB8ue170006EOS7_, symObjAddr: 0x36EC, symBinAddr: 0x10000545C, symSize: 0x68 }
  - { offset: 0x589F8, size: 0x8, addend: 0x0, symName: __ZNSt3__110unique_ptrIA_N6parlay8internal15block_allocatorENS2_20unique_array_deleterIS3_EEED1B8ue170006Ev, symObjAddr: 0x3754, symBinAddr: 0x1000054C4, symSize: 0x2C }
  - { offset: 0x58A22, size: 0x8, addend: 0x0, symName: __ZNSt3__110unique_ptrIA_mNS_14default_deleteIS1_EEED1B8ue170006Ev, symObjAddr: 0x3780, symBinAddr: 0x1000054F0, symSize: 0x2C }
  - { offset: 0x58A4C, size: 0x8, addend: 0x0, symName: __ZNSt3__16atomicImEC2B8ue170006Em, symObjAddr: 0x37AC, symBinAddr: 0x10000551C, symSize: 0x34 }
  - { offset: 0x58A84, size: 0x8, addend: 0x0, symName: __ZNSt3__113__atomic_baseImLb1EEC2B8ue170006Em, symObjAddr: 0x37E0, symBinAddr: 0x100005550, symSize: 0x34 }
  - { offset: 0x58ABC, size: 0x8, addend: 0x0, symName: __ZNSt3__113__atomic_baseImLb0EEC2B8ue170006Em, symObjAddr: 0x3814, symBinAddr: 0x100005584, symSize: 0x34 }
  - { offset: 0x58AF4, size: 0x8, addend: 0x0, symName: __ZNSt3__117__cxx_atomic_implImNS_22__cxx_atomic_base_implImEEEC1B8ue170006Em, symObjAddr: 0x3848, symBinAddr: 0x1000055B8, symSize: 0x34 }
  - { offset: 0x58B2D, size: 0x8, addend: 0x0, symName: __ZNSt3__117__cxx_atomic_implImNS_22__cxx_atomic_base_implImEEEC2B8ue170006Em, symObjAddr: 0x387C, symBinAddr: 0x1000055EC, symSize: 0x34 }
  - { offset: 0x58B66, size: 0x8, addend: 0x0, symName: __ZNSt3__122__cxx_atomic_base_implImEC2Em, symObjAddr: 0x38B0, symBinAddr: 0x100005620, symSize: 0x20 }
  - { offset: 0x58B9F, size: 0x8, addend: 0x0, symName: __ZNSt3__110unique_ptrIA_mNS_14default_deleteIS1_EEEC1B8ue170006IPmLb1EvvEET_, symObjAddr: 0x38D0, symBinAddr: 0x100005640, symSize: 0x34 }
  - { offset: 0x58BED, size: 0x8, addend: 0x0, symName: __ZNSt3__110unique_ptrIA_mNS_14default_deleteIS1_EEEC2B8ue170006IPmLb1EvvEET_, symObjAddr: 0x3904, symBinAddr: 0x100005674, symSize: 0x44 }
  - { offset: 0x58C41, size: 0x8, addend: 0x0, symName: __ZNSt3__117__compressed_pairIPmNS_14default_deleteIA_mEEEC1B8ue170006IRS1_NS_16__value_init_tagEEEOT_OT0_, symObjAddr: 0x3948, symBinAddr: 0x1000056B8, symSize: 0x3C }
  - { offset: 0x58C99, size: 0x8, addend: 0x0, symName: __ZNSt3__117__compressed_pairIPmNS_14default_deleteIA_mEEEC2B8ue170006IRS1_NS_16__value_init_tagEEEOT_OT0_, symObjAddr: 0x3984, symBinAddr: 0x1000056F4, symSize: 0x40 }
  - { offset: 0x58CF1, size: 0x8, addend: 0x0, symName: __ZNSt3__122__compressed_pair_elemIPmLi0ELb0EEC2B8ue170006IRS1_vEEOT_, symObjAddr: 0x39C4, symBinAddr: 0x100005734, symSize: 0x24 }
  - { offset: 0x58D33, size: 0x8, addend: 0x0, symName: __ZNSt3__122__compressed_pair_elemINS_14default_deleteIA_mEELi1ELb1EEC2B8ue170006ENS_16__value_init_tagE, symObjAddr: 0x39E8, symBinAddr: 0x100005758, symSize: 0x14 }
  - { offset: 0x58D68, size: 0x8, addend: 0x0, symName: __ZNSt3__110unique_ptrIA_N6parlay8internal12hazptr_stackIPvEENS_14default_deleteIS6_EEEC2B8ue170006ILb1EvEEv, symObjAddr: 0x39FC, symBinAddr: 0x10000576C, symSize: 0x3C }
  - { offset: 0x58D9D, size: 0x8, addend: 0x0, symName: __ZNSt3__117__compressed_pairIPN6parlay8internal12hazptr_stackIPvEENS_14default_deleteIA_S5_EEEC1B8ue170006INS_16__value_init_tagESC_EEOT_OT0_, symObjAddr: 0x3A38, symBinAddr: 0x1000057A8, symSize: 0x3C }
  - { offset: 0x58DF5, size: 0x8, addend: 0x0, symName: __ZNSt3__117__compressed_pairIPN6parlay8internal12hazptr_stackIPvEENS_14default_deleteIA_S5_EEEC2B8ue170006INS_16__value_init_tagESC_EEOT_OT0_, symObjAddr: 0x3A74, symBinAddr: 0x1000057E4, symSize: 0x3C }
  - { offset: 0x58E4D, size: 0x8, addend: 0x0, symName: __ZNSt3__122__compressed_pair_elemIPN6parlay8internal12hazptr_stackIPvEELi0ELb0EEC2B8ue170006ENS_16__value_init_tagE, symObjAddr: 0x3AB0, symBinAddr: 0x100005820, symSize: 0x18 }
  - { offset: 0x58E82, size: 0x8, addend: 0x0, symName: __ZNSt3__122__compressed_pair_elemINS_14default_deleteIA_N6parlay8internal12hazptr_stackIPvEEEELi1ELb1EEC2B8ue170006ENS_16__value_init_tagE, symObjAddr: 0x3AC8, symBinAddr: 0x100005838, symSize: 0x14 }
  - { offset: 0x58EB7, size: 0x8, addend: 0x0, symName: __ZNSt3__110unique_ptrIA_N6parlay8internal15block_allocatorENS2_20unique_array_deleterIS3_EEEC2B8ue170006ILb1EvEEv, symObjAddr: 0x3ADC, symBinAddr: 0x10000584C, symSize: 0x3C }
  - { offset: 0x58EEC, size: 0x8, addend: 0x0, symName: __ZNSt3__117__compressed_pairIPN6parlay8internal15block_allocatorENS2_20unique_array_deleterIS3_EEEC1B8ue170006INS_16__value_init_tagES9_EEOT_OT0_, symObjAddr: 0x3B18, symBinAddr: 0x100005888, symSize: 0x3C }
  - { offset: 0x58F44, size: 0x8, addend: 0x0, symName: __ZNSt3__117__compressed_pairIPN6parlay8internal15block_allocatorENS2_20unique_array_deleterIS3_EEEC2B8ue170006INS_16__value_init_tagES9_EEOT_OT0_, symObjAddr: 0x3B54, symBinAddr: 0x1000058C4, symSize: 0x40 }
  - { offset: 0x58F9C, size: 0x8, addend: 0x0, symName: __ZNSt3__122__compressed_pair_elemIPN6parlay8internal15block_allocatorELi0ELb0EEC2B8ue170006ENS_16__value_init_tagE, symObjAddr: 0x3B94, symBinAddr: 0x100005904, symSize: 0x18 }
  - { offset: 0x58FD1, size: 0x8, addend: 0x0, symName: __ZNSt3__122__compressed_pair_elemIN6parlay8internal20unique_array_deleterINS2_15block_allocatorEEELi1ELb0EEC2B8ue170006ENS_16__value_init_tagE, symObjAddr: 0x3BAC, symBinAddr: 0x10000591C, symSize: 0x18 }
  - { offset: 0x5902C, size: 0x8, addend: 0x0, symName: __ZNKSt3__114__copy_trivialclB8ue170006IKmmLi0EEENS_4pairIPT_PT0_EES5_S5_S7_, symObjAddr: 0x3DA8, symBinAddr: 0x100005B18, symSize: 0x48 }
  - { offset: 0x590B6, size: 0x8, addend: 0x0, symName: __ZNSt3__14pairIPKmS2_EC1B8ue170006IS2_S2_LPv0EEEOT_OT0_, symObjAddr: 0x3F28, symBinAddr: 0x100005C98, symSize: 0x3C }
  - { offset: 0x59114, size: 0x8, addend: 0x0, symName: __ZNSt3__14pairIPKmS2_EC2B8ue170006IS2_S2_LPv0EEEOT_OT0_, symObjAddr: 0x3F64, symBinAddr: 0x100005CD4, symSize: 0x34 }
  - { offset: 0x59172, size: 0x8, addend: 0x0, symName: __ZNSt3__118__unwrap_iter_implINS_11__wrap_iterIPKmEELb1EE8__unwrapB8ue170006ES4_, symObjAddr: 0x3F98, symBinAddr: 0x100005D08, symSize: 0x28 }
  - { offset: 0x591A0, size: 0x8, addend: 0x0, symName: __ZNSt3__119__to_address_helperINS_11__wrap_iterIPKmEEvE6__callB8ue170006ERKS4_, symObjAddr: 0x3FE4, symBinAddr: 0x100005D54, symSize: 0x30 }
  - { offset: 0x591C3, size: 0x8, addend: 0x0, symName: __ZNSt3__114pointer_traitsINS_11__wrap_iterIPKmEEE10to_addressB8ue170006ES4_, symObjAddr: 0x4014, symBinAddr: 0x100005D84, symSize: 0x2C }
  - { offset: 0x591E6, size: 0x8, addend: 0x0, symName: __ZNKSt3__111__wrap_iterIPKmE4baseB8ue170006Ev, symObjAddr: 0x4054, symBinAddr: 0x100005DC4, symSize: 0x18 }
  - { offset: 0x59218, size: 0x8, addend: 0x0, symName: __ZNSt3__14pairIPKmPmEC1B8ue170006IRS2_S3_LPv0EEEOT_OT0_, symObjAddr: 0x4188, symBinAddr: 0x100005EF8, symSize: 0x3C }
  - { offset: 0x59276, size: 0x8, addend: 0x0, symName: __ZNSt3__14pairIPKmPmEC2B8ue170006IRS2_S3_LPv0EEEOT_OT0_, symObjAddr: 0x41C4, symBinAddr: 0x100005F34, symSize: 0x34 }
  - { offset: 0x592D4, size: 0x8, addend: 0x0, symName: __ZNSt3__118__unwrap_iter_implIPmLb1EE8__unwrapB8ue170006ES1_, symObjAddr: 0x41F8, symBinAddr: 0x100005F68, symSize: 0x24 }
  - { offset: 0x59319, size: 0x8, addend: 0x0, symName: __ZNSt3__14pairINS_11__wrap_iterIPKmEEPmEC1B8ue170006IS4_S5_LPv0EEEOT_OT0_, symObjAddr: 0x421C, symBinAddr: 0x100005F8C, symSize: 0x3C }
  - { offset: 0x59377, size: 0x8, addend: 0x0, symName: __ZNSt3__14pairINS_11__wrap_iterIPKmEEPmEC2B8ue170006IS4_S5_LPv0EEEOT_OT0_, symObjAddr: 0x4258, symBinAddr: 0x100005FC8, symSize: 0x34 }
  - { offset: 0x593D5, size: 0x8, addend: 0x0, symName: __ZNSt3__118__unwrap_iter_implINS_11__wrap_iterIPKmEELb1EE8__rewrapB8ue170006ES4_S3_, symObjAddr: 0x42D8, symBinAddr: 0x100006048, symSize: 0x5C }
  - { offset: 0x59406, size: 0x8, addend: 0x0, symName: __ZNKSt3__111__wrap_iterIPKmEplB8ue170006El, symObjAddr: 0x4334, symBinAddr: 0x1000060A4, symSize: 0x3C }
  - { offset: 0x59448, size: 0x8, addend: 0x0, symName: __ZNSt3__111__wrap_iterIPKmEpLB8ue170006El, symObjAddr: 0x4370, symBinAddr: 0x1000060E0, symSize: 0x28 }
  - { offset: 0x5947C, size: 0x8, addend: 0x0, symName: __ZNSt3__118__unwrap_iter_implIPmLb1EE8__rewrapB8ue170006ES1_S1_, symObjAddr: 0x4398, symBinAddr: 0x100006108, symSize: 0x50 }
  - { offset: 0x594AD, size: 0x8, addend: 0x0, symName: __ZNKSt3__16vectorImNS_9allocatorImEEE5beginB8ue170006Ev, symObjAddr: 0x43E8, symBinAddr: 0x100006158, symSize: 0x30 }
  - { offset: 0x594D5, size: 0x8, addend: 0x0, symName: __ZNKSt3__16vectorImNS_9allocatorImEEE11__make_iterB8ue170006EPKm, symObjAddr: 0x4418, symBinAddr: 0x100006188, symSize: 0x30 }
  - { offset: 0x5950A, size: 0x8, addend: 0x0, symName: __ZNSt3__111__wrap_iterIPKmEC1B8ue170006ES2_, symObjAddr: 0x4448, symBinAddr: 0x1000061B8, symSize: 0x34 }
  - { offset: 0x59542, size: 0x8, addend: 0x0, symName: __ZNSt3__111__wrap_iterIPKmEC2B8ue170006ES2_, symObjAddr: 0x447C, symBinAddr: 0x1000061EC, symSize: 0x20 }
  - { offset: 0x5957A, size: 0x8, addend: 0x0, symName: __ZNKSt3__16vectorImNS_9allocatorImEEE3endB8ue170006Ev, symObjAddr: 0x449C, symBinAddr: 0x10000620C, symSize: 0x30 }
  - { offset: 0x595A2, size: 0x8, addend: 0x0, symName: __ZNKSt3__117__compressed_pairIPmNS_14default_deleteIA_mEEE5firstB8ue170006Ev, symObjAddr: 0x44CC, symBinAddr: 0x10000623C, symSize: 0x24 }
  - { offset: 0x595C8, size: 0x8, addend: 0x0, symName: __ZN6parlay8internal12hazptr_stackIPvEC1Ev, symObjAddr: 0x44F0, symBinAddr: 0x100006260, symSize: 0x2C }
  - { offset: 0x595F2, size: 0x8, addend: 0x0, symName: __ZN6parlay8internal12hazptr_stackIPvED1Ev, symObjAddr: 0x451C, symBinAddr: 0x10000628C, symSize: 0x2C }
  - { offset: 0x5961C, size: 0x8, addend: 0x0, symName: __ZNSt3__110unique_ptrIA_N6parlay8internal12hazptr_stackIPvEENS_14default_deleteIS6_EEEC1B8ue170006IPS5_Lb1EvvEET_, symObjAddr: 0x4548, symBinAddr: 0x1000062B8, symSize: 0x34 }
  - { offset: 0x5966A, size: 0x8, addend: 0x0, symName: __ZN6parlay8internal12hazptr_stackIPvEC2Ev, symObjAddr: 0x457C, symBinAddr: 0x1000062EC, symSize: 0x34 }
  - { offset: 0x59694, size: 0x8, addend: 0x0, symName: __ZNSt3__16atomicIPN6parlay8internal12hazptr_stackIPvE4NodeEEC1B8ue170006ES7_, symObjAddr: 0x45B0, symBinAddr: 0x100006320, symSize: 0x34 }
  - { offset: 0x596CC, size: 0x8, addend: 0x0, symName: __ZNSt3__16atomicIPN6parlay8internal12hazptr_stackIPvE4NodeEEC2B8ue170006ES7_, symObjAddr: 0x46A0, symBinAddr: 0x100006410, symSize: 0x34 }
  - { offset: 0x59704, size: 0x8, addend: 0x0, symName: __ZNSt3__113__atomic_baseIPN6parlay8internal12hazptr_stackIPvE4NodeELb0EEC2B8ue170006ES7_, symObjAddr: 0x46D4, symBinAddr: 0x100006444, symSize: 0x34 }
  - { offset: 0x5973C, size: 0x8, addend: 0x0, symName: __ZNSt3__117__cxx_atomic_implIPN6parlay8internal12hazptr_stackIPvE4NodeENS_22__cxx_atomic_base_implIS7_EEEC1B8ue170006ES7_, symObjAddr: 0x4708, symBinAddr: 0x100006478, symSize: 0x34 }
  - { offset: 0x59775, size: 0x8, addend: 0x0, symName: __ZNSt3__117__cxx_atomic_implIPN6parlay8internal12hazptr_stackIPvE4NodeENS_22__cxx_atomic_base_implIS7_EEEC2B8ue170006ES7_, symObjAddr: 0x473C, symBinAddr: 0x1000064AC, symSize: 0x34 }
  - { offset: 0x597AE, size: 0x8, addend: 0x0, symName: __ZNSt3__122__cxx_atomic_base_implIPN6parlay8internal12hazptr_stackIPvE4NodeEEC2ES7_, symObjAddr: 0x4770, symBinAddr: 0x1000064E0, symSize: 0x20 }
  - { offset: 0x597E7, size: 0x8, addend: 0x0, symName: __ZN6parlay8internal24intrusive_acquire_retireINS0_12hazptr_stackIPvE4NodeENSt3__114default_deleteIS5_EELm1EEC1ES8_, symObjAddr: 0x4790, symBinAddr: 0x100006500, symSize: 0x2C }
  - { offset: 0x5981F, size: 0x8, addend: 0x0, symName: __ZN6parlay8internal24intrusive_acquire_retireINS0_12hazptr_stackIPvE4NodeENSt3__114default_deleteIS5_EELm1EED1Ev, symObjAddr: 0x47BC, symBinAddr: 0x10000652C, symSize: 0x2C }
  - { offset: 0x59849, size: 0x8, addend: 0x0, symName: __ZN6parlay8internal24intrusive_acquire_retireINS0_12hazptr_stackIPvE4NodeENSt3__114default_deleteIS5_EELm1EEC2ES8_, symObjAddr: 0x47E8, symBinAddr: 0x100006558, symSize: 0x2C }
  - { offset: 0x59881, size: 0x8, addend: 0x0, symName: __ZN6parlay14ThreadSpecificINS_8internal24intrusive_acquire_retireINS1_12hazptr_stackIPvE4NodeENSt3__114default_deleteIS6_EELm1EE10ThreadDataEEC1Ev, symObjAddr: 0x4814, symBinAddr: 0x100006584, symSize: 0x2C }
  - { offset: 0x598AB, size: 0x8, addend: 0x0, symName: __ZNSt3__18functionIFN6parlay8internal24intrusive_acquire_retireINS2_12hazptr_stackIPvE4NodeENS_14default_deleteIS7_EELm1EE10ThreadDataEjEEC1IZNS1_14ThreadSpecificISB_EC1EvEUlmE_vEET_, symObjAddr: 0x48B0, symBinAddr: 0x100006620, symSize: 0x2C }
  - { offset: 0x598F0, size: 0x8, addend: 0x0, symName: __ZNSt3__15mutexC1B8ue170006Ev, symObjAddr: 0x48DC, symBinAddr: 0x10000664C, symSize: 0x2C }
  - { offset: 0x5991A, size: 0x8, addend: 0x0, symName: __ZN6parlay14ThreadSpecificINS_8internal24intrusive_acquire_retireINS1_12hazptr_stackIPvE4NodeENSt3__114default_deleteIS6_EELm1EE10ThreadDataEE10initializeEv, symObjAddr: 0x4908, symBinAddr: 0x100006678, symSize: 0x1B8 }
  - { offset: 0x5996C, size: 0x8, addend: 0x0, symName: __ZNSt3__18functionIFN6parlay8internal24intrusive_acquire_retireINS2_12hazptr_stackIPvE4NodeENS_14default_deleteIS7_EELm1EE10ThreadDataEjEED1Ev, symObjAddr: 0x4AC0, symBinAddr: 0x100006830, symSize: 0x2C }
  - { offset: 0x59998, size: 0x8, addend: 0x0, symName: __ZNSt3__18functionIFN6parlay8internal24intrusive_acquire_retireINS2_12hazptr_stackIPvE4NodeENS_14default_deleteIS7_EELm1EE10ThreadDataEjEEC2IZNS1_14ThreadSpecificISB_EC1EvEUlmE_vEET_, symObjAddr: 0x4AEC, symBinAddr: 0x10000685C, symSize: 0x30 }
  - { offset: 0x599DD, size: 0x8, addend: 0x0, symName: __ZNSt3__110__function12__value_funcIFN6parlay8internal24intrusive_acquire_retireINS3_12hazptr_stackIPvE4NodeENS_14default_deleteIS8_EELm1EE10ThreadDataEjEEC1B8ue170006IZNS2_14ThreadSpecificISC_EC1EvEUlmE_vEEOT_, symObjAddr: 0x4B1C, symBinAddr: 0x10000688C, symSize: 0x50 }
  - { offset: 0x59A20, size: 0x8, addend: 0x0, symName: __ZNSt3__19allocatorIZN6parlay14ThreadSpecificINS1_8internal24intrusive_acquire_retireINS3_12hazptr_stackIPvE4NodeENS_14default_deleteIS8_EELm1EE10ThreadDataEEC1EvEUlmE_EC1B8ue170006Ev, symObjAddr: 0x4B6C, symBinAddr: 0x1000068DC, symSize: 0x2C }
  - { offset: 0x59A4A, size: 0x8, addend: 0x0, symName: __ZNSt3__110__function12__value_funcIFN6parlay8internal24intrusive_acquire_retireINS3_12hazptr_stackIPvE4NodeENS_14default_deleteIS8_EELm1EE10ThreadDataEjEEC1B8ue170006IZNS2_14ThreadSpecificISC_EC1EvEUlmE_NS_9allocatorISI_EEEEOT_RKT0_, symObjAddr: 0x4B98, symBinAddr: 0x100006908, symSize: 0x3C }
  - { offset: 0x59AA4, size: 0x8, addend: 0x0, symName: __ZNSt3__19allocatorIZN6parlay14ThreadSpecificINS1_8internal24intrusive_acquire_retireINS3_12hazptr_stackIPvE4NodeENS_14default_deleteIS8_EELm1EE10ThreadDataEEC1EvEUlmE_EC2B8ue170006Ev, symObjAddr: 0x4BD4, symBinAddr: 0x100006944, symSize: 0x2C }
  - { offset: 0x59ACE, size: 0x8, addend: 0x0, symName: __ZNSt3__116__non_trivial_ifILb1ENS_9allocatorIZN6parlay14ThreadSpecificINS2_8internal24intrusive_acquire_retireINS4_12hazptr_stackIPvE4NodeENS_14default_deleteIS9_EELm1EE10ThreadDataEEC1EvEUlmE_EEEC2B8ue170006Ev, symObjAddr: 0x4C00, symBinAddr: 0x100006970, symSize: 0x14 }
  - { offset: 0x59AF8, size: 0x8, addend: 0x0, symName: __ZNSt3__110__function12__value_funcIFN6parlay8internal24intrusive_acquire_retireINS3_12hazptr_stackIPvE4NodeENS_14default_deleteIS8_EELm1EE10ThreadDataEjEEC2B8ue170006IZNS2_14ThreadSpecificISC_EC1EvEUlmE_NS_9allocatorISI_EEEEOT_RKT0_, symObjAddr: 0x4C14, symBinAddr: 0x100006984, symSize: 0x94 }
  - { offset: 0x59BA0, size: 0x8, addend: 0x0, symName: __ZNSt3__19allocatorINS_10__function6__funcIZN6parlay14ThreadSpecificINS3_8internal24intrusive_acquire_retireINS5_12hazptr_stackIPvE4NodeENS_14default_deleteISA_EELm1EE10ThreadDataEEC1EvEUlmE_NS0_ISG_EEFSE_jEEEEC1B8ue170006ISG_EERKNS0_IT_EE, symObjAddr: 0x4CC0, symBinAddr: 0x100006A30, symSize: 0x34 }
  - { offset: 0x59BE4, size: 0x8, addend: 0x0, symName: __ZNSt3__19allocatorIZN6parlay14ThreadSpecificINS1_8internal24intrusive_acquire_retireINS3_12hazptr_stackIPvE4NodeENS_14default_deleteIS8_EELm1EE10ThreadDataEEC1EvEUlmE_EC1B8ue170006INS_10__function6__funcISE_SF_FSC_jEEEEERKNS0_IT_EE, symObjAddr: 0x4CF4, symBinAddr: 0x100006A64, symSize: 0x34 }
  - { offset: 0x59C22, size: 0x8, addend: 0x0, symName: __ZNSt3__110__function6__funcIZN6parlay14ThreadSpecificINS2_8internal24intrusive_acquire_retireINS4_12hazptr_stackIPvE4NodeENS_14default_deleteIS9_EELm1EE10ThreadDataEEC1EvEUlmE_NS_9allocatorISF_EEFSD_jEEC1B8ue170006EOSF_OSH_, symObjAddr: 0x4D28, symBinAddr: 0x100006A98, symSize: 0x3C }
  - { offset: 0x59C6A, size: 0x8, addend: 0x0, symName: __ZNSt3__19allocatorINS_10__function6__funcIZN6parlay14ThreadSpecificINS3_8internal24intrusive_acquire_retireINS5_12hazptr_stackIPvE4NodeENS_14default_deleteISA_EELm1EE10ThreadDataEEC1EvEUlmE_NS0_ISG_EEFSE_jEEEEC2B8ue170006ISG_EERKNS0_IT_EE, symObjAddr: 0x4D64, symBinAddr: 0x100006AD4, symSize: 0x30 }
  - { offset: 0x59CA8, size: 0x8, addend: 0x0, symName: __ZNSt3__116__non_trivial_ifILb1ENS_9allocatorINS_10__function6__funcIZN6parlay14ThreadSpecificINS4_8internal24intrusive_acquire_retireINS6_12hazptr_stackIPvE4NodeENS_14default_deleteISB_EELm1EE10ThreadDataEEC1EvEUlmE_NS1_ISH_EEFSF_jEEEEEEC2B8ue170006Ev, symObjAddr: 0x4D94, symBinAddr: 0x100006B04, symSize: 0x14 }
  - { offset: 0x59CD2, size: 0x8, addend: 0x0, symName: __ZNSt3__19allocatorIZN6parlay14ThreadSpecificINS1_8internal24intrusive_acquire_retireINS3_12hazptr_stackIPvE4NodeENS_14default_deleteIS8_EELm1EE10ThreadDataEEC1EvEUlmE_EC2B8ue170006INS_10__function6__funcISE_SF_FSC_jEEEEERKNS0_IT_EE, symObjAddr: 0x4DA8, symBinAddr: 0x100006B18, symSize: 0x30 }
  - { offset: 0x59D10, size: 0x8, addend: 0x0, symName: __ZNSt3__110__function6__funcIZN6parlay14ThreadSpecificINS2_8internal24intrusive_acquire_retireINS4_12hazptr_stackIPvE4NodeENS_14default_deleteIS9_EELm1EE10ThreadDataEEC1EvEUlmE_NS_9allocatorISF_EEFSD_jEEC2B8ue170006EOSF_OSH_, symObjAddr: 0x4DD8, symBinAddr: 0x100006B48, symSize: 0x80 }
  - { offset: 0x59D58, size: 0x8, addend: 0x0, symName: __ZNSt3__110__function6__baseIFN6parlay8internal24intrusive_acquire_retireINS3_12hazptr_stackIPvE4NodeENS_14default_deleteIS8_EELm1EE10ThreadDataEjEEC2B8ue170006Ev, symObjAddr: 0x4E58, symBinAddr: 0x100006BC8, symSize: 0x24 }
  - { offset: 0x59D82, size: 0x8, addend: 0x0, symName: __ZNSt3__110__function12__alloc_funcIZN6parlay14ThreadSpecificINS2_8internal24intrusive_acquire_retireINS4_12hazptr_stackIPvE4NodeENS_14default_deleteIS9_EELm1EE10ThreadDataEEC1EvEUlmE_NS_9allocatorISF_EEFSD_jEEC1B8ue170006EOSF_OSH_, symObjAddr: 0x4E7C, symBinAddr: 0x100006BEC, symSize: 0x3C }
  - { offset: 0x59DC8, size: 0x8, addend: 0x0, symName: __ZNSt3__110__function6__baseIFN6parlay8internal24intrusive_acquire_retireINS3_12hazptr_stackIPvE4NodeENS_14default_deleteIS8_EELm1EE10ThreadDataEjEED2Ev, symObjAddr: 0x4EB8, symBinAddr: 0x100006C28, symSize: 0x14 }
  - { offset: 0x59DF2, size: 0x8, addend: 0x0, symName: __ZNSt3__110__function6__funcIZN6parlay14ThreadSpecificINS2_8internal24intrusive_acquire_retireINS4_12hazptr_stackIPvE4NodeENS_14default_deleteIS9_EELm1EE10ThreadDataEEC1EvEUlmE_NS_9allocatorISF_EEFSD_jEED1Ev, symObjAddr: 0x4ECC, symBinAddr: 0x100006C3C, symSize: 0x2C }
  - { offset: 0x59E1F, size: 0x8, addend: 0x0, symName: __ZNSt3__110__function6__funcIZN6parlay14ThreadSpecificINS2_8internal24intrusive_acquire_retireINS4_12hazptr_stackIPvE4NodeENS_14default_deleteIS9_EELm1EE10ThreadDataEEC1EvEUlmE_NS_9allocatorISF_EEFSD_jEED0Ev, symObjAddr: 0x4EF8, symBinAddr: 0x100006C68, symSize: 0x30 }
  - { offset: 0x59E4C, size: 0x8, addend: 0x0, symName: __ZNKSt3__110__function6__funcIZN6parlay14ThreadSpecificINS2_8internal24intrusive_acquire_retireINS4_12hazptr_stackIPvE4NodeENS_14default_deleteIS9_EELm1EE10ThreadDataEEC1EvEUlmE_NS_9allocatorISF_EEFSD_jEE7__cloneEv, symObjAddr: 0x4F28, symBinAddr: 0x100006C98, symSize: 0xFC }
  - { offset: 0x59E9E, size: 0x8, addend: 0x0, symName: __ZNKSt3__110__function6__funcIZN6parlay14ThreadSpecificINS2_8internal24intrusive_acquire_retireINS4_12hazptr_stackIPvE4NodeENS_14default_deleteIS9_EELm1EE10ThreadDataEEC1EvEUlmE_NS_9allocatorISF_EEFSD_jEE7__cloneEPNS0_6__baseISI_EE, symObjAddr: 0x5024, symBinAddr: 0x100006D94, symSize: 0x58 }
  - { offset: 0x59ED5, size: 0x8, addend: 0x0, symName: __ZNSt3__110__function6__funcIZN6parlay14ThreadSpecificINS2_8internal24intrusive_acquire_retireINS4_12hazptr_stackIPvE4NodeENS_14default_deleteIS9_EELm1EE10ThreadDataEEC1EvEUlmE_NS_9allocatorISF_EEFSD_jEE7destroyEv, symObjAddr: 0x507C, symBinAddr: 0x100006DEC, symSize: 0x28 }
  - { offset: 0x59EFD, size: 0x8, addend: 0x0, symName: __ZNSt3__110__function6__funcIZN6parlay14ThreadSpecificINS2_8internal24intrusive_acquire_retireINS4_12hazptr_stackIPvE4NodeENS_14default_deleteIS9_EELm1EE10ThreadDataEEC1EvEUlmE_NS_9allocatorISF_EEFSD_jEE18destroy_deallocateEv, symObjAddr: 0x50A4, symBinAddr: 0x100006E14, symSize: 0x58 }
  - { offset: 0x59F40, size: 0x8, addend: 0x0, symName: __ZNSt3__110__function6__funcIZN6parlay14ThreadSpecificINS2_8internal24intrusive_acquire_retireINS4_12hazptr_stackIPvE4NodeENS_14default_deleteIS9_EELm1EE10ThreadDataEEC1EvEUlmE_NS_9allocatorISF_EEFSD_jEEclEOj, symObjAddr: 0x50FC, symBinAddr: 0x100006E6C, symSize: 0x38 }
  - { offset: 0x59F77, size: 0x8, addend: 0x0, symName: __ZNKSt3__110__function6__funcIZN6parlay14ThreadSpecificINS2_8internal24intrusive_acquire_retireINS4_12hazptr_stackIPvE4NodeENS_14default_deleteIS9_EELm1EE10ThreadDataEEC1EvEUlmE_NS_9allocatorISF_EEFSD_jEE6targetERKSt9type_info, symObjAddr: 0x5134, symBinAddr: 0x100006EA4, symSize: 0x60 }
  - { offset: 0x59FAE, size: 0x8, addend: 0x0, symName: __ZNKSt3__110__function6__funcIZN6parlay14ThreadSpecificINS2_8internal24intrusive_acquire_retireINS4_12hazptr_stackIPvE4NodeENS_14default_deleteIS9_EELm1EE10ThreadDataEEC1EvEUlmE_NS_9allocatorISF_EEFSD_jEE11target_typeEv, symObjAddr: 0x5194, symBinAddr: 0x100006F04, symSize: 0x18 }
  - { offset: 0x59FD6, size: 0x8, addend: 0x0, symName: __ZNSt3__110__function6__baseIFN6parlay8internal24intrusive_acquire_retireINS3_12hazptr_stackIPvE4NodeENS_14default_deleteIS8_EELm1EE10ThreadDataEjEED1Ev, symObjAddr: 0x51AC, symBinAddr: 0x100006F1C, symSize: 0x14 }
  - { offset: 0x5A000, size: 0x8, addend: 0x0, symName: __ZNSt3__110__function6__baseIFN6parlay8internal24intrusive_acquire_retireINS3_12hazptr_stackIPvE4NodeENS_14default_deleteIS8_EELm1EE10ThreadDataEjEED0Ev, symObjAddr: 0x51C0, symBinAddr: 0x100006F30, symSize: 0xC }
  - { offset: 0x5A02A, size: 0x8, addend: 0x0, symName: __ZNSt3__110__function12__alloc_funcIZN6parlay14ThreadSpecificINS2_8internal24intrusive_acquire_retireINS4_12hazptr_stackIPvE4NodeENS_14default_deleteIS9_EELm1EE10ThreadDataEEC1EvEUlmE_NS_9allocatorISF_EEFSD_jEEC2B8ue170006EOSF_OSH_, symObjAddr: 0x51CC, symBinAddr: 0x100006F3C, symSize: 0x5C }
  - { offset: 0x5A070, size: 0x8, addend: 0x0, symName: __ZNSt3__117__compressed_pairIZN6parlay14ThreadSpecificINS1_8internal24intrusive_acquire_retireINS3_12hazptr_stackIPvE4NodeENS_14default_deleteIS8_EELm1EE10ThreadDataEEC1EvEUlmE_NS_9allocatorISE_EEEC1B8ue170006IJOSE_EJOSG_EEENS_21piecewise_construct_tENS_5tupleIJDpT_EEENSM_IJDpT0_EEE, symObjAddr: 0x5280, symBinAddr: 0x100006FF0, symSize: 0x3C }
  - { offset: 0x5A0DA, size: 0x8, addend: 0x0, symName: __ZNSt3__15tupleIJOZN6parlay14ThreadSpecificINS1_8internal24intrusive_acquire_retireINS3_12hazptr_stackIPvE4NodeENS_14default_deleteIS8_EELm1EE10ThreadDataEEC1EvEUlmE_EEC1B8ue170006IJSE_ELi0EEEDpOT_, symObjAddr: 0x52BC, symBinAddr: 0x10000702C, symSize: 0x34 }
  - { offset: 0x5A124, size: 0x8, addend: 0x0, symName: __ZNSt3__15tupleIJOZN6parlay14ThreadSpecificINS1_8internal24intrusive_acquire_retireINS3_12hazptr_stackIPvE4NodeENS_14default_deleteIS8_EELm1EE10ThreadDataEEC1EvEUlmE_EEC2B8ue170006IJSE_ELi0EEEDpOT_, symObjAddr: 0x52F0, symBinAddr: 0x100007060, symSize: 0x34 }
  - { offset: 0x5A16E, size: 0x8, addend: 0x0, symName: __ZNSt3__112__tuple_implINS_15__tuple_indicesIJLm0EEEEJOZN6parlay14ThreadSpecificINS3_8internal24intrusive_acquire_retireINS5_12hazptr_stackIPvE4NodeENS_14default_deleteISA_EELm1EE10ThreadDataEEC1EvEUlmE_EEC1B8ue170006IJLm0EEJSH_EJEJEJSG_EEENS1_IJXspT_EEEENS_13__tuple_typesIJDpT0_EEENS1_IJXspT1_EEEENSL_IJDpT2_EEEDpOT3_, symObjAddr: 0x5324, symBinAddr: 0x100007094, symSize: 0x34 }
  - { offset: 0x5A1FF, size: 0x8, addend: 0x0, symName: __ZNSt3__112__tuple_implINS_15__tuple_indicesIJLm0EEEEJOZN6parlay14ThreadSpecificINS3_8internal24intrusive_acquire_retireINS5_12hazptr_stackIPvE4NodeENS_14default_deleteISA_EELm1EE10ThreadDataEEC1EvEUlmE_EEC2B8ue170006IJLm0EEJSH_EJEJEJSG_EEENS1_IJXspT_EEEENS_13__tuple_typesIJDpT0_EEENS1_IJXspT1_EEEENSL_IJDpT2_EEEDpOT3_, symObjAddr: 0x5358, symBinAddr: 0x1000070C8, symSize: 0x34 }
  - { offset: 0x5A290, size: 0x8, addend: 0x0, symName: __ZNSt3__112__tuple_leafILm0EOZN6parlay14ThreadSpecificINS1_8internal24intrusive_acquire_retireINS3_12hazptr_stackIPvE4NodeENS_14default_deleteIS8_EELm1EE10ThreadDataEEC1EvEUlmE_Lb0EEC2B8ue170006ISE_vEEOT_, symObjAddr: 0x538C, symBinAddr: 0x1000070FC, symSize: 0x20 }
  - { offset: 0x5A2D3, size: 0x8, addend: 0x0, symName: __ZNSt3__15tupleIJONS_9allocatorIZN6parlay14ThreadSpecificINS2_8internal24intrusive_acquire_retireINS4_12hazptr_stackIPvE4NodeENS_14default_deleteIS9_EELm1EE10ThreadDataEEC1EvEUlmE_EEEEC1B8ue170006IJSG_ELi0EEEDpOT_, symObjAddr: 0x53AC, symBinAddr: 0x10000711C, symSize: 0x34 }
  - { offset: 0x5A31D, size: 0x8, addend: 0x0, symName: __ZNSt3__15tupleIJONS_9allocatorIZN6parlay14ThreadSpecificINS2_8internal24intrusive_acquire_retireINS4_12hazptr_stackIPvE4NodeENS_14default_deleteIS9_EELm1EE10ThreadDataEEC1EvEUlmE_EEEEC2B8ue170006IJSG_ELi0EEEDpOT_, symObjAddr: 0x53E0, symBinAddr: 0x100007150, symSize: 0x34 }
  - { offset: 0x5A367, size: 0x8, addend: 0x0, symName: __ZNSt3__112__tuple_implINS_15__tuple_indicesIJLm0EEEEJONS_9allocatorIZN6parlay14ThreadSpecificINS4_8internal24intrusive_acquire_retireINS6_12hazptr_stackIPvE4NodeENS_14default_deleteISB_EELm1EE10ThreadDataEEC1EvEUlmE_EEEEC1B8ue170006IJLm0EEJSJ_EJEJEJSI_EEENS1_IJXspT_EEEENS_13__tuple_typesIJDpT0_EEENS1_IJXspT1_EEEENSN_IJDpT2_EEEDpOT3_, symObjAddr: 0x5414, symBinAddr: 0x100007184, symSize: 0x34 }
  - { offset: 0x5A3F8, size: 0x8, addend: 0x0, symName: __ZNSt3__112__tuple_implINS_15__tuple_indicesIJLm0EEEEJONS_9allocatorIZN6parlay14ThreadSpecificINS4_8internal24intrusive_acquire_retireINS6_12hazptr_stackIPvE4NodeENS_14default_deleteISB_EELm1EE10ThreadDataEEC1EvEUlmE_EEEEC2B8ue170006IJLm0EEJSJ_EJEJEJSI_EEENS1_IJXspT_EEEENS_13__tuple_typesIJDpT0_EEENS1_IJXspT1_EEEENSN_IJDpT2_EEEDpOT3_, symObjAddr: 0x5448, symBinAddr: 0x1000071B8, symSize: 0x34 }
  - { offset: 0x5A489, size: 0x8, addend: 0x0, symName: __ZNSt3__112__tuple_leafILm0EONS_9allocatorIZN6parlay14ThreadSpecificINS2_8internal24intrusive_acquire_retireINS4_12hazptr_stackIPvE4NodeENS_14default_deleteIS9_EELm1EE10ThreadDataEEC1EvEUlmE_EELb0EEC2B8ue170006ISG_vEEOT_, symObjAddr: 0x547C, symBinAddr: 0x1000071EC, symSize: 0x20 }
  - { offset: 0x5A4CC, size: 0x8, addend: 0x0, symName: __ZNSt3__117__compressed_pairIZN6parlay14ThreadSpecificINS1_8internal24intrusive_acquire_retireINS3_12hazptr_stackIPvE4NodeENS_14default_deleteIS8_EELm1EE10ThreadDataEEC1EvEUlmE_NS_9allocatorISE_EEEC2B8ue170006IJOSE_EJOSG_EEENS_21piecewise_construct_tENS_5tupleIJDpT_EEENSM_IJDpT0_EEE, symObjAddr: 0x549C, symBinAddr: 0x10000720C, symSize: 0x54 }
  - { offset: 0x5A536, size: 0x8, addend: 0x0, symName: __ZNSt3__122__compressed_pair_elemIZN6parlay14ThreadSpecificINS1_8internal24intrusive_acquire_retireINS3_12hazptr_stackIPvE4NodeENS_14default_deleteIS8_EELm1EE10ThreadDataEEC1EvEUlmE_Li0ELb1EEC2B8ue170006IJOSE_EJLm0EEEENS_21piecewise_construct_tENS_5tupleIJDpT_EEENS_15__tuple_indicesIJXspT0_EEEE, symObjAddr: 0x54F0, symBinAddr: 0x100007260, symSize: 0x38 }
  - { offset: 0x5A59B, size: 0x8, addend: 0x0, symName: __ZNSt3__122__compressed_pair_elemINS_9allocatorIZN6parlay14ThreadSpecificINS2_8internal24intrusive_acquire_retireINS4_12hazptr_stackIPvE4NodeENS_14default_deleteIS9_EELm1EE10ThreadDataEEC1EvEUlmE_EELi1ELb1EEC2B8ue170006IJOSG_EJLm0EEEENS_21piecewise_construct_tENS_5tupleIJDpT_EEENS_15__tuple_indicesIJXspT0_EEEE, symObjAddr: 0x5528, symBinAddr: 0x100007298, symSize: 0x38 }
  - { offset: 0x5A600, size: 0x8, addend: 0x0, symName: __ZNSt3__112__tuple_leafILm0EOZN6parlay14ThreadSpecificINS1_8internal24intrusive_acquire_retireINS3_12hazptr_stackIPvE4NodeENS_14default_deleteIS8_EELm1EE10ThreadDataEEC1EvEUlmE_Lb0EE3getB8ue170006Ev, symObjAddr: 0x5584, symBinAddr: 0x1000072F4, symSize: 0x18 }
  - { offset: 0x5A626, size: 0x8, addend: 0x0, symName: __ZNSt3__112__tuple_leafILm0EONS_9allocatorIZN6parlay14ThreadSpecificINS2_8internal24intrusive_acquire_retireINS4_12hazptr_stackIPvE4NodeENS_14default_deleteIS9_EELm1EE10ThreadDataEEC1EvEUlmE_EELb0EE3getB8ue170006Ev, symObjAddr: 0x55C0, symBinAddr: 0x100007330, symSize: 0x18 }
  - { offset: 0x5A64C, size: 0x8, addend: 0x0, symName: __ZNSt3__110__function6__funcIZN6parlay14ThreadSpecificINS2_8internal24intrusive_acquire_retireINS4_12hazptr_stackIPvE4NodeENS_14default_deleteIS9_EELm1EE10ThreadDataEEC1EvEUlmE_NS_9allocatorISF_EEFSD_jEED2Ev, symObjAddr: 0x55D8, symBinAddr: 0x100007348, symSize: 0x2C }
  - { offset: 0x5A679, size: 0x8, addend: 0x0, symName: __ZNKSt3__110__function12__alloc_funcIZN6parlay14ThreadSpecificINS2_8internal24intrusive_acquire_retireINS4_12hazptr_stackIPvE4NodeENS_14default_deleteIS9_EELm1EE10ThreadDataEEC1EvEUlmE_NS_9allocatorISF_EEFSD_jEE15__get_allocatorB8ue170006Ev, symObjAddr: 0x5604, symBinAddr: 0x100007374, symSize: 0x24 }
  - { offset: 0x5A69F, size: 0x8, addend: 0x0, symName: __ZNSt3__19allocatorINS_10__function6__funcIZN6parlay14ThreadSpecificINS3_8internal24intrusive_acquire_retireINS5_12hazptr_stackIPvE4NodeENS_14default_deleteISA_EELm1EE10ThreadDataEEC1EvEUlmE_NS0_ISG_EEFSE_jEEEE8allocateB8ue170006Em, symObjAddr: 0x5628, symBinAddr: 0x100007398, symSize: 0x58 }
  - { offset: 0x5A6E4, size: 0x8, addend: 0x0, symName: __ZNSt3__122__allocator_destructorINS_9allocatorINS_10__function6__funcIZN6parlay14ThreadSpecificINS4_8internal24intrusive_acquire_retireINS6_12hazptr_stackIPvE4NodeENS_14default_deleteISB_EELm1EE10ThreadDataEEC1EvEUlmE_NS1_ISH_EEFSF_jEEEEEEC1B8ue170006ERSL_m, symObjAddr: 0x5680, symBinAddr: 0x1000073F0, symSize: 0x3C }
  - { offset: 0x5A7C0, size: 0x8, addend: 0x0, symName: __ZNSt3__110unique_ptrINS_10__function6__funcIZN6parlay14ThreadSpecificINS3_8internal24intrusive_acquire_retireINS5_12hazptr_stackIPvE4NodeENS_14default_deleteISA_EELm1EE10ThreadDataEEC1EvEUlmE_NS_9allocatorISG_EEFSE_jEEENS_22__allocator_destructorINSH_ISK_EEEEEC1B8ue170006ILb1EvEEPSK_NS_16__dependent_typeINS_27__unique_ptr_deleter_sfinaeISN_EEXT_EE20__good_rval_ref_typeE, symObjAddr: 0x56BC, symBinAddr: 0x10000742C, symSize: 0x3C }
  - { offset: 0x5A811, size: 0x8, addend: 0x0, symName: __ZNKSt3__110unique_ptrINS_10__function6__funcIZN6parlay14ThreadSpecificINS3_8internal24intrusive_acquire_retireINS5_12hazptr_stackIPvE4NodeENS_14default_deleteISA_EELm1EE10ThreadDataEEC1EvEUlmE_NS_9allocatorISG_EEFSE_jEEENS_22__allocator_destructorINSH_ISK_EEEEE3getB8ue170006Ev, symObjAddr: 0x56F8, symBinAddr: 0x100007468, symSize: 0x28 }
  - { offset: 0x5A837, size: 0x8, addend: 0x0, symName: __ZNKSt3__110__function12__alloc_funcIZN6parlay14ThreadSpecificINS2_8internal24intrusive_acquire_retireINS4_12hazptr_stackIPvE4NodeENS_14default_deleteIS9_EELm1EE10ThreadDataEEC1EvEUlmE_NS_9allocatorISF_EEFSD_jEE8__targetB8ue170006Ev, symObjAddr: 0x5720, symBinAddr: 0x100007490, symSize: 0x24 }
  - { offset: 0x5A85D, size: 0x8, addend: 0x0, symName: __ZNSt3__110__function6__funcIZN6parlay14ThreadSpecificINS2_8internal24intrusive_acquire_retireINS4_12hazptr_stackIPvE4NodeENS_14default_deleteIS9_EELm1EE10ThreadDataEEC1EvEUlmE_NS_9allocatorISF_EEFSD_jEEC1B8ue170006ERKSF_OSH_, symObjAddr: 0x5744, symBinAddr: 0x1000074B4, symSize: 0x3C }
  - { offset: 0x5A8A5, size: 0x8, addend: 0x0, symName: __ZNSt3__110unique_ptrINS_10__function6__funcIZN6parlay14ThreadSpecificINS3_8internal24intrusive_acquire_retireINS5_12hazptr_stackIPvE4NodeENS_14default_deleteISA_EELm1EE10ThreadDataEEC1EvEUlmE_NS_9allocatorISG_EEFSE_jEEENS_22__allocator_destructorINSH_ISK_EEEEE7releaseB8ue170006Ev, symObjAddr: 0x5780, symBinAddr: 0x1000074F0, symSize: 0x44 }
  - { offset: 0x5A8DA, size: 0x8, addend: 0x0, symName: __ZNSt3__110unique_ptrINS_10__function6__funcIZN6parlay14ThreadSpecificINS3_8internal24intrusive_acquire_retireINS5_12hazptr_stackIPvE4NodeENS_14default_deleteISA_EELm1EE10ThreadDataEEC1EvEUlmE_NS_9allocatorISG_EEFSE_jEEENS_22__allocator_destructorINSH_ISK_EEEEED1B8ue170006Ev, symObjAddr: 0x57C4, symBinAddr: 0x100007534, symSize: 0x2C }
  - { offset: 0x5A904, size: 0x8, addend: 0x0, symName: __ZNKSt3__117__compressed_pairIZN6parlay14ThreadSpecificINS1_8internal24intrusive_acquire_retireINS3_12hazptr_stackIPvE4NodeENS_14default_deleteIS8_EELm1EE10ThreadDataEEC1EvEUlmE_NS_9allocatorISE_EEE6secondB8ue170006Ev, symObjAddr: 0x57F0, symBinAddr: 0x100007560, symSize: 0x24 }
  - { offset: 0x5A92A, size: 0x8, addend: 0x0, symName: __ZNKSt3__122__compressed_pair_elemINS_9allocatorIZN6parlay14ThreadSpecificINS2_8internal24intrusive_acquire_retireINS4_12hazptr_stackIPvE4NodeENS_14default_deleteIS9_EELm1EE10ThreadDataEEC1EvEUlmE_EELi1ELb1EE5__getB8ue170006Ev, symObjAddr: 0x5814, symBinAddr: 0x100007584, symSize: 0x14 }
  - { offset: 0x5A95B, size: 0x8, addend: 0x0, symName: __ZNSt3__116allocator_traitsINS_9allocatorINS_10__function6__funcIZN6parlay14ThreadSpecificINS4_8internal24intrusive_acquire_retireINS6_12hazptr_stackIPvE4NodeENS_14default_deleteISB_EELm1EE10ThreadDataEEC1EvEUlmE_NS1_ISH_EEFSF_jEEEEEE8max_sizeB8ue170006ISL_vEEmRKSL_, symObjAddr: 0x5828, symBinAddr: 0x100007598, symSize: 0x24 }
  - { offset: 0x5A989, size: 0x8, addend: 0x0, symName: __ZNKSt3__19allocatorINS_10__function6__funcIZN6parlay14ThreadSpecificINS3_8internal24intrusive_acquire_retireINS5_12hazptr_stackIPvE4NodeENS_14default_deleteISA_EELm1EE10ThreadDataEEC1EvEUlmE_NS0_ISG_EEFSE_jEEEE8max_sizeB8ue170006Ev, symObjAddr: 0x584C, symBinAddr: 0x1000075BC, symSize: 0x14 }
  - { offset: 0x5A9AF, size: 0x8, addend: 0x0, symName: __ZNSt3__122__allocator_destructorINS_9allocatorINS_10__function6__funcIZN6parlay14ThreadSpecificINS4_8internal24intrusive_acquire_retireINS6_12hazptr_stackIPvE4NodeENS_14default_deleteISB_EELm1EE10ThreadDataEEC1EvEUlmE_NS1_ISH_EEFSF_jEEEEEEC2B8ue170006ERSL_m, symObjAddr: 0x5860, symBinAddr: 0x1000075D0, symSize: 0x2C }
  - { offset: 0x5A9F5, size: 0x8, addend: 0x0, symName: __ZNSt3__110unique_ptrINS_10__function6__funcIZN6parlay14ThreadSpecificINS3_8internal24intrusive_acquire_retireINS5_12hazptr_stackIPvE4NodeENS_14default_deleteISA_EELm1EE10ThreadDataEEC1EvEUlmE_NS_9allocatorISG_EEFSE_jEEENS_22__allocator_destructorINSH_ISK_EEEEEC2B8ue170006ILb1EvEEPSK_NS_16__dependent_typeINS_27__unique_ptr_deleter_sfinaeISN_EEXT_EE20__good_rval_ref_typeE, symObjAddr: 0x588C, symBinAddr: 0x1000075FC, symSize: 0x48 }
  - { offset: 0x5AA46, size: 0x8, addend: 0x0, symName: __ZNSt3__117__compressed_pairIPNS_10__function6__funcIZN6parlay14ThreadSpecificINS3_8internal24intrusive_acquire_retireINS5_12hazptr_stackIPvE4NodeENS_14default_deleteISA_EELm1EE10ThreadDataEEC1EvEUlmE_NS_9allocatorISG_EEFSE_jEEENS_22__allocator_destructorINSH_ISK_EEEEEC1B8ue170006IRSL_SO_EEOT_OT0_, symObjAddr: 0x58D4, symBinAddr: 0x100007644, symSize: 0x3C }
  - { offset: 0x5AA9E, size: 0x8, addend: 0x0, symName: __ZNSt3__117__compressed_pairIPNS_10__function6__funcIZN6parlay14ThreadSpecificINS3_8internal24intrusive_acquire_retireINS5_12hazptr_stackIPvE4NodeENS_14default_deleteISA_EELm1EE10ThreadDataEEC1EvEUlmE_NS_9allocatorISG_EEFSE_jEEENS_22__allocator_destructorINSH_ISK_EEEEEC2B8ue170006IRSL_SO_EEOT_OT0_, symObjAddr: 0x5910, symBinAddr: 0x100007680, symSize: 0x48 }
  - { offset: 0x5AAF6, size: 0x8, addend: 0x0, symName: __ZNSt3__122__compressed_pair_elemIPNS_10__function6__funcIZN6parlay14ThreadSpecificINS3_8internal24intrusive_acquire_retireINS5_12hazptr_stackIPvE4NodeENS_14default_deleteISA_EELm1EE10ThreadDataEEC1EvEUlmE_NS_9allocatorISG_EEFSE_jEEELi0ELb0EEC2B8ue170006IRSL_vEEOT_, symObjAddr: 0x5958, symBinAddr: 0x1000076C8, symSize: 0x24 }
  - { offset: 0x5AB38, size: 0x8, addend: 0x0, symName: __ZNSt3__122__compressed_pair_elemINS_22__allocator_destructorINS_9allocatorINS_10__function6__funcIZN6parlay14ThreadSpecificINS5_8internal24intrusive_acquire_retireINS7_12hazptr_stackIPvE4NodeENS_14default_deleteISC_EELm1EE10ThreadDataEEC1EvEUlmE_NS2_ISI_EEFSG_jEEEEEEELi1ELb0EEC2B8ue170006ISN_vEEOT_, symObjAddr: 0x597C, symBinAddr: 0x1000076EC, symSize: 0x24 }
  - { offset: 0x5AB7A, size: 0x8, addend: 0x0, symName: __ZNKSt3__117__compressed_pairIPNS_10__function6__funcIZN6parlay14ThreadSpecificINS3_8internal24intrusive_acquire_retireINS5_12hazptr_stackIPvE4NodeENS_14default_deleteISA_EELm1EE10ThreadDataEEC1EvEUlmE_NS_9allocatorISG_EEFSE_jEEENS_22__allocator_destructorINSH_ISK_EEEEE5firstB8ue170006Ev, symObjAddr: 0x59A0, symBinAddr: 0x100007710, symSize: 0x24 }
  - { offset: 0x5ABA0, size: 0x8, addend: 0x0, symName: __ZNKSt3__122__compressed_pair_elemIPNS_10__function6__funcIZN6parlay14ThreadSpecificINS3_8internal24intrusive_acquire_retireINS5_12hazptr_stackIPvE4NodeENS_14default_deleteISA_EELm1EE10ThreadDataEEC1EvEUlmE_NS_9allocatorISG_EEFSE_jEEELi0ELb0EE5__getB8ue170006Ev, symObjAddr: 0x59C4, symBinAddr: 0x100007734, symSize: 0x14 }
  - { offset: 0x5ABC6, size: 0x8, addend: 0x0, symName: __ZNKSt3__117__compressed_pairIZN6parlay14ThreadSpecificINS1_8internal24intrusive_acquire_retireINS3_12hazptr_stackIPvE4NodeENS_14default_deleteIS8_EELm1EE10ThreadDataEEC1EvEUlmE_NS_9allocatorISE_EEE5firstB8ue170006Ev, symObjAddr: 0x59D8, symBinAddr: 0x100007748, symSize: 0x24 }
  - { offset: 0x5ABEC, size: 0x8, addend: 0x0, symName: __ZNKSt3__122__compressed_pair_elemIZN6parlay14ThreadSpecificINS1_8internal24intrusive_acquire_retireINS3_12hazptr_stackIPvE4NodeENS_14default_deleteIS8_EELm1EE10ThreadDataEEC1EvEUlmE_Li0ELb1EE5__getB8ue170006Ev, symObjAddr: 0x59FC, symBinAddr: 0x10000776C, symSize: 0x14 }
  - { offset: 0x5AC12, size: 0x8, addend: 0x0, symName: __ZNSt3__110__function6__funcIZN6parlay14ThreadSpecificINS2_8internal24intrusive_acquire_retireINS4_12hazptr_stackIPvE4NodeENS_14default_deleteIS9_EELm1EE10ThreadDataEEC1EvEUlmE_NS_9allocatorISF_EEFSD_jEEC2B8ue170006ERKSF_OSH_, symObjAddr: 0x5A10, symBinAddr: 0x100007780, symSize: 0x80 }
  - { offset: 0x5AC5A, size: 0x8, addend: 0x0, symName: __ZNSt3__110__function12__alloc_funcIZN6parlay14ThreadSpecificINS2_8internal24intrusive_acquire_retireINS4_12hazptr_stackIPvE4NodeENS_14default_deleteIS9_EELm1EE10ThreadDataEEC1EvEUlmE_NS_9allocatorISF_EEFSD_jEEC1B8ue170006ERKSF_OSH_, symObjAddr: 0x5A90, symBinAddr: 0x100007800, symSize: 0x3C }
  - { offset: 0x5ACA0, size: 0x8, addend: 0x0, symName: __ZNSt3__110__function12__alloc_funcIZN6parlay14ThreadSpecificINS2_8internal24intrusive_acquire_retireINS4_12hazptr_stackIPvE4NodeENS_14default_deleteIS9_EELm1EE10ThreadDataEEC1EvEUlmE_NS_9allocatorISF_EEFSD_jEEC2B8ue170006ERKSF_OSH_, symObjAddr: 0x5ACC, symBinAddr: 0x10000783C, symSize: 0x5C }
  - { offset: 0x5ACE6, size: 0x8, addend: 0x0, symName: __ZNSt3__117__compressed_pairIZN6parlay14ThreadSpecificINS1_8internal24intrusive_acquire_retireINS3_12hazptr_stackIPvE4NodeENS_14default_deleteIS8_EELm1EE10ThreadDataEEC1EvEUlmE_NS_9allocatorISE_EEEC1B8ue170006IJRKSE_EJOSG_EEENS_21piecewise_construct_tENS_5tupleIJDpT_EEENSN_IJDpT0_EEE, symObjAddr: 0x5B54, symBinAddr: 0x1000078C4, symSize: 0x3C }
  - { offset: 0x5AD50, size: 0x8, addend: 0x0, symName: __ZNSt3__15tupleIJRKZN6parlay14ThreadSpecificINS1_8internal24intrusive_acquire_retireINS3_12hazptr_stackIPvE4NodeENS_14default_deleteIS8_EELm1EE10ThreadDataEEC1EvEUlmE_EEC1B8ue170006INS_4_AndELi0EEESG_, symObjAddr: 0x5B90, symBinAddr: 0x100007900, symSize: 0x34 }
  - { offset: 0x5AD99, size: 0x8, addend: 0x0, symName: __ZNSt3__15tupleIJRKZN6parlay14ThreadSpecificINS1_8internal24intrusive_acquire_retireINS3_12hazptr_stackIPvE4NodeENS_14default_deleteIS8_EELm1EE10ThreadDataEEC1EvEUlmE_EEC2B8ue170006INS_4_AndELi0EEESG_, symObjAddr: 0x5BC4, symBinAddr: 0x100007934, symSize: 0x34 }
  - { offset: 0x5ADE2, size: 0x8, addend: 0x0, symName: __ZNSt3__112__tuple_implINS_15__tuple_indicesIJLm0EEEEJRKZN6parlay14ThreadSpecificINS3_8internal24intrusive_acquire_retireINS5_12hazptr_stackIPvE4NodeENS_14default_deleteISA_EELm1EE10ThreadDataEEC1EvEUlmE_EEC1B8ue170006IJLm0EEJSI_EJEJEJSI_EEENS1_IJXspT_EEEENS_13__tuple_typesIJDpT0_EEENS1_IJXspT1_EEEENSM_IJDpT2_EEEDpOT3_, symObjAddr: 0x5BF8, symBinAddr: 0x100007968, symSize: 0x34 }
  - { offset: 0x5AE73, size: 0x8, addend: 0x0, symName: __ZNSt3__112__tuple_implINS_15__tuple_indicesIJLm0EEEEJRKZN6parlay14ThreadSpecificINS3_8internal24intrusive_acquire_retireINS5_12hazptr_stackIPvE4NodeENS_14default_deleteISA_EELm1EE10ThreadDataEEC1EvEUlmE_EEC2B8ue170006IJLm0EEJSI_EJEJEJSI_EEENS1_IJXspT_EEEENS_13__tuple_typesIJDpT0_EEENS1_IJXspT1_EEEENSM_IJDpT2_EEEDpOT3_, symObjAddr: 0x5C2C, symBinAddr: 0x10000799C, symSize: 0x34 }
  - { offset: 0x5AF04, size: 0x8, addend: 0x0, symName: __ZNSt3__112__tuple_leafILm0ERKZN6parlay14ThreadSpecificINS1_8internal24intrusive_acquire_retireINS3_12hazptr_stackIPvE4NodeENS_14default_deleteIS8_EELm1EE10ThreadDataEEC1EvEUlmE_Lb0EEC2B8ue170006ISG_vEEOT_, symObjAddr: 0x5C60, symBinAddr: 0x1000079D0, symSize: 0x20 }
  - { offset: 0x5AF47, size: 0x8, addend: 0x0, symName: __ZNSt3__117__compressed_pairIZN6parlay14ThreadSpecificINS1_8internal24intrusive_acquire_retireINS3_12hazptr_stackIPvE4NodeENS_14default_deleteIS8_EELm1EE10ThreadDataEEC1EvEUlmE_NS_9allocatorISE_EEEC2B8ue170006IJRKSE_EJOSG_EEENS_21piecewise_construct_tENS_5tupleIJDpT_EEENSN_IJDpT0_EEE, symObjAddr: 0x5C80, symBinAddr: 0x1000079F0, symSize: 0x54 }
  - { offset: 0x5AFB1, size: 0x8, addend: 0x0, symName: __ZNSt3__122__compressed_pair_elemIZN6parlay14ThreadSpecificINS1_8internal24intrusive_acquire_retireINS3_12hazptr_stackIPvE4NodeENS_14default_deleteIS8_EELm1EE10ThreadDataEEC1EvEUlmE_Li0ELb1EEC2B8ue170006IJRKSE_EJLm0EEEENS_21piecewise_construct_tENS_5tupleIJDpT_EEENS_15__tuple_indicesIJXspT0_EEEE, symObjAddr: 0x5CD4, symBinAddr: 0x100007A44, symSize: 0x38 }
  - { offset: 0x5B016, size: 0x8, addend: 0x0, symName: __ZNSt3__112__tuple_leafILm0ERKZN6parlay14ThreadSpecificINS1_8internal24intrusive_acquire_retireINS3_12hazptr_stackIPvE4NodeENS_14default_deleteIS8_EELm1EE10ThreadDataEEC1EvEUlmE_Lb0EE3getB8ue170006Ev, symObjAddr: 0x5D30, symBinAddr: 0x100007AA0, symSize: 0x18 }
  - { offset: 0x5B03C, size: 0x8, addend: 0x0, symName: __ZNSt3__117__compressed_pairIPNS_10__function6__funcIZN6parlay14ThreadSpecificINS3_8internal24intrusive_acquire_retireINS5_12hazptr_stackIPvE4NodeENS_14default_deleteISA_EELm1EE10ThreadDataEEC1EvEUlmE_NS_9allocatorISG_EEFSE_jEEENS_22__allocator_destructorINSH_ISK_EEEEE5firstB8ue170006Ev, symObjAddr: 0x5D48, symBinAddr: 0x100007AB8, symSize: 0x24 }
  - { offset: 0x5B062, size: 0x8, addend: 0x0, symName: __ZNSt3__122__compressed_pair_elemIPNS_10__function6__funcIZN6parlay14ThreadSpecificINS3_8internal24intrusive_acquire_retireINS5_12hazptr_stackIPvE4NodeENS_14default_deleteISA_EELm1EE10ThreadDataEEC1EvEUlmE_NS_9allocatorISG_EEFSE_jEEELi0ELb0EE5__getB8ue170006Ev, symObjAddr: 0x5D6C, symBinAddr: 0x100007ADC, symSize: 0x14 }
  - { offset: 0x5B088, size: 0x8, addend: 0x0, symName: __ZNSt3__110unique_ptrINS_10__function6__funcIZN6parlay14ThreadSpecificINS3_8internal24intrusive_acquire_retireINS5_12hazptr_stackIPvE4NodeENS_14default_deleteISA_EELm1EE10ThreadDataEEC1EvEUlmE_NS_9allocatorISG_EEFSE_jEEENS_22__allocator_destructorINSH_ISK_EEEEED2B8ue170006Ev, symObjAddr: 0x5D80, symBinAddr: 0x100007AF0, symSize: 0x30 }
  - { offset: 0x5B0B2, size: 0x8, addend: 0x0, symName: __ZNSt3__110unique_ptrINS_10__function6__funcIZN6parlay14ThreadSpecificINS3_8internal24intrusive_acquire_retireINS5_12hazptr_stackIPvE4NodeENS_14default_deleteISA_EELm1EE10ThreadDataEEC1EvEUlmE_NS_9allocatorISG_EEFSE_jEEENS_22__allocator_destructorINSH_ISK_EEEEE5resetB8ue170006EPSK_, symObjAddr: 0x5DB0, symBinAddr: 0x100007B20, symSize: 0x78 }
  - { offset: 0x5B0F6, size: 0x8, addend: 0x0, symName: __ZNSt3__117__compressed_pairIPNS_10__function6__funcIZN6parlay14ThreadSpecificINS3_8internal24intrusive_acquire_retireINS5_12hazptr_stackIPvE4NodeENS_14default_deleteISA_EELm1EE10ThreadDataEEC1EvEUlmE_NS_9allocatorISG_EEFSE_jEEENS_22__allocator_destructorINSH_ISK_EEEEE6secondB8ue170006Ev, symObjAddr: 0x5E28, symBinAddr: 0x100007B98, symSize: 0x28 }
  - { offset: 0x5B11C, size: 0x8, addend: 0x0, symName: __ZNSt3__122__allocator_destructorINS_9allocatorINS_10__function6__funcIZN6parlay14ThreadSpecificINS4_8internal24intrusive_acquire_retireINS6_12hazptr_stackIPvE4NodeENS_14default_deleteISB_EELm1EE10ThreadDataEEC1EvEUlmE_NS1_ISH_EEFSF_jEEEEEEclB8ue170006EPSK_, symObjAddr: 0x5E50, symBinAddr: 0x100007BC0, symSize: 0x34 }
  - { offset: 0x5B150, size: 0x8, addend: 0x0, symName: __ZNSt3__122__compressed_pair_elemINS_22__allocator_destructorINS_9allocatorINS_10__function6__funcIZN6parlay14ThreadSpecificINS5_8internal24intrusive_acquire_retireINS7_12hazptr_stackIPvE4NodeENS_14default_deleteISC_EELm1EE10ThreadDataEEC1EvEUlmE_NS2_ISI_EEFSG_jEEEEEEELi1ELb0EE5__getB8ue170006Ev, symObjAddr: 0x5E84, symBinAddr: 0x100007BF4, symSize: 0x14 }
  - { offset: 0x5B176, size: 0x8, addend: 0x0, symName: __ZNSt3__116allocator_traitsINS_9allocatorINS_10__function6__funcIZN6parlay14ThreadSpecificINS4_8internal24intrusive_acquire_retireINS6_12hazptr_stackIPvE4NodeENS_14default_deleteISB_EELm1EE10ThreadDataEEC1EvEUlmE_NS1_ISH_EEFSF_jEEEEEE10deallocateB8ue170006ERSL_PSK_m, symObjAddr: 0x5E98, symBinAddr: 0x100007C08, symSize: 0x34 }
  - { offset: 0x5B1B8, size: 0x8, addend: 0x0, symName: __ZNSt3__19allocatorINS_10__function6__funcIZN6parlay14ThreadSpecificINS3_8internal24intrusive_acquire_retireINS5_12hazptr_stackIPvE4NodeENS_14default_deleteISA_EELm1EE10ThreadDataEEC1EvEUlmE_NS0_ISG_EEFSE_jEEEE10deallocateB8ue170006EPSJ_m, symObjAddr: 0x5ECC, symBinAddr: 0x100007C3C, symSize: 0x40 }
  - { offset: 0x5B1FA, size: 0x8, addend: 0x0, symName: __ZNSt3__110__function6__funcIZN6parlay14ThreadSpecificINS2_8internal24intrusive_acquire_retireINS4_12hazptr_stackIPvE4NodeENS_14default_deleteIS9_EELm1EE10ThreadDataEEC1EvEUlmE_NS_9allocatorISF_EEFSD_jEEC1B8ue170006ERKSF_RKSH_, symObjAddr: 0x5F0C, symBinAddr: 0x100007C7C, symSize: 0x3C }
  - { offset: 0x5B242, size: 0x8, addend: 0x0, symName: __ZNSt3__110__function6__funcIZN6parlay14ThreadSpecificINS2_8internal24intrusive_acquire_retireINS4_12hazptr_stackIPvE4NodeENS_14default_deleteIS9_EELm1EE10ThreadDataEEC1EvEUlmE_NS_9allocatorISF_EEFSD_jEEC2B8ue170006ERKSF_RKSH_, symObjAddr: 0x5F48, symBinAddr: 0x100007CB8, symSize: 0x80 }
  - { offset: 0x5B28A, size: 0x8, addend: 0x0, symName: __ZNSt3__110__function12__alloc_funcIZN6parlay14ThreadSpecificINS2_8internal24intrusive_acquire_retireINS4_12hazptr_stackIPvE4NodeENS_14default_deleteIS9_EELm1EE10ThreadDataEEC1EvEUlmE_NS_9allocatorISF_EEFSD_jEEC1B8ue170006ERKSF_RKSH_, symObjAddr: 0x5FC8, symBinAddr: 0x100007D38, symSize: 0x3C }
  - { offset: 0x5B2D0, size: 0x8, addend: 0x0, symName: __ZNSt3__110__function12__alloc_funcIZN6parlay14ThreadSpecificINS2_8internal24intrusive_acquire_retireINS4_12hazptr_stackIPvE4NodeENS_14default_deleteIS9_EELm1EE10ThreadDataEEC1EvEUlmE_NS_9allocatorISF_EEFSD_jEEC2B8ue170006ERKSF_RKSH_, symObjAddr: 0x6004, symBinAddr: 0x100007D74, symSize: 0x5C }
  - { offset: 0x5B316, size: 0x8, addend: 0x0, symName: __ZNSt3__117__compressed_pairIZN6parlay14ThreadSpecificINS1_8internal24intrusive_acquire_retireINS3_12hazptr_stackIPvE4NodeENS_14default_deleteIS8_EELm1EE10ThreadDataEEC1EvEUlmE_NS_9allocatorISE_EEEC1B8ue170006IJRKSE_EJRKSG_EEENS_21piecewise_construct_tENS_5tupleIJDpT_EEENSO_IJDpT0_EEE, symObjAddr: 0x608C, symBinAddr: 0x100007DFC, symSize: 0x3C }
  - { offset: 0x5B380, size: 0x8, addend: 0x0, symName: __ZNSt3__15tupleIJRKNS_9allocatorIZN6parlay14ThreadSpecificINS2_8internal24intrusive_acquire_retireINS4_12hazptr_stackIPvE4NodeENS_14default_deleteIS9_EELm1EE10ThreadDataEEC1EvEUlmE_EEEEC1B8ue170006INS_4_AndELi0EEESI_, symObjAddr: 0x60C8, symBinAddr: 0x100007E38, symSize: 0x34 }
  - { offset: 0x5B3C9, size: 0x8, addend: 0x0, symName: __ZNSt3__15tupleIJRKNS_9allocatorIZN6parlay14ThreadSpecificINS2_8internal24intrusive_acquire_retireINS4_12hazptr_stackIPvE4NodeENS_14default_deleteIS9_EELm1EE10ThreadDataEEC1EvEUlmE_EEEEC2B8ue170006INS_4_AndELi0EEESI_, symObjAddr: 0x60FC, symBinAddr: 0x100007E6C, symSize: 0x34 }
  - { offset: 0x5B412, size: 0x8, addend: 0x0, symName: __ZNSt3__112__tuple_implINS_15__tuple_indicesIJLm0EEEEJRKNS_9allocatorIZN6parlay14ThreadSpecificINS4_8internal24intrusive_acquire_retireINS6_12hazptr_stackIPvE4NodeENS_14default_deleteISB_EELm1EE10ThreadDataEEC1EvEUlmE_EEEEC1B8ue170006IJLm0EEJSK_EJEJEJSK_EEENS1_IJXspT_EEEENS_13__tuple_typesIJDpT0_EEENS1_IJXspT1_EEEENSO_IJDpT2_EEEDpOT3_, symObjAddr: 0x6130, symBinAddr: 0x100007EA0, symSize: 0x34 }
  - { offset: 0x5B4A3, size: 0x8, addend: 0x0, symName: __ZNSt3__112__tuple_implINS_15__tuple_indicesIJLm0EEEEJRKNS_9allocatorIZN6parlay14ThreadSpecificINS4_8internal24intrusive_acquire_retireINS6_12hazptr_stackIPvE4NodeENS_14default_deleteISB_EELm1EE10ThreadDataEEC1EvEUlmE_EEEEC2B8ue170006IJLm0EEJSK_EJEJEJSK_EEENS1_IJXspT_EEEENS_13__tuple_typesIJDpT0_EEENS1_IJXspT1_EEEENSO_IJDpT2_EEEDpOT3_, symObjAddr: 0x6164, symBinAddr: 0x100007ED4, symSize: 0x34 }
  - { offset: 0x5B534, size: 0x8, addend: 0x0, symName: __ZNSt3__112__tuple_leafILm0ERKNS_9allocatorIZN6parlay14ThreadSpecificINS2_8internal24intrusive_acquire_retireINS4_12hazptr_stackIPvE4NodeENS_14default_deleteIS9_EELm1EE10ThreadDataEEC1EvEUlmE_EELb0EEC2B8ue170006ISI_vEEOT_, symObjAddr: 0x6198, symBinAddr: 0x100007F08, symSize: 0x20 }
  - { offset: 0x5B577, size: 0x8, addend: 0x0, symName: __ZNSt3__117__compressed_pairIZN6parlay14ThreadSpecificINS1_8internal24intrusive_acquire_retireINS3_12hazptr_stackIPvE4NodeENS_14default_deleteIS8_EELm1EE10ThreadDataEEC1EvEUlmE_NS_9allocatorISE_EEEC2B8ue170006IJRKSE_EJRKSG_EEENS_21piecewise_construct_tENS_5tupleIJDpT_EEENSO_IJDpT0_EEE, symObjAddr: 0x61B8, symBinAddr: 0x100007F28, symSize: 0x54 }
  - { offset: 0x5B5E1, size: 0x8, addend: 0x0, symName: __ZNSt3__122__compressed_pair_elemINS_9allocatorIZN6parlay14ThreadSpecificINS2_8internal24intrusive_acquire_retireINS4_12hazptr_stackIPvE4NodeENS_14default_deleteIS9_EELm1EE10ThreadDataEEC1EvEUlmE_EELi1ELb1EEC2B8ue170006IJRKSG_EJLm0EEEENS_21piecewise_construct_tENS_5tupleIJDpT_EEENS_15__tuple_indicesIJXspT0_EEEE, symObjAddr: 0x620C, symBinAddr: 0x100007F7C, symSize: 0x38 }
  - { offset: 0x5B646, size: 0x8, addend: 0x0, symName: __ZNSt3__112__tuple_leafILm0ERKNS_9allocatorIZN6parlay14ThreadSpecificINS2_8internal24intrusive_acquire_retireINS4_12hazptr_stackIPvE4NodeENS_14default_deleteIS9_EELm1EE10ThreadDataEEC1EvEUlmE_EELb0EE3getB8ue170006Ev, symObjAddr: 0x6268, symBinAddr: 0x100007FD8, symSize: 0x18 }
  - { offset: 0x5B66C, size: 0x8, addend: 0x0, symName: __ZNSt3__110__function12__alloc_funcIZN6parlay14ThreadSpecificINS2_8internal24intrusive_acquire_retireINS4_12hazptr_stackIPvE4NodeENS_14default_deleteIS9_EELm1EE10ThreadDataEEC1EvEUlmE_NS_9allocatorISF_EEFSD_jEE7destroyB8ue170006Ev, symObjAddr: 0x6280, symBinAddr: 0x100007FF0, symSize: 0x10 }
  - { offset: 0x5B692, size: 0x8, addend: 0x0, symName: __ZNSt3__110__function12__alloc_funcIZN6parlay14ThreadSpecificINS2_8internal24intrusive_acquire_retireINS4_12hazptr_stackIPvE4NodeENS_14default_deleteIS9_EELm1EE10ThreadDataEEC1EvEUlmE_NS_9allocatorISF_EEFSD_jEEclB8ue170006EOj, symObjAddr: 0x6290, symBinAddr: 0x100008000, symSize: 0x3C }
  - { offset: 0x5B6C6, size: 0x8, addend: 0x0, symName: __ZNSt3__128__invoke_void_return_wrapperIN6parlay8internal24intrusive_acquire_retireINS2_12hazptr_stackIPvE4NodeENS_14default_deleteIS7_EELm1EE10ThreadDataELb0EE6__callB8ue170006IJRZNS1_14ThreadSpecificISB_EC1EvEUlmE_jEEESB_DpOT_, symObjAddr: 0x62CC, symBinAddr: 0x10000803C, symSize: 0x34 }
  - { offset: 0x5B709, size: 0x8, addend: 0x0, symName: __ZNSt3__117__compressed_pairIZN6parlay14ThreadSpecificINS1_8internal24intrusive_acquire_retireINS3_12hazptr_stackIPvE4NodeENS_14default_deleteIS8_EELm1EE10ThreadDataEEC1EvEUlmE_NS_9allocatorISE_EEE5firstB8ue170006Ev, symObjAddr: 0x6300, symBinAddr: 0x100008070, symSize: 0x24 }
  - { offset: 0x5B734, size: 0x8, addend: 0x0, symName: __ZZN6parlay14ThreadSpecificINS_8internal24intrusive_acquire_retireINS1_12hazptr_stackIPvE4NodeENSt3__114default_deleteIS6_EELm1EE10ThreadDataEEC1EvENKUlmE_clEm, symObjAddr: 0x6360, symBinAddr: 0x1000080D0, symSize: 0x58 }
  - { offset: 0x5B769, size: 0x8, addend: 0x0, symName: __ZN6parlay8internal24intrusive_acquire_retireINS0_12hazptr_stackIPvE4NodeENSt3__114default_deleteIS5_EELm1EE11RetiredListC1Ev, symObjAddr: 0x63B8, symBinAddr: 0x100008128, symSize: 0x2C }
  - { offset: 0x5B793, size: 0x8, addend: 0x0, symName: __ZN6parlay8internal24intrusive_acquire_retireINS0_12hazptr_stackIPvE4NodeENSt3__114default_deleteIS5_EELm1EE11RetiredListC2Ev, symObjAddr: 0x63E4, symBinAddr: 0x100008154, symSize: 0x1C }
  - { offset: 0x5B7BD, size: 0x8, addend: 0x0, symName: __ZNSt3__122__compressed_pair_elemIZN6parlay14ThreadSpecificINS1_8internal24intrusive_acquire_retireINS3_12hazptr_stackIPvE4NodeENS_14default_deleteIS8_EELm1EE10ThreadDataEEC1EvEUlmE_Li0ELb1EE5__getB8ue170006Ev, symObjAddr: 0x6400, symBinAddr: 0x100008170, symSize: 0x14 }
  - { offset: 0x5B818, size: 0x8, addend: 0x0, symName: __ZNKSt9type_infoeqB8ue170006ERKS_, symObjAddr: 0x6414, symBinAddr: 0x100008184, symSize: 0xDC }
  - { offset: 0x5B8AF, size: 0x8, addend: 0x0, symName: __ZNSt27__type_info_implementations30__non_unique_arm_rtti_bit_impl21__is_type_name_uniqueB8ue170006Em, symObjAddr: 0x64F0, symBinAddr: 0x100008260, symSize: 0x20 }
  - { offset: 0x5B8D3, size: 0x8, addend: 0x0, symName: __ZNSt3__15mutexC2B8ue170006Ev, symObjAddr: 0x6510, symBinAddr: 0x100008280, symSize: 0x44 }
  - { offset: 0x5B8FD, size: 0x8, addend: 0x0, symName: __ZNSt3__15arrayINS_6atomicIPN6parlay8internal13UninitializedINS3_24intrusive_acquire_retireINS3_12hazptr_stackIPvE4NodeENS_14default_deleteIS9_EELm1EE10ThreadDataEEEEELm25EEixB8ue170006Em, symObjAddr: 0x65C8, symBinAddr: 0x100008338, symSize: 0x20 }
  - { offset: 0x5B931, size: 0x8, addend: 0x0, symName: __ZNSt3__113__atomic_baseIPN6parlay8internal13UninitializedINS2_24intrusive_acquire_retireINS2_12hazptr_stackIPvE4NodeENS_14default_deleteIS8_EELm1EE10ThreadDataEEELb0EE5storeB8ue170006ESE_NS_12memory_orderE, symObjAddr: 0x65E8, symBinAddr: 0x100008358, symSize: 0x34 }
  - { offset: 0x5B973, size: 0x8, addend: 0x0, symName: __ZN6parlay8internal13UninitializedINS0_24intrusive_acquire_retireINS0_12hazptr_stackIPvE4NodeENSt3__114default_deleteIS6_EELm1EE10ThreadDataEEC1Ev, symObjAddr: 0x661C, symBinAddr: 0x10000838C, symSize: 0x2C }
  - { offset: 0x5B99D, size: 0x8, addend: 0x0, symName: __ZNSt3__15arrayINS_6atomicIPN6parlay8internal13UninitializedINS3_24intrusive_acquire_retireINS3_12hazptr_stackIPvE4NodeENS_14default_deleteIS9_EELm1EE10ThreadDataEEEEELm25EE5beginB8ue170006Ev, symObjAddr: 0x667C, symBinAddr: 0x1000083EC, symSize: 0x24 }
  - { offset: 0x5B9C3, size: 0x8, addend: 0x0, symName: __ZNSt3__15arrayINS_6atomicIPN6parlay8internal13UninitializedINS3_24intrusive_acquire_retireINS3_12hazptr_stackIPvE4NodeENS_14default_deleteIS9_EELm1EE10ThreadDataEEEEELm25EE3endB8ue170006Ev, symObjAddr: 0x66A0, symBinAddr: 0x100008410, symSize: 0x28 }
  - { offset: 0x5B9E9, size: 0x8, addend: 0x0, symName: __ZNKSt3__113__atomic_baseIPN6parlay8internal13UninitializedINS2_24intrusive_acquire_retireINS2_12hazptr_stackIPvE4NodeENS_14default_deleteIS8_EELm1EE10ThreadDataEEELb0EE4loadB8ue170006ENS_12memory_orderE, symObjAddr: 0x66C8, symBinAddr: 0x100008438, symSize: 0x2C }
  - { offset: 0x5BA1D, size: 0x8, addend: 0x0, symName: __ZN6parlay8internal13UninitializedINS0_24intrusive_acquire_retireINS0_12hazptr_stackIPvE4NodeENSt3__114default_deleteIS6_EELm1EE10ThreadDataEE3getEv, symObjAddr: 0x66F4, symBinAddr: 0x100008464, symSize: 0x14 }
  - { offset: 0x5BA43, size: 0x8, addend: 0x0, symName: __ZNKSt3__18functionIFN6parlay8internal24intrusive_acquire_retireINS2_12hazptr_stackIPvE4NodeENS_14default_deleteIS7_EELm1EE10ThreadDataEjEEclEj, symObjAddr: 0x6708, symBinAddr: 0x100008478, symSize: 0x38 }
  - { offset: 0x5BA7A, size: 0x8, addend: 0x0, symName: __ZN6parlay8internal19ThreadListChunkDataC1Ej, symObjAddr: 0x6758, symBinAddr: 0x1000084C8, symSize: 0x34 }
  - { offset: 0x5BAB2, size: 0x8, addend: 0x0, symName: __ZN6parlay8internal12ThreadIdPool13ThreadIdOwnerC1ERS1_, symObjAddr: 0x68E8, symBinAddr: 0x100008658, symSize: 0x34 }
  - { offset: 0x5BAEA, size: 0x8, addend: 0x0, symName: __ZN6parlay8internal12ThreadIdPool13ThreadIdOwnerD1Ev, symObjAddr: 0x691C, symBinAddr: 0x10000868C, symSize: 0x2C }
  - { offset: 0x5BB14, size: 0x8, addend: 0x0, symName: __ZNSt3__110shared_ptrIN6parlay8internal12ThreadIdPoolEED1B8ue170006Ev, symObjAddr: 0x6988, symBinAddr: 0x1000086F8, symSize: 0x2C }
  - { offset: 0x5BB3E, size: 0x8, addend: 0x0, symName: __ZNKSt3__110shared_ptrIN6parlay8internal12ThreadIdPoolEEdeB8ue170006Ev, symObjAddr: 0x69B4, symBinAddr: 0x100008724, symSize: 0x18 }
  - { offset: 0x5BB64, size: 0x8, addend: 0x0, symName: __ZNSt3__19allocatorIN6parlay8internal12ThreadIdPoolEEC1B8ue170006Ev, symObjAddr: 0x6A64, symBinAddr: 0x1000087D4, symSize: 0x2C }
  - { offset: 0x5BBDF, size: 0x8, addend: 0x0, symName: __ZNSt3__118__allocation_guardINS_9allocatorINS_20__shared_ptr_emplaceIN6parlay8internal12ThreadIdPoolENS1_IS5_EEEEEEEC1B8ue170006IS6_EET_m, symObjAddr: 0x6A90, symBinAddr: 0x100008800, symSize: 0x34 }
  - { offset: 0x5BC2E, size: 0x8, addend: 0x0, symName: __ZNKSt3__118__allocation_guardINS_9allocatorINS_20__shared_ptr_emplaceIN6parlay8internal12ThreadIdPoolENS1_IS5_EEEEEEE5__getB8ue170006Ev, symObjAddr: 0x6AC4, symBinAddr: 0x100008834, symSize: 0x18 }
  - { offset: 0x5BC5A, size: 0x8, addend: 0x0, symName: __ZNSt3__120__shared_ptr_emplaceIN6parlay8internal12ThreadIdPoolENS_9allocatorIS3_EEEC1B8ue170006IJNS3_19private_constructorEEEES5_DpOT_, symObjAddr: 0x6ADC, symBinAddr: 0x10000884C, symSize: 0x34 }
  - { offset: 0x5BCAD, size: 0x8, addend: 0x0, symName: __ZNSt3__118__allocation_guardINS_9allocatorINS_20__shared_ptr_emplaceIN6parlay8internal12ThreadIdPoolENS1_IS5_EEEEEEE13__release_ptrB8ue170006Ev, symObjAddr: 0x6B10, symBinAddr: 0x100008880, symSize: 0x24 }
  - { offset: 0x5BCE1, size: 0x8, addend: 0x0, symName: __ZNSt3__110shared_ptrIN6parlay8internal12ThreadIdPoolEE27__create_with_control_blockB8ue170006IS3_NS_20__shared_ptr_emplaceIS3_NS_9allocatorIS3_EEEEEES4_PT_PT0_, symObjAddr: 0x6B34, symBinAddr: 0x1000088A4, symSize: 0x98 }
  - { offset: 0x5BD36, size: 0x8, addend: 0x0, symName: __ZNSt3__120__shared_ptr_emplaceIN6parlay8internal12ThreadIdPoolENS_9allocatorIS3_EEE10__get_elemB8ue170006Ev, symObjAddr: 0x6BCC, symBinAddr: 0x10000893C, symSize: 0x28 }
  - { offset: 0x5BD5C, size: 0x8, addend: 0x0, symName: __ZNSt3__118__allocation_guardINS_9allocatorINS_20__shared_ptr_emplaceIN6parlay8internal12ThreadIdPoolENS1_IS5_EEEEEEED1B8ue170006Ev, symObjAddr: 0x6BF4, symBinAddr: 0x100008964, symSize: 0x2C }
  - { offset: 0x5BD86, size: 0x8, addend: 0x0, symName: __ZNSt3__118__allocation_guardINS_9allocatorINS_20__shared_ptr_emplaceIN6parlay8internal12ThreadIdPoolENS1_IS5_EEEEEEEC2B8ue170006IS6_EET_m, symObjAddr: 0x6C20, symBinAddr: 0x100008990, symSize: 0x50 }
  - { offset: 0x5BDD5, size: 0x8, addend: 0x0, symName: __ZNSt3__19allocatorINS_20__shared_ptr_emplaceIN6parlay8internal12ThreadIdPoolENS0_IS4_EEEEEC1B8ue170006IS4_EERKNS0_IT_EE, symObjAddr: 0x6C70, symBinAddr: 0x1000089E0, symSize: 0x34 }
  - { offset: 0x5BE13, size: 0x8, addend: 0x0, symName: __ZNSt3__116allocator_traitsINS_9allocatorINS_20__shared_ptr_emplaceIN6parlay8internal12ThreadIdPoolENS1_IS5_EEEEEEE8allocateB8ue170006ERS8_m, symObjAddr: 0x6CA4, symBinAddr: 0x100008A14, symSize: 0x2C }
  - { offset: 0x5BE46, size: 0x8, addend: 0x0, symName: __ZNSt3__19allocatorINS_20__shared_ptr_emplaceIN6parlay8internal12ThreadIdPoolENS0_IS4_EEEEEC2B8ue170006IS4_EERKNS0_IT_EE, symObjAddr: 0x6CD0, symBinAddr: 0x100008A40, symSize: 0x30 }
  - { offset: 0x5BE84, size: 0x8, addend: 0x0, symName: __ZNSt3__116__non_trivial_ifILb1ENS_9allocatorINS_20__shared_ptr_emplaceIN6parlay8internal12ThreadIdPoolENS1_IS5_EEEEEEEC2B8ue170006Ev, symObjAddr: 0x6D00, symBinAddr: 0x100008A70, symSize: 0x14 }
  - { offset: 0x5BEAE, size: 0x8, addend: 0x0, symName: __ZNSt3__19allocatorINS_20__shared_ptr_emplaceIN6parlay8internal12ThreadIdPoolENS0_IS4_EEEEE8allocateB8ue170006Em, symObjAddr: 0x6D14, symBinAddr: 0x100008A84, symSize: 0x5C }
  - { offset: 0x5BEED, size: 0x8, addend: 0x0, symName: __ZNSt3__116allocator_traitsINS_9allocatorINS_20__shared_ptr_emplaceIN6parlay8internal12ThreadIdPoolENS1_IS5_EEEEEEE8max_sizeB8ue170006IS8_vEEmRKS8_, symObjAddr: 0x6D70, symBinAddr: 0x100008AE0, symSize: 0x24 }
  - { offset: 0x5BF1B, size: 0x8, addend: 0x0, symName: __ZNKSt3__19allocatorINS_20__shared_ptr_emplaceIN6parlay8internal12ThreadIdPoolENS0_IS4_EEEEE8max_sizeB8ue170006Ev, symObjAddr: 0x6D94, symBinAddr: 0x100008B04, symSize: 0x20 }
  - { offset: 0x5BF41, size: 0x8, addend: 0x0, symName: __ZNSt3__120__shared_ptr_emplaceIN6parlay8internal12ThreadIdPoolENS_9allocatorIS3_EEEC2B8ue170006IJNS3_19private_constructorEEEES5_DpOT_, symObjAddr: 0x6DB4, symBinAddr: 0x100008B24, symSize: 0x88 }
  - { offset: 0x5BF94, size: 0x8, addend: 0x0, symName: __ZNSt3__119__shared_weak_countC2B8ue170006El, symObjAddr: 0x6E3C, symBinAddr: 0x100008BAC, symSize: 0x4C }
  - { offset: 0x5BFCC, size: 0x8, addend: 0x0, symName: __ZNSt3__120__shared_ptr_emplaceIN6parlay8internal12ThreadIdPoolENS_9allocatorIS3_EEE8_StorageC1B8ue170006EOS5_, symObjAddr: 0x6E88, symBinAddr: 0x100008BF8, symSize: 0x34 }
  - { offset: 0x5C005, size: 0x8, addend: 0x0, symName: __ZN6parlay8internal12ThreadIdPoolC1ENS1_19private_constructorE, symObjAddr: 0x6EBC, symBinAddr: 0x100008C2C, symSize: 0x2C }
  - { offset: 0x5C03A, size: 0x8, addend: 0x0, symName: __ZNSt3__120__shared_ptr_emplaceIN6parlay8internal12ThreadIdPoolENS_9allocatorIS3_EEED1Ev, symObjAddr: 0x6EE8, symBinAddr: 0x100008C58, symSize: 0x2C }
  - { offset: 0x5C067, size: 0x8, addend: 0x0, symName: __ZNSt3__120__shared_ptr_emplaceIN6parlay8internal12ThreadIdPoolENS_9allocatorIS3_EEED0Ev, symObjAddr: 0x6F14, symBinAddr: 0x100008C84, symSize: 0x30 }
  - { offset: 0x5C094, size: 0x8, addend: 0x0, symName: __ZNSt3__120__shared_ptr_emplaceIN6parlay8internal12ThreadIdPoolENS_9allocatorIS3_EEE16__on_zero_sharedEv, symObjAddr: 0x6F44, symBinAddr: 0x100008CB4, symSize: 0x28 }
  - { offset: 0x5C0BA, size: 0x8, addend: 0x0, symName: __ZNSt3__120__shared_ptr_emplaceIN6parlay8internal12ThreadIdPoolENS_9allocatorIS3_EEE21__on_zero_shared_weakEv, symObjAddr: 0x6F6C, symBinAddr: 0x100008CDC, symSize: 0x5C }
  - { offset: 0x5C0FB, size: 0x8, addend: 0x0, symName: __ZNSt3__114__shared_countC2B8ue170006El, symObjAddr: 0x6FC8, symBinAddr: 0x100008D38, symSize: 0x30 }
  - { offset: 0x5C133, size: 0x8, addend: 0x0, symName: __ZNSt3__120__shared_ptr_emplaceIN6parlay8internal12ThreadIdPoolENS_9allocatorIS3_EEE8_StorageC2B8ue170006EOS5_, symObjAddr: 0x6FF8, symBinAddr: 0x100008D68, symSize: 0x30 }
  - { offset: 0x5C16C, size: 0x8, addend: 0x0, symName: __ZNSt3__120__shared_ptr_emplaceIN6parlay8internal12ThreadIdPoolENS_9allocatorIS3_EEE8_Storage11__get_allocB8ue170006Ev, symObjAddr: 0x7028, symBinAddr: 0x100008D98, symSize: 0x3C }
  - { offset: 0x5C1BF, size: 0x8, addend: 0x0, symName: __ZNSt3__117__compressed_pairINS_9allocatorIN6parlay8internal12ThreadIdPoolEEES4_E16__get_first_baseB8ue170006EPS6_, symObjAddr: 0x7064, symBinAddr: 0x100008DD4, symSize: 0x14 }
  - { offset: 0x5C1E2, size: 0x8, addend: 0x0, symName: __ZN6parlay8internal12ThreadIdPoolC2ENS1_19private_constructorE, symObjAddr: 0x7078, symBinAddr: 0x100008DE8, symSize: 0x4C }
  - { offset: 0x5C217, size: 0x8, addend: 0x0, symName: __ZNSt3__123enable_shared_from_thisIN6parlay8internal12ThreadIdPoolEEC2B8ue170006Ev, symObjAddr: 0x70C4, symBinAddr: 0x100008E34, symSize: 0x2C }
  - { offset: 0x5C241, size: 0x8, addend: 0x0, symName: __ZNSt3__16atomicIPN6parlay8internal12ThreadIdPool8ThreadIdEEC1B8ue170006ES5_, symObjAddr: 0x70F0, symBinAddr: 0x100008E60, symSize: 0x34 }
  - { offset: 0x5C279, size: 0x8, addend: 0x0, symName: __ZNSt3__18weak_ptrIN6parlay8internal12ThreadIdPoolEEC1Ev, symObjAddr: 0x7124, symBinAddr: 0x100008E94, symSize: 0x2C }
  - { offset: 0x5C2A5, size: 0x8, addend: 0x0, symName: __ZNSt3__18weak_ptrIN6parlay8internal12ThreadIdPoolEEC2Ev, symObjAddr: 0x7150, symBinAddr: 0x100008EC0, symSize: 0x1C }
  - { offset: 0x5C2D1, size: 0x8, addend: 0x0, symName: __ZNSt3__16atomicIPN6parlay8internal12ThreadIdPool8ThreadIdEEC2B8ue170006ES5_, symObjAddr: 0x716C, symBinAddr: 0x100008EDC, symSize: 0x34 }
  - { offset: 0x5C309, size: 0x8, addend: 0x0, symName: __ZNSt3__113__atomic_baseIPN6parlay8internal12ThreadIdPool8ThreadIdELb0EEC2B8ue170006ES5_, symObjAddr: 0x71A0, symBinAddr: 0x100008F10, symSize: 0x34 }
  - { offset: 0x5C341, size: 0x8, addend: 0x0, symName: __ZNSt3__117__cxx_atomic_implIPN6parlay8internal12ThreadIdPool8ThreadIdENS_22__cxx_atomic_base_implIS5_EEEC1B8ue170006ES5_, symObjAddr: 0x71D4, symBinAddr: 0x100008F44, symSize: 0x34 }
  - { offset: 0x5C37A, size: 0x8, addend: 0x0, symName: __ZNSt3__117__cxx_atomic_implIPN6parlay8internal12ThreadIdPool8ThreadIdENS_22__cxx_atomic_base_implIS5_EEEC2B8ue170006ES5_, symObjAddr: 0x7208, symBinAddr: 0x100008F78, symSize: 0x34 }
  - { offset: 0x5C3B3, size: 0x8, addend: 0x0, symName: __ZNSt3__122__cxx_atomic_base_implIPN6parlay8internal12ThreadIdPool8ThreadIdEEC2ES5_, symObjAddr: 0x723C, symBinAddr: 0x100008FAC, symSize: 0x20 }
  - { offset: 0x5C3EC, size: 0x8, addend: 0x0, symName: __ZNSt3__120__shared_ptr_emplaceIN6parlay8internal12ThreadIdPoolENS_9allocatorIS3_EEED2Ev, symObjAddr: 0x725C, symBinAddr: 0x100008FCC, symSize: 0x48 }
  - { offset: 0x5C419, size: 0x8, addend: 0x0, symName: __ZNSt3__120__shared_ptr_emplaceIN6parlay8internal12ThreadIdPoolENS_9allocatorIS3_EEE8_StorageD1B8ue170006Ev, symObjAddr: 0x72A4, symBinAddr: 0x100009014, symSize: 0x2C }
  - { offset: 0x5C443, size: 0x8, addend: 0x0, symName: __ZNSt3__120__shared_ptr_emplaceIN6parlay8internal12ThreadIdPoolENS_9allocatorIS3_EEE8_StorageD2B8ue170006Ev, symObjAddr: 0x72D0, symBinAddr: 0x100009040, symSize: 0x2C }
  - { offset: 0x5C46D, size: 0x8, addend: 0x0, symName: __ZN6parlay8internal12ThreadIdPoolD1Ev, symObjAddr: 0x72FC, symBinAddr: 0x10000906C, symSize: 0x2C }
  - { offset: 0x5C497, size: 0x8, addend: 0x0, symName: __ZN6parlay8internal12ThreadIdPoolD2Ev, symObjAddr: 0x7328, symBinAddr: 0x100009098, symSize: 0x108 }
  - { offset: 0x5C50D, size: 0x8, addend: 0x0, symName: __ZNKSt3__113__atomic_baseIPN6parlay8internal12ThreadIdPool8ThreadIdELb0EE4loadB8ue170006ENS_12memory_orderE, symObjAddr: 0x7430, symBinAddr: 0x1000091A0, symSize: 0x2C }
  - { offset: 0x5C541, size: 0x8, addend: 0x0, symName: __ZNKSt3__113__atomic_baseImLb0EE4loadB8ue170006ENS_12memory_orderE, symObjAddr: 0x7490, symBinAddr: 0x100009200, symSize: 0x2C }
  - { offset: 0x5C575, size: 0x8, addend: 0x0, symName: __ZNSt3__123enable_shared_from_thisIN6parlay8internal12ThreadIdPoolEED2B8ue170006Ev, symObjAddr: 0x74BC, symBinAddr: 0x10000922C, symSize: 0x2C }
  - { offset: 0x5C59F, size: 0x8, addend: 0x0, symName: __ZNSt3__18weak_ptrIN6parlay8internal12ThreadIdPoolEED1Ev, symObjAddr: 0x75E8, symBinAddr: 0x100009358, symSize: 0x2C }
  - { offset: 0x5C5CB, size: 0x8, addend: 0x0, symName: __ZNSt3__18weak_ptrIN6parlay8internal12ThreadIdPoolEED2Ev, symObjAddr: 0x7614, symBinAddr: 0x100009384, symSize: 0x54 }
  - { offset: 0x5C5F7, size: 0x8, addend: 0x0, symName: __ZNSt3__120__shared_ptr_emplaceIN6parlay8internal12ThreadIdPoolENS_9allocatorIS3_EEE11__get_allocB8ue170006Ev, symObjAddr: 0x7668, symBinAddr: 0x1000093D8, symSize: 0x28 }
  - { offset: 0x5C61D, size: 0x8, addend: 0x0, symName: __ZNSt3__116allocator_traitsINS_9allocatorINS_20__shared_ptr_emplaceIN6parlay8internal12ThreadIdPoolENS1_IS5_EEEEEEE10deallocateB8ue170006ERS8_PS7_m, symObjAddr: 0x7690, symBinAddr: 0x100009400, symSize: 0x34 }
  - { offset: 0x5C65F, size: 0x8, addend: 0x0, symName: __ZNSt3__114pointer_traitsIPNS_20__shared_ptr_emplaceIN6parlay8internal12ThreadIdPoolENS_9allocatorIS4_EEEEE10pointer_toB8ue170006ERS7_, symObjAddr: 0x76C4, symBinAddr: 0x100009434, symSize: 0x14 }
  - { offset: 0x5C682, size: 0x8, addend: 0x0, symName: __ZNSt3__19allocatorINS_20__shared_ptr_emplaceIN6parlay8internal12ThreadIdPoolENS0_IS4_EEEEE10deallocateB8ue170006EPS6_m, symObjAddr: 0x76D8, symBinAddr: 0x100009448, symSize: 0x44 }
  - { offset: 0x5C6C4, size: 0x8, addend: 0x0, symName: __ZNSt3__110shared_ptrIN6parlay8internal12ThreadIdPoolEEC1B8ue170006Ev, symObjAddr: 0x771C, symBinAddr: 0x10000948C, symSize: 0x2C }
  - { offset: 0x5C6EE, size: 0x8, addend: 0x0, symName: __ZNSt3__110shared_ptrIN6parlay8internal12ThreadIdPoolEEC2B8ue170006Ev, symObjAddr: 0x77C4, symBinAddr: 0x100009534, symSize: 0x1C }
  - { offset: 0x5C718, size: 0x8, addend: 0x0, symName: __ZNKSt3__18weak_ptrIN6parlay8internal12ThreadIdPoolEE7expiredB8ue170006Ev, symObjAddr: 0x77E0, symBinAddr: 0x100009550, symSize: 0x64 }
  - { offset: 0x5C73E, size: 0x8, addend: 0x0, symName: __ZNSt3__110shared_ptrIN6parlay8internal12ThreadIdPoolEEC1B8ue170006IS3_EERKNS0_IT_EEPS3_, symObjAddr: 0x7844, symBinAddr: 0x1000095B4, symSize: 0x3C }
  - { offset: 0x5C78F, size: 0x8, addend: 0x0, symName: __ZNSt3__18weak_ptrIN6parlay8internal12ThreadIdPoolEEaSIS3_EENS_9enable_ifIXsr17__compatible_withIT_S3_EE5valueERS4_E4typeERKNS_10shared_ptrIS7_EE, symObjAddr: 0x7880, symBinAddr: 0x1000095F0, symSize: 0x54 }
  - { offset: 0x5C7CF, size: 0x8, addend: 0x0, symName: __ZNKSt3__119__shared_weak_count9use_countB8ue170006Ev, symObjAddr: 0x78D4, symBinAddr: 0x100009644, symSize: 0x24 }
  - { offset: 0x5C7F5, size: 0x8, addend: 0x0, symName: __ZNKSt3__114__shared_count9use_countB8ue170006Ev, symObjAddr: 0x78F8, symBinAddr: 0x100009668, symSize: 0x3C }
  - { offset: 0x5C81B, size: 0x8, addend: 0x0, symName: __ZNSt3__110shared_ptrIN6parlay8internal12ThreadIdPoolEEC2B8ue170006IS3_EERKNS0_IT_EEPS3_, symObjAddr: 0x7954, symBinAddr: 0x1000096C4, symSize: 0x70 }
  - { offset: 0x5C86C, size: 0x8, addend: 0x0, symName: __ZNSt3__119__shared_weak_count12__add_sharedB8ue170006Ev, symObjAddr: 0x79C4, symBinAddr: 0x100009734, symSize: 0x24 }
  - { offset: 0x5C892, size: 0x8, addend: 0x0, symName: __ZNSt3__114__shared_count12__add_sharedB8ue170006Ev, symObjAddr: 0x79E8, symBinAddr: 0x100009758, symSize: 0x28 }
  - { offset: 0x5C8BD, size: 0x8, addend: 0x0, symName: __ZNSt3__18weak_ptrIN6parlay8internal12ThreadIdPoolEEC1IS3_EERKNS_10shared_ptrIT_EENS_9enable_ifIXsr17__compatible_withIS7_S3_EE5valueEPNS_5__natEE4typeE, symObjAddr: 0x7A40, symBinAddr: 0x1000097B0, symSize: 0x3C }
  - { offset: 0x5C90C, size: 0x8, addend: 0x0, symName: __ZNSt3__18weak_ptrIN6parlay8internal12ThreadIdPoolEE4swapERS4_, symObjAddr: 0x7A7C, symBinAddr: 0x1000097EC, symSize: 0x44 }
  - { offset: 0x5C943, size: 0x8, addend: 0x0, symName: __ZNSt3__18weak_ptrIN6parlay8internal12ThreadIdPoolEEC2IS3_EERKNS_10shared_ptrIT_EENS_9enable_ifIXsr17__compatible_withIS7_S3_EE5valueEPNS_5__natEE4typeE, symObjAddr: 0x7AC0, symBinAddr: 0x100009830, symSize: 0x74 }
  - { offset: 0x5C992, size: 0x8, addend: 0x0, symName: __ZNSt3__119__shared_weak_count10__add_weakB8ue170006Ev, symObjAddr: 0x7B34, symBinAddr: 0x1000098A4, symSize: 0x28 }
  - { offset: 0x5C9B8, size: 0x8, addend: 0x0, symName: __ZNSt3__120__shared_ptr_emplaceIN6parlay8internal12ThreadIdPoolENS_9allocatorIS3_EEE8_Storage10__get_elemB8ue170006Ev, symObjAddr: 0x7BD4, symBinAddr: 0x100009944, symSize: 0x3C }
  - { offset: 0x5CA0B, size: 0x8, addend: 0x0, symName: __ZNSt3__117__compressed_pairINS_9allocatorIN6parlay8internal12ThreadIdPoolEEES4_E17__get_second_baseB8ue170006EPS6_, symObjAddr: 0x7C10, symBinAddr: 0x100009980, symSize: 0x14 }
  - { offset: 0x5CA2E, size: 0x8, addend: 0x0, symName: __ZNSt3__118__allocation_guardINS_9allocatorINS_20__shared_ptr_emplaceIN6parlay8internal12ThreadIdPoolENS1_IS5_EEEEEEED2B8ue170006Ev, symObjAddr: 0x7C24, symBinAddr: 0x100009994, symSize: 0x2C }
  - { offset: 0x5CA58, size: 0x8, addend: 0x0, symName: __ZNSt3__118__allocation_guardINS_9allocatorINS_20__shared_ptr_emplaceIN6parlay8internal12ThreadIdPoolENS1_IS5_EEEEEEE9__destroyB8ue170006Ev, symObjAddr: 0x7C50, symBinAddr: 0x1000099C0, symSize: 0x4C }
  - { offset: 0x5CA7E, size: 0x8, addend: 0x0, symName: __ZNSt3__19allocatorIN6parlay8internal12ThreadIdPoolEEC2B8ue170006Ev, symObjAddr: 0x7C9C, symBinAddr: 0x100009A0C, symSize: 0x2C }
  - { offset: 0x5CAA8, size: 0x8, addend: 0x0, symName: __ZNSt3__116__non_trivial_ifILb1ENS_9allocatorIN6parlay8internal12ThreadIdPoolEEEEC2B8ue170006Ev, symObjAddr: 0x7CC8, symBinAddr: 0x100009A38, symSize: 0x14 }
  - { offset: 0x5CAD2, size: 0x8, addend: 0x0, symName: __ZNSt3__110shared_ptrIN6parlay8internal12ThreadIdPoolEED2B8ue170006Ev, symObjAddr: 0x7CDC, symBinAddr: 0x100009A4C, symSize: 0x54 }
  - { offset: 0x5CAFC, size: 0x8, addend: 0x0, symName: __ZNSt3__119__shared_weak_count16__release_sharedB8ue170006Ev, symObjAddr: 0x7D30, symBinAddr: 0x100009AA0, symSize: 0x3C }
  - { offset: 0x5CB22, size: 0x8, addend: 0x0, symName: __ZNSt3__114__shared_count16__release_sharedB8ue170006Ev, symObjAddr: 0x7D6C, symBinAddr: 0x100009ADC, symSize: 0x7C }
  - { offset: 0x5CB48, size: 0x8, addend: 0x0, symName: __ZN6parlay8internal12ThreadIdPool13ThreadIdOwnerC2ERS1_, symObjAddr: 0x7E18, symBinAddr: 0x100009B88, symSize: 0x80 }
  - { offset: 0x5CB80, size: 0x8, addend: 0x0, symName: __ZNSt3__123enable_shared_from_thisIN6parlay8internal12ThreadIdPoolEE16shared_from_thisB8ue170006Ev, symObjAddr: 0x7E98, symBinAddr: 0x100009C08, symSize: 0x38 }
  - { offset: 0x5CBA6, size: 0x8, addend: 0x0, symName: __ZNKSt3__110shared_ptrIN6parlay8internal12ThreadIdPoolEEptB8ue170006Ev, symObjAddr: 0x7ED0, symBinAddr: 0x100009C40, symSize: 0x18 }
  - { offset: 0x5CBCC, size: 0x8, addend: 0x0, symName: __ZNSt3__110shared_ptrIN6parlay8internal12ThreadIdPoolEEC1B8ue170006IS3_vEERKNS_8weak_ptrIT_EE, symObjAddr: 0x80A4, symBinAddr: 0x100009E14, symSize: 0x34 }
  - { offset: 0x5CC0F, size: 0x8, addend: 0x0, symName: __ZNSt3__110shared_ptrIN6parlay8internal12ThreadIdPoolEEC2B8ue170006IS3_vEERKNS_8weak_ptrIT_EE, symObjAddr: 0x80D8, symBinAddr: 0x100009E48, symSize: 0xA0 }
  - { offset: 0x5CC67, size: 0x8, addend: 0x0, symName: __ZNSt3__112bad_weak_ptrC1B8ue170006Ev, symObjAddr: 0x81B0, symBinAddr: 0x100009F20, symSize: 0x2C }
  - { offset: 0x5CC91, size: 0x8, addend: 0x0, symName: __ZNSt3__112bad_weak_ptrC2B8ue170006Ev, symObjAddr: 0x81DC, symBinAddr: 0x100009F4C, symSize: 0x3C }
  - { offset: 0x5CCBB, size: 0x8, addend: 0x0, symName: __ZNSt9exceptionC2B8ue170006Ev, symObjAddr: 0x8218, symBinAddr: 0x100009F88, symSize: 0x24 }
  - { offset: 0x5CD01, size: 0x8, addend: 0x0, symName: __ZNSt3__110lock_guardINS_5mutexEEC1B8ue170006ERS1_, symObjAddr: 0x823C, symBinAddr: 0x100009FAC, symSize: 0x34 }
  - { offset: 0x5CD39, size: 0x8, addend: 0x0, symName: __ZNSt3__113__atomic_baseIPN6parlay8internal12ThreadIdPool8ThreadIdELb0EE21compare_exchange_weakB8ue170006ERS5_S5_NS_12memory_orderES8_, symObjAddr: 0x8270, symBinAddr: 0x100009FE0, symSize: 0x48 }
  - { offset: 0x5CD97, size: 0x8, addend: 0x0, symName: __ZNSt3__110lock_guardINS_5mutexEED1B8ue170006Ev, symObjAddr: 0x82B8, symBinAddr: 0x10000A028, symSize: 0x2C }
  - { offset: 0x5CDC1, size: 0x8, addend: 0x0, symName: __ZNSt3__113__atomic_baseImLb1EE9fetch_addB8ue170006EmNS_12memory_orderE, symObjAddr: 0x82E4, symBinAddr: 0x10000A054, symSize: 0x34 }
  - { offset: 0x5CE03, size: 0x8, addend: 0x0, symName: __ZN6parlay8internal12ThreadIdPool8ThreadIdC1Ej, symObjAddr: 0x8318, symBinAddr: 0x10000A088, symSize: 0x34 }
  - { offset: 0x5CE3B, size: 0x8, addend: 0x0, symName: __ZNSt3__110lock_guardINS_5mutexEEC2B8ue170006ERS1_, symObjAddr: 0x834C, symBinAddr: 0x10000A0BC, symSize: 0x3C }
  - { offset: 0x5CE73, size: 0x8, addend: 0x0, symName: __ZNSt3__110lock_guardINS_5mutexEED2B8ue170006Ev, symObjAddr: 0x8A50, symBinAddr: 0x10000A7C0, symSize: 0x30 }
  - { offset: 0x5CE9D, size: 0x8, addend: 0x0, symName: __ZN6parlay8internal12ThreadIdPool8ThreadIdC2Ej, symObjAddr: 0x8B5C, symBinAddr: 0x10000A8CC, symSize: 0x24 }
  - { offset: 0x5CED5, size: 0x8, addend: 0x0, symName: __ZN6parlay8internal12ThreadIdPool13ThreadIdOwnerD2Ev, symObjAddr: 0x8B80, symBinAddr: 0x10000A8F0, symSize: 0x48 }
  - { offset: 0x5CEFF, size: 0x8, addend: 0x0, symName: __ZN6parlay8internal12ThreadIdPool10relinquishEPNS1_8ThreadIdE, symObjAddr: 0x8BC8, symBinAddr: 0x10000A938, symSize: 0x6C }
  - { offset: 0x5CF33, size: 0x8, addend: 0x0, symName: __ZN6parlay8internal19ThreadListChunkDataC2Ej, symObjAddr: 0x8C34, symBinAddr: 0x10000A9A4, symSize: 0x70 }
  - { offset: 0x5CF6B, size: 0x8, addend: 0x0, symName: __ZN6parlay8internal19ThreadListChunkData16compute_chunk_idEj, symObjAddr: 0x8CA4, symBinAddr: 0x10000AA14, symSize: 0x60 }
  - { offset: 0x5CFAA, size: 0x8, addend: 0x0, symName: __ZN6parlay8internal19ThreadListChunkData22compute_chunk_positionEjm, symObjAddr: 0x8D04, symBinAddr: 0x10000AA74, symSize: 0xB0 }
  - { offset: 0x5CFF7, size: 0x8, addend: 0x0, symName: __ZN6parlay8internal13UninitializedINS0_24intrusive_acquire_retireINS0_12hazptr_stackIPvE4NodeENSt3__114default_deleteIS6_EELm1EE10ThreadDataEEC2Ev, symObjAddr: 0x8E38, symBinAddr: 0x10000ABA8, symSize: 0x14 }
  - { offset: 0x5D021, size: 0x8, addend: 0x0, symName: __ZNSt3__16atomicIPN6parlay8internal13UninitializedINS2_24intrusive_acquire_retireINS2_12hazptr_stackIPvE4NodeENS_14default_deleteIS8_EELm1EE10ThreadDataEEEEaSB8ue170006ESE_, symObjAddr: 0x8F54, symBinAddr: 0x10000ACC4, symSize: 0x34 }
  - { offset: 0x5D055, size: 0x8, addend: 0x0, symName: __ZNSt3__15arrayINS_6atomicIPN6parlay8internal13UninitializedINS3_24intrusive_acquire_retireINS3_12hazptr_stackIPvE4NodeENS_14default_deleteIS9_EELm1EE10ThreadDataEEEEELm25EE4dataB8ue170006Ev, symObjAddr: 0x8F88, symBinAddr: 0x10000ACF8, symSize: 0x14 }
  - { offset: 0x5D07B, size: 0x8, addend: 0x0, symName: __ZNKSt3__110__function12__value_funcIFN6parlay8internal24intrusive_acquire_retireINS3_12hazptr_stackIPvE4NodeENS_14default_deleteIS8_EELm1EE10ThreadDataEjEEclB8ue170006EOj, symObjAddr: 0x901C, symBinAddr: 0x10000AD8C, symSize: 0x64 }
  - { offset: 0x5D0B5, size: 0x8, addend: 0x0, symName: __ZNSt3__117bad_function_callC1Ev, symObjAddr: 0x90B8, symBinAddr: 0x10000AE28, symSize: 0x2C }
  - { offset: 0x5D0E1, size: 0x8, addend: 0x0, symName: __ZNSt3__117bad_function_callD1Ev, symObjAddr: 0x90E4, symBinAddr: 0x10000AE54, symSize: 0x2C }
  - { offset: 0x5D10B, size: 0x8, addend: 0x0, symName: __ZNSt3__117bad_function_callC2Ev, symObjAddr: 0x9110, symBinAddr: 0x10000AE80, symSize: 0x3C }
  - { offset: 0x5D137, size: 0x8, addend: 0x0, symName: __ZNSt3__117bad_function_callD0Ev, symObjAddr: 0x914C, symBinAddr: 0x10000AEBC, symSize: 0x30 }
  - { offset: 0x5D161, size: 0x8, addend: 0x0, symName: __ZNSt3__117bad_function_callD2Ev, symObjAddr: 0x917C, symBinAddr: 0x10000AEEC, symSize: 0x2C }
  - { offset: 0x5D18B, size: 0x8, addend: 0x0, symName: __ZNSt3__18functionIFN6parlay8internal24intrusive_acquire_retireINS2_12hazptr_stackIPvE4NodeENS_14default_deleteIS7_EELm1EE10ThreadDataEjEED2Ev, symObjAddr: 0x91A8, symBinAddr: 0x10000AF18, symSize: 0x2C }
  - { offset: 0x5D1B7, size: 0x8, addend: 0x0, symName: __ZNSt3__110__function12__value_funcIFN6parlay8internal24intrusive_acquire_retireINS3_12hazptr_stackIPvE4NodeENS_14default_deleteIS8_EELm1EE10ThreadDataEjEED1B8ue170006Ev, symObjAddr: 0x91D4, symBinAddr: 0x10000AF44, symSize: 0x2C }
  - { offset: 0x5D1E1, size: 0x8, addend: 0x0, symName: __ZNSt3__110__function12__value_funcIFN6parlay8internal24intrusive_acquire_retireINS3_12hazptr_stackIPvE4NodeENS_14default_deleteIS8_EELm1EE10ThreadDataEjEED2B8ue170006Ev, symObjAddr: 0x9200, symBinAddr: 0x10000AF70, symSize: 0x90 }
  - { offset: 0x5D20B, size: 0x8, addend: 0x0, symName: __ZN6parlay8internal24intrusive_acquire_retireINS0_12hazptr_stackIPvE4NodeENSt3__114default_deleteIS5_EELm1EED2Ev, symObjAddr: 0x9290, symBinAddr: 0x10000B000, symSize: 0x80 }
  - { offset: 0x5D2AB, size: 0x8, addend: 0x0, symName: __ZN6parlay14ThreadSpecificINS_8internal24intrusive_acquire_retireINS1_12hazptr_stackIPvE4NodeENSt3__114default_deleteIS6_EELm1EE10ThreadDataEE8for_eachIZNSA_D1EvEUlRT_E_EEvOSE_, symObjAddr: 0x9310, symBinAddr: 0x10000B080, symSize: 0x180 }
  - { offset: 0x5D371, size: 0x8, addend: 0x0, symName: __ZN6parlay14ThreadSpecificINS_8internal24intrusive_acquire_retireINS1_12hazptr_stackIPvE4NodeENSt3__114default_deleteIS6_EELm1EE10ThreadDataEE8for_eachIZNSA_D1EvEUlOT_E_EEvSF_, symObjAddr: 0x9490, symBinAddr: 0x10000B200, symSize: 0x180 }
  - { offset: 0x5D42C, size: 0x8, addend: 0x0, symName: __ZN6parlay14ThreadSpecificINS_8internal24intrusive_acquire_retireINS1_12hazptr_stackIPvE4NodeENSt3__114default_deleteIS6_EELm1EE10ThreadDataEED1Ev, symObjAddr: 0x9610, symBinAddr: 0x10000B380, symSize: 0x2C }
  - { offset: 0x5D456, size: 0x8, addend: 0x0, symName: __ZN6parlay14ThreadSpecificINS_8internal24intrusive_acquire_retireINS1_12hazptr_stackIPvE4NodeENSt3__114default_deleteIS6_EELm1EE10ThreadDataEE14get_chunk_sizeEm, symObjAddr: 0x9650, symBinAddr: 0x10000B3C0, symSize: 0xA0 }
  - { offset: 0x5D47A, size: 0x8, addend: 0x0, symName: __ZNK6parlay14ThreadSpecificINS_8internal24intrusive_acquire_retireINS1_12hazptr_stackIPvE4NodeENSt3__114default_deleteIS6_EELm1EE10ThreadDataEE19ensure_chunk_existsEm, symObjAddr: 0x96F0, symBinAddr: 0x10000B460, symSize: 0x1DC }
  - { offset: 0x5D50A, size: 0x8, addend: 0x0, symName: __ZZN6parlay8internal24intrusive_acquire_retireINS0_12hazptr_stackIPvE4NodeENSt3__114default_deleteIS5_EELm1EED1EvENKUlRT_E_clINS9_10ThreadDataEEEDaSB_, symObjAddr: 0x98CC, symBinAddr: 0x10000B63C, symSize: 0x20 }
  - { offset: 0x5D54B, size: 0x8, addend: 0x0, symName: __ZN6parlay8internal13UninitializedINS0_24intrusive_acquire_retireINS0_12hazptr_stackIPvE4NodeENSt3__114default_deleteIS6_EELm1EE10ThreadDataEEdeEv, symObjAddr: 0x98EC, symBinAddr: 0x10000B65C, symSize: 0x14 }
  - { offset: 0x5D57B, size: 0x8, addend: 0x0, symName: __ZZN6parlay8internal24intrusive_acquire_retireINS0_12hazptr_stackIPvE4NodeENSt3__114default_deleteIS5_EELm1EED1EvENKUlOT_E_clIRNS9_10ThreadDataEEEDaSB_, symObjAddr: 0x9920, symBinAddr: 0x10000B690, symSize: 0x74 }
  - { offset: 0x5D5E2, size: 0x8, addend: 0x0, symName: __ZNK6parlay8internal24intrusive_acquire_retireINS0_12hazptr_stackIPvE4NodeENSt3__114default_deleteIS5_EELm1EE11RetiredList8get_sizeEv, symObjAddr: 0x9994, symBinAddr: 0x10000B704, symSize: 0x18 }
  - { offset: 0x5D614, size: 0x8, addend: 0x0, symName: __ZN6parlay8internal24intrusive_acquire_retireINS0_12hazptr_stackIPvE4NodeENSt3__114default_deleteIS5_EELm1EE11RetiredList7cleanupIZZNS9_D1EvENKUlOT_E_clIRNS9_10ThreadDataEEEDaSD_EUlSD_E_EEvSD_RS8_, symObjAddr: 0x99AC, symBinAddr: 0x10000B71C, symSize: 0x188 }
  - { offset: 0x5D6CB, size: 0x8, addend: 0x0, symName: __ZZZN6parlay8internal24intrusive_acquire_retireINS0_12hazptr_stackIPvE4NodeENSt3__114default_deleteIS5_EELm1EED1EvENKUlOT_E_clIRNS9_10ThreadDataEEEDaSB_ENKUlSB_E_clIRPS5_EESG_SB_, symObjAddr: 0x9B34, symBinAddr: 0x10000B8A4, symSize: 0x1C }
  - { offset: 0x5D709, size: 0x8, addend: 0x0, symName: __ZNKSt3__114default_deleteIN6parlay8internal12hazptr_stackIPvE4NodeEEclB8ue170006EPS6_, symObjAddr: 0x9B9C, symBinAddr: 0x10000B90C, symSize: 0x44 }
  - { offset: 0x5D73D, size: 0x8, addend: 0x0, symName: __ZN6parlay14ThreadSpecificINS_8internal24intrusive_acquire_retireINS1_12hazptr_stackIPvE4NodeENSt3__114default_deleteIS6_EELm1EE10ThreadDataEED2Ev, symObjAddr: 0x9C00, symBinAddr: 0x10000B970, symSize: 0x11C }
  - { offset: 0x5D7B5, size: 0x8, addend: 0x0, symName: __ZNKSt3__113__atomic_baseIPN6parlay8internal13UninitializedINS2_24intrusive_acquire_retireINS2_12hazptr_stackIPvE4NodeENS_14default_deleteIS8_EELm1EE10ThreadDataEEELb0EEcvSE_B8ue170006Ev, symObjAddr: 0x9D1C, symBinAddr: 0x10000BA8C, symSize: 0x28 }
  - { offset: 0x5D7DB, size: 0x8, addend: 0x0, symName: __ZN6parlay8internal13UninitializedINS0_24intrusive_acquire_retireINS0_12hazptr_stackIPvE4NodeENSt3__114default_deleteIS6_EELm1EE10ThreadDataEED1Ev, symObjAddr: 0x9D44, symBinAddr: 0x10000BAB4, symSize: 0x2C }
  - { offset: 0x5D805, size: 0x8, addend: 0x0, symName: __ZN6parlay8internal13UninitializedINS0_24intrusive_acquire_retireINS0_12hazptr_stackIPvE4NodeENSt3__114default_deleteIS6_EELm1EE10ThreadDataEED2Ev, symObjAddr: 0x9D70, symBinAddr: 0x10000BAE0, symSize: 0x2C }
  - { offset: 0x5D834, size: 0x8, addend: 0x0, symName: __ZN6parlay8internal24intrusive_acquire_retireINS0_12hazptr_stackIPvE4NodeENSt3__114default_deleteIS5_EELm1EE10ThreadDataD1Ev, symObjAddr: 0x9D9C, symBinAddr: 0x10000BB0C, symSize: 0x2C }
  - { offset: 0x5D860, size: 0x8, addend: 0x0, symName: __ZN6parlay8internal24intrusive_acquire_retireINS0_12hazptr_stackIPvE4NodeENSt3__114default_deleteIS5_EELm1EE10ThreadDataD2Ev, symObjAddr: 0x9DC8, symBinAddr: 0x10000BB38, symSize: 0x30 }
  - { offset: 0x5D88C, size: 0x8, addend: 0x0, symName: __ZN6parlay8internal24intrusive_acquire_retireINS0_12hazptr_stackIPvE4NodeENSt3__114default_deleteIS5_EELm1EE11RetiredListD1Ev, symObjAddr: 0x9DF8, symBinAddr: 0x10000BB68, symSize: 0x2C }
  - { offset: 0x5D8B6, size: 0x8, addend: 0x0, symName: __ZN6parlay8internal24intrusive_acquire_retireINS0_12hazptr_stackIPvE4NodeENSt3__114default_deleteIS5_EELm1EE11RetiredListD2Ev, symObjAddr: 0x9E24, symBinAddr: 0x10000BB94, symSize: 0x90 }
  - { offset: 0x5D8E0, size: 0x8, addend: 0x0, symName: __ZN6parlay8internal12hazptr_stackIPvED2Ev, symObjAddr: 0x9EB4, symBinAddr: 0x10000BC24, symSize: 0x8C }
  - { offset: 0x5D934, size: 0x8, addend: 0x0, symName: __ZNKSt3__113__atomic_baseIPN6parlay8internal12hazptr_stackIPvE4NodeELb0EE4loadB8ue170006ENS_12memory_orderE, symObjAddr: 0x9F40, symBinAddr: 0x10000BCB0, symSize: 0x2C }
  - { offset: 0x5D968, size: 0x8, addend: 0x0, symName: __ZNSt3__110unique_ptrIA_N6parlay8internal12hazptr_stackIPvEENS_14default_deleteIS6_EEEC2B8ue170006IPS5_Lb1EvvEET_, symObjAddr: 0x9FEC, symBinAddr: 0x10000BD5C, symSize: 0x44 }
  - { offset: 0x5D9B6, size: 0x8, addend: 0x0, symName: __ZNSt3__117__compressed_pairIPN6parlay8internal12hazptr_stackIPvEENS_14default_deleteIA_S5_EEEC1B8ue170006IRS6_NS_16__value_init_tagEEEOT_OT0_, symObjAddr: 0xA030, symBinAddr: 0x10000BDA0, symSize: 0x3C }
  - { offset: 0x5DA0E, size: 0x8, addend: 0x0, symName: __ZNSt3__117__compressed_pairIPN6parlay8internal12hazptr_stackIPvEENS_14default_deleteIA_S5_EEEC2B8ue170006IRS6_NS_16__value_init_tagEEEOT_OT0_, symObjAddr: 0xA06C, symBinAddr: 0x10000BDDC, symSize: 0x40 }
  - { offset: 0x5DA66, size: 0x8, addend: 0x0, symName: __ZNSt3__122__compressed_pair_elemIPN6parlay8internal12hazptr_stackIPvEELi0ELb0EEC2B8ue170006IRS6_vEEOT_, symObjAddr: 0xA0AC, symBinAddr: 0x10000BE1C, symSize: 0x24 }
  - { offset: 0x5DAA8, size: 0x8, addend: 0x0, symName: __ZNSt3__110unique_ptrIA_N6parlay8internal12hazptr_stackIPvEENS_14default_deleteIS6_EEE5resetB8ue170006IPS5_EENS_9enable_ifIXsr28_CheckArrayPointerConversionIT_EE5valueEvE4typeESD_, symObjAddr: 0xA0D0, symBinAddr: 0x10000BE40, symSize: 0x78 }
  - { offset: 0x5DAF5, size: 0x8, addend: 0x0, symName: __ZNSt3__110unique_ptrIA_N6parlay8internal12hazptr_stackIPvEENS_14default_deleteIS6_EEE7releaseB8ue170006Ev, symObjAddr: 0xA148, symBinAddr: 0x10000BEB8, symSize: 0x44 }
  - { offset: 0x5DB2A, size: 0x8, addend: 0x0, symName: __ZNSt3__110unique_ptrIA_N6parlay8internal12hazptr_stackIPvEENS_14default_deleteIS6_EEE11get_deleterB8ue170006Ev, symObjAddr: 0xA18C, symBinAddr: 0x10000BEFC, symSize: 0x24 }
  - { offset: 0x5DB50, size: 0x8, addend: 0x0, symName: __ZNSt3__117__compressed_pairIPN6parlay8internal12hazptr_stackIPvEENS_14default_deleteIA_S5_EEE6secondB8ue170006Ev, symObjAddr: 0xA1B0, symBinAddr: 0x10000BF20, symSize: 0x24 }
  - { offset: 0x5DB76, size: 0x8, addend: 0x0, symName: __ZNSt3__117__compressed_pairIPN6parlay8internal12hazptr_stackIPvEENS_14default_deleteIA_S5_EEE5firstB8ue170006Ev, symObjAddr: 0xA1D4, symBinAddr: 0x10000BF44, symSize: 0x24 }
  - { offset: 0x5DBA1, size: 0x8, addend: 0x0, symName: __ZNKSt3__114default_deleteIA_N6parlay8internal12hazptr_stackIPvEEEclB8ue170006IS5_EENS7_20_EnableIfConvertibleIT_E4typeEPSA_, symObjAddr: 0xA1F8, symBinAddr: 0x10000BF68, symSize: 0x9C }
  - { offset: 0x5DBDE, size: 0x8, addend: 0x0, symName: __ZNSt3__122__compressed_pair_elemIPN6parlay8internal12hazptr_stackIPvEELi0ELb0EE5__getB8ue170006Ev, symObjAddr: 0xA294, symBinAddr: 0x10000C004, symSize: 0x14 }
  - { offset: 0x5DC04, size: 0x8, addend: 0x0, symName: __ZNSt3__122__compressed_pair_elemINS_14default_deleteIA_N6parlay8internal12hazptr_stackIPvEEEELi1ELb1EE5__getB8ue170006Ev, symObjAddr: 0xA2A8, symBinAddr: 0x10000C018, symSize: 0x14 }
  - { offset: 0x5DC2A, size: 0x8, addend: 0x0, symName: __ZNSt3__110unique_ptrIA_N6parlay8internal12hazptr_stackIPvEENS_14default_deleteIS6_EEED2B8ue170006Ev, symObjAddr: 0xA2BC, symBinAddr: 0x10000C02C, symSize: 0x30 }
  - { offset: 0x5DC54, size: 0x8, addend: 0x0, symName: __ZNSt3__110unique_ptrIA_N6parlay8internal12hazptr_stackIPvEENS_14default_deleteIS6_EEE5resetB8ue170006EDn, symObjAddr: 0xA2EC, symBinAddr: 0x10000C05C, symSize: 0x6C }
  - { offset: 0x5DC9A, size: 0x8, addend: 0x0, symName: __ZNSt3__110unique_ptrIA_N6parlay8internal15block_allocatorENS2_20unique_array_deleterIS3_EEEC1B8ue170006ILb1EvEEDnNS_16__dependent_typeINS_27__unique_ptr_deleter_sfinaeIS6_EEXT_EE20__good_rval_ref_typeE, symObjAddr: 0xA358, symBinAddr: 0x10000C0C8, symSize: 0x3C }
  - { offset: 0x5DCF8, size: 0x8, addend: 0x0, symName: __ZZN6parlay8internal14pool_allocatorC1ERKNSt3__16vectorImNS2_9allocatorImEEEEENKUlmE_clEm, symObjAddr: 0xA394, symBinAddr: 0x10000C104, symSize: 0x5C }
  - { offset: 0x5DD30, size: 0x8, addend: 0x0, symName: __ZNSt3__110unique_ptrIA_N6parlay8internal15block_allocatorENS2_20unique_array_deleterIS3_EEEC1B8ue170006IPS3_Lb1EvvEET_NS_16__dependent_typeINS_27__unique_ptr_deleter_sfinaeIS6_EEXT0_EE20__good_rval_ref_typeE, symObjAddr: 0xA3F0, symBinAddr: 0x10000C160, symSize: 0x3C }
  - { offset: 0x5DD8D, size: 0x8, addend: 0x0, symName: __ZNSt3__110unique_ptrIA_N6parlay8internal15block_allocatorENS2_20unique_array_deleterIS3_EEEC2B8ue170006ILb1EvEEDnNS_16__dependent_typeINS_27__unique_ptr_deleter_sfinaeIS6_EEXT_EE20__good_rval_ref_typeE, symObjAddr: 0xA42C, symBinAddr: 0x10000C19C, symSize: 0x48 }
  - { offset: 0x5DDDC, size: 0x8, addend: 0x0, symName: __ZNSt3__117__compressed_pairIPN6parlay8internal15block_allocatorENS2_20unique_array_deleterIS3_EEEC1B8ue170006IDnS6_EEOT_OT0_, symObjAddr: 0xA474, symBinAddr: 0x10000C1E4, symSize: 0x3C }
  - { offset: 0x5DE34, size: 0x8, addend: 0x0, symName: __ZNSt3__117__compressed_pairIPN6parlay8internal15block_allocatorENS2_20unique_array_deleterIS3_EEEC2B8ue170006IDnS6_EEOT_OT0_, symObjAddr: 0xA4B0, symBinAddr: 0x10000C220, symSize: 0x48 }
  - { offset: 0x5DE8C, size: 0x8, addend: 0x0, symName: __ZNSt3__122__compressed_pair_elemIPN6parlay8internal15block_allocatorELi0ELb0EEC2B8ue170006IDnvEEOT_, symObjAddr: 0xA4F8, symBinAddr: 0x10000C268, symSize: 0x1C }
  - { offset: 0x5DECE, size: 0x8, addend: 0x0, symName: __ZNSt3__122__compressed_pair_elemIN6parlay8internal20unique_array_deleterINS2_15block_allocatorEEELi1ELb0EEC2B8ue170006IS5_vEEOT_, symObjAddr: 0xA514, symBinAddr: 0x10000C284, symSize: 0x24 }
  - { offset: 0x5DF10, size: 0x8, addend: 0x0, symName: __ZN6parlay8internal15block_allocatorC1Emmmmm, symObjAddr: 0xA538, symBinAddr: 0x10000C2A8, symSize: 0x54 }
  - { offset: 0x5DF80, size: 0x8, addend: 0x0, symName: __ZN6parlay8internal15block_allocatorC2Emmmmm, symObjAddr: 0xA58C, symBinAddr: 0x10000C2FC, symSize: 0x1DC }
  - { offset: 0x5DFF0, size: 0x8, addend: 0x0, symName: __ZN6parlay8internal12hazptr_stackIPSt4byteEC1Ev, symObjAddr: 0xA768, symBinAddr: 0x10000C4D8, symSize: 0x2C }
  - { offset: 0x5E01A, size: 0x8, addend: 0x0, symName: __ZN6parlay8internal12hazptr_stackIPNS0_15block_allocator5blockEEC1Ev, symObjAddr: 0xA794, symBinAddr: 0x10000C504, symSize: 0x2C }
  - { offset: 0x5E044, size: 0x8, addend: 0x0, symName: __ZN6parlay14ThreadSpecificINS_8internal15block_allocator10local_listEEC1Ev, symObjAddr: 0xA7C0, symBinAddr: 0x10000C530, symSize: 0x2C }
  - { offset: 0x5E06E, size: 0x8, addend: 0x0, symName: __ZN6parlay14ThreadSpecificINS_8internal15block_allocator10local_listEED1Ev, symObjAddr: 0xA7EC, symBinAddr: 0x10000C55C, symSize: 0x2C }
  - { offset: 0x5E098, size: 0x8, addend: 0x0, symName: __ZN6parlay8internal12hazptr_stackIPNS0_15block_allocator5blockEED1Ev, symObjAddr: 0xA818, symBinAddr: 0x10000C588, symSize: 0x2C }
  - { offset: 0x5E0C2, size: 0x8, addend: 0x0, symName: __ZN6parlay8internal12hazptr_stackIPSt4byteED1Ev, symObjAddr: 0xA844, symBinAddr: 0x10000C5B4, symSize: 0x2C }
  - { offset: 0x5E0EC, size: 0x8, addend: 0x0, symName: __ZN6parlay8internal12hazptr_stackIPSt4byteEC2Ev, symObjAddr: 0xA870, symBinAddr: 0x10000C5E0, symSize: 0x34 }
  - { offset: 0x5E116, size: 0x8, addend: 0x0, symName: __ZNSt3__16atomicIPN6parlay8internal12hazptr_stackIPSt4byteE4NodeEEC1B8ue170006ES8_, symObjAddr: 0xA8A4, symBinAddr: 0x10000C614, symSize: 0x34 }
  - { offset: 0x5E14E, size: 0x8, addend: 0x0, symName: __ZNSt3__16atomicIPN6parlay8internal12hazptr_stackIPSt4byteE4NodeEEC2B8ue170006ES8_, symObjAddr: 0xA994, symBinAddr: 0x10000C704, symSize: 0x34 }
  - { offset: 0x5E186, size: 0x8, addend: 0x0, symName: __ZNSt3__113__atomic_baseIPN6parlay8internal12hazptr_stackIPSt4byteE4NodeELb0EEC2B8ue170006ES8_, symObjAddr: 0xA9C8, symBinAddr: 0x10000C738, symSize: 0x34 }
  - { offset: 0x5E1BE, size: 0x8, addend: 0x0, symName: __ZNSt3__117__cxx_atomic_implIPN6parlay8internal12hazptr_stackIPSt4byteE4NodeENS_22__cxx_atomic_base_implIS8_EEEC1B8ue170006ES8_, symObjAddr: 0xA9FC, symBinAddr: 0x10000C76C, symSize: 0x34 }
  - { offset: 0x5E1F7, size: 0x8, addend: 0x0, symName: __ZNSt3__117__cxx_atomic_implIPN6parlay8internal12hazptr_stackIPSt4byteE4NodeENS_22__cxx_atomic_base_implIS8_EEEC2B8ue170006ES8_, symObjAddr: 0xAA30, symBinAddr: 0x10000C7A0, symSize: 0x34 }
  - { offset: 0x5E230, size: 0x8, addend: 0x0, symName: __ZNSt3__122__cxx_atomic_base_implIPN6parlay8internal12hazptr_stackIPSt4byteE4NodeEEC2ES8_, symObjAddr: 0xAA64, symBinAddr: 0x10000C7D4, symSize: 0x20 }
  - { offset: 0x5E269, size: 0x8, addend: 0x0, symName: __ZN6parlay8internal24intrusive_acquire_retireINS0_12hazptr_stackIPSt4byteE4NodeENSt3__114default_deleteIS6_EELm1EEC1ES9_, symObjAddr: 0xAA84, symBinAddr: 0x10000C7F4, symSize: 0x2C }
  - { offset: 0x5E2A1, size: 0x8, addend: 0x0, symName: __ZN6parlay8internal24intrusive_acquire_retireINS0_12hazptr_stackIPSt4byteE4NodeENSt3__114default_deleteIS6_EELm1EED1Ev, symObjAddr: 0xAAB0, symBinAddr: 0x10000C820, symSize: 0x2C }
  - { offset: 0x5E2CB, size: 0x8, addend: 0x0, symName: __ZN6parlay8internal24intrusive_acquire_retireINS0_12hazptr_stackIPSt4byteE4NodeENSt3__114default_deleteIS6_EELm1EEC2ES9_, symObjAddr: 0xAADC, symBinAddr: 0x10000C84C, symSize: 0x2C }
  - { offset: 0x5E303, size: 0x8, addend: 0x0, symName: __ZN6parlay14ThreadSpecificINS_8internal24intrusive_acquire_retireINS1_12hazptr_stackIPSt4byteE4NodeENSt3__114default_deleteIS7_EELm1EE10ThreadDataEEC1Ev, symObjAddr: 0xAB08, symBinAddr: 0x10000C878, symSize: 0x2C }
  - { offset: 0x5E32D, size: 0x8, addend: 0x0, symName: __ZNSt3__18functionIFN6parlay8internal24intrusive_acquire_retireINS2_12hazptr_stackIPSt4byteE4NodeENS_14default_deleteIS8_EELm1EE10ThreadDataEjEEC1IZNS1_14ThreadSpecificISC_EC1EvEUlmE_vEET_, symObjAddr: 0xABA4, symBinAddr: 0x10000C914, symSize: 0x2C }
  - { offset: 0x5E372, size: 0x8, addend: 0x0, symName: __ZN6parlay14ThreadSpecificINS_8internal24intrusive_acquire_retireINS1_12hazptr_stackIPSt4byteE4NodeENSt3__114default_deleteIS7_EELm1EE10ThreadDataEE10initializeEv, symObjAddr: 0xABD0, symBinAddr: 0x10000C940, symSize: 0x1B8 }
  - { offset: 0x5E3C4, size: 0x8, addend: 0x0, symName: __ZNSt3__18functionIFN6parlay8internal24intrusive_acquire_retireINS2_12hazptr_stackIPSt4byteE4NodeENS_14default_deleteIS8_EELm1EE10ThreadDataEjEED1Ev, symObjAddr: 0xAD88, symBinAddr: 0x10000CAF8, symSize: 0x2C }
  - { offset: 0x5E3F0, size: 0x8, addend: 0x0, symName: __ZNSt3__18functionIFN6parlay8internal24intrusive_acquire_retireINS2_12hazptr_stackIPSt4byteE4NodeENS_14default_deleteIS8_EELm1EE10ThreadDataEjEEC2IZNS1_14ThreadSpecificISC_EC1EvEUlmE_vEET_, symObjAddr: 0xADB4, symBinAddr: 0x10000CB24, symSize: 0x30 }
  - { offset: 0x5E435, size: 0x8, addend: 0x0, symName: __ZNSt3__110__function12__value_funcIFN6parlay8internal24intrusive_acquire_retireINS3_12hazptr_stackIPSt4byteE4NodeENS_14default_deleteIS9_EELm1EE10ThreadDataEjEEC1B8ue170006IZNS2_14ThreadSpecificISD_EC1EvEUlmE_vEEOT_, symObjAddr: 0xADE4, symBinAddr: 0x10000CB54, symSize: 0x50 }
  - { offset: 0x5E478, size: 0x8, addend: 0x0, symName: __ZNSt3__19allocatorIZN6parlay14ThreadSpecificINS1_8internal24intrusive_acquire_retireINS3_12hazptr_stackIPSt4byteE4NodeENS_14default_deleteIS9_EELm1EE10ThreadDataEEC1EvEUlmE_EC1B8ue170006Ev, symObjAddr: 0xAE34, symBinAddr: 0x10000CBA4, symSize: 0x2C }
  - { offset: 0x5E4A2, size: 0x8, addend: 0x0, symName: __ZNSt3__110__function12__value_funcIFN6parlay8internal24intrusive_acquire_retireINS3_12hazptr_stackIPSt4byteE4NodeENS_14default_deleteIS9_EELm1EE10ThreadDataEjEEC1B8ue170006IZNS2_14ThreadSpecificISD_EC1EvEUlmE_NS_9allocatorISJ_EEEEOT_RKT0_, symObjAddr: 0xAE60, symBinAddr: 0x10000CBD0, symSize: 0x3C }
  - { offset: 0x5E4FC, size: 0x8, addend: 0x0, symName: __ZNSt3__19allocatorIZN6parlay14ThreadSpecificINS1_8internal24intrusive_acquire_retireINS3_12hazptr_stackIPSt4byteE4NodeENS_14default_deleteIS9_EELm1EE10ThreadDataEEC1EvEUlmE_EC2B8ue170006Ev, symObjAddr: 0xAE9C, symBinAddr: 0x10000CC0C, symSize: 0x2C }
  - { offset: 0x5E526, size: 0x8, addend: 0x0, symName: __ZNSt3__116__non_trivial_ifILb1ENS_9allocatorIZN6parlay14ThreadSpecificINS2_8internal24intrusive_acquire_retireINS4_12hazptr_stackIPSt4byteE4NodeENS_14default_deleteISA_EELm1EE10ThreadDataEEC1EvEUlmE_EEEC2B8ue170006Ev, symObjAddr: 0xAEC8, symBinAddr: 0x10000CC38, symSize: 0x14 }
  - { offset: 0x5E550, size: 0x8, addend: 0x0, symName: __ZNSt3__110__function12__value_funcIFN6parlay8internal24intrusive_acquire_retireINS3_12hazptr_stackIPSt4byteE4NodeENS_14default_deleteIS9_EELm1EE10ThreadDataEjEEC2B8ue170006IZNS2_14ThreadSpecificISD_EC1EvEUlmE_NS_9allocatorISJ_EEEEOT_RKT0_, symObjAddr: 0xAEDC, symBinAddr: 0x10000CC4C, symSize: 0x94 }
  - { offset: 0x5E5F8, size: 0x8, addend: 0x0, symName: __ZNSt3__19allocatorINS_10__function6__funcIZN6parlay14ThreadSpecificINS3_8internal24intrusive_acquire_retireINS5_12hazptr_stackIPSt4byteE4NodeENS_14default_deleteISB_EELm1EE10ThreadDataEEC1EvEUlmE_NS0_ISH_EEFSF_jEEEEC1B8ue170006ISH_EERKNS0_IT_EE, symObjAddr: 0xAF88, symBinAddr: 0x10000CCF8, symSize: 0x34 }
  - { offset: 0x5E63C, size: 0x8, addend: 0x0, symName: __ZNSt3__19allocatorIZN6parlay14ThreadSpecificINS1_8internal24intrusive_acquire_retireINS3_12hazptr_stackIPSt4byteE4NodeENS_14default_deleteIS9_EELm1EE10ThreadDataEEC1EvEUlmE_EC1B8ue170006INS_10__function6__funcISF_SG_FSD_jEEEEERKNS0_IT_EE, symObjAddr: 0xAFBC, symBinAddr: 0x10000CD2C, symSize: 0x34 }
  - { offset: 0x5E67A, size: 0x8, addend: 0x0, symName: __ZNSt3__110__function6__funcIZN6parlay14ThreadSpecificINS2_8internal24intrusive_acquire_retireINS4_12hazptr_stackIPSt4byteE4NodeENS_14default_deleteISA_EELm1EE10ThreadDataEEC1EvEUlmE_NS_9allocatorISG_EEFSE_jEEC1B8ue170006EOSG_OSI_, symObjAddr: 0xAFF0, symBinAddr: 0x10000CD60, symSize: 0x3C }
  - { offset: 0x5E6C2, size: 0x8, addend: 0x0, symName: __ZNSt3__19allocatorINS_10__function6__funcIZN6parlay14ThreadSpecificINS3_8internal24intrusive_acquire_retireINS5_12hazptr_stackIPSt4byteE4NodeENS_14default_deleteISB_EELm1EE10ThreadDataEEC1EvEUlmE_NS0_ISH_EEFSF_jEEEEC2B8ue170006ISH_EERKNS0_IT_EE, symObjAddr: 0xB02C, symBinAddr: 0x10000CD9C, symSize: 0x30 }
  - { offset: 0x5E700, size: 0x8, addend: 0x0, symName: __ZNSt3__116__non_trivial_ifILb1ENS_9allocatorINS_10__function6__funcIZN6parlay14ThreadSpecificINS4_8internal24intrusive_acquire_retireINS6_12hazptr_stackIPSt4byteE4NodeENS_14default_deleteISC_EELm1EE10ThreadDataEEC1EvEUlmE_NS1_ISI_EEFSG_jEEEEEEC2B8ue170006Ev, symObjAddr: 0xB05C, symBinAddr: 0x10000CDCC, symSize: 0x14 }
  - { offset: 0x5E72A, size: 0x8, addend: 0x0, symName: __ZNSt3__19allocatorIZN6parlay14ThreadSpecificINS1_8internal24intrusive_acquire_retireINS3_12hazptr_stackIPSt4byteE4NodeENS_14default_deleteIS9_EELm1EE10ThreadDataEEC1EvEUlmE_EC2B8ue170006INS_10__function6__funcISF_SG_FSD_jEEEEERKNS0_IT_EE, symObjAddr: 0xB070, symBinAddr: 0x10000CDE0, symSize: 0x30 }
  - { offset: 0x5E768, size: 0x8, addend: 0x0, symName: __ZNSt3__110__function6__funcIZN6parlay14ThreadSpecificINS2_8internal24intrusive_acquire_retireINS4_12hazptr_stackIPSt4byteE4NodeENS_14default_deleteISA_EELm1EE10ThreadDataEEC1EvEUlmE_NS_9allocatorISG_EEFSE_jEEC2B8ue170006EOSG_OSI_, symObjAddr: 0xB0A0, symBinAddr: 0x10000CE10, symSize: 0x80 }
  - { offset: 0x5E7B0, size: 0x8, addend: 0x0, symName: __ZNSt3__110__function6__baseIFN6parlay8internal24intrusive_acquire_retireINS3_12hazptr_stackIPSt4byteE4NodeENS_14default_deleteIS9_EELm1EE10ThreadDataEjEEC2B8ue170006Ev, symObjAddr: 0xB120, symBinAddr: 0x10000CE90, symSize: 0x24 }
  - { offset: 0x5E7DA, size: 0x8, addend: 0x0, symName: __ZNSt3__110__function12__alloc_funcIZN6parlay14ThreadSpecificINS2_8internal24intrusive_acquire_retireINS4_12hazptr_stackIPSt4byteE4NodeENS_14default_deleteISA_EELm1EE10ThreadDataEEC1EvEUlmE_NS_9allocatorISG_EEFSE_jEEC1B8ue170006EOSG_OSI_, symObjAddr: 0xB144, symBinAddr: 0x10000CEB4, symSize: 0x3C }
  - { offset: 0x5E820, size: 0x8, addend: 0x0, symName: __ZNSt3__110__function6__baseIFN6parlay8internal24intrusive_acquire_retireINS3_12hazptr_stackIPSt4byteE4NodeENS_14default_deleteIS9_EELm1EE10ThreadDataEjEED2Ev, symObjAddr: 0xB180, symBinAddr: 0x10000CEF0, symSize: 0x14 }
  - { offset: 0x5E84A, size: 0x8, addend: 0x0, symName: __ZNSt3__110__function6__funcIZN6parlay14ThreadSpecificINS2_8internal24intrusive_acquire_retireINS4_12hazptr_stackIPSt4byteE4NodeENS_14default_deleteISA_EELm1EE10ThreadDataEEC1EvEUlmE_NS_9allocatorISG_EEFSE_jEED1Ev, symObjAddr: 0xB194, symBinAddr: 0x10000CF04, symSize: 0x2C }
  - { offset: 0x5E877, size: 0x8, addend: 0x0, symName: __ZNSt3__110__function6__funcIZN6parlay14ThreadSpecificINS2_8internal24intrusive_acquire_retireINS4_12hazptr_stackIPSt4byteE4NodeENS_14default_deleteISA_EELm1EE10ThreadDataEEC1EvEUlmE_NS_9allocatorISG_EEFSE_jEED0Ev, symObjAddr: 0xB1C0, symBinAddr: 0x10000CF30, symSize: 0x30 }
  - { offset: 0x5E8A4, size: 0x8, addend: 0x0, symName: __ZNKSt3__110__function6__funcIZN6parlay14ThreadSpecificINS2_8internal24intrusive_acquire_retireINS4_12hazptr_stackIPSt4byteE4NodeENS_14default_deleteISA_EELm1EE10ThreadDataEEC1EvEUlmE_NS_9allocatorISG_EEFSE_jEE7__cloneEv, symObjAddr: 0xB1F0, symBinAddr: 0x10000CF60, symSize: 0xFC }
  - { offset: 0x5E8F6, size: 0x8, addend: 0x0, symName: __ZNKSt3__110__function6__funcIZN6parlay14ThreadSpecificINS2_8internal24intrusive_acquire_retireINS4_12hazptr_stackIPSt4byteE4NodeENS_14default_deleteISA_EELm1EE10ThreadDataEEC1EvEUlmE_NS_9allocatorISG_EEFSE_jEE7__cloneEPNS0_6__baseISJ_EE, symObjAddr: 0xB2EC, symBinAddr: 0x10000D05C, symSize: 0x58 }
  - { offset: 0x5E92D, size: 0x8, addend: 0x0, symName: __ZNSt3__110__function6__funcIZN6parlay14ThreadSpecificINS2_8internal24intrusive_acquire_retireINS4_12hazptr_stackIPSt4byteE4NodeENS_14default_deleteISA_EELm1EE10ThreadDataEEC1EvEUlmE_NS_9allocatorISG_EEFSE_jEE7destroyEv, symObjAddr: 0xB344, symBinAddr: 0x10000D0B4, symSize: 0x28 }
  - { offset: 0x5E955, size: 0x8, addend: 0x0, symName: __ZNSt3__110__function6__funcIZN6parlay14ThreadSpecificINS2_8internal24intrusive_acquire_retireINS4_12hazptr_stackIPSt4byteE4NodeENS_14default_deleteISA_EELm1EE10ThreadDataEEC1EvEUlmE_NS_9allocatorISG_EEFSE_jEE18destroy_deallocateEv, symObjAddr: 0xB36C, symBinAddr: 0x10000D0DC, symSize: 0x58 }
  - { offset: 0x5E998, size: 0x8, addend: 0x0, symName: __ZNSt3__110__function6__funcIZN6parlay14ThreadSpecificINS2_8internal24intrusive_acquire_retireINS4_12hazptr_stackIPSt4byteE4NodeENS_14default_deleteISA_EELm1EE10ThreadDataEEC1EvEUlmE_NS_9allocatorISG_EEFSE_jEEclEOj, symObjAddr: 0xB3C4, symBinAddr: 0x10000D134, symSize: 0x38 }
  - { offset: 0x5E9CF, size: 0x8, addend: 0x0, symName: __ZNKSt3__110__function6__funcIZN6parlay14ThreadSpecificINS2_8internal24intrusive_acquire_retireINS4_12hazptr_stackIPSt4byteE4NodeENS_14default_deleteISA_EELm1EE10ThreadDataEEC1EvEUlmE_NS_9allocatorISG_EEFSE_jEE6targetERKSt9type_info, symObjAddr: 0xB3FC, symBinAddr: 0x10000D16C, symSize: 0x60 }
  - { offset: 0x5EA06, size: 0x8, addend: 0x0, symName: __ZNKSt3__110__function6__funcIZN6parlay14ThreadSpecificINS2_8internal24intrusive_acquire_retireINS4_12hazptr_stackIPSt4byteE4NodeENS_14default_deleteISA_EELm1EE10ThreadDataEEC1EvEUlmE_NS_9allocatorISG_EEFSE_jEE11target_typeEv, symObjAddr: 0xB45C, symBinAddr: 0x10000D1CC, symSize: 0x18 }
  - { offset: 0x5EA2E, size: 0x8, addend: 0x0, symName: __ZNSt3__110__function6__baseIFN6parlay8internal24intrusive_acquire_retireINS3_12hazptr_stackIPSt4byteE4NodeENS_14default_deleteIS9_EELm1EE10ThreadDataEjEED1Ev, symObjAddr: 0xB474, symBinAddr: 0x10000D1E4, symSize: 0x14 }
  - { offset: 0x5EA58, size: 0x8, addend: 0x0, symName: __ZNSt3__110__function6__baseIFN6parlay8internal24intrusive_acquire_retireINS3_12hazptr_stackIPSt4byteE4NodeENS_14default_deleteIS9_EELm1EE10ThreadDataEjEED0Ev, symObjAddr: 0xB488, symBinAddr: 0x10000D1F8, symSize: 0xC }
  - { offset: 0x5EA82, size: 0x8, addend: 0x0, symName: __ZNSt3__110__function12__alloc_funcIZN6parlay14ThreadSpecificINS2_8internal24intrusive_acquire_retireINS4_12hazptr_stackIPSt4byteE4NodeENS_14default_deleteISA_EELm1EE10ThreadDataEEC1EvEUlmE_NS_9allocatorISG_EEFSE_jEEC2B8ue170006EOSG_OSI_, symObjAddr: 0xB494, symBinAddr: 0x10000D204, symSize: 0x5C }
  - { offset: 0x5EAC8, size: 0x8, addend: 0x0, symName: __ZNSt3__117__compressed_pairIZN6parlay14ThreadSpecificINS1_8internal24intrusive_acquire_retireINS3_12hazptr_stackIPSt4byteE4NodeENS_14default_deleteIS9_EELm1EE10ThreadDataEEC1EvEUlmE_NS_9allocatorISF_EEEC1B8ue170006IJOSF_EJOSH_EEENS_21piecewise_construct_tENS_5tupleIJDpT_EEENSN_IJDpT0_EEE, symObjAddr: 0xB548, symBinAddr: 0x10000D2B8, symSize: 0x3C }
  - { offset: 0x5EB32, size: 0x8, addend: 0x0, symName: __ZNSt3__15tupleIJOZN6parlay14ThreadSpecificINS1_8internal24intrusive_acquire_retireINS3_12hazptr_stackIPSt4byteE4NodeENS_14default_deleteIS9_EELm1EE10ThreadDataEEC1EvEUlmE_EEC1B8ue170006IJSF_ELi0EEEDpOT_, symObjAddr: 0xB584, symBinAddr: 0x10000D2F4, symSize: 0x34 }
  - { offset: 0x5EB7C, size: 0x8, addend: 0x0, symName: __ZNSt3__15tupleIJOZN6parlay14ThreadSpecificINS1_8internal24intrusive_acquire_retireINS3_12hazptr_stackIPSt4byteE4NodeENS_14default_deleteIS9_EELm1EE10ThreadDataEEC1EvEUlmE_EEC2B8ue170006IJSF_ELi0EEEDpOT_, symObjAddr: 0xB5B8, symBinAddr: 0x10000D328, symSize: 0x34 }
  - { offset: 0x5EBC6, size: 0x8, addend: 0x0, symName: __ZNSt3__112__tuple_implINS_15__tuple_indicesIJLm0EEEEJOZN6parlay14ThreadSpecificINS3_8internal24intrusive_acquire_retireINS5_12hazptr_stackIPSt4byteE4NodeENS_14default_deleteISB_EELm1EE10ThreadDataEEC1EvEUlmE_EEC1B8ue170006IJLm0EEJSI_EJEJEJSH_EEENS1_IJXspT_EEEENS_13__tuple_typesIJDpT0_EEENS1_IJXspT1_EEEENSM_IJDpT2_EEEDpOT3_, symObjAddr: 0xB5EC, symBinAddr: 0x10000D35C, symSize: 0x34 }
  - { offset: 0x5EC57, size: 0x8, addend: 0x0, symName: __ZNSt3__112__tuple_implINS_15__tuple_indicesIJLm0EEEEJOZN6parlay14ThreadSpecificINS3_8internal24intrusive_acquire_retireINS5_12hazptr_stackIPSt4byteE4NodeENS_14default_deleteISB_EELm1EE10ThreadDataEEC1EvEUlmE_EEC2B8ue170006IJLm0EEJSI_EJEJEJSH_EEENS1_IJXspT_EEEENS_13__tuple_typesIJDpT0_EEENS1_IJXspT1_EEEENSM_IJDpT2_EEEDpOT3_, symObjAddr: 0xB620, symBinAddr: 0x10000D390, symSize: 0x34 }
  - { offset: 0x5ECE8, size: 0x8, addend: 0x0, symName: __ZNSt3__112__tuple_leafILm0EOZN6parlay14ThreadSpecificINS1_8internal24intrusive_acquire_retireINS3_12hazptr_stackIPSt4byteE4NodeENS_14default_deleteIS9_EELm1EE10ThreadDataEEC1EvEUlmE_Lb0EEC2B8ue170006ISF_vEEOT_, symObjAddr: 0xB654, symBinAddr: 0x10000D3C4, symSize: 0x20 }
  - { offset: 0x5ED2B, size: 0x8, addend: 0x0, symName: __ZNSt3__15tupleIJONS_9allocatorIZN6parlay14ThreadSpecificINS2_8internal24intrusive_acquire_retireINS4_12hazptr_stackIPSt4byteE4NodeENS_14default_deleteISA_EELm1EE10ThreadDataEEC1EvEUlmE_EEEEC1B8ue170006IJSH_ELi0EEEDpOT_, symObjAddr: 0xB674, symBinAddr: 0x10000D3E4, symSize: 0x34 }
  - { offset: 0x5ED75, size: 0x8, addend: 0x0, symName: __ZNSt3__15tupleIJONS_9allocatorIZN6parlay14ThreadSpecificINS2_8internal24intrusive_acquire_retireINS4_12hazptr_stackIPSt4byteE4NodeENS_14default_deleteISA_EELm1EE10ThreadDataEEC1EvEUlmE_EEEEC2B8ue170006IJSH_ELi0EEEDpOT_, symObjAddr: 0xB6A8, symBinAddr: 0x10000D418, symSize: 0x34 }
  - { offset: 0x5EDBF, size: 0x8, addend: 0x0, symName: __ZNSt3__112__tuple_implINS_15__tuple_indicesIJLm0EEEEJONS_9allocatorIZN6parlay14ThreadSpecificINS4_8internal24intrusive_acquire_retireINS6_12hazptr_stackIPSt4byteE4NodeENS_14default_deleteISC_EELm1EE10ThreadDataEEC1EvEUlmE_EEEEC1B8ue170006IJLm0EEJSK_EJEJEJSJ_EEENS1_IJXspT_EEEENS_13__tuple_typesIJDpT0_EEENS1_IJXspT1_EEEENSO_IJDpT2_EEEDpOT3_, symObjAddr: 0xB6DC, symBinAddr: 0x10000D44C, symSize: 0x34 }
  - { offset: 0x5EE50, size: 0x8, addend: 0x0, symName: __ZNSt3__112__tuple_implINS_15__tuple_indicesIJLm0EEEEJONS_9allocatorIZN6parlay14ThreadSpecificINS4_8internal24intrusive_acquire_retireINS6_12hazptr_stackIPSt4byteE4NodeENS_14default_deleteISC_EELm1EE10ThreadDataEEC1EvEUlmE_EEEEC2B8ue170006IJLm0EEJSK_EJEJEJSJ_EEENS1_IJXspT_EEEENS_13__tuple_typesIJDpT0_EEENS1_IJXspT1_EEEENSO_IJDpT2_EEEDpOT3_, symObjAddr: 0xB710, symBinAddr: 0x10000D480, symSize: 0x34 }
  - { offset: 0x5EEE1, size: 0x8, addend: 0x0, symName: __ZNSt3__112__tuple_leafILm0EONS_9allocatorIZN6parlay14ThreadSpecificINS2_8internal24intrusive_acquire_retireINS4_12hazptr_stackIPSt4byteE4NodeENS_14default_deleteISA_EELm1EE10ThreadDataEEC1EvEUlmE_EELb0EEC2B8ue170006ISH_vEEOT_, symObjAddr: 0xB744, symBinAddr: 0x10000D4B4, symSize: 0x20 }
  - { offset: 0x5EF24, size: 0x8, addend: 0x0, symName: __ZNSt3__117__compressed_pairIZN6parlay14ThreadSpecificINS1_8internal24intrusive_acquire_retireINS3_12hazptr_stackIPSt4byteE4NodeENS_14default_deleteIS9_EELm1EE10ThreadDataEEC1EvEUlmE_NS_9allocatorISF_EEEC2B8ue170006IJOSF_EJOSH_EEENS_21piecewise_construct_tENS_5tupleIJDpT_EEENSN_IJDpT0_EEE, symObjAddr: 0xB764, symBinAddr: 0x10000D4D4, symSize: 0x54 }
  - { offset: 0x5EF8E, size: 0x8, addend: 0x0, symName: __ZNSt3__122__compressed_pair_elemIZN6parlay14ThreadSpecificINS1_8internal24intrusive_acquire_retireINS3_12hazptr_stackIPSt4byteE4NodeENS_14default_deleteIS9_EELm1EE10ThreadDataEEC1EvEUlmE_Li0ELb1EEC2B8ue170006IJOSF_EJLm0EEEENS_21piecewise_construct_tENS_5tupleIJDpT_EEENS_15__tuple_indicesIJXspT0_EEEE, symObjAddr: 0xB7B8, symBinAddr: 0x10000D528, symSize: 0x38 }
  - { offset: 0x5EFF3, size: 0x8, addend: 0x0, symName: __ZNSt3__122__compressed_pair_elemINS_9allocatorIZN6parlay14ThreadSpecificINS2_8internal24intrusive_acquire_retireINS4_12hazptr_stackIPSt4byteE4NodeENS_14default_deleteISA_EELm1EE10ThreadDataEEC1EvEUlmE_EELi1ELb1EEC2B8ue170006IJOSH_EJLm0EEEENS_21piecewise_construct_tENS_5tupleIJDpT_EEENS_15__tuple_indicesIJXspT0_EEEE, symObjAddr: 0xB7F0, symBinAddr: 0x10000D560, symSize: 0x38 }
  - { offset: 0x5F058, size: 0x8, addend: 0x0, symName: __ZNSt3__112__tuple_leafILm0EOZN6parlay14ThreadSpecificINS1_8internal24intrusive_acquire_retireINS3_12hazptr_stackIPSt4byteE4NodeENS_14default_deleteIS9_EELm1EE10ThreadDataEEC1EvEUlmE_Lb0EE3getB8ue170006Ev, symObjAddr: 0xB84C, symBinAddr: 0x10000D5BC, symSize: 0x18 }
  - { offset: 0x5F07E, size: 0x8, addend: 0x0, symName: __ZNSt3__112__tuple_leafILm0EONS_9allocatorIZN6parlay14ThreadSpecificINS2_8internal24intrusive_acquire_retireINS4_12hazptr_stackIPSt4byteE4NodeENS_14default_deleteISA_EELm1EE10ThreadDataEEC1EvEUlmE_EELb0EE3getB8ue170006Ev, symObjAddr: 0xB888, symBinAddr: 0x10000D5F8, symSize: 0x18 }
  - { offset: 0x5F0A4, size: 0x8, addend: 0x0, symName: __ZNSt3__110__function6__funcIZN6parlay14ThreadSpecificINS2_8internal24intrusive_acquire_retireINS4_12hazptr_stackIPSt4byteE4NodeENS_14default_deleteISA_EELm1EE10ThreadDataEEC1EvEUlmE_NS_9allocatorISG_EEFSE_jEED2Ev, symObjAddr: 0xB8A0, symBinAddr: 0x10000D610, symSize: 0x2C }
  - { offset: 0x5F0D1, size: 0x8, addend: 0x0, symName: __ZNKSt3__110__function12__alloc_funcIZN6parlay14ThreadSpecificINS2_8internal24intrusive_acquire_retireINS4_12hazptr_stackIPSt4byteE4NodeENS_14default_deleteISA_EELm1EE10ThreadDataEEC1EvEUlmE_NS_9allocatorISG_EEFSE_jEE15__get_allocatorB8ue170006Ev, symObjAddr: 0xB8CC, symBinAddr: 0x10000D63C, symSize: 0x24 }
  - { offset: 0x5F0F7, size: 0x8, addend: 0x0, symName: __ZNSt3__19allocatorINS_10__function6__funcIZN6parlay14ThreadSpecificINS3_8internal24intrusive_acquire_retireINS5_12hazptr_stackIPSt4byteE4NodeENS_14default_deleteISB_EELm1EE10ThreadDataEEC1EvEUlmE_NS0_ISH_EEFSF_jEEEE8allocateB8ue170006Em, symObjAddr: 0xB8F0, symBinAddr: 0x10000D660, symSize: 0x58 }
  - { offset: 0x5F13C, size: 0x8, addend: 0x0, symName: __ZNSt3__122__allocator_destructorINS_9allocatorINS_10__function6__funcIZN6parlay14ThreadSpecificINS4_8internal24intrusive_acquire_retireINS6_12hazptr_stackIPSt4byteE4NodeENS_14default_deleteISC_EELm1EE10ThreadDataEEC1EvEUlmE_NS1_ISI_EEFSG_jEEEEEEC1B8ue170006ERSM_m, symObjAddr: 0xB948, symBinAddr: 0x10000D6B8, symSize: 0x3C }
  - { offset: 0x5F218, size: 0x8, addend: 0x0, symName: __ZNSt3__110unique_ptrINS_10__function6__funcIZN6parlay14ThreadSpecificINS3_8internal24intrusive_acquire_retireINS5_12hazptr_stackIPSt4byteE4NodeENS_14default_deleteISB_EELm1EE10ThreadDataEEC1EvEUlmE_NS_9allocatorISH_EEFSF_jEEENS_22__allocator_destructorINSI_ISL_EEEEEC1B8ue170006ILb1EvEEPSL_NS_16__dependent_typeINS_27__unique_ptr_deleter_sfinaeISO_EEXT_EE20__good_rval_ref_typeE, symObjAddr: 0xB984, symBinAddr: 0x10000D6F4, symSize: 0x3C }
  - { offset: 0x5F269, size: 0x8, addend: 0x0, symName: __ZNKSt3__110unique_ptrINS_10__function6__funcIZN6parlay14ThreadSpecificINS3_8internal24intrusive_acquire_retireINS5_12hazptr_stackIPSt4byteE4NodeENS_14default_deleteISB_EELm1EE10ThreadDataEEC1EvEUlmE_NS_9allocatorISH_EEFSF_jEEENS_22__allocator_destructorINSI_ISL_EEEEE3getB8ue170006Ev, symObjAddr: 0xB9C0, symBinAddr: 0x10000D730, symSize: 0x28 }
  - { offset: 0x5F28F, size: 0x8, addend: 0x0, symName: __ZNKSt3__110__function12__alloc_funcIZN6parlay14ThreadSpecificINS2_8internal24intrusive_acquire_retireINS4_12hazptr_stackIPSt4byteE4NodeENS_14default_deleteISA_EELm1EE10ThreadDataEEC1EvEUlmE_NS_9allocatorISG_EEFSE_jEE8__targetB8ue170006Ev, symObjAddr: 0xB9E8, symBinAddr: 0x10000D758, symSize: 0x24 }
  - { offset: 0x5F2B5, size: 0x8, addend: 0x0, symName: __ZNSt3__110__function6__funcIZN6parlay14ThreadSpecificINS2_8internal24intrusive_acquire_retireINS4_12hazptr_stackIPSt4byteE4NodeENS_14default_deleteISA_EELm1EE10ThreadDataEEC1EvEUlmE_NS_9allocatorISG_EEFSE_jEEC1B8ue170006ERKSG_OSI_, symObjAddr: 0xBA0C, symBinAddr: 0x10000D77C, symSize: 0x3C }
  - { offset: 0x5F2FD, size: 0x8, addend: 0x0, symName: __ZNSt3__110unique_ptrINS_10__function6__funcIZN6parlay14ThreadSpecificINS3_8internal24intrusive_acquire_retireINS5_12hazptr_stackIPSt4byteE4NodeENS_14default_deleteISB_EELm1EE10ThreadDataEEC1EvEUlmE_NS_9allocatorISH_EEFSF_jEEENS_22__allocator_destructorINSI_ISL_EEEEE7releaseB8ue170006Ev, symObjAddr: 0xBA48, symBinAddr: 0x10000D7B8, symSize: 0x44 }
  - { offset: 0x5F332, size: 0x8, addend: 0x0, symName: __ZNSt3__110unique_ptrINS_10__function6__funcIZN6parlay14ThreadSpecificINS3_8internal24intrusive_acquire_retireINS5_12hazptr_stackIPSt4byteE4NodeENS_14default_deleteISB_EELm1EE10ThreadDataEEC1EvEUlmE_NS_9allocatorISH_EEFSF_jEEENS_22__allocator_destructorINSI_ISL_EEEEED1B8ue170006Ev, symObjAddr: 0xBA8C, symBinAddr: 0x10000D7FC, symSize: 0x2C }
  - { offset: 0x5F35C, size: 0x8, addend: 0x0, symName: __ZNKSt3__117__compressed_pairIZN6parlay14ThreadSpecificINS1_8internal24intrusive_acquire_retireINS3_12hazptr_stackIPSt4byteE4NodeENS_14default_deleteIS9_EELm1EE10ThreadDataEEC1EvEUlmE_NS_9allocatorISF_EEE6secondB8ue170006Ev, symObjAddr: 0xBAB8, symBinAddr: 0x10000D828, symSize: 0x24 }
  - { offset: 0x5F382, size: 0x8, addend: 0x0, symName: __ZNKSt3__122__compressed_pair_elemINS_9allocatorIZN6parlay14ThreadSpecificINS2_8internal24intrusive_acquire_retireINS4_12hazptr_stackIPSt4byteE4NodeENS_14default_deleteISA_EELm1EE10ThreadDataEEC1EvEUlmE_EELi1ELb1EE5__getB8ue170006Ev, symObjAddr: 0xBADC, symBinAddr: 0x10000D84C, symSize: 0x14 }
  - { offset: 0x5F3B3, size: 0x8, addend: 0x0, symName: __ZNSt3__116allocator_traitsINS_9allocatorINS_10__function6__funcIZN6parlay14ThreadSpecificINS4_8internal24intrusive_acquire_retireINS6_12hazptr_stackIPSt4byteE4NodeENS_14default_deleteISC_EELm1EE10ThreadDataEEC1EvEUlmE_NS1_ISI_EEFSG_jEEEEEE8max_sizeB8ue170006ISM_vEEmRKSM_, symObjAddr: 0xBAF0, symBinAddr: 0x10000D860, symSize: 0x24 }
  - { offset: 0x5F3E1, size: 0x8, addend: 0x0, symName: __ZNKSt3__19allocatorINS_10__function6__funcIZN6parlay14ThreadSpecificINS3_8internal24intrusive_acquire_retireINS5_12hazptr_stackIPSt4byteE4NodeENS_14default_deleteISB_EELm1EE10ThreadDataEEC1EvEUlmE_NS0_ISH_EEFSF_jEEEE8max_sizeB8ue170006Ev, symObjAddr: 0xBB14, symBinAddr: 0x10000D884, symSize: 0x14 }
  - { offset: 0x5F407, size: 0x8, addend: 0x0, symName: __ZNSt3__122__allocator_destructorINS_9allocatorINS_10__function6__funcIZN6parlay14ThreadSpecificINS4_8internal24intrusive_acquire_retireINS6_12hazptr_stackIPSt4byteE4NodeENS_14default_deleteISC_EELm1EE10ThreadDataEEC1EvEUlmE_NS1_ISI_EEFSG_jEEEEEEC2B8ue170006ERSM_m, symObjAddr: 0xBB28, symBinAddr: 0x10000D898, symSize: 0x2C }
  - { offset: 0x5F44D, size: 0x8, addend: 0x0, symName: __ZNSt3__110unique_ptrINS_10__function6__funcIZN6parlay14ThreadSpecificINS3_8internal24intrusive_acquire_retireINS5_12hazptr_stackIPSt4byteE4NodeENS_14default_deleteISB_EELm1EE10ThreadDataEEC1EvEUlmE_NS_9allocatorISH_EEFSF_jEEENS_22__allocator_destructorINSI_ISL_EEEEEC2B8ue170006ILb1EvEEPSL_NS_16__dependent_typeINS_27__unique_ptr_deleter_sfinaeISO_EEXT_EE20__good_rval_ref_typeE, symObjAddr: 0xBB54, symBinAddr: 0x10000D8C4, symSize: 0x48 }
  - { offset: 0x5F49E, size: 0x8, addend: 0x0, symName: __ZNSt3__117__compressed_pairIPNS_10__function6__funcIZN6parlay14ThreadSpecificINS3_8internal24intrusive_acquire_retireINS5_12hazptr_stackIPSt4byteE4NodeENS_14default_deleteISB_EELm1EE10ThreadDataEEC1EvEUlmE_NS_9allocatorISH_EEFSF_jEEENS_22__allocator_destructorINSI_ISL_EEEEEC1B8ue170006IRSM_SP_EEOT_OT0_, symObjAddr: 0xBB9C, symBinAddr: 0x10000D90C, symSize: 0x3C }
  - { offset: 0x5F4F6, size: 0x8, addend: 0x0, symName: __ZNSt3__117__compressed_pairIPNS_10__function6__funcIZN6parlay14ThreadSpecificINS3_8internal24intrusive_acquire_retireINS5_12hazptr_stackIPSt4byteE4NodeENS_14default_deleteISB_EELm1EE10ThreadDataEEC1EvEUlmE_NS_9allocatorISH_EEFSF_jEEENS_22__allocator_destructorINSI_ISL_EEEEEC2B8ue170006IRSM_SP_EEOT_OT0_, symObjAddr: 0xBBD8, symBinAddr: 0x10000D948, symSize: 0x48 }
  - { offset: 0x5F54E, size: 0x8, addend: 0x0, symName: __ZNSt3__122__compressed_pair_elemIPNS_10__function6__funcIZN6parlay14ThreadSpecificINS3_8internal24intrusive_acquire_retireINS5_12hazptr_stackIPSt4byteE4NodeENS_14default_deleteISB_EELm1EE10ThreadDataEEC1EvEUlmE_NS_9allocatorISH_EEFSF_jEEELi0ELb0EEC2B8ue170006IRSM_vEEOT_, symObjAddr: 0xBC20, symBinAddr: 0x10000D990, symSize: 0x24 }
  - { offset: 0x5F590, size: 0x8, addend: 0x0, symName: __ZNSt3__122__compressed_pair_elemINS_22__allocator_destructorINS_9allocatorINS_10__function6__funcIZN6parlay14ThreadSpecificINS5_8internal24intrusive_acquire_retireINS7_12hazptr_stackIPSt4byteE4NodeENS_14default_deleteISD_EELm1EE10ThreadDataEEC1EvEUlmE_NS2_ISJ_EEFSH_jEEEEEEELi1ELb0EEC2B8ue170006ISO_vEEOT_, symObjAddr: 0xBC44, symBinAddr: 0x10000D9B4, symSize: 0x24 }
  - { offset: 0x5F5D2, size: 0x8, addend: 0x0, symName: __ZNKSt3__117__compressed_pairIPNS_10__function6__funcIZN6parlay14ThreadSpecificINS3_8internal24intrusive_acquire_retireINS5_12hazptr_stackIPSt4byteE4NodeENS_14default_deleteISB_EELm1EE10ThreadDataEEC1EvEUlmE_NS_9allocatorISH_EEFSF_jEEENS_22__allocator_destructorINSI_ISL_EEEEE5firstB8ue170006Ev, symObjAddr: 0xBC68, symBinAddr: 0x10000D9D8, symSize: 0x24 }
  - { offset: 0x5F5F8, size: 0x8, addend: 0x0, symName: __ZNKSt3__122__compressed_pair_elemIPNS_10__function6__funcIZN6parlay14ThreadSpecificINS3_8internal24intrusive_acquire_retireINS5_12hazptr_stackIPSt4byteE4NodeENS_14default_deleteISB_EELm1EE10ThreadDataEEC1EvEUlmE_NS_9allocatorISH_EEFSF_jEEELi0ELb0EE5__getB8ue170006Ev, symObjAddr: 0xBC8C, symBinAddr: 0x10000D9FC, symSize: 0x14 }
  - { offset: 0x5F61E, size: 0x8, addend: 0x0, symName: __ZNKSt3__117__compressed_pairIZN6parlay14ThreadSpecificINS1_8internal24intrusive_acquire_retireINS3_12hazptr_stackIPSt4byteE4NodeENS_14default_deleteIS9_EELm1EE10ThreadDataEEC1EvEUlmE_NS_9allocatorISF_EEE5firstB8ue170006Ev, symObjAddr: 0xBCA0, symBinAddr: 0x10000DA10, symSize: 0x24 }
  - { offset: 0x5F644, size: 0x8, addend: 0x0, symName: __ZNKSt3__122__compressed_pair_elemIZN6parlay14ThreadSpecificINS1_8internal24intrusive_acquire_retireINS3_12hazptr_stackIPSt4byteE4NodeENS_14default_deleteIS9_EELm1EE10ThreadDataEEC1EvEUlmE_Li0ELb1EE5__getB8ue170006Ev, symObjAddr: 0xBCC4, symBinAddr: 0x10000DA34, symSize: 0x14 }
  - { offset: 0x5F66A, size: 0x8, addend: 0x0, symName: __ZNSt3__110__function6__funcIZN6parlay14ThreadSpecificINS2_8internal24intrusive_acquire_retireINS4_12hazptr_stackIPSt4byteE4NodeENS_14default_deleteISA_EELm1EE10ThreadDataEEC1EvEUlmE_NS_9allocatorISG_EEFSE_jEEC2B8ue170006ERKSG_OSI_, symObjAddr: 0xBCD8, symBinAddr: 0x10000DA48, symSize: 0x80 }
  - { offset: 0x5F6B2, size: 0x8, addend: 0x0, symName: __ZNSt3__110__function12__alloc_funcIZN6parlay14ThreadSpecificINS2_8internal24intrusive_acquire_retireINS4_12hazptr_stackIPSt4byteE4NodeENS_14default_deleteISA_EELm1EE10ThreadDataEEC1EvEUlmE_NS_9allocatorISG_EEFSE_jEEC1B8ue170006ERKSG_OSI_, symObjAddr: 0xBD58, symBinAddr: 0x10000DAC8, symSize: 0x3C }
  - { offset: 0x5F6F8, size: 0x8, addend: 0x0, symName: __ZNSt3__110__function12__alloc_funcIZN6parlay14ThreadSpecificINS2_8internal24intrusive_acquire_retireINS4_12hazptr_stackIPSt4byteE4NodeENS_14default_deleteISA_EELm1EE10ThreadDataEEC1EvEUlmE_NS_9allocatorISG_EEFSE_jEEC2B8ue170006ERKSG_OSI_, symObjAddr: 0xBD94, symBinAddr: 0x10000DB04, symSize: 0x5C }
  - { offset: 0x5F73E, size: 0x8, addend: 0x0, symName: __ZNSt3__117__compressed_pairIZN6parlay14ThreadSpecificINS1_8internal24intrusive_acquire_retireINS3_12hazptr_stackIPSt4byteE4NodeENS_14default_deleteIS9_EELm1EE10ThreadDataEEC1EvEUlmE_NS_9allocatorISF_EEEC1B8ue170006IJRKSF_EJOSH_EEENS_21piecewise_construct_tENS_5tupleIJDpT_EEENSO_IJDpT0_EEE, symObjAddr: 0xBE1C, symBinAddr: 0x10000DB8C, symSize: 0x3C }
  - { offset: 0x5F7A8, size: 0x8, addend: 0x0, symName: __ZNSt3__15tupleIJRKZN6parlay14ThreadSpecificINS1_8internal24intrusive_acquire_retireINS3_12hazptr_stackIPSt4byteE4NodeENS_14default_deleteIS9_EELm1EE10ThreadDataEEC1EvEUlmE_EEC1B8ue170006INS_4_AndELi0EEESH_, symObjAddr: 0xBE58, symBinAddr: 0x10000DBC8, symSize: 0x34 }
  - { offset: 0x5F7F1, size: 0x8, addend: 0x0, symName: __ZNSt3__15tupleIJRKZN6parlay14ThreadSpecificINS1_8internal24intrusive_acquire_retireINS3_12hazptr_stackIPSt4byteE4NodeENS_14default_deleteIS9_EELm1EE10ThreadDataEEC1EvEUlmE_EEC2B8ue170006INS_4_AndELi0EEESH_, symObjAddr: 0xBE8C, symBinAddr: 0x10000DBFC, symSize: 0x34 }
  - { offset: 0x5F83A, size: 0x8, addend: 0x0, symName: __ZNSt3__112__tuple_implINS_15__tuple_indicesIJLm0EEEEJRKZN6parlay14ThreadSpecificINS3_8internal24intrusive_acquire_retireINS5_12hazptr_stackIPSt4byteE4NodeENS_14default_deleteISB_EELm1EE10ThreadDataEEC1EvEUlmE_EEC1B8ue170006IJLm0EEJSJ_EJEJEJSJ_EEENS1_IJXspT_EEEENS_13__tuple_typesIJDpT0_EEENS1_IJXspT1_EEEENSN_IJDpT2_EEEDpOT3_, symObjAddr: 0xBEC0, symBinAddr: 0x10000DC30, symSize: 0x34 }
  - { offset: 0x5F8CB, size: 0x8, addend: 0x0, symName: __ZNSt3__112__tuple_implINS_15__tuple_indicesIJLm0EEEEJRKZN6parlay14ThreadSpecificINS3_8internal24intrusive_acquire_retireINS5_12hazptr_stackIPSt4byteE4NodeENS_14default_deleteISB_EELm1EE10ThreadDataEEC1EvEUlmE_EEC2B8ue170006IJLm0EEJSJ_EJEJEJSJ_EEENS1_IJXspT_EEEENS_13__tuple_typesIJDpT0_EEENS1_IJXspT1_EEEENSN_IJDpT2_EEEDpOT3_, symObjAddr: 0xBEF4, symBinAddr: 0x10000DC64, symSize: 0x34 }
  - { offset: 0x5F95C, size: 0x8, addend: 0x0, symName: __ZNSt3__112__tuple_leafILm0ERKZN6parlay14ThreadSpecificINS1_8internal24intrusive_acquire_retireINS3_12hazptr_stackIPSt4byteE4NodeENS_14default_deleteIS9_EELm1EE10ThreadDataEEC1EvEUlmE_Lb0EEC2B8ue170006ISH_vEEOT_, symObjAddr: 0xBF28, symBinAddr: 0x10000DC98, symSize: 0x20 }
  - { offset: 0x5F99F, size: 0x8, addend: 0x0, symName: __ZNSt3__117__compressed_pairIZN6parlay14ThreadSpecificINS1_8internal24intrusive_acquire_retireINS3_12hazptr_stackIPSt4byteE4NodeENS_14default_deleteIS9_EELm1EE10ThreadDataEEC1EvEUlmE_NS_9allocatorISF_EEEC2B8ue170006IJRKSF_EJOSH_EEENS_21piecewise_construct_tENS_5tupleIJDpT_EEENSO_IJDpT0_EEE, symObjAddr: 0xBF48, symBinAddr: 0x10000DCB8, symSize: 0x54 }
  - { offset: 0x5FA09, size: 0x8, addend: 0x0, symName: __ZNSt3__122__compressed_pair_elemIZN6parlay14ThreadSpecificINS1_8internal24intrusive_acquire_retireINS3_12hazptr_stackIPSt4byteE4NodeENS_14default_deleteIS9_EELm1EE10ThreadDataEEC1EvEUlmE_Li0ELb1EEC2B8ue170006IJRKSF_EJLm0EEEENS_21piecewise_construct_tENS_5tupleIJDpT_EEENS_15__tuple_indicesIJXspT0_EEEE, symObjAddr: 0xBF9C, symBinAddr: 0x10000DD0C, symSize: 0x38 }
  - { offset: 0x5FA6E, size: 0x8, addend: 0x0, symName: __ZNSt3__112__tuple_leafILm0ERKZN6parlay14ThreadSpecificINS1_8internal24intrusive_acquire_retireINS3_12hazptr_stackIPSt4byteE4NodeENS_14default_deleteIS9_EELm1EE10ThreadDataEEC1EvEUlmE_Lb0EE3getB8ue170006Ev, symObjAddr: 0xBFF8, symBinAddr: 0x10000DD68, symSize: 0x18 }
  - { offset: 0x5FA94, size: 0x8, addend: 0x0, symName: __ZNSt3__117__compressed_pairIPNS_10__function6__funcIZN6parlay14ThreadSpecificINS3_8internal24intrusive_acquire_retireINS5_12hazptr_stackIPSt4byteE4NodeENS_14default_deleteISB_EELm1EE10ThreadDataEEC1EvEUlmE_NS_9allocatorISH_EEFSF_jEEENS_22__allocator_destructorINSI_ISL_EEEEE5firstB8ue170006Ev, symObjAddr: 0xC010, symBinAddr: 0x10000DD80, symSize: 0x24 }
  - { offset: 0x5FABA, size: 0x8, addend: 0x0, symName: __ZNSt3__122__compressed_pair_elemIPNS_10__function6__funcIZN6parlay14ThreadSpecificINS3_8internal24intrusive_acquire_retireINS5_12hazptr_stackIPSt4byteE4NodeENS_14default_deleteISB_EELm1EE10ThreadDataEEC1EvEUlmE_NS_9allocatorISH_EEFSF_jEEELi0ELb0EE5__getB8ue170006Ev, symObjAddr: 0xC034, symBinAddr: 0x10000DDA4, symSize: 0x14 }
  - { offset: 0x5FAE0, size: 0x8, addend: 0x0, symName: __ZNSt3__110unique_ptrINS_10__function6__funcIZN6parlay14ThreadSpecificINS3_8internal24intrusive_acquire_retireINS5_12hazptr_stackIPSt4byteE4NodeENS_14default_deleteISB_EELm1EE10ThreadDataEEC1EvEUlmE_NS_9allocatorISH_EEFSF_jEEENS_22__allocator_destructorINSI_ISL_EEEEED2B8ue170006Ev, symObjAddr: 0xC048, symBinAddr: 0x10000DDB8, symSize: 0x30 }
  - { offset: 0x5FB0A, size: 0x8, addend: 0x0, symName: __ZNSt3__110unique_ptrINS_10__function6__funcIZN6parlay14ThreadSpecificINS3_8internal24intrusive_acquire_retireINS5_12hazptr_stackIPSt4byteE4NodeENS_14default_deleteISB_EELm1EE10ThreadDataEEC1EvEUlmE_NS_9allocatorISH_EEFSF_jEEENS_22__allocator_destructorINSI_ISL_EEEEE5resetB8ue170006EPSL_, symObjAddr: 0xC078, symBinAddr: 0x10000DDE8, symSize: 0x78 }
  - { offset: 0x5FB4E, size: 0x8, addend: 0x0, symName: __ZNSt3__117__compressed_pairIPNS_10__function6__funcIZN6parlay14ThreadSpecificINS3_8internal24intrusive_acquire_retireINS5_12hazptr_stackIPSt4byteE4NodeENS_14default_deleteISB_EELm1EE10ThreadDataEEC1EvEUlmE_NS_9allocatorISH_EEFSF_jEEENS_22__allocator_destructorINSI_ISL_EEEEE6secondB8ue170006Ev, symObjAddr: 0xC0F0, symBinAddr: 0x10000DE60, symSize: 0x28 }
  - { offset: 0x5FB74, size: 0x8, addend: 0x0, symName: __ZNSt3__122__allocator_destructorINS_9allocatorINS_10__function6__funcIZN6parlay14ThreadSpecificINS4_8internal24intrusive_acquire_retireINS6_12hazptr_stackIPSt4byteE4NodeENS_14default_deleteISC_EELm1EE10ThreadDataEEC1EvEUlmE_NS1_ISI_EEFSG_jEEEEEEclB8ue170006EPSL_, symObjAddr: 0xC118, symBinAddr: 0x10000DE88, symSize: 0x34 }
  - { offset: 0x5FBA8, size: 0x8, addend: 0x0, symName: __ZNSt3__122__compressed_pair_elemINS_22__allocator_destructorINS_9allocatorINS_10__function6__funcIZN6parlay14ThreadSpecificINS5_8internal24intrusive_acquire_retireINS7_12hazptr_stackIPSt4byteE4NodeENS_14default_deleteISD_EELm1EE10ThreadDataEEC1EvEUlmE_NS2_ISJ_EEFSH_jEEEEEEELi1ELb0EE5__getB8ue170006Ev, symObjAddr: 0xC14C, symBinAddr: 0x10000DEBC, symSize: 0x14 }
  - { offset: 0x5FBCE, size: 0x8, addend: 0x0, symName: __ZNSt3__116allocator_traitsINS_9allocatorINS_10__function6__funcIZN6parlay14ThreadSpecificINS4_8internal24intrusive_acquire_retireINS6_12hazptr_stackIPSt4byteE4NodeENS_14default_deleteISC_EELm1EE10ThreadDataEEC1EvEUlmE_NS1_ISI_EEFSG_jEEEEEE10deallocateB8ue170006ERSM_PSL_m, symObjAddr: 0xC160, symBinAddr: 0x10000DED0, symSize: 0x34 }
  - { offset: 0x5FC10, size: 0x8, addend: 0x0, symName: __ZNSt3__19allocatorINS_10__function6__funcIZN6parlay14ThreadSpecificINS3_8internal24intrusive_acquire_retireINS5_12hazptr_stackIPSt4byteE4NodeENS_14default_deleteISB_EELm1EE10ThreadDataEEC1EvEUlmE_NS0_ISH_EEFSF_jEEEE10deallocateB8ue170006EPSK_m, symObjAddr: 0xC194, symBinAddr: 0x10000DF04, symSize: 0x40 }
  - { offset: 0x5FC52, size: 0x8, addend: 0x0, symName: __ZNSt3__110__function6__funcIZN6parlay14ThreadSpecificINS2_8internal24intrusive_acquire_retireINS4_12hazptr_stackIPSt4byteE4NodeENS_14default_deleteISA_EELm1EE10ThreadDataEEC1EvEUlmE_NS_9allocatorISG_EEFSE_jEEC1B8ue170006ERKSG_RKSI_, symObjAddr: 0xC1D4, symBinAddr: 0x10000DF44, symSize: 0x3C }
  - { offset: 0x5FC9A, size: 0x8, addend: 0x0, symName: __ZNSt3__110__function6__funcIZN6parlay14ThreadSpecificINS2_8internal24intrusive_acquire_retireINS4_12hazptr_stackIPSt4byteE4NodeENS_14default_deleteISA_EELm1EE10ThreadDataEEC1EvEUlmE_NS_9allocatorISG_EEFSE_jEEC2B8ue170006ERKSG_RKSI_, symObjAddr: 0xC210, symBinAddr: 0x10000DF80, symSize: 0x80 }
  - { offset: 0x5FCE2, size: 0x8, addend: 0x0, symName: __ZNSt3__110__function12__alloc_funcIZN6parlay14ThreadSpecificINS2_8internal24intrusive_acquire_retireINS4_12hazptr_stackIPSt4byteE4NodeENS_14default_deleteISA_EELm1EE10ThreadDataEEC1EvEUlmE_NS_9allocatorISG_EEFSE_jEEC1B8ue170006ERKSG_RKSI_, symObjAddr: 0xC290, symBinAddr: 0x10000E000, symSize: 0x3C }
  - { offset: 0x5FD28, size: 0x8, addend: 0x0, symName: __ZNSt3__110__function12__alloc_funcIZN6parlay14ThreadSpecificINS2_8internal24intrusive_acquire_retireINS4_12hazptr_stackIPSt4byteE4NodeENS_14default_deleteISA_EELm1EE10ThreadDataEEC1EvEUlmE_NS_9allocatorISG_EEFSE_jEEC2B8ue170006ERKSG_RKSI_, symObjAddr: 0xC2CC, symBinAddr: 0x10000E03C, symSize: 0x5C }
  - { offset: 0x5FD6E, size: 0x8, addend: 0x0, symName: __ZNSt3__117__compressed_pairIZN6parlay14ThreadSpecificINS1_8internal24intrusive_acquire_retireINS3_12hazptr_stackIPSt4byteE4NodeENS_14default_deleteIS9_EELm1EE10ThreadDataEEC1EvEUlmE_NS_9allocatorISF_EEEC1B8ue170006IJRKSF_EJRKSH_EEENS_21piecewise_construct_tENS_5tupleIJDpT_EEENSP_IJDpT0_EEE, symObjAddr: 0xC354, symBinAddr: 0x10000E0C4, symSize: 0x3C }
  - { offset: 0x5FDD8, size: 0x8, addend: 0x0, symName: __ZNSt3__15tupleIJRKNS_9allocatorIZN6parlay14ThreadSpecificINS2_8internal24intrusive_acquire_retireINS4_12hazptr_stackIPSt4byteE4NodeENS_14default_deleteISA_EELm1EE10ThreadDataEEC1EvEUlmE_EEEEC1B8ue170006INS_4_AndELi0EEESJ_, symObjAddr: 0xC390, symBinAddr: 0x10000E100, symSize: 0x34 }
  - { offset: 0x5FE21, size: 0x8, addend: 0x0, symName: __ZNSt3__15tupleIJRKNS_9allocatorIZN6parlay14ThreadSpecificINS2_8internal24intrusive_acquire_retireINS4_12hazptr_stackIPSt4byteE4NodeENS_14default_deleteISA_EELm1EE10ThreadDataEEC1EvEUlmE_EEEEC2B8ue170006INS_4_AndELi0EEESJ_, symObjAddr: 0xC3C4, symBinAddr: 0x10000E134, symSize: 0x34 }
  - { offset: 0x5FE6A, size: 0x8, addend: 0x0, symName: __ZNSt3__112__tuple_implINS_15__tuple_indicesIJLm0EEEEJRKNS_9allocatorIZN6parlay14ThreadSpecificINS4_8internal24intrusive_acquire_retireINS6_12hazptr_stackIPSt4byteE4NodeENS_14default_deleteISC_EELm1EE10ThreadDataEEC1EvEUlmE_EEEEC1B8ue170006IJLm0EEJSL_EJEJEJSL_EEENS1_IJXspT_EEEENS_13__tuple_typesIJDpT0_EEENS1_IJXspT1_EEEENSP_IJDpT2_EEEDpOT3_, symObjAddr: 0xC3F8, symBinAddr: 0x10000E168, symSize: 0x34 }
  - { offset: 0x5FEFB, size: 0x8, addend: 0x0, symName: __ZNSt3__112__tuple_implINS_15__tuple_indicesIJLm0EEEEJRKNS_9allocatorIZN6parlay14ThreadSpecificINS4_8internal24intrusive_acquire_retireINS6_12hazptr_stackIPSt4byteE4NodeENS_14default_deleteISC_EELm1EE10ThreadDataEEC1EvEUlmE_EEEEC2B8ue170006IJLm0EEJSL_EJEJEJSL_EEENS1_IJXspT_EEEENS_13__tuple_typesIJDpT0_EEENS1_IJXspT1_EEEENSP_IJDpT2_EEEDpOT3_, symObjAddr: 0xC42C, symBinAddr: 0x10000E19C, symSize: 0x34 }
  - { offset: 0x5FF8C, size: 0x8, addend: 0x0, symName: __ZNSt3__112__tuple_leafILm0ERKNS_9allocatorIZN6parlay14ThreadSpecificINS2_8internal24intrusive_acquire_retireINS4_12hazptr_stackIPSt4byteE4NodeENS_14default_deleteISA_EELm1EE10ThreadDataEEC1EvEUlmE_EELb0EEC2B8ue170006ISJ_vEEOT_, symObjAddr: 0xC460, symBinAddr: 0x10000E1D0, symSize: 0x20 }
  - { offset: 0x5FFCF, size: 0x8, addend: 0x0, symName: __ZNSt3__117__compressed_pairIZN6parlay14ThreadSpecificINS1_8internal24intrusive_acquire_retireINS3_12hazptr_stackIPSt4byteE4NodeENS_14default_deleteIS9_EELm1EE10ThreadDataEEC1EvEUlmE_NS_9allocatorISF_EEEC2B8ue170006IJRKSF_EJRKSH_EEENS_21piecewise_construct_tENS_5tupleIJDpT_EEENSP_IJDpT0_EEE, symObjAddr: 0xC480, symBinAddr: 0x10000E1F0, symSize: 0x54 }
  - { offset: 0x60039, size: 0x8, addend: 0x0, symName: __ZNSt3__122__compressed_pair_elemINS_9allocatorIZN6parlay14ThreadSpecificINS2_8internal24intrusive_acquire_retireINS4_12hazptr_stackIPSt4byteE4NodeENS_14default_deleteISA_EELm1EE10ThreadDataEEC1EvEUlmE_EELi1ELb1EEC2B8ue170006IJRKSH_EJLm0EEEENS_21piecewise_construct_tENS_5tupleIJDpT_EEENS_15__tuple_indicesIJXspT0_EEEE, symObjAddr: 0xC4D4, symBinAddr: 0x10000E244, symSize: 0x38 }
  - { offset: 0x6009E, size: 0x8, addend: 0x0, symName: __ZNSt3__112__tuple_leafILm0ERKNS_9allocatorIZN6parlay14ThreadSpecificINS2_8internal24intrusive_acquire_retireINS4_12hazptr_stackIPSt4byteE4NodeENS_14default_deleteISA_EELm1EE10ThreadDataEEC1EvEUlmE_EELb0EE3getB8ue170006Ev, symObjAddr: 0xC530, symBinAddr: 0x10000E2A0, symSize: 0x18 }
  - { offset: 0x600C4, size: 0x8, addend: 0x0, symName: __ZNSt3__110__function12__alloc_funcIZN6parlay14ThreadSpecificINS2_8internal24intrusive_acquire_retireINS4_12hazptr_stackIPSt4byteE4NodeENS_14default_deleteISA_EELm1EE10ThreadDataEEC1EvEUlmE_NS_9allocatorISG_EEFSE_jEE7destroyB8ue170006Ev, symObjAddr: 0xC548, symBinAddr: 0x10000E2B8, symSize: 0x10 }
  - { offset: 0x600EA, size: 0x8, addend: 0x0, symName: __ZNSt3__110__function12__alloc_funcIZN6parlay14ThreadSpecificINS2_8internal24intrusive_acquire_retireINS4_12hazptr_stackIPSt4byteE4NodeENS_14default_deleteISA_EELm1EE10ThreadDataEEC1EvEUlmE_NS_9allocatorISG_EEFSE_jEEclB8ue170006EOj, symObjAddr: 0xC558, symBinAddr: 0x10000E2C8, symSize: 0x3C }
  - { offset: 0x6011E, size: 0x8, addend: 0x0, symName: __ZNSt3__128__invoke_void_return_wrapperIN6parlay8internal24intrusive_acquire_retireINS2_12hazptr_stackIPSt4byteE4NodeENS_14default_deleteIS8_EELm1EE10ThreadDataELb0EE6__callB8ue170006IJRZNS1_14ThreadSpecificISC_EC1EvEUlmE_jEEESC_DpOT_, symObjAddr: 0xC594, symBinAddr: 0x10000E304, symSize: 0x34 }
  - { offset: 0x60161, size: 0x8, addend: 0x0, symName: __ZNSt3__117__compressed_pairIZN6parlay14ThreadSpecificINS1_8internal24intrusive_acquire_retireINS3_12hazptr_stackIPSt4byteE4NodeENS_14default_deleteIS9_EELm1EE10ThreadDataEEC1EvEUlmE_NS_9allocatorISF_EEE5firstB8ue170006Ev, symObjAddr: 0xC5C8, symBinAddr: 0x10000E338, symSize: 0x24 }
  - { offset: 0x6018C, size: 0x8, addend: 0x0, symName: __ZZN6parlay14ThreadSpecificINS_8internal24intrusive_acquire_retireINS1_12hazptr_stackIPSt4byteE4NodeENSt3__114default_deleteIS7_EELm1EE10ThreadDataEEC1EvENKUlmE_clEm, symObjAddr: 0xC628, symBinAddr: 0x10000E398, symSize: 0x58 }
  - { offset: 0x601C1, size: 0x8, addend: 0x0, symName: __ZN6parlay8internal24intrusive_acquire_retireINS0_12hazptr_stackIPSt4byteE4NodeENSt3__114default_deleteIS6_EELm1EE11RetiredListC1Ev, symObjAddr: 0xC680, symBinAddr: 0x10000E3F0, symSize: 0x2C }
  - { offset: 0x601EB, size: 0x8, addend: 0x0, symName: __ZN6parlay8internal24intrusive_acquire_retireINS0_12hazptr_stackIPSt4byteE4NodeENSt3__114default_deleteIS6_EELm1EE11RetiredListC2Ev, symObjAddr: 0xC6AC, symBinAddr: 0x10000E41C, symSize: 0x1C }
  - { offset: 0x60215, size: 0x8, addend: 0x0, symName: __ZNSt3__122__compressed_pair_elemIZN6parlay14ThreadSpecificINS1_8internal24intrusive_acquire_retireINS3_12hazptr_stackIPSt4byteE4NodeENS_14default_deleteIS9_EELm1EE10ThreadDataEEC1EvEUlmE_Li0ELb1EE5__getB8ue170006Ev, symObjAddr: 0xC6C8, symBinAddr: 0x10000E438, symSize: 0x14 }
  - { offset: 0x6023B, size: 0x8, addend: 0x0, symName: __ZNSt3__15arrayINS_6atomicIPN6parlay8internal13UninitializedINS3_24intrusive_acquire_retireINS3_12hazptr_stackIPSt4byteE4NodeENS_14default_deleteISA_EELm1EE10ThreadDataEEEEELm25EEixB8ue170006Em, symObjAddr: 0xC6DC, symBinAddr: 0x10000E44C, symSize: 0x20 }
  - { offset: 0x6026F, size: 0x8, addend: 0x0, symName: __ZNSt3__113__atomic_baseIPN6parlay8internal13UninitializedINS2_24intrusive_acquire_retireINS2_12hazptr_stackIPSt4byteE4NodeENS_14default_deleteIS9_EELm1EE10ThreadDataEEELb0EE5storeB8ue170006ESF_NS_12memory_orderE, symObjAddr: 0xC6FC, symBinAddr: 0x10000E46C, symSize: 0x34 }
  - { offset: 0x602B1, size: 0x8, addend: 0x0, symName: __ZN6parlay8internal13UninitializedINS0_24intrusive_acquire_retireINS0_12hazptr_stackIPSt4byteE4NodeENSt3__114default_deleteIS7_EELm1EE10ThreadDataEEC1Ev, symObjAddr: 0xC730, symBinAddr: 0x10000E4A0, symSize: 0x2C }
  - { offset: 0x602DB, size: 0x8, addend: 0x0, symName: __ZNSt3__15arrayINS_6atomicIPN6parlay8internal13UninitializedINS3_24intrusive_acquire_retireINS3_12hazptr_stackIPSt4byteE4NodeENS_14default_deleteISA_EELm1EE10ThreadDataEEEEELm25EE5beginB8ue170006Ev, symObjAddr: 0xC790, symBinAddr: 0x10000E500, symSize: 0x24 }
  - { offset: 0x60301, size: 0x8, addend: 0x0, symName: __ZNSt3__15arrayINS_6atomicIPN6parlay8internal13UninitializedINS3_24intrusive_acquire_retireINS3_12hazptr_stackIPSt4byteE4NodeENS_14default_deleteISA_EELm1EE10ThreadDataEEEEELm25EE3endB8ue170006Ev, symObjAddr: 0xC7B4, symBinAddr: 0x10000E524, symSize: 0x28 }
  - { offset: 0x60327, size: 0x8, addend: 0x0, symName: __ZNKSt3__113__atomic_baseIPN6parlay8internal13UninitializedINS2_24intrusive_acquire_retireINS2_12hazptr_stackIPSt4byteE4NodeENS_14default_deleteIS9_EELm1EE10ThreadDataEEELb0EE4loadB8ue170006ENS_12memory_orderE, symObjAddr: 0xC7DC, symBinAddr: 0x10000E54C, symSize: 0x2C }
  - { offset: 0x6035B, size: 0x8, addend: 0x0, symName: __ZN6parlay8internal13UninitializedINS0_24intrusive_acquire_retireINS0_12hazptr_stackIPSt4byteE4NodeENSt3__114default_deleteIS7_EELm1EE10ThreadDataEE3getEv, symObjAddr: 0xC808, symBinAddr: 0x10000E578, symSize: 0x14 }
  - { offset: 0x60381, size: 0x8, addend: 0x0, symName: __ZNKSt3__18functionIFN6parlay8internal24intrusive_acquire_retireINS2_12hazptr_stackIPSt4byteE4NodeENS_14default_deleteIS8_EELm1EE10ThreadDataEjEEclEj, symObjAddr: 0xC81C, symBinAddr: 0x10000E58C, symSize: 0x38 }
  - { offset: 0x603B8, size: 0x8, addend: 0x0, symName: __ZN6parlay8internal13UninitializedINS0_24intrusive_acquire_retireINS0_12hazptr_stackIPSt4byteE4NodeENSt3__114default_deleteIS7_EELm1EE10ThreadDataEEC2Ev, symObjAddr: 0xC8D8, symBinAddr: 0x10000E648, symSize: 0x14 }
  - { offset: 0x603E2, size: 0x8, addend: 0x0, symName: __ZNSt3__16atomicIPN6parlay8internal13UninitializedINS2_24intrusive_acquire_retireINS2_12hazptr_stackIPSt4byteE4NodeENS_14default_deleteIS9_EELm1EE10ThreadDataEEEEaSB8ue170006ESF_, symObjAddr: 0xC9E0, symBinAddr: 0x10000E750, symSize: 0x34 }
  - { offset: 0x60416, size: 0x8, addend: 0x0, symName: __ZNSt3__15arrayINS_6atomicIPN6parlay8internal13UninitializedINS3_24intrusive_acquire_retireINS3_12hazptr_stackIPSt4byteE4NodeENS_14default_deleteISA_EELm1EE10ThreadDataEEEEELm25EE4dataB8ue170006Ev, symObjAddr: 0xCA14, symBinAddr: 0x10000E784, symSize: 0x14 }
  - { offset: 0x6043C, size: 0x8, addend: 0x0, symName: __ZNKSt3__110__function12__value_funcIFN6parlay8internal24intrusive_acquire_retireINS3_12hazptr_stackIPSt4byteE4NodeENS_14default_deleteIS9_EELm1EE10ThreadDataEjEEclB8ue170006EOj, symObjAddr: 0xCAA8, symBinAddr: 0x10000E818, symSize: 0x64 }
  - { offset: 0x60471, size: 0x8, addend: 0x0, symName: __ZNSt3__18functionIFN6parlay8internal24intrusive_acquire_retireINS2_12hazptr_stackIPSt4byteE4NodeENS_14default_deleteIS8_EELm1EE10ThreadDataEjEED2Ev, symObjAddr: 0xCB0C, symBinAddr: 0x10000E87C, symSize: 0x2C }
  - { offset: 0x6049D, size: 0x8, addend: 0x0, symName: __ZNSt3__110__function12__value_funcIFN6parlay8internal24intrusive_acquire_retireINS3_12hazptr_stackIPSt4byteE4NodeENS_14default_deleteIS9_EELm1EE10ThreadDataEjEED1B8ue170006Ev, symObjAddr: 0xCB38, symBinAddr: 0x10000E8A8, symSize: 0x2C }
  - { offset: 0x604C7, size: 0x8, addend: 0x0, symName: __ZNSt3__110__function12__value_funcIFN6parlay8internal24intrusive_acquire_retireINS3_12hazptr_stackIPSt4byteE4NodeENS_14default_deleteIS9_EELm1EE10ThreadDataEjEED2B8ue170006Ev, symObjAddr: 0xCB64, symBinAddr: 0x10000E8D4, symSize: 0x90 }
  - { offset: 0x604F1, size: 0x8, addend: 0x0, symName: __ZN6parlay8internal24intrusive_acquire_retireINS0_12hazptr_stackIPSt4byteE4NodeENSt3__114default_deleteIS6_EELm1EED2Ev, symObjAddr: 0xCBF4, symBinAddr: 0x10000E964, symSize: 0x80 }
  - { offset: 0x60591, size: 0x8, addend: 0x0, symName: __ZN6parlay14ThreadSpecificINS_8internal24intrusive_acquire_retireINS1_12hazptr_stackIPSt4byteE4NodeENSt3__114default_deleteIS7_EELm1EE10ThreadDataEE8for_eachIZNSB_D1EvEUlRT_E_EEvOSF_, symObjAddr: 0xCC74, symBinAddr: 0x10000E9E4, symSize: 0x180 }
  - { offset: 0x60657, size: 0x8, addend: 0x0, symName: __ZN6parlay14ThreadSpecificINS_8internal24intrusive_acquire_retireINS1_12hazptr_stackIPSt4byteE4NodeENSt3__114default_deleteIS7_EELm1EE10ThreadDataEE8for_eachIZNSB_D1EvEUlOT_E_EEvSG_, symObjAddr: 0xCDF4, symBinAddr: 0x10000EB64, symSize: 0x180 }
  - { offset: 0x60712, size: 0x8, addend: 0x0, symName: __ZN6parlay14ThreadSpecificINS_8internal24intrusive_acquire_retireINS1_12hazptr_stackIPSt4byteE4NodeENSt3__114default_deleteIS7_EELm1EE10ThreadDataEED1Ev, symObjAddr: 0xCF74, symBinAddr: 0x10000ECE4, symSize: 0x2C }
  - { offset: 0x6073C, size: 0x8, addend: 0x0, symName: __ZN6parlay14ThreadSpecificINS_8internal24intrusive_acquire_retireINS1_12hazptr_stackIPSt4byteE4NodeENSt3__114default_deleteIS7_EELm1EE10ThreadDataEE14get_chunk_sizeEm, symObjAddr: 0xCFA0, symBinAddr: 0x10000ED10, symSize: 0xA0 }
  - { offset: 0x60760, size: 0x8, addend: 0x0, symName: __ZNK6parlay14ThreadSpecificINS_8internal24intrusive_acquire_retireINS1_12hazptr_stackIPSt4byteE4NodeENSt3__114default_deleteIS7_EELm1EE10ThreadDataEE19ensure_chunk_existsEm, symObjAddr: 0xD040, symBinAddr: 0x10000EDB0, symSize: 0x1DC }
  - { offset: 0x607F0, size: 0x8, addend: 0x0, symName: __ZZN6parlay8internal24intrusive_acquire_retireINS0_12hazptr_stackIPSt4byteE4NodeENSt3__114default_deleteIS6_EELm1EED1EvENKUlRT_E_clINSA_10ThreadDataEEEDaSC_, symObjAddr: 0xD21C, symBinAddr: 0x10000EF8C, symSize: 0x20 }
  - { offset: 0x60831, size: 0x8, addend: 0x0, symName: __ZN6parlay8internal13UninitializedINS0_24intrusive_acquire_retireINS0_12hazptr_stackIPSt4byteE4NodeENSt3__114default_deleteIS7_EELm1EE10ThreadDataEEdeEv, symObjAddr: 0xD23C, symBinAddr: 0x10000EFAC, symSize: 0x14 }
  - { offset: 0x60861, size: 0x8, addend: 0x0, symName: __ZZN6parlay8internal24intrusive_acquire_retireINS0_12hazptr_stackIPSt4byteE4NodeENSt3__114default_deleteIS6_EELm1EED1EvENKUlOT_E_clIRNSA_10ThreadDataEEEDaSC_, symObjAddr: 0xD250, symBinAddr: 0x10000EFC0, symSize: 0x74 }
  - { offset: 0x608C8, size: 0x8, addend: 0x0, symName: __ZNK6parlay8internal24intrusive_acquire_retireINS0_12hazptr_stackIPSt4byteE4NodeENSt3__114default_deleteIS6_EELm1EE11RetiredList8get_sizeEv, symObjAddr: 0xD2C4, symBinAddr: 0x10000F034, symSize: 0x18 }
  - { offset: 0x608FA, size: 0x8, addend: 0x0, symName: __ZN6parlay8internal24intrusive_acquire_retireINS0_12hazptr_stackIPSt4byteE4NodeENSt3__114default_deleteIS6_EELm1EE11RetiredList7cleanupIZZNSA_D1EvENKUlOT_E_clIRNSA_10ThreadDataEEEDaSE_EUlSE_E_EEvSE_RS9_, symObjAddr: 0xD2DC, symBinAddr: 0x10000F04C, symSize: 0x188 }
  - { offset: 0x609B1, size: 0x8, addend: 0x0, symName: __ZZZN6parlay8internal24intrusive_acquire_retireINS0_12hazptr_stackIPSt4byteE4NodeENSt3__114default_deleteIS6_EELm1EED1EvENKUlOT_E_clIRNSA_10ThreadDataEEEDaSC_ENKUlSC_E_clIRPS6_EESH_SC_, symObjAddr: 0xD464, symBinAddr: 0x10000F1D4, symSize: 0x1C }
  - { offset: 0x609EF, size: 0x8, addend: 0x0, symName: __ZNKSt3__114default_deleteIN6parlay8internal12hazptr_stackIPSt4byteE4NodeEEclB8ue170006EPS7_, symObjAddr: 0xD4CC, symBinAddr: 0x10000F23C, symSize: 0x44 }
  - { offset: 0x60A23, size: 0x8, addend: 0x0, symName: __ZN6parlay14ThreadSpecificINS_8internal24intrusive_acquire_retireINS1_12hazptr_stackIPSt4byteE4NodeENSt3__114default_deleteIS7_EELm1EE10ThreadDataEED2Ev, symObjAddr: 0xD530, symBinAddr: 0x10000F2A0, symSize: 0x11C }
  - { offset: 0x60A9B, size: 0x8, addend: 0x0, symName: __ZNKSt3__113__atomic_baseIPN6parlay8internal13UninitializedINS2_24intrusive_acquire_retireINS2_12hazptr_stackIPSt4byteE4NodeENS_14default_deleteIS9_EELm1EE10ThreadDataEEELb0EEcvSF_B8ue170006Ev, symObjAddr: 0xD64C, symBinAddr: 0x10000F3BC, symSize: 0x28 }
  - { offset: 0x60AC1, size: 0x8, addend: 0x0, symName: __ZN6parlay8internal13UninitializedINS0_24intrusive_acquire_retireINS0_12hazptr_stackIPSt4byteE4NodeENSt3__114default_deleteIS7_EELm1EE10ThreadDataEED1Ev, symObjAddr: 0xD674, symBinAddr: 0x10000F3E4, symSize: 0x2C }
  - { offset: 0x60AEB, size: 0x8, addend: 0x0, symName: __ZN6parlay8internal13UninitializedINS0_24intrusive_acquire_retireINS0_12hazptr_stackIPSt4byteE4NodeENSt3__114default_deleteIS7_EELm1EE10ThreadDataEED2Ev, symObjAddr: 0xD6A0, symBinAddr: 0x10000F410, symSize: 0x2C }
  - { offset: 0x60B1A, size: 0x8, addend: 0x0, symName: __ZN6parlay8internal24intrusive_acquire_retireINS0_12hazptr_stackIPSt4byteE4NodeENSt3__114default_deleteIS6_EELm1EE10ThreadDataD1Ev, symObjAddr: 0xD6CC, symBinAddr: 0x10000F43C, symSize: 0x2C }
  - { offset: 0x60B46, size: 0x8, addend: 0x0, symName: __ZN6parlay8internal24intrusive_acquire_retireINS0_12hazptr_stackIPSt4byteE4NodeENSt3__114default_deleteIS6_EELm1EE10ThreadDataD2Ev, symObjAddr: 0xD6F8, symBinAddr: 0x10000F468, symSize: 0x30 }
  - { offset: 0x60B72, size: 0x8, addend: 0x0, symName: __ZN6parlay8internal24intrusive_acquire_retireINS0_12hazptr_stackIPSt4byteE4NodeENSt3__114default_deleteIS6_EELm1EE11RetiredListD1Ev, symObjAddr: 0xD728, symBinAddr: 0x10000F498, symSize: 0x2C }
  - { offset: 0x60B9C, size: 0x8, addend: 0x0, symName: __ZN6parlay8internal24intrusive_acquire_retireINS0_12hazptr_stackIPSt4byteE4NodeENSt3__114default_deleteIS6_EELm1EE11RetiredListD2Ev, symObjAddr: 0xD754, symBinAddr: 0x10000F4C4, symSize: 0x90 }
  - { offset: 0x60BC6, size: 0x8, addend: 0x0, symName: __ZN6parlay8internal12hazptr_stackIPNS0_15block_allocator5blockEEC2Ev, symObjAddr: 0xD7E4, symBinAddr: 0x10000F554, symSize: 0x34 }
  - { offset: 0x60BF0, size: 0x8, addend: 0x0, symName: __ZNSt3__16atomicIPN6parlay8internal12hazptr_stackIPNS2_15block_allocator5blockEE4NodeEEC1B8ue170006ES9_, symObjAddr: 0xD818, symBinAddr: 0x10000F588, symSize: 0x34 }
  - { offset: 0x60C28, size: 0x8, addend: 0x0, symName: __ZNSt3__16atomicIPN6parlay8internal12hazptr_stackIPNS2_15block_allocator5blockEE4NodeEEC2B8ue170006ES9_, symObjAddr: 0xD908, symBinAddr: 0x10000F678, symSize: 0x34 }
  - { offset: 0x60C60, size: 0x8, addend: 0x0, symName: __ZNSt3__113__atomic_baseIPN6parlay8internal12hazptr_stackIPNS2_15block_allocator5blockEE4NodeELb0EEC2B8ue170006ES9_, symObjAddr: 0xD93C, symBinAddr: 0x10000F6AC, symSize: 0x34 }
  - { offset: 0x60C98, size: 0x8, addend: 0x0, symName: __ZNSt3__117__cxx_atomic_implIPN6parlay8internal12hazptr_stackIPNS2_15block_allocator5blockEE4NodeENS_22__cxx_atomic_base_implIS9_EEEC1B8ue170006ES9_, symObjAddr: 0xD970, symBinAddr: 0x10000F6E0, symSize: 0x34 }
  - { offset: 0x60CD1, size: 0x8, addend: 0x0, symName: __ZNSt3__117__cxx_atomic_implIPN6parlay8internal12hazptr_stackIPNS2_15block_allocator5blockEE4NodeENS_22__cxx_atomic_base_implIS9_EEEC2B8ue170006ES9_, symObjAddr: 0xD9A4, symBinAddr: 0x10000F714, symSize: 0x34 }
  - { offset: 0x60D0A, size: 0x8, addend: 0x0, symName: __ZNSt3__122__cxx_atomic_base_implIPN6parlay8internal12hazptr_stackIPNS2_15block_allocator5blockEE4NodeEEC2ES9_, symObjAddr: 0xD9D8, symBinAddr: 0x10000F748, symSize: 0x20 }
  - { offset: 0x60D43, size: 0x8, addend: 0x0, symName: __ZN6parlay8internal24intrusive_acquire_retireINS0_12hazptr_stackIPNS0_15block_allocator5blockEE4NodeENSt3__114default_deleteIS7_EELm1EEC1ESA_, symObjAddr: 0xD9F8, symBinAddr: 0x10000F768, symSize: 0x2C }
  - { offset: 0x60D7B, size: 0x8, addend: 0x0, symName: __ZN6parlay8internal24intrusive_acquire_retireINS0_12hazptr_stackIPNS0_15block_allocator5blockEE4NodeENSt3__114default_deleteIS7_EELm1EED1Ev, symObjAddr: 0xDA24, symBinAddr: 0x10000F794, symSize: 0x2C }
  - { offset: 0x60DA5, size: 0x8, addend: 0x0, symName: __ZN6parlay8internal24intrusive_acquire_retireINS0_12hazptr_stackIPNS0_15block_allocator5blockEE4NodeENSt3__114default_deleteIS7_EELm1EEC2ESA_, symObjAddr: 0xDA50, symBinAddr: 0x10000F7C0, symSize: 0x2C }
  - { offset: 0x60DDD, size: 0x8, addend: 0x0, symName: __ZN6parlay14ThreadSpecificINS_8internal24intrusive_acquire_retireINS1_12hazptr_stackIPNS1_15block_allocator5blockEE4NodeENSt3__114default_deleteIS8_EELm1EE10ThreadDataEEC1Ev, symObjAddr: 0xDA7C, symBinAddr: 0x10000F7EC, symSize: 0x2C }
  - { offset: 0x60E07, size: 0x8, addend: 0x0, symName: __ZNSt3__18functionIFN6parlay8internal24intrusive_acquire_retireINS2_12hazptr_stackIPNS2_15block_allocator5blockEE4NodeENS_14default_deleteIS9_EELm1EE10ThreadDataEjEEC1IZNS1_14ThreadSpecificISD_EC1EvEUlmE_vEET_, symObjAddr: 0xDB18, symBinAddr: 0x10000F888, symSize: 0x2C }
  - { offset: 0x60E4C, size: 0x8, addend: 0x0, symName: __ZN6parlay14ThreadSpecificINS_8internal24intrusive_acquire_retireINS1_12hazptr_stackIPNS1_15block_allocator5blockEE4NodeENSt3__114default_deleteIS8_EELm1EE10ThreadDataEE10initializeEv, symObjAddr: 0xDB44, symBinAddr: 0x10000F8B4, symSize: 0x1B8 }
  - { offset: 0x60E9E, size: 0x8, addend: 0x0, symName: __ZNSt3__18functionIFN6parlay8internal24intrusive_acquire_retireINS2_12hazptr_stackIPNS2_15block_allocator5blockEE4NodeENS_14default_deleteIS9_EELm1EE10ThreadDataEjEED1Ev, symObjAddr: 0xDCFC, symBinAddr: 0x10000FA6C, symSize: 0x2C }
  - { offset: 0x60ECA, size: 0x8, addend: 0x0, symName: __ZNSt3__18functionIFN6parlay8internal24intrusive_acquire_retireINS2_12hazptr_stackIPNS2_15block_allocator5blockEE4NodeENS_14default_deleteIS9_EELm1EE10ThreadDataEjEEC2IZNS1_14ThreadSpecificISD_EC1EvEUlmE_vEET_, symObjAddr: 0xDD28, symBinAddr: 0x10000FA98, symSize: 0x30 }
  - { offset: 0x60F0F, size: 0x8, addend: 0x0, symName: __ZNSt3__110__function12__value_funcIFN6parlay8internal24intrusive_acquire_retireINS3_12hazptr_stackIPNS3_15block_allocator5blockEE4NodeENS_14default_deleteISA_EELm1EE10ThreadDataEjEEC1B8ue170006IZNS2_14ThreadSpecificISE_EC1EvEUlmE_vEEOT_, symObjAddr: 0xDD58, symBinAddr: 0x10000FAC8, symSize: 0x50 }
  - { offset: 0x60F52, size: 0x8, addend: 0x0, symName: __ZNSt3__19allocatorIZN6parlay14ThreadSpecificINS1_8internal24intrusive_acquire_retireINS3_12hazptr_stackIPNS3_15block_allocator5blockEE4NodeENS_14default_deleteISA_EELm1EE10ThreadDataEEC1EvEUlmE_EC1B8ue170006Ev, symObjAddr: 0xDDA8, symBinAddr: 0x10000FB18, symSize: 0x2C }
  - { offset: 0x60F7C, size: 0x8, addend: 0x0, symName: __ZNSt3__110__function12__value_funcIFN6parlay8internal24intrusive_acquire_retireINS3_12hazptr_stackIPNS3_15block_allocator5blockEE4NodeENS_14default_deleteISA_EELm1EE10ThreadDataEjEEC1B8ue170006IZNS2_14ThreadSpecificISE_EC1EvEUlmE_NS_9allocatorISK_EEEEOT_RKT0_, symObjAddr: 0xDDD4, symBinAddr: 0x10000FB44, symSize: 0x3C }
  - { offset: 0x60FD6, size: 0x8, addend: 0x0, symName: __ZNSt3__19allocatorIZN6parlay14ThreadSpecificINS1_8internal24intrusive_acquire_retireINS3_12hazptr_stackIPNS3_15block_allocator5blockEE4NodeENS_14default_deleteISA_EELm1EE10ThreadDataEEC1EvEUlmE_EC2B8ue170006Ev, symObjAddr: 0xDE10, symBinAddr: 0x10000FB80, symSize: 0x2C }
  - { offset: 0x61000, size: 0x8, addend: 0x0, symName: __ZNSt3__116__non_trivial_ifILb1ENS_9allocatorIZN6parlay14ThreadSpecificINS2_8internal24intrusive_acquire_retireINS4_12hazptr_stackIPNS4_15block_allocator5blockEE4NodeENS_14default_deleteISB_EELm1EE10ThreadDataEEC1EvEUlmE_EEEC2B8ue170006Ev, symObjAddr: 0xDE3C, symBinAddr: 0x10000FBAC, symSize: 0x14 }
  - { offset: 0x6102A, size: 0x8, addend: 0x0, symName: __ZNSt3__110__function12__value_funcIFN6parlay8internal24intrusive_acquire_retireINS3_12hazptr_stackIPNS3_15block_allocator5blockEE4NodeENS_14default_deleteISA_EELm1EE10ThreadDataEjEEC2B8ue170006IZNS2_14ThreadSpecificISE_EC1EvEUlmE_NS_9allocatorISK_EEEEOT_RKT0_, symObjAddr: 0xDE50, symBinAddr: 0x10000FBC0, symSize: 0x94 }
  - { offset: 0x610D2, size: 0x8, addend: 0x0, symName: __ZNSt3__19allocatorINS_10__function6__funcIZN6parlay14ThreadSpecificINS3_8internal24intrusive_acquire_retireINS5_12hazptr_stackIPNS5_15block_allocator5blockEE4NodeENS_14default_deleteISC_EELm1EE10ThreadDataEEC1EvEUlmE_NS0_ISI_EEFSG_jEEEEC1B8ue170006ISI_EERKNS0_IT_EE, symObjAddr: 0xDEFC, symBinAddr: 0x10000FC6C, symSize: 0x34 }
  - { offset: 0x61116, size: 0x8, addend: 0x0, symName: __ZNSt3__19allocatorIZN6parlay14ThreadSpecificINS1_8internal24intrusive_acquire_retireINS3_12hazptr_stackIPNS3_15block_allocator5blockEE4NodeENS_14default_deleteISA_EELm1EE10ThreadDataEEC1EvEUlmE_EC1B8ue170006INS_10__function6__funcISG_SH_FSE_jEEEEERKNS0_IT_EE, symObjAddr: 0xDF30, symBinAddr: 0x10000FCA0, symSize: 0x34 }
  - { offset: 0x61154, size: 0x8, addend: 0x0, symName: __ZNSt3__110__function6__funcIZN6parlay14ThreadSpecificINS2_8internal24intrusive_acquire_retireINS4_12hazptr_stackIPNS4_15block_allocator5blockEE4NodeENS_14default_deleteISB_EELm1EE10ThreadDataEEC1EvEUlmE_NS_9allocatorISH_EEFSF_jEEC1B8ue170006EOSH_OSJ_, symObjAddr: 0xDF64, symBinAddr: 0x10000FCD4, symSize: 0x3C }
  - { offset: 0x6119C, size: 0x8, addend: 0x0, symName: __ZNSt3__19allocatorINS_10__function6__funcIZN6parlay14ThreadSpecificINS3_8internal24intrusive_acquire_retireINS5_12hazptr_stackIPNS5_15block_allocator5blockEE4NodeENS_14default_deleteISC_EELm1EE10ThreadDataEEC1EvEUlmE_NS0_ISI_EEFSG_jEEEEC2B8ue170006ISI_EERKNS0_IT_EE, symObjAddr: 0xDFA0, symBinAddr: 0x10000FD10, symSize: 0x30 }
  - { offset: 0x611DA, size: 0x8, addend: 0x0, symName: __ZNSt3__116__non_trivial_ifILb1ENS_9allocatorINS_10__function6__funcIZN6parlay14ThreadSpecificINS4_8internal24intrusive_acquire_retireINS6_12hazptr_stackIPNS6_15block_allocator5blockEE4NodeENS_14default_deleteISD_EELm1EE10ThreadDataEEC1EvEUlmE_NS1_ISJ_EEFSH_jEEEEEEC2B8ue170006Ev, symObjAddr: 0xDFD0, symBinAddr: 0x10000FD40, symSize: 0x14 }
  - { offset: 0x61204, size: 0x8, addend: 0x0, symName: __ZNSt3__19allocatorIZN6parlay14ThreadSpecificINS1_8internal24intrusive_acquire_retireINS3_12hazptr_stackIPNS3_15block_allocator5blockEE4NodeENS_14default_deleteISA_EELm1EE10ThreadDataEEC1EvEUlmE_EC2B8ue170006INS_10__function6__funcISG_SH_FSE_jEEEEERKNS0_IT_EE, symObjAddr: 0xDFE4, symBinAddr: 0x10000FD54, symSize: 0x30 }
  - { offset: 0x61242, size: 0x8, addend: 0x0, symName: __ZNSt3__110__function6__funcIZN6parlay14ThreadSpecificINS2_8internal24intrusive_acquire_retireINS4_12hazptr_stackIPNS4_15block_allocator5blockEE4NodeENS_14default_deleteISB_EELm1EE10ThreadDataEEC1EvEUlmE_NS_9allocatorISH_EEFSF_jEEC2B8ue170006EOSH_OSJ_, symObjAddr: 0xE014, symBinAddr: 0x10000FD84, symSize: 0x80 }
  - { offset: 0x6128A, size: 0x8, addend: 0x0, symName: __ZNSt3__110__function6__baseIFN6parlay8internal24intrusive_acquire_retireINS3_12hazptr_stackIPNS3_15block_allocator5blockEE4NodeENS_14default_deleteISA_EELm1EE10ThreadDataEjEEC2B8ue170006Ev, symObjAddr: 0xE094, symBinAddr: 0x10000FE04, symSize: 0x24 }
  - { offset: 0x612B4, size: 0x8, addend: 0x0, symName: __ZNSt3__110__function12__alloc_funcIZN6parlay14ThreadSpecificINS2_8internal24intrusive_acquire_retireINS4_12hazptr_stackIPNS4_15block_allocator5blockEE4NodeENS_14default_deleteISB_EELm1EE10ThreadDataEEC1EvEUlmE_NS_9allocatorISH_EEFSF_jEEC1B8ue170006EOSH_OSJ_, symObjAddr: 0xE0B8, symBinAddr: 0x10000FE28, symSize: 0x3C }
  - { offset: 0x612FA, size: 0x8, addend: 0x0, symName: __ZNSt3__110__function6__baseIFN6parlay8internal24intrusive_acquire_retireINS3_12hazptr_stackIPNS3_15block_allocator5blockEE4NodeENS_14default_deleteISA_EELm1EE10ThreadDataEjEED2Ev, symObjAddr: 0xE0F4, symBinAddr: 0x10000FE64, symSize: 0x14 }
  - { offset: 0x61324, size: 0x8, addend: 0x0, symName: __ZNSt3__110__function6__funcIZN6parlay14ThreadSpecificINS2_8internal24intrusive_acquire_retireINS4_12hazptr_stackIPNS4_15block_allocator5blockEE4NodeENS_14default_deleteISB_EELm1EE10ThreadDataEEC1EvEUlmE_NS_9allocatorISH_EEFSF_jEED1Ev, symObjAddr: 0xE108, symBinAddr: 0x10000FE78, symSize: 0x2C }
  - { offset: 0x61351, size: 0x8, addend: 0x0, symName: __ZNSt3__110__function6__funcIZN6parlay14ThreadSpecificINS2_8internal24intrusive_acquire_retireINS4_12hazptr_stackIPNS4_15block_allocator5blockEE4NodeENS_14default_deleteISB_EELm1EE10ThreadDataEEC1EvEUlmE_NS_9allocatorISH_EEFSF_jEED0Ev, symObjAddr: 0xE134, symBinAddr: 0x10000FEA4, symSize: 0x30 }
  - { offset: 0x6137E, size: 0x8, addend: 0x0, symName: __ZNKSt3__110__function6__funcIZN6parlay14ThreadSpecificINS2_8internal24intrusive_acquire_retireINS4_12hazptr_stackIPNS4_15block_allocator5blockEE4NodeENS_14default_deleteISB_EELm1EE10ThreadDataEEC1EvEUlmE_NS_9allocatorISH_EEFSF_jEE7__cloneEv, symObjAddr: 0xE164, symBinAddr: 0x10000FED4, symSize: 0xFC }
  - { offset: 0x613D0, size: 0x8, addend: 0x0, symName: __ZNKSt3__110__function6__funcIZN6parlay14ThreadSpecificINS2_8internal24intrusive_acquire_retireINS4_12hazptr_stackIPNS4_15block_allocator5blockEE4NodeENS_14default_deleteISB_EELm1EE10ThreadDataEEC1EvEUlmE_NS_9allocatorISH_EEFSF_jEE7__cloneEPNS0_6__baseISK_EE, symObjAddr: 0xE260, symBinAddr: 0x10000FFD0, symSize: 0x58 }
  - { offset: 0x61407, size: 0x8, addend: 0x0, symName: __ZNSt3__110__function6__funcIZN6parlay14ThreadSpecificINS2_8internal24intrusive_acquire_retireINS4_12hazptr_stackIPNS4_15block_allocator5blockEE4NodeENS_14default_deleteISB_EELm1EE10ThreadDataEEC1EvEUlmE_NS_9allocatorISH_EEFSF_jEE7destroyEv, symObjAddr: 0xE2B8, symBinAddr: 0x100010028, symSize: 0x28 }
  - { offset: 0x6142F, size: 0x8, addend: 0x0, symName: __ZNSt3__110__function6__funcIZN6parlay14ThreadSpecificINS2_8internal24intrusive_acquire_retireINS4_12hazptr_stackIPNS4_15block_allocator5blockEE4NodeENS_14default_deleteISB_EELm1EE10ThreadDataEEC1EvEUlmE_NS_9allocatorISH_EEFSF_jEE18destroy_deallocateEv, symObjAddr: 0xE2E0, symBinAddr: 0x100010050, symSize: 0x58 }
  - { offset: 0x61472, size: 0x8, addend: 0x0, symName: __ZNSt3__110__function6__funcIZN6parlay14ThreadSpecificINS2_8internal24intrusive_acquire_retireINS4_12hazptr_stackIPNS4_15block_allocator5blockEE4NodeENS_14default_deleteISB_EELm1EE10ThreadDataEEC1EvEUlmE_NS_9allocatorISH_EEFSF_jEEclEOj, symObjAddr: 0xE338, symBinAddr: 0x1000100A8, symSize: 0x38 }
  - { offset: 0x614A9, size: 0x8, addend: 0x0, symName: __ZNKSt3__110__function6__funcIZN6parlay14ThreadSpecificINS2_8internal24intrusive_acquire_retireINS4_12hazptr_stackIPNS4_15block_allocator5blockEE4NodeENS_14default_deleteISB_EELm1EE10ThreadDataEEC1EvEUlmE_NS_9allocatorISH_EEFSF_jEE6targetERKSt9type_info, symObjAddr: 0xE370, symBinAddr: 0x1000100E0, symSize: 0x60 }
  - { offset: 0x614E0, size: 0x8, addend: 0x0, symName: __ZNKSt3__110__function6__funcIZN6parlay14ThreadSpecificINS2_8internal24intrusive_acquire_retireINS4_12hazptr_stackIPNS4_15block_allocator5blockEE4NodeENS_14default_deleteISB_EELm1EE10ThreadDataEEC1EvEUlmE_NS_9allocatorISH_EEFSF_jEE11target_typeEv, symObjAddr: 0xE3D0, symBinAddr: 0x100010140, symSize: 0x18 }
  - { offset: 0x61508, size: 0x8, addend: 0x0, symName: __ZNSt3__110__function6__baseIFN6parlay8internal24intrusive_acquire_retireINS3_12hazptr_stackIPNS3_15block_allocator5blockEE4NodeENS_14default_deleteISA_EELm1EE10ThreadDataEjEED1Ev, symObjAddr: 0xE3E8, symBinAddr: 0x100010158, symSize: 0x14 }
  - { offset: 0x61532, size: 0x8, addend: 0x0, symName: __ZNSt3__110__function6__baseIFN6parlay8internal24intrusive_acquire_retireINS3_12hazptr_stackIPNS3_15block_allocator5blockEE4NodeENS_14default_deleteISA_EELm1EE10ThreadDataEjEED0Ev, symObjAddr: 0xE3FC, symBinAddr: 0x10001016C, symSize: 0xC }
  - { offset: 0x6155C, size: 0x8, addend: 0x0, symName: __ZNSt3__110__function12__alloc_funcIZN6parlay14ThreadSpecificINS2_8internal24intrusive_acquire_retireINS4_12hazptr_stackIPNS4_15block_allocator5blockEE4NodeENS_14default_deleteISB_EELm1EE10ThreadDataEEC1EvEUlmE_NS_9allocatorISH_EEFSF_jEEC2B8ue170006EOSH_OSJ_, symObjAddr: 0xE408, symBinAddr: 0x100010178, symSize: 0x5C }
  - { offset: 0x615A2, size: 0x8, addend: 0x0, symName: __ZNSt3__117__compressed_pairIZN6parlay14ThreadSpecificINS1_8internal24intrusive_acquire_retireINS3_12hazptr_stackIPNS3_15block_allocator5blockEE4NodeENS_14default_deleteISA_EELm1EE10ThreadDataEEC1EvEUlmE_NS_9allocatorISG_EEEC1B8ue170006IJOSG_EJOSI_EEENS_21piecewise_construct_tENS_5tupleIJDpT_EEENSO_IJDpT0_EEE, symObjAddr: 0xE4BC, symBinAddr: 0x10001022C, symSize: 0x3C }
  - { offset: 0x6160C, size: 0x8, addend: 0x0, symName: __ZNSt3__15tupleIJOZN6parlay14ThreadSpecificINS1_8internal24intrusive_acquire_retireINS3_12hazptr_stackIPNS3_15block_allocator5blockEE4NodeENS_14default_deleteISA_EELm1EE10ThreadDataEEC1EvEUlmE_EEC1B8ue170006IJSG_ELi0EEEDpOT_, symObjAddr: 0xE4F8, symBinAddr: 0x100010268, symSize: 0x34 }
  - { offset: 0x61656, size: 0x8, addend: 0x0, symName: __ZNSt3__15tupleIJOZN6parlay14ThreadSpecificINS1_8internal24intrusive_acquire_retireINS3_12hazptr_stackIPNS3_15block_allocator5blockEE4NodeENS_14default_deleteISA_EELm1EE10ThreadDataEEC1EvEUlmE_EEC2B8ue170006IJSG_ELi0EEEDpOT_, symObjAddr: 0xE52C, symBinAddr: 0x10001029C, symSize: 0x34 }
  - { offset: 0x616A0, size: 0x8, addend: 0x0, symName: __ZNSt3__112__tuple_implINS_15__tuple_indicesIJLm0EEEEJOZN6parlay14ThreadSpecificINS3_8internal24intrusive_acquire_retireINS5_12hazptr_stackIPNS5_15block_allocator5blockEE4NodeENS_14default_deleteISC_EELm1EE10ThreadDataEEC1EvEUlmE_EEC1B8ue170006IJLm0EEJSJ_EJEJEJSI_EEENS1_IJXspT_EEEENS_13__tuple_typesIJDpT0_EEENS1_IJXspT1_EEEENSN_IJDpT2_EEEDpOT3_, symObjAddr: 0xE560, symBinAddr: 0x1000102D0, symSize: 0x34 }
  - { offset: 0x61731, size: 0x8, addend: 0x0, symName: __ZNSt3__112__tuple_implINS_15__tuple_indicesIJLm0EEEEJOZN6parlay14ThreadSpecificINS3_8internal24intrusive_acquire_retireINS5_12hazptr_stackIPNS5_15block_allocator5blockEE4NodeENS_14default_deleteISC_EELm1EE10ThreadDataEEC1EvEUlmE_EEC2B8ue170006IJLm0EEJSJ_EJEJEJSI_EEENS1_IJXspT_EEEENS_13__tuple_typesIJDpT0_EEENS1_IJXspT1_EEEENSN_IJDpT2_EEEDpOT3_, symObjAddr: 0xE594, symBinAddr: 0x100010304, symSize: 0x34 }
  - { offset: 0x617C2, size: 0x8, addend: 0x0, symName: __ZNSt3__112__tuple_leafILm0EOZN6parlay14ThreadSpecificINS1_8internal24intrusive_acquire_retireINS3_12hazptr_stackIPNS3_15block_allocator5blockEE4NodeENS_14default_deleteISA_EELm1EE10ThreadDataEEC1EvEUlmE_Lb0EEC2B8ue170006ISG_vEEOT_, symObjAddr: 0xE5C8, symBinAddr: 0x100010338, symSize: 0x20 }
  - { offset: 0x61805, size: 0x8, addend: 0x0, symName: __ZNSt3__15tupleIJONS_9allocatorIZN6parlay14ThreadSpecificINS2_8internal24intrusive_acquire_retireINS4_12hazptr_stackIPNS4_15block_allocator5blockEE4NodeENS_14default_deleteISB_EELm1EE10ThreadDataEEC1EvEUlmE_EEEEC1B8ue170006IJSI_ELi0EEEDpOT_, symObjAddr: 0xE5E8, symBinAddr: 0x100010358, symSize: 0x34 }
  - { offset: 0x6184F, size: 0x8, addend: 0x0, symName: __ZNSt3__15tupleIJONS_9allocatorIZN6parlay14ThreadSpecificINS2_8internal24intrusive_acquire_retireINS4_12hazptr_stackIPNS4_15block_allocator5blockEE4NodeENS_14default_deleteISB_EELm1EE10ThreadDataEEC1EvEUlmE_EEEEC2B8ue170006IJSI_ELi0EEEDpOT_, symObjAddr: 0xE61C, symBinAddr: 0x10001038C, symSize: 0x34 }
  - { offset: 0x61899, size: 0x8, addend: 0x0, symName: __ZNSt3__112__tuple_implINS_15__tuple_indicesIJLm0EEEEJONS_9allocatorIZN6parlay14ThreadSpecificINS4_8internal24intrusive_acquire_retireINS6_12hazptr_stackIPNS6_15block_allocator5blockEE4NodeENS_14default_deleteISD_EELm1EE10ThreadDataEEC1EvEUlmE_EEEEC1B8ue170006IJLm0EEJSL_EJEJEJSK_EEENS1_IJXspT_EEEENS_13__tuple_typesIJDpT0_EEENS1_IJXspT1_EEEENSP_IJDpT2_EEEDpOT3_, symObjAddr: 0xE650, symBinAddr: 0x1000103C0, symSize: 0x34 }
  - { offset: 0x6192A, size: 0x8, addend: 0x0, symName: __ZNSt3__112__tuple_implINS_15__tuple_indicesIJLm0EEEEJONS_9allocatorIZN6parlay14ThreadSpecificINS4_8internal24intrusive_acquire_retireINS6_12hazptr_stackIPNS6_15block_allocator5blockEE4NodeENS_14default_deleteISD_EELm1EE10ThreadDataEEC1EvEUlmE_EEEEC2B8ue170006IJLm0EEJSL_EJEJEJSK_EEENS1_IJXspT_EEEENS_13__tuple_typesIJDpT0_EEENS1_IJXspT1_EEEENSP_IJDpT2_EEEDpOT3_, symObjAddr: 0xE684, symBinAddr: 0x1000103F4, symSize: 0x34 }
  - { offset: 0x619BB, size: 0x8, addend: 0x0, symName: __ZNSt3__112__tuple_leafILm0EONS_9allocatorIZN6parlay14ThreadSpecificINS2_8internal24intrusive_acquire_retireINS4_12hazptr_stackIPNS4_15block_allocator5blockEE4NodeENS_14default_deleteISB_EELm1EE10ThreadDataEEC1EvEUlmE_EELb0EEC2B8ue170006ISI_vEEOT_, symObjAddr: 0xE6B8, symBinAddr: 0x100010428, symSize: 0x20 }
  - { offset: 0x619FE, size: 0x8, addend: 0x0, symName: __ZNSt3__117__compressed_pairIZN6parlay14ThreadSpecificINS1_8internal24intrusive_acquire_retireINS3_12hazptr_stackIPNS3_15block_allocator5blockEE4NodeENS_14default_deleteISA_EELm1EE10ThreadDataEEC1EvEUlmE_NS_9allocatorISG_EEEC2B8ue170006IJOSG_EJOSI_EEENS_21piecewise_construct_tENS_5tupleIJDpT_EEENSO_IJDpT0_EEE, symObjAddr: 0xE6D8, symBinAddr: 0x100010448, symSize: 0x54 }
  - { offset: 0x61A68, size: 0x8, addend: 0x0, symName: __ZNSt3__122__compressed_pair_elemIZN6parlay14ThreadSpecificINS1_8internal24intrusive_acquire_retireINS3_12hazptr_stackIPNS3_15block_allocator5blockEE4NodeENS_14default_deleteISA_EELm1EE10ThreadDataEEC1EvEUlmE_Li0ELb1EEC2B8ue170006IJOSG_EJLm0EEEENS_21piecewise_construct_tENS_5tupleIJDpT_EEENS_15__tuple_indicesIJXspT0_EEEE, symObjAddr: 0xE72C, symBinAddr: 0x10001049C, symSize: 0x38 }
  - { offset: 0x61ACD, size: 0x8, addend: 0x0, symName: __ZNSt3__122__compressed_pair_elemINS_9allocatorIZN6parlay14ThreadSpecificINS2_8internal24intrusive_acquire_retireINS4_12hazptr_stackIPNS4_15block_allocator5blockEE4NodeENS_14default_deleteISB_EELm1EE10ThreadDataEEC1EvEUlmE_EELi1ELb1EEC2B8ue170006IJOSI_EJLm0EEEENS_21piecewise_construct_tENS_5tupleIJDpT_EEENS_15__tuple_indicesIJXspT0_EEEE, symObjAddr: 0xE764, symBinAddr: 0x1000104D4, symSize: 0x38 }
  - { offset: 0x61B32, size: 0x8, addend: 0x0, symName: __ZNSt3__112__tuple_leafILm0EOZN6parlay14ThreadSpecificINS1_8internal24intrusive_acquire_retireINS3_12hazptr_stackIPNS3_15block_allocator5blockEE4NodeENS_14default_deleteISA_EELm1EE10ThreadDataEEC1EvEUlmE_Lb0EE3getB8ue170006Ev, symObjAddr: 0xE7C0, symBinAddr: 0x100010530, symSize: 0x18 }
  - { offset: 0x61B58, size: 0x8, addend: 0x0, symName: __ZNSt3__112__tuple_leafILm0EONS_9allocatorIZN6parlay14ThreadSpecificINS2_8internal24intrusive_acquire_retireINS4_12hazptr_stackIPNS4_15block_allocator5blockEE4NodeENS_14default_deleteISB_EELm1EE10ThreadDataEEC1EvEUlmE_EELb0EE3getB8ue170006Ev, symObjAddr: 0xE7FC, symBinAddr: 0x10001056C, symSize: 0x18 }
  - { offset: 0x61B7E, size: 0x8, addend: 0x0, symName: __ZNSt3__110__function6__funcIZN6parlay14ThreadSpecificINS2_8internal24intrusive_acquire_retireINS4_12hazptr_stackIPNS4_15block_allocator5blockEE4NodeENS_14default_deleteISB_EELm1EE10ThreadDataEEC1EvEUlmE_NS_9allocatorISH_EEFSF_jEED2Ev, symObjAddr: 0xE814, symBinAddr: 0x100010584, symSize: 0x2C }
  - { offset: 0x61BAB, size: 0x8, addend: 0x0, symName: __ZNKSt3__110__function12__alloc_funcIZN6parlay14ThreadSpecificINS2_8internal24intrusive_acquire_retireINS4_12hazptr_stackIPNS4_15block_allocator5blockEE4NodeENS_14default_deleteISB_EELm1EE10ThreadDataEEC1EvEUlmE_NS_9allocatorISH_EEFSF_jEE15__get_allocatorB8ue170006Ev, symObjAddr: 0xE840, symBinAddr: 0x1000105B0, symSize: 0x24 }
  - { offset: 0x61BD1, size: 0x8, addend: 0x0, symName: __ZNSt3__19allocatorINS_10__function6__funcIZN6parlay14ThreadSpecificINS3_8internal24intrusive_acquire_retireINS5_12hazptr_stackIPNS5_15block_allocator5blockEE4NodeENS_14default_deleteISC_EELm1EE10ThreadDataEEC1EvEUlmE_NS0_ISI_EEFSG_jEEEE8allocateB8ue170006Em, symObjAddr: 0xE864, symBinAddr: 0x1000105D4, symSize: 0x58 }
  - { offset: 0x61C16, size: 0x8, addend: 0x0, symName: __ZNSt3__122__allocator_destructorINS_9allocatorINS_10__function6__funcIZN6parlay14ThreadSpecificINS4_8internal24intrusive_acquire_retireINS6_12hazptr_stackIPNS6_15block_allocator5blockEE4NodeENS_14default_deleteISD_EELm1EE10ThreadDataEEC1EvEUlmE_NS1_ISJ_EEFSH_jEEEEEEC1B8ue170006ERSN_m, symObjAddr: 0xE8BC, symBinAddr: 0x10001062C, symSize: 0x3C }
  - { offset: 0x61CF2, size: 0x8, addend: 0x0, symName: __ZNSt3__110unique_ptrINS_10__function6__funcIZN6parlay14ThreadSpecificINS3_8internal24intrusive_acquire_retireINS5_12hazptr_stackIPNS5_15block_allocator5blockEE4NodeENS_14default_deleteISC_EELm1EE10ThreadDataEEC1EvEUlmE_NS_9allocatorISI_EEFSG_jEEENS_22__allocator_destructorINSJ_ISM_EEEEEC1B8ue170006ILb1EvEEPSM_NS_16__dependent_typeINS_27__unique_ptr_deleter_sfinaeISP_EEXT_EE20__good_rval_ref_typeE, symObjAddr: 0xE8F8, symBinAddr: 0x100010668, symSize: 0x3C }
  - { offset: 0x61D43, size: 0x8, addend: 0x0, symName: __ZNKSt3__110unique_ptrINS_10__function6__funcIZN6parlay14ThreadSpecificINS3_8internal24intrusive_acquire_retireINS5_12hazptr_stackIPNS5_15block_allocator5blockEE4NodeENS_14default_deleteISC_EELm1EE10ThreadDataEEC1EvEUlmE_NS_9allocatorISI_EEFSG_jEEENS_22__allocator_destructorINSJ_ISM_EEEEE3getB8ue170006Ev, symObjAddr: 0xE934, symBinAddr: 0x1000106A4, symSize: 0x28 }
  - { offset: 0x61D69, size: 0x8, addend: 0x0, symName: __ZNKSt3__110__function12__alloc_funcIZN6parlay14ThreadSpecificINS2_8internal24intrusive_acquire_retireINS4_12hazptr_stackIPNS4_15block_allocator5blockEE4NodeENS_14default_deleteISB_EELm1EE10ThreadDataEEC1EvEUlmE_NS_9allocatorISH_EEFSF_jEE8__targetB8ue170006Ev, symObjAddr: 0xE95C, symBinAddr: 0x1000106CC, symSize: 0x24 }
  - { offset: 0x61D8F, size: 0x8, addend: 0x0, symName: __ZNSt3__110__function6__funcIZN6parlay14ThreadSpecificINS2_8internal24intrusive_acquire_retireINS4_12hazptr_stackIPNS4_15block_allocator5blockEE4NodeENS_14default_deleteISB_EELm1EE10ThreadDataEEC1EvEUlmE_NS_9allocatorISH_EEFSF_jEEC1B8ue170006ERKSH_OSJ_, symObjAddr: 0xE980, symBinAddr: 0x1000106F0, symSize: 0x3C }
  - { offset: 0x61DD7, size: 0x8, addend: 0x0, symName: __ZNSt3__110unique_ptrINS_10__function6__funcIZN6parlay14ThreadSpecificINS3_8internal24intrusive_acquire_retireINS5_12hazptr_stackIPNS5_15block_allocator5blockEE4NodeENS_14default_deleteISC_EELm1EE10ThreadDataEEC1EvEUlmE_NS_9allocatorISI_EEFSG_jEEENS_22__allocator_destructorINSJ_ISM_EEEEE7releaseB8ue170006Ev, symObjAddr: 0xE9BC, symBinAddr: 0x10001072C, symSize: 0x44 }
  - { offset: 0x61E0C, size: 0x8, addend: 0x0, symName: __ZNSt3__110unique_ptrINS_10__function6__funcIZN6parlay14ThreadSpecificINS3_8internal24intrusive_acquire_retireINS5_12hazptr_stackIPNS5_15block_allocator5blockEE4NodeENS_14default_deleteISC_EELm1EE10ThreadDataEEC1EvEUlmE_NS_9allocatorISI_EEFSG_jEEENS_22__allocator_destructorINSJ_ISM_EEEEED1B8ue170006Ev, symObjAddr: 0xEA00, symBinAddr: 0x100010770, symSize: 0x2C }
  - { offset: 0x61E36, size: 0x8, addend: 0x0, symName: __ZNKSt3__117__compressed_pairIZN6parlay14ThreadSpecificINS1_8internal24intrusive_acquire_retireINS3_12hazptr_stackIPNS3_15block_allocator5blockEE4NodeENS_14default_deleteISA_EELm1EE10ThreadDataEEC1EvEUlmE_NS_9allocatorISG_EEE6secondB8ue170006Ev, symObjAddr: 0xEA2C, symBinAddr: 0x10001079C, symSize: 0x24 }
  - { offset: 0x61E5C, size: 0x8, addend: 0x0, symName: __ZNKSt3__122__compressed_pair_elemINS_9allocatorIZN6parlay14ThreadSpecificINS2_8internal24intrusive_acquire_retireINS4_12hazptr_stackIPNS4_15block_allocator5blockEE4NodeENS_14default_deleteISB_EELm1EE10ThreadDataEEC1EvEUlmE_EELi1ELb1EE5__getB8ue170006Ev, symObjAddr: 0xEA50, symBinAddr: 0x1000107C0, symSize: 0x14 }
  - { offset: 0x61E8D, size: 0x8, addend: 0x0, symName: __ZNSt3__116allocator_traitsINS_9allocatorINS_10__function6__funcIZN6parlay14ThreadSpecificINS4_8internal24intrusive_acquire_retireINS6_12hazptr_stackIPNS6_15block_allocator5blockEE4NodeENS_14default_deleteISD_EELm1EE10ThreadDataEEC1EvEUlmE_NS1_ISJ_EEFSH_jEEEEEE8max_sizeB8ue170006ISN_vEEmRKSN_, symObjAddr: 0xEA64, symBinAddr: 0x1000107D4, symSize: 0x24 }
  - { offset: 0x61EBB, size: 0x8, addend: 0x0, symName: __ZNKSt3__19allocatorINS_10__function6__funcIZN6parlay14ThreadSpecificINS3_8internal24intrusive_acquire_retireINS5_12hazptr_stackIPNS5_15block_allocator5blockEE4NodeENS_14default_deleteISC_EELm1EE10ThreadDataEEC1EvEUlmE_NS0_ISI_EEFSG_jEEEE8max_sizeB8ue170006Ev, symObjAddr: 0xEA88, symBinAddr: 0x1000107F8, symSize: 0x14 }
  - { offset: 0x61EE1, size: 0x8, addend: 0x0, symName: __ZNSt3__122__allocator_destructorINS_9allocatorINS_10__function6__funcIZN6parlay14ThreadSpecificINS4_8internal24intrusive_acquire_retireINS6_12hazptr_stackIPNS6_15block_allocator5blockEE4NodeENS_14default_deleteISD_EELm1EE10ThreadDataEEC1EvEUlmE_NS1_ISJ_EEFSH_jEEEEEEC2B8ue170006ERSN_m, symObjAddr: 0xEA9C, symBinAddr: 0x10001080C, symSize: 0x2C }
  - { offset: 0x61F27, size: 0x8, addend: 0x0, symName: __ZNSt3__110unique_ptrINS_10__function6__funcIZN6parlay14ThreadSpecificINS3_8internal24intrusive_acquire_retireINS5_12hazptr_stackIPNS5_15block_allocator5blockEE4NodeENS_14default_deleteISC_EELm1EE10ThreadDataEEC1EvEUlmE_NS_9allocatorISI_EEFSG_jEEENS_22__allocator_destructorINSJ_ISM_EEEEEC2B8ue170006ILb1EvEEPSM_NS_16__dependent_typeINS_27__unique_ptr_deleter_sfinaeISP_EEXT_EE20__good_rval_ref_typeE, symObjAddr: 0xEAC8, symBinAddr: 0x100010838, symSize: 0x48 }
  - { offset: 0x61F78, size: 0x8, addend: 0x0, symName: __ZNSt3__117__compressed_pairIPNS_10__function6__funcIZN6parlay14ThreadSpecificINS3_8internal24intrusive_acquire_retireINS5_12hazptr_stackIPNS5_15block_allocator5blockEE4NodeENS_14default_deleteISC_EELm1EE10ThreadDataEEC1EvEUlmE_NS_9allocatorISI_EEFSG_jEEENS_22__allocator_destructorINSJ_ISM_EEEEEC1B8ue170006IRSN_SQ_EEOT_OT0_, symObjAddr: 0xEB10, symBinAddr: 0x100010880, symSize: 0x3C }
  - { offset: 0x61FD0, size: 0x8, addend: 0x0, symName: __ZNSt3__117__compressed_pairIPNS_10__function6__funcIZN6parlay14ThreadSpecificINS3_8internal24intrusive_acquire_retireINS5_12hazptr_stackIPNS5_15block_allocator5blockEE4NodeENS_14default_deleteISC_EELm1EE10ThreadDataEEC1EvEUlmE_NS_9allocatorISI_EEFSG_jEEENS_22__allocator_destructorINSJ_ISM_EEEEEC2B8ue170006IRSN_SQ_EEOT_OT0_, symObjAddr: 0xEB4C, symBinAddr: 0x1000108BC, symSize: 0x48 }
  - { offset: 0x62028, size: 0x8, addend: 0x0, symName: __ZNSt3__122__compressed_pair_elemIPNS_10__function6__funcIZN6parlay14ThreadSpecificINS3_8internal24intrusive_acquire_retireINS5_12hazptr_stackIPNS5_15block_allocator5blockEE4NodeENS_14default_deleteISC_EELm1EE10ThreadDataEEC1EvEUlmE_NS_9allocatorISI_EEFSG_jEEELi0ELb0EEC2B8ue170006IRSN_vEEOT_, symObjAddr: 0xEB94, symBinAddr: 0x100010904, symSize: 0x24 }
  - { offset: 0x6206A, size: 0x8, addend: 0x0, symName: __ZNSt3__122__compressed_pair_elemINS_22__allocator_destructorINS_9allocatorINS_10__function6__funcIZN6parlay14ThreadSpecificINS5_8internal24intrusive_acquire_retireINS7_12hazptr_stackIPNS7_15block_allocator5blockEE4NodeENS_14default_deleteISE_EELm1EE10ThreadDataEEC1EvEUlmE_NS2_ISK_EEFSI_jEEEEEEELi1ELb0EEC2B8ue170006ISP_vEEOT_, symObjAddr: 0xEBB8, symBinAddr: 0x100010928, symSize: 0x24 }
  - { offset: 0x620AC, size: 0x8, addend: 0x0, symName: __ZNKSt3__117__compressed_pairIPNS_10__function6__funcIZN6parlay14ThreadSpecificINS3_8internal24intrusive_acquire_retireINS5_12hazptr_stackIPNS5_15block_allocator5blockEE4NodeENS_14default_deleteISC_EELm1EE10ThreadDataEEC1EvEUlmE_NS_9allocatorISI_EEFSG_jEEENS_22__allocator_destructorINSJ_ISM_EEEEE5firstB8ue170006Ev, symObjAddr: 0xEBDC, symBinAddr: 0x10001094C, symSize: 0x24 }
  - { offset: 0x620D2, size: 0x8, addend: 0x0, symName: __ZNKSt3__122__compressed_pair_elemIPNS_10__function6__funcIZN6parlay14ThreadSpecificINS3_8internal24intrusive_acquire_retireINS5_12hazptr_stackIPNS5_15block_allocator5blockEE4NodeENS_14default_deleteISC_EELm1EE10ThreadDataEEC1EvEUlmE_NS_9allocatorISI_EEFSG_jEEELi0ELb0EE5__getB8ue170006Ev, symObjAddr: 0xEC00, symBinAddr: 0x100010970, symSize: 0x14 }
  - { offset: 0x620F8, size: 0x8, addend: 0x0, symName: __ZNKSt3__117__compressed_pairIZN6parlay14ThreadSpecificINS1_8internal24intrusive_acquire_retireINS3_12hazptr_stackIPNS3_15block_allocator5blockEE4NodeENS_14default_deleteISA_EELm1EE10ThreadDataEEC1EvEUlmE_NS_9allocatorISG_EEE5firstB8ue170006Ev, symObjAddr: 0xEC14, symBinAddr: 0x100010984, symSize: 0x24 }
  - { offset: 0x6211E, size: 0x8, addend: 0x0, symName: __ZNKSt3__122__compressed_pair_elemIZN6parlay14ThreadSpecificINS1_8internal24intrusive_acquire_retireINS3_12hazptr_stackIPNS3_15block_allocator5blockEE4NodeENS_14default_deleteISA_EELm1EE10ThreadDataEEC1EvEUlmE_Li0ELb1EE5__getB8ue170006Ev, symObjAddr: 0xEC38, symBinAddr: 0x1000109A8, symSize: 0x14 }
  - { offset: 0x62144, size: 0x8, addend: 0x0, symName: __ZNSt3__110__function6__funcIZN6parlay14ThreadSpecificINS2_8internal24intrusive_acquire_retireINS4_12hazptr_stackIPNS4_15block_allocator5blockEE4NodeENS_14default_deleteISB_EELm1EE10ThreadDataEEC1EvEUlmE_NS_9allocatorISH_EEFSF_jEEC2B8ue170006ERKSH_OSJ_, symObjAddr: 0xEC4C, symBinAddr: 0x1000109BC, symSize: 0x80 }
  - { offset: 0x6218C, size: 0x8, addend: 0x0, symName: __ZNSt3__110__function12__alloc_funcIZN6parlay14ThreadSpecificINS2_8internal24intrusive_acquire_retireINS4_12hazptr_stackIPNS4_15block_allocator5blockEE4NodeENS_14default_deleteISB_EELm1EE10ThreadDataEEC1EvEUlmE_NS_9allocatorISH_EEFSF_jEEC1B8ue170006ERKSH_OSJ_, symObjAddr: 0xECCC, symBinAddr: 0x100010A3C, symSize: 0x3C }
  - { offset: 0x621D2, size: 0x8, addend: 0x0, symName: __ZNSt3__110__function12__alloc_funcIZN6parlay14ThreadSpecificINS2_8internal24intrusive_acquire_retireINS4_12hazptr_stackIPNS4_15block_allocator5blockEE4NodeENS_14default_deleteISB_EELm1EE10ThreadDataEEC1EvEUlmE_NS_9allocatorISH_EEFSF_jEEC2B8ue170006ERKSH_OSJ_, symObjAddr: 0xED08, symBinAddr: 0x100010A78, symSize: 0x5C }
  - { offset: 0x62218, size: 0x8, addend: 0x0, symName: __ZNSt3__117__compressed_pairIZN6parlay14ThreadSpecificINS1_8internal24intrusive_acquire_retireINS3_12hazptr_stackIPNS3_15block_allocator5blockEE4NodeENS_14default_deleteISA_EELm1EE10ThreadDataEEC1EvEUlmE_NS_9allocatorISG_EEEC1B8ue170006IJRKSG_EJOSI_EEENS_21piecewise_construct_tENS_5tupleIJDpT_EEENSP_IJDpT0_EEE, symObjAddr: 0xED90, symBinAddr: 0x100010B00, symSize: 0x3C }
  - { offset: 0x62282, size: 0x8, addend: 0x0, symName: __ZNSt3__15tupleIJRKZN6parlay14ThreadSpecificINS1_8internal24intrusive_acquire_retireINS3_12hazptr_stackIPNS3_15block_allocator5blockEE4NodeENS_14default_deleteISA_EELm1EE10ThreadDataEEC1EvEUlmE_EEC1B8ue170006INS_4_AndELi0EEESI_, symObjAddr: 0xEDCC, symBinAddr: 0x100010B3C, symSize: 0x34 }
  - { offset: 0x622CB, size: 0x8, addend: 0x0, symName: __ZNSt3__15tupleIJRKZN6parlay14ThreadSpecificINS1_8internal24intrusive_acquire_retireINS3_12hazptr_stackIPNS3_15block_allocator5blockEE4NodeENS_14default_deleteISA_EELm1EE10ThreadDataEEC1EvEUlmE_EEC2B8ue170006INS_4_AndELi0EEESI_, symObjAddr: 0xEE00, symBinAddr: 0x100010B70, symSize: 0x34 }
  - { offset: 0x62314, size: 0x8, addend: 0x0, symName: __ZNSt3__112__tuple_implINS_15__tuple_indicesIJLm0EEEEJRKZN6parlay14ThreadSpecificINS3_8internal24intrusive_acquire_retireINS5_12hazptr_stackIPNS5_15block_allocator5blockEE4NodeENS_14default_deleteISC_EELm1EE10ThreadDataEEC1EvEUlmE_EEC1B8ue170006IJLm0EEJSK_EJEJEJSK_EEENS1_IJXspT_EEEENS_13__tuple_typesIJDpT0_EEENS1_IJXspT1_EEEENSO_IJDpT2_EEEDpOT3_, symObjAddr: 0xEE34, symBinAddr: 0x100010BA4, symSize: 0x34 }
  - { offset: 0x623A5, size: 0x8, addend: 0x0, symName: __ZNSt3__112__tuple_implINS_15__tuple_indicesIJLm0EEEEJRKZN6parlay14ThreadSpecificINS3_8internal24intrusive_acquire_retireINS5_12hazptr_stackIPNS5_15block_allocator5blockEE4NodeENS_14default_deleteISC_EELm1EE10ThreadDataEEC1EvEUlmE_EEC2B8ue170006IJLm0EEJSK_EJEJEJSK_EEENS1_IJXspT_EEEENS_13__tuple_typesIJDpT0_EEENS1_IJXspT1_EEEENSO_IJDpT2_EEEDpOT3_, symObjAddr: 0xEE68, symBinAddr: 0x100010BD8, symSize: 0x34 }
  - { offset: 0x62436, size: 0x8, addend: 0x0, symName: __ZNSt3__112__tuple_leafILm0ERKZN6parlay14ThreadSpecificINS1_8internal24intrusive_acquire_retireINS3_12hazptr_stackIPNS3_15block_allocator5blockEE4NodeENS_14default_deleteISA_EELm1EE10ThreadDataEEC1EvEUlmE_Lb0EEC2B8ue170006ISI_vEEOT_, symObjAddr: 0xEE9C, symBinAddr: 0x100010C0C, symSize: 0x20 }
  - { offset: 0x62479, size: 0x8, addend: 0x0, symName: __ZNSt3__117__compressed_pairIZN6parlay14ThreadSpecificINS1_8internal24intrusive_acquire_retireINS3_12hazptr_stackIPNS3_15block_allocator5blockEE4NodeENS_14default_deleteISA_EELm1EE10ThreadDataEEC1EvEUlmE_NS_9allocatorISG_EEEC2B8ue170006IJRKSG_EJOSI_EEENS_21piecewise_construct_tENS_5tupleIJDpT_EEENSP_IJDpT0_EEE, symObjAddr: 0xEEBC, symBinAddr: 0x100010C2C, symSize: 0x54 }
  - { offset: 0x624E3, size: 0x8, addend: 0x0, symName: __ZNSt3__122__compressed_pair_elemIZN6parlay14ThreadSpecificINS1_8internal24intrusive_acquire_retireINS3_12hazptr_stackIPNS3_15block_allocator5blockEE4NodeENS_14default_deleteISA_EELm1EE10ThreadDataEEC1EvEUlmE_Li0ELb1EEC2B8ue170006IJRKSG_EJLm0EEEENS_21piecewise_construct_tENS_5tupleIJDpT_EEENS_15__tuple_indicesIJXspT0_EEEE, symObjAddr: 0xEF10, symBinAddr: 0x100010C80, symSize: 0x38 }
  - { offset: 0x62548, size: 0x8, addend: 0x0, symName: __ZNSt3__112__tuple_leafILm0ERKZN6parlay14ThreadSpecificINS1_8internal24intrusive_acquire_retireINS3_12hazptr_stackIPNS3_15block_allocator5blockEE4NodeENS_14default_deleteISA_EELm1EE10ThreadDataEEC1EvEUlmE_Lb0EE3getB8ue170006Ev, symObjAddr: 0xEF6C, symBinAddr: 0x100010CDC, symSize: 0x18 }
  - { offset: 0x6256E, size: 0x8, addend: 0x0, symName: __ZNSt3__117__compressed_pairIPNS_10__function6__funcIZN6parlay14ThreadSpecificINS3_8internal24intrusive_acquire_retireINS5_12hazptr_stackIPNS5_15block_allocator5blockEE4NodeENS_14default_deleteISC_EELm1EE10ThreadDataEEC1EvEUlmE_NS_9allocatorISI_EEFSG_jEEENS_22__allocator_destructorINSJ_ISM_EEEEE5firstB8ue170006Ev, symObjAddr: 0xEF84, symBinAddr: 0x100010CF4, symSize: 0x24 }
  - { offset: 0x62594, size: 0x8, addend: 0x0, symName: __ZNSt3__122__compressed_pair_elemIPNS_10__function6__funcIZN6parlay14ThreadSpecificINS3_8internal24intrusive_acquire_retireINS5_12hazptr_stackIPNS5_15block_allocator5blockEE4NodeENS_14default_deleteISC_EELm1EE10ThreadDataEEC1EvEUlmE_NS_9allocatorISI_EEFSG_jEEELi0ELb0EE5__getB8ue170006Ev, symObjAddr: 0xEFA8, symBinAddr: 0x100010D18, symSize: 0x14 }
  - { offset: 0x625BA, size: 0x8, addend: 0x0, symName: __ZNSt3__110unique_ptrINS_10__function6__funcIZN6parlay14ThreadSpecificINS3_8internal24intrusive_acquire_retireINS5_12hazptr_stackIPNS5_15block_allocator5blockEE4NodeENS_14default_deleteISC_EELm1EE10ThreadDataEEC1EvEUlmE_NS_9allocatorISI_EEFSG_jEEENS_22__allocator_destructorINSJ_ISM_EEEEED2B8ue170006Ev, symObjAddr: 0xEFBC, symBinAddr: 0x100010D2C, symSize: 0x30 }
  - { offset: 0x625E4, size: 0x8, addend: 0x0, symName: __ZNSt3__110unique_ptrINS_10__function6__funcIZN6parlay14ThreadSpecificINS3_8internal24intrusive_acquire_retireINS5_12hazptr_stackIPNS5_15block_allocator5blockEE4NodeENS_14default_deleteISC_EELm1EE10ThreadDataEEC1EvEUlmE_NS_9allocatorISI_EEFSG_jEEENS_22__allocator_destructorINSJ_ISM_EEEEE5resetB8ue170006EPSM_, symObjAddr: 0xEFEC, symBinAddr: 0x100010D5C, symSize: 0x78 }
  - { offset: 0x62628, size: 0x8, addend: 0x0, symName: __ZNSt3__117__compressed_pairIPNS_10__function6__funcIZN6parlay14ThreadSpecificINS3_8internal24intrusive_acquire_retireINS5_12hazptr_stackIPNS5_15block_allocator5blockEE4NodeENS_14default_deleteISC_EELm1EE10ThreadDataEEC1EvEUlmE_NS_9allocatorISI_EEFSG_jEEENS_22__allocator_destructorINSJ_ISM_EEEEE6secondB8ue170006Ev, symObjAddr: 0xF064, symBinAddr: 0x100010DD4, symSize: 0x28 }
  - { offset: 0x6264E, size: 0x8, addend: 0x0, symName: __ZNSt3__122__allocator_destructorINS_9allocatorINS_10__function6__funcIZN6parlay14ThreadSpecificINS4_8internal24intrusive_acquire_retireINS6_12hazptr_stackIPNS6_15block_allocator5blockEE4NodeENS_14default_deleteISD_EELm1EE10ThreadDataEEC1EvEUlmE_NS1_ISJ_EEFSH_jEEEEEEclB8ue170006EPSM_, symObjAddr: 0xF08C, symBinAddr: 0x100010DFC, symSize: 0x34 }
  - { offset: 0x62682, size: 0x8, addend: 0x0, symName: __ZNSt3__122__compressed_pair_elemINS_22__allocator_destructorINS_9allocatorINS_10__function6__funcIZN6parlay14ThreadSpecificINS5_8internal24intrusive_acquire_retireINS7_12hazptr_stackIPNS7_15block_allocator5blockEE4NodeENS_14default_deleteISE_EELm1EE10ThreadDataEEC1EvEUlmE_NS2_ISK_EEFSI_jEEEEEEELi1ELb0EE5__getB8ue170006Ev, symObjAddr: 0xF0C0, symBinAddr: 0x100010E30, symSize: 0x14 }
  - { offset: 0x626A8, size: 0x8, addend: 0x0, symName: __ZNSt3__116allocator_traitsINS_9allocatorINS_10__function6__funcIZN6parlay14ThreadSpecificINS4_8internal24intrusive_acquire_retireINS6_12hazptr_stackIPNS6_15block_allocator5blockEE4NodeENS_14default_deleteISD_EELm1EE10ThreadDataEEC1EvEUlmE_NS1_ISJ_EEFSH_jEEEEEE10deallocateB8ue170006ERSN_PSM_m, symObjAddr: 0xF0D4, symBinAddr: 0x100010E44, symSize: 0x34 }
  - { offset: 0x626EA, size: 0x8, addend: 0x0, symName: __ZNSt3__19allocatorINS_10__function6__funcIZN6parlay14ThreadSpecificINS3_8internal24intrusive_acquire_retireINS5_12hazptr_stackIPNS5_15block_allocator5blockEE4NodeENS_14default_deleteISC_EELm1EE10ThreadDataEEC1EvEUlmE_NS0_ISI_EEFSG_jEEEE10deallocateB8ue170006EPSL_m, symObjAddr: 0xF108, symBinAddr: 0x100010E78, symSize: 0x40 }
  - { offset: 0x6272C, size: 0x8, addend: 0x0, symName: __ZNSt3__110__function6__funcIZN6parlay14ThreadSpecificINS2_8internal24intrusive_acquire_retireINS4_12hazptr_stackIPNS4_15block_allocator5blockEE4NodeENS_14default_deleteISB_EELm1EE10ThreadDataEEC1EvEUlmE_NS_9allocatorISH_EEFSF_jEEC1B8ue170006ERKSH_RKSJ_, symObjAddr: 0xF148, symBinAddr: 0x100010EB8, symSize: 0x3C }
  - { offset: 0x62774, size: 0x8, addend: 0x0, symName: __ZNSt3__110__function6__funcIZN6parlay14ThreadSpecificINS2_8internal24intrusive_acquire_retireINS4_12hazptr_stackIPNS4_15block_allocator5blockEE4NodeENS_14default_deleteISB_EELm1EE10ThreadDataEEC1EvEUlmE_NS_9allocatorISH_EEFSF_jEEC2B8ue170006ERKSH_RKSJ_, symObjAddr: 0xF184, symBinAddr: 0x100010EF4, symSize: 0x80 }
  - { offset: 0x627BC, size: 0x8, addend: 0x0, symName: __ZNSt3__110__function12__alloc_funcIZN6parlay14ThreadSpecificINS2_8internal24intrusive_acquire_retireINS4_12hazptr_stackIPNS4_15block_allocator5blockEE4NodeENS_14default_deleteISB_EELm1EE10ThreadDataEEC1EvEUlmE_NS_9allocatorISH_EEFSF_jEEC1B8ue170006ERKSH_RKSJ_, symObjAddr: 0xF204, symBinAddr: 0x100010F74, symSize: 0x3C }
  - { offset: 0x62802, size: 0x8, addend: 0x0, symName: __ZNSt3__110__function12__alloc_funcIZN6parlay14ThreadSpecificINS2_8internal24intrusive_acquire_retireINS4_12hazptr_stackIPNS4_15block_allocator5blockEE4NodeENS_14default_deleteISB_EELm1EE10ThreadDataEEC1EvEUlmE_NS_9allocatorISH_EEFSF_jEEC2B8ue170006ERKSH_RKSJ_, symObjAddr: 0xF240, symBinAddr: 0x100010FB0, symSize: 0x5C }
  - { offset: 0x62848, size: 0x8, addend: 0x0, symName: __ZNSt3__117__compressed_pairIZN6parlay14ThreadSpecificINS1_8internal24intrusive_acquire_retireINS3_12hazptr_stackIPNS3_15block_allocator5blockEE4NodeENS_14default_deleteISA_EELm1EE10ThreadDataEEC1EvEUlmE_NS_9allocatorISG_EEEC1B8ue170006IJRKSG_EJRKSI_EEENS_21piecewise_construct_tENS_5tupleIJDpT_EEENSQ_IJDpT0_EEE, symObjAddr: 0xF2C8, symBinAddr: 0x100011038, symSize: 0x3C }
  - { offset: 0x628B2, size: 0x8, addend: 0x0, symName: __ZNSt3__15tupleIJRKNS_9allocatorIZN6parlay14ThreadSpecificINS2_8internal24intrusive_acquire_retireINS4_12hazptr_stackIPNS4_15block_allocator5blockEE4NodeENS_14default_deleteISB_EELm1EE10ThreadDataEEC1EvEUlmE_EEEEC1B8ue170006INS_4_AndELi0EEESK_, symObjAddr: 0xF304, symBinAddr: 0x100011074, symSize: 0x34 }
  - { offset: 0x628FB, size: 0x8, addend: 0x0, symName: __ZNSt3__15tupleIJRKNS_9allocatorIZN6parlay14ThreadSpecificINS2_8internal24intrusive_acquire_retireINS4_12hazptr_stackIPNS4_15block_allocator5blockEE4NodeENS_14default_deleteISB_EELm1EE10ThreadDataEEC1EvEUlmE_EEEEC2B8ue170006INS_4_AndELi0EEESK_, symObjAddr: 0xF338, symBinAddr: 0x1000110A8, symSize: 0x34 }
  - { offset: 0x62944, size: 0x8, addend: 0x0, symName: __ZNSt3__112__tuple_implINS_15__tuple_indicesIJLm0EEEEJRKNS_9allocatorIZN6parlay14ThreadSpecificINS4_8internal24intrusive_acquire_retireINS6_12hazptr_stackIPNS6_15block_allocator5blockEE4NodeENS_14default_deleteISD_EELm1EE10ThreadDataEEC1EvEUlmE_EEEEC1B8ue170006IJLm0EEJSM_EJEJEJSM_EEENS1_IJXspT_EEEENS_13__tuple_typesIJDpT0_EEENS1_IJXspT1_EEEENSQ_IJDpT2_EEEDpOT3_, symObjAddr: 0xF36C, symBinAddr: 0x1000110DC, symSize: 0x34 }
  - { offset: 0x629D5, size: 0x8, addend: 0x0, symName: __ZNSt3__112__tuple_implINS_15__tuple_indicesIJLm0EEEEJRKNS_9allocatorIZN6parlay14ThreadSpecificINS4_8internal24intrusive_acquire_retireINS6_12hazptr_stackIPNS6_15block_allocator5blockEE4NodeENS_14default_deleteISD_EELm1EE10ThreadDataEEC1EvEUlmE_EEEEC2B8ue170006IJLm0EEJSM_EJEJEJSM_EEENS1_IJXspT_EEEENS_13__tuple_typesIJDpT0_EEENS1_IJXspT1_EEEENSQ_IJDpT2_EEEDpOT3_, symObjAddr: 0xF3A0, symBinAddr: 0x100011110, symSize: 0x34 }
  - { offset: 0x62A66, size: 0x8, addend: 0x0, symName: __ZNSt3__112__tuple_leafILm0ERKNS_9allocatorIZN6parlay14ThreadSpecificINS2_8internal24intrusive_acquire_retireINS4_12hazptr_stackIPNS4_15block_allocator5blockEE4NodeENS_14default_deleteISB_EELm1EE10ThreadDataEEC1EvEUlmE_EELb0EEC2B8ue170006ISK_vEEOT_, symObjAddr: 0xF3D4, symBinAddr: 0x100011144, symSize: 0x20 }
  - { offset: 0x62AA9, size: 0x8, addend: 0x0, symName: __ZNSt3__117__compressed_pairIZN6parlay14ThreadSpecificINS1_8internal24intrusive_acquire_retireINS3_12hazptr_stackIPNS3_15block_allocator5blockEE4NodeENS_14default_deleteISA_EELm1EE10ThreadDataEEC1EvEUlmE_NS_9allocatorISG_EEEC2B8ue170006IJRKSG_EJRKSI_EEENS_21piecewise_construct_tENS_5tupleIJDpT_EEENSQ_IJDpT0_EEE, symObjAddr: 0xF3F4, symBinAddr: 0x100011164, symSize: 0x54 }
  - { offset: 0x62B13, size: 0x8, addend: 0x0, symName: __ZNSt3__122__compressed_pair_elemINS_9allocatorIZN6parlay14ThreadSpecificINS2_8internal24intrusive_acquire_retireINS4_12hazptr_stackIPNS4_15block_allocator5blockEE4NodeENS_14default_deleteISB_EELm1EE10ThreadDataEEC1EvEUlmE_EELi1ELb1EEC2B8ue170006IJRKSI_EJLm0EEEENS_21piecewise_construct_tENS_5tupleIJDpT_EEENS_15__tuple_indicesIJXspT0_EEEE, symObjAddr: 0xF448, symBinAddr: 0x1000111B8, symSize: 0x38 }
  - { offset: 0x62B78, size: 0x8, addend: 0x0, symName: __ZNSt3__112__tuple_leafILm0ERKNS_9allocatorIZN6parlay14ThreadSpecificINS2_8internal24intrusive_acquire_retireINS4_12hazptr_stackIPNS4_15block_allocator5blockEE4NodeENS_14default_deleteISB_EELm1EE10ThreadDataEEC1EvEUlmE_EELb0EE3getB8ue170006Ev, symObjAddr: 0xF4A4, symBinAddr: 0x100011214, symSize: 0x18 }
  - { offset: 0x62B9E, size: 0x8, addend: 0x0, symName: __ZNSt3__110__function12__alloc_funcIZN6parlay14ThreadSpecificINS2_8internal24intrusive_acquire_retireINS4_12hazptr_stackIPNS4_15block_allocator5blockEE4NodeENS_14default_deleteISB_EELm1EE10ThreadDataEEC1EvEUlmE_NS_9allocatorISH_EEFSF_jEE7destroyB8ue170006Ev, symObjAddr: 0xF4BC, symBinAddr: 0x10001122C, symSize: 0x10 }
  - { offset: 0x62BC4, size: 0x8, addend: 0x0, symName: __ZNSt3__110__function12__alloc_funcIZN6parlay14ThreadSpecificINS2_8internal24intrusive_acquire_retireINS4_12hazptr_stackIPNS4_15block_allocator5blockEE4NodeENS_14default_deleteISB_EELm1EE10ThreadDataEEC1EvEUlmE_NS_9allocatorISH_EEFSF_jEEclB8ue170006EOj, symObjAddr: 0xF4CC, symBinAddr: 0x10001123C, symSize: 0x3C }
  - { offset: 0x62BF8, size: 0x8, addend: 0x0, symName: __ZNSt3__128__invoke_void_return_wrapperIN6parlay8internal24intrusive_acquire_retireINS2_12hazptr_stackIPNS2_15block_allocator5blockEE4NodeENS_14default_deleteIS9_EELm1EE10ThreadDataELb0EE6__callB8ue170006IJRZNS1_14ThreadSpecificISD_EC1EvEUlmE_jEEESD_DpOT_, symObjAddr: 0xF508, symBinAddr: 0x100011278, symSize: 0x34 }
  - { offset: 0x62C3B, size: 0x8, addend: 0x0, symName: __ZNSt3__117__compressed_pairIZN6parlay14ThreadSpecificINS1_8internal24intrusive_acquire_retireINS3_12hazptr_stackIPNS3_15block_allocator5blockEE4NodeENS_14default_deleteISA_EELm1EE10ThreadDataEEC1EvEUlmE_NS_9allocatorISG_EEE5firstB8ue170006Ev, symObjAddr: 0xF53C, symBinAddr: 0x1000112AC, symSize: 0x24 }
  - { offset: 0x62C66, size: 0x8, addend: 0x0, symName: __ZZN6parlay14ThreadSpecificINS_8internal24intrusive_acquire_retireINS1_12hazptr_stackIPNS1_15block_allocator5blockEE4NodeENSt3__114default_deleteIS8_EELm1EE10ThreadDataEEC1EvENKUlmE_clEm, symObjAddr: 0xF59C, symBinAddr: 0x10001130C, symSize: 0x58 }
  - { offset: 0x62C9B, size: 0x8, addend: 0x0, symName: __ZN6parlay8internal24intrusive_acquire_retireINS0_12hazptr_stackIPNS0_15block_allocator5blockEE4NodeENSt3__114default_deleteIS7_EELm1EE11RetiredListC1Ev, symObjAddr: 0xF5F4, symBinAddr: 0x100011364, symSize: 0x2C }
  - { offset: 0x62CC5, size: 0x8, addend: 0x0, symName: __ZN6parlay8internal24intrusive_acquire_retireINS0_12hazptr_stackIPNS0_15block_allocator5blockEE4NodeENSt3__114default_deleteIS7_EELm1EE11RetiredListC2Ev, symObjAddr: 0xF620, symBinAddr: 0x100011390, symSize: 0x1C }
  - { offset: 0x62CEF, size: 0x8, addend: 0x0, symName: __ZNSt3__122__compressed_pair_elemIZN6parlay14ThreadSpecificINS1_8internal24intrusive_acquire_retireINS3_12hazptr_stackIPNS3_15block_allocator5blockEE4NodeENS_14default_deleteISA_EELm1EE10ThreadDataEEC1EvEUlmE_Li0ELb1EE5__getB8ue170006Ev, symObjAddr: 0xF63C, symBinAddr: 0x1000113AC, symSize: 0x14 }
  - { offset: 0x62D15, size: 0x8, addend: 0x0, symName: __ZNSt3__15arrayINS_6atomicIPN6parlay8internal13UninitializedINS3_24intrusive_acquire_retireINS3_12hazptr_stackIPNS3_15block_allocator5blockEE4NodeENS_14default_deleteISB_EELm1EE10ThreadDataEEEEELm25EEixB8ue170006Em, symObjAddr: 0xF650, symBinAddr: 0x1000113C0, symSize: 0x20 }
  - { offset: 0x62D49, size: 0x8, addend: 0x0, symName: __ZNSt3__113__atomic_baseIPN6parlay8internal13UninitializedINS2_24intrusive_acquire_retireINS2_12hazptr_stackIPNS2_15block_allocator5blockEE4NodeENS_14default_deleteISA_EELm1EE10ThreadDataEEELb0EE5storeB8ue170006ESG_NS_12memory_orderE, symObjAddr: 0xF670, symBinAddr: 0x1000113E0, symSize: 0x34 }
  - { offset: 0x62D8B, size: 0x8, addend: 0x0, symName: __ZN6parlay8internal13UninitializedINS0_24intrusive_acquire_retireINS0_12hazptr_stackIPNS0_15block_allocator5blockEE4NodeENSt3__114default_deleteIS8_EELm1EE10ThreadDataEEC1Ev, symObjAddr: 0xF6A4, symBinAddr: 0x100011414, symSize: 0x2C }
  - { offset: 0x62DB5, size: 0x8, addend: 0x0, symName: __ZNSt3__15arrayINS_6atomicIPN6parlay8internal13UninitializedINS3_24intrusive_acquire_retireINS3_12hazptr_stackIPNS3_15block_allocator5blockEE4NodeENS_14default_deleteISB_EELm1EE10ThreadDataEEEEELm25EE5beginB8ue170006Ev, symObjAddr: 0xF704, symBinAddr: 0x100011474, symSize: 0x24 }
  - { offset: 0x62DDB, size: 0x8, addend: 0x0, symName: __ZNSt3__15arrayINS_6atomicIPN6parlay8internal13UninitializedINS3_24intrusive_acquire_retireINS3_12hazptr_stackIPNS3_15block_allocator5blockEE4NodeENS_14default_deleteISB_EELm1EE10ThreadDataEEEEELm25EE3endB8ue170006Ev, symObjAddr: 0xF728, symBinAddr: 0x100011498, symSize: 0x28 }
  - { offset: 0x62E01, size: 0x8, addend: 0x0, symName: __ZNKSt3__113__atomic_baseIPN6parlay8internal13UninitializedINS2_24intrusive_acquire_retireINS2_12hazptr_stackIPNS2_15block_allocator5blockEE4NodeENS_14default_deleteISA_EELm1EE10ThreadDataEEELb0EE4loadB8ue170006ENS_12memory_orderE, symObjAddr: 0xF750, symBinAddr: 0x1000114C0, symSize: 0x2C }
  - { offset: 0x62E35, size: 0x8, addend: 0x0, symName: __ZN6parlay8internal13UninitializedINS0_24intrusive_acquire_retireINS0_12hazptr_stackIPNS0_15block_allocator5blockEE4NodeENSt3__114default_deleteIS8_EELm1EE10ThreadDataEE3getEv, symObjAddr: 0xF77C, symBinAddr: 0x1000114EC, symSize: 0x14 }
  - { offset: 0x62E5B, size: 0x8, addend: 0x0, symName: __ZNKSt3__18functionIFN6parlay8internal24intrusive_acquire_retireINS2_12hazptr_stackIPNS2_15block_allocator5blockEE4NodeENS_14default_deleteIS9_EELm1EE10ThreadDataEjEEclEj, symObjAddr: 0xF790, symBinAddr: 0x100011500, symSize: 0x38 }
  - { offset: 0x62E92, size: 0x8, addend: 0x0, symName: __ZN6parlay8internal13UninitializedINS0_24intrusive_acquire_retireINS0_12hazptr_stackIPNS0_15block_allocator5blockEE4NodeENSt3__114default_deleteIS8_EELm1EE10ThreadDataEEC2Ev, symObjAddr: 0xF84C, symBinAddr: 0x1000115BC, symSize: 0x14 }
  - { offset: 0x62EBC, size: 0x8, addend: 0x0, symName: __ZNSt3__16atomicIPN6parlay8internal13UninitializedINS2_24intrusive_acquire_retireINS2_12hazptr_stackIPNS2_15block_allocator5blockEE4NodeENS_14default_deleteISA_EELm1EE10ThreadDataEEEEaSB8ue170006ESG_, symObjAddr: 0xF954, symBinAddr: 0x1000116C4, symSize: 0x34 }
  - { offset: 0x62EF0, size: 0x8, addend: 0x0, symName: __ZNSt3__15arrayINS_6atomicIPN6parlay8internal13UninitializedINS3_24intrusive_acquire_retireINS3_12hazptr_stackIPNS3_15block_allocator5blockEE4NodeENS_14default_deleteISB_EELm1EE10ThreadDataEEEEELm25EE4dataB8ue170006Ev, symObjAddr: 0xF988, symBinAddr: 0x1000116F8, symSize: 0x14 }
  - { offset: 0x62F16, size: 0x8, addend: 0x0, symName: __ZNKSt3__110__function12__value_funcIFN6parlay8internal24intrusive_acquire_retireINS3_12hazptr_stackIPNS3_15block_allocator5blockEE4NodeENS_14default_deleteISA_EELm1EE10ThreadDataEjEEclB8ue170006EOj, symObjAddr: 0xFA1C, symBinAddr: 0x10001178C, symSize: 0x64 }
  - { offset: 0x62F4B, size: 0x8, addend: 0x0, symName: __ZNSt3__18functionIFN6parlay8internal24intrusive_acquire_retireINS2_12hazptr_stackIPNS2_15block_allocator5blockEE4NodeENS_14default_deleteIS9_EELm1EE10ThreadDataEjEED2Ev, symObjAddr: 0xFA80, symBinAddr: 0x1000117F0, symSize: 0x2C }
  - { offset: 0x62F77, size: 0x8, addend: 0x0, symName: __ZNSt3__110__function12__value_funcIFN6parlay8internal24intrusive_acquire_retireINS3_12hazptr_stackIPNS3_15block_allocator5blockEE4NodeENS_14default_deleteISA_EELm1EE10ThreadDataEjEED1B8ue170006Ev, symObjAddr: 0xFAAC, symBinAddr: 0x10001181C, symSize: 0x2C }
  - { offset: 0x62FA1, size: 0x8, addend: 0x0, symName: __ZNSt3__110__function12__value_funcIFN6parlay8internal24intrusive_acquire_retireINS3_12hazptr_stackIPNS3_15block_allocator5blockEE4NodeENS_14default_deleteISA_EELm1EE10ThreadDataEjEED2B8ue170006Ev, symObjAddr: 0xFAD8, symBinAddr: 0x100011848, symSize: 0x90 }
  - { offset: 0x62FCB, size: 0x8, addend: 0x0, symName: __ZN6parlay8internal24intrusive_acquire_retireINS0_12hazptr_stackIPNS0_15block_allocator5blockEE4NodeENSt3__114default_deleteIS7_EELm1EED2Ev, symObjAddr: 0xFB68, symBinAddr: 0x1000118D8, symSize: 0x80 }
  - { offset: 0x6306B, size: 0x8, addend: 0x0, symName: __ZN6parlay14ThreadSpecificINS_8internal24intrusive_acquire_retireINS1_12hazptr_stackIPNS1_15block_allocator5blockEE4NodeENSt3__114default_deleteIS8_EELm1EE10ThreadDataEE8for_eachIZNSC_D1EvEUlRT_E_EEvOSG_, symObjAddr: 0xFBE8, symBinAddr: 0x100011958, symSize: 0x180 }
  - { offset: 0x63131, size: 0x8, addend: 0x0, symName: __ZN6parlay14ThreadSpecificINS_8internal24intrusive_acquire_retireINS1_12hazptr_stackIPNS1_15block_allocator5blockEE4NodeENSt3__114default_deleteIS8_EELm1EE10ThreadDataEE8for_eachIZNSC_D1EvEUlOT_E_EEvSH_, symObjAddr: 0xFD68, symBinAddr: 0x100011AD8, symSize: 0x180 }
  - { offset: 0x631EC, size: 0x8, addend: 0x0, symName: __ZN6parlay14ThreadSpecificINS_8internal24intrusive_acquire_retireINS1_12hazptr_stackIPNS1_15block_allocator5blockEE4NodeENSt3__114default_deleteIS8_EELm1EE10ThreadDataEED1Ev, symObjAddr: 0xFEE8, symBinAddr: 0x100011C58, symSize: 0x2C }
  - { offset: 0x63216, size: 0x8, addend: 0x0, symName: __ZN6parlay14ThreadSpecificINS_8internal24intrusive_acquire_retireINS1_12hazptr_stackIPNS1_15block_allocator5blockEE4NodeENSt3__114default_deleteIS8_EELm1EE10ThreadDataEE14get_chunk_sizeEm, symObjAddr: 0xFF14, symBinAddr: 0x100011C84, symSize: 0xA0 }
  - { offset: 0x6323A, size: 0x8, addend: 0x0, symName: __ZNK6parlay14ThreadSpecificINS_8internal24intrusive_acquire_retireINS1_12hazptr_stackIPNS1_15block_allocator5blockEE4NodeENSt3__114default_deleteIS8_EELm1EE10ThreadDataEE19ensure_chunk_existsEm, symObjAddr: 0xFFB4, symBinAddr: 0x100011D24, symSize: 0x1DC }
  - { offset: 0x632CA, size: 0x8, addend: 0x0, symName: __ZZN6parlay8internal24intrusive_acquire_retireINS0_12hazptr_stackIPNS0_15block_allocator5blockEE4NodeENSt3__114default_deleteIS7_EELm1EED1EvENKUlRT_E_clINSB_10ThreadDataEEEDaSD_, symObjAddr: 0x10190, symBinAddr: 0x100011F00, symSize: 0x20 }
  - { offset: 0x6330B, size: 0x8, addend: 0x0, symName: __ZN6parlay8internal13UninitializedINS0_24intrusive_acquire_retireINS0_12hazptr_stackIPNS0_15block_allocator5blockEE4NodeENSt3__114default_deleteIS8_EELm1EE10ThreadDataEEdeEv, symObjAddr: 0x101B0, symBinAddr: 0x100011F20, symSize: 0x14 }
  - { offset: 0x6333B, size: 0x8, addend: 0x0, symName: __ZZN6parlay8internal24intrusive_acquire_retireINS0_12hazptr_stackIPNS0_15block_allocator5blockEE4NodeENSt3__114default_deleteIS7_EELm1EED1EvENKUlOT_E_clIRNSB_10ThreadDataEEEDaSD_, symObjAddr: 0x101C4, symBinAddr: 0x100011F34, symSize: 0x74 }
  - { offset: 0x633A2, size: 0x8, addend: 0x0, symName: __ZNK6parlay8internal24intrusive_acquire_retireINS0_12hazptr_stackIPNS0_15block_allocator5blockEE4NodeENSt3__114default_deleteIS7_EELm1EE11RetiredList8get_sizeEv, symObjAddr: 0x10238, symBinAddr: 0x100011FA8, symSize: 0x18 }
  - { offset: 0x633D4, size: 0x8, addend: 0x0, symName: __ZN6parlay8internal24intrusive_acquire_retireINS0_12hazptr_stackIPNS0_15block_allocator5blockEE4NodeENSt3__114default_deleteIS7_EELm1EE11RetiredList7cleanupIZZNSB_D1EvENKUlOT_E_clIRNSB_10ThreadDataEEEDaSF_EUlSF_E_EEvSF_RSA_, symObjAddr: 0x10250, symBinAddr: 0x100011FC0, symSize: 0x188 }
  - { offset: 0x6348B, size: 0x8, addend: 0x0, symName: __ZZZN6parlay8internal24intrusive_acquire_retireINS0_12hazptr_stackIPNS0_15block_allocator5blockEE4NodeENSt3__114default_deleteIS7_EELm1EED1EvENKUlOT_E_clIRNSB_10ThreadDataEEEDaSD_ENKUlSD_E_clIRPS7_EESI_SD_, symObjAddr: 0x103D8, symBinAddr: 0x100012148, symSize: 0x1C }
  - { offset: 0x634C9, size: 0x8, addend: 0x0, symName: __ZNKSt3__114default_deleteIN6parlay8internal12hazptr_stackIPNS2_15block_allocator5blockEE4NodeEEclB8ue170006EPS8_, symObjAddr: 0x10440, symBinAddr: 0x1000121B0, symSize: 0x44 }
  - { offset: 0x634FD, size: 0x8, addend: 0x0, symName: __ZN6parlay14ThreadSpecificINS_8internal24intrusive_acquire_retireINS1_12hazptr_stackIPNS1_15block_allocator5blockEE4NodeENSt3__114default_deleteIS8_EELm1EE10ThreadDataEED2Ev, symObjAddr: 0x104A4, symBinAddr: 0x100012214, symSize: 0x11C }
  - { offset: 0x63575, size: 0x8, addend: 0x0, symName: __ZNKSt3__113__atomic_baseIPN6parlay8internal13UninitializedINS2_24intrusive_acquire_retireINS2_12hazptr_stackIPNS2_15block_allocator5blockEE4NodeENS_14default_deleteISA_EELm1EE10ThreadDataEEELb0EEcvSG_B8ue170006Ev, symObjAddr: 0x105C0, symBinAddr: 0x100012330, symSize: 0x28 }
  - { offset: 0x6359B, size: 0x8, addend: 0x0, symName: __ZN6parlay8internal13UninitializedINS0_24intrusive_acquire_retireINS0_12hazptr_stackIPNS0_15block_allocator5blockEE4NodeENSt3__114default_deleteIS8_EELm1EE10ThreadDataEED1Ev, symObjAddr: 0x105E8, symBinAddr: 0x100012358, symSize: 0x2C }
  - { offset: 0x635C5, size: 0x8, addend: 0x0, symName: __ZN6parlay8internal13UninitializedINS0_24intrusive_acquire_retireINS0_12hazptr_stackIPNS0_15block_allocator5blockEE4NodeENSt3__114default_deleteIS8_EELm1EE10ThreadDataEED2Ev, symObjAddr: 0x10614, symBinAddr: 0x100012384, symSize: 0x2C }
  - { offset: 0x635F4, size: 0x8, addend: 0x0, symName: __ZN6parlay8internal24intrusive_acquire_retireINS0_12hazptr_stackIPNS0_15block_allocator5blockEE4NodeENSt3__114default_deleteIS7_EELm1EE10ThreadDataD1Ev, symObjAddr: 0x10640, symBinAddr: 0x1000123B0, symSize: 0x2C }
  - { offset: 0x63620, size: 0x8, addend: 0x0, symName: __ZN6parlay8internal24intrusive_acquire_retireINS0_12hazptr_stackIPNS0_15block_allocator5blockEE4NodeENSt3__114default_deleteIS7_EELm1EE10ThreadDataD2Ev, symObjAddr: 0x1066C, symBinAddr: 0x1000123DC, symSize: 0x30 }
  - { offset: 0x6364C, size: 0x8, addend: 0x0, symName: __ZN6parlay8internal24intrusive_acquire_retireINS0_12hazptr_stackIPNS0_15block_allocator5blockEE4NodeENSt3__114default_deleteIS7_EELm1EE11RetiredListD1Ev, symObjAddr: 0x1069C, symBinAddr: 0x10001240C, symSize: 0x2C }
  - { offset: 0x63676, size: 0x8, addend: 0x0, symName: __ZN6parlay8internal24intrusive_acquire_retireINS0_12hazptr_stackIPNS0_15block_allocator5blockEE4NodeENSt3__114default_deleteIS7_EELm1EE11RetiredListD2Ev, symObjAddr: 0x106C8, symBinAddr: 0x100012438, symSize: 0x90 }
  - { offset: 0x636A0, size: 0x8, addend: 0x0, symName: __ZNSt3__18functionIFN6parlay8internal15block_allocator10local_listEjEEC1IZNS1_14ThreadSpecificIS4_EC1EvEUlmE_vEET_, symObjAddr: 0x107C8, symBinAddr: 0x100012538, symSize: 0x2C }
  - { offset: 0x636E5, size: 0x8, addend: 0x0, symName: __ZN6parlay14ThreadSpecificINS_8internal15block_allocator10local_listEE10initializeEv, symObjAddr: 0x107F4, symBinAddr: 0x100012564, symSize: 0x1B8 }
  - { offset: 0x63737, size: 0x8, addend: 0x0, symName: __ZNSt3__18functionIFN6parlay8internal15block_allocator10local_listEjEED1Ev, symObjAddr: 0x109AC, symBinAddr: 0x10001271C, symSize: 0x2C }
  - { offset: 0x63763, size: 0x8, addend: 0x0, symName: __ZNSt3__18functionIFN6parlay8internal15block_allocator10local_listEjEEC2IZNS1_14ThreadSpecificIS4_EC1EvEUlmE_vEET_, symObjAddr: 0x109D8, symBinAddr: 0x100012748, symSize: 0x30 }
  - { offset: 0x637A8, size: 0x8, addend: 0x0, symName: __ZNSt3__110__function12__value_funcIFN6parlay8internal15block_allocator10local_listEjEEC1B8ue170006IZNS2_14ThreadSpecificIS5_EC1EvEUlmE_vEEOT_, symObjAddr: 0x10A08, symBinAddr: 0x100012778, symSize: 0x50 }
  - { offset: 0x637EB, size: 0x8, addend: 0x0, symName: __ZNSt3__19allocatorIZN6parlay14ThreadSpecificINS1_8internal15block_allocator10local_listEEC1EvEUlmE_EC1B8ue170006Ev, symObjAddr: 0x10A58, symBinAddr: 0x1000127C8, symSize: 0x2C }
  - { offset: 0x63815, size: 0x8, addend: 0x0, symName: __ZNSt3__110__function12__value_funcIFN6parlay8internal15block_allocator10local_listEjEEC1B8ue170006IZNS2_14ThreadSpecificIS5_EC1EvEUlmE_NS_9allocatorISB_EEEEOT_RKT0_, symObjAddr: 0x10A84, symBinAddr: 0x1000127F4, symSize: 0x3C }
  - { offset: 0x6386F, size: 0x8, addend: 0x0, symName: __ZNSt3__19allocatorIZN6parlay14ThreadSpecificINS1_8internal15block_allocator10local_listEEC1EvEUlmE_EC2B8ue170006Ev, symObjAddr: 0x10AC0, symBinAddr: 0x100012830, symSize: 0x2C }
  - { offset: 0x63899, size: 0x8, addend: 0x0, symName: __ZNSt3__116__non_trivial_ifILb1ENS_9allocatorIZN6parlay14ThreadSpecificINS2_8internal15block_allocator10local_listEEC1EvEUlmE_EEEC2B8ue170006Ev, symObjAddr: 0x10AEC, symBinAddr: 0x10001285C, symSize: 0x14 }
  - { offset: 0x638C3, size: 0x8, addend: 0x0, symName: __ZNSt3__110__function12__value_funcIFN6parlay8internal15block_allocator10local_listEjEEC2B8ue170006IZNS2_14ThreadSpecificIS5_EC1EvEUlmE_NS_9allocatorISB_EEEEOT_RKT0_, symObjAddr: 0x10B00, symBinAddr: 0x100012870, symSize: 0x94 }
  - { offset: 0x6396B, size: 0x8, addend: 0x0, symName: __ZNSt3__19allocatorINS_10__function6__funcIZN6parlay14ThreadSpecificINS3_8internal15block_allocator10local_listEEC1EvEUlmE_NS0_IS9_EEFS7_jEEEEC1B8ue170006IS9_EERKNS0_IT_EE, symObjAddr: 0x10BAC, symBinAddr: 0x10001291C, symSize: 0x34 }
  - { offset: 0x639AF, size: 0x8, addend: 0x0, symName: __ZNSt3__19allocatorIZN6parlay14ThreadSpecificINS1_8internal15block_allocator10local_listEEC1EvEUlmE_EC1B8ue170006INS_10__function6__funcIS7_S8_FS5_jEEEEERKNS0_IT_EE, symObjAddr: 0x10BE0, symBinAddr: 0x100012950, symSize: 0x34 }
  - { offset: 0x639ED, size: 0x8, addend: 0x0, symName: __ZNSt3__110__function6__funcIZN6parlay14ThreadSpecificINS2_8internal15block_allocator10local_listEEC1EvEUlmE_NS_9allocatorIS8_EEFS6_jEEC1B8ue170006EOS8_OSA_, symObjAddr: 0x10C14, symBinAddr: 0x100012984, symSize: 0x3C }
  - { offset: 0x63A35, size: 0x8, addend: 0x0, symName: __ZNSt3__19allocatorINS_10__function6__funcIZN6parlay14ThreadSpecificINS3_8internal15block_allocator10local_listEEC1EvEUlmE_NS0_IS9_EEFS7_jEEEEC2B8ue170006IS9_EERKNS0_IT_EE, symObjAddr: 0x10C50, symBinAddr: 0x1000129C0, symSize: 0x30 }
  - { offset: 0x63A73, size: 0x8, addend: 0x0, symName: __ZNSt3__116__non_trivial_ifILb1ENS_9allocatorINS_10__function6__funcIZN6parlay14ThreadSpecificINS4_8internal15block_allocator10local_listEEC1EvEUlmE_NS1_ISA_EEFS8_jEEEEEEC2B8ue170006Ev, symObjAddr: 0x10C80, symBinAddr: 0x1000129F0, symSize: 0x14 }
  - { offset: 0x63A9D, size: 0x8, addend: 0x0, symName: __ZNSt3__19allocatorIZN6parlay14ThreadSpecificINS1_8internal15block_allocator10local_listEEC1EvEUlmE_EC2B8ue170006INS_10__function6__funcIS7_S8_FS5_jEEEEERKNS0_IT_EE, symObjAddr: 0x10C94, symBinAddr: 0x100012A04, symSize: 0x30 }
  - { offset: 0x63ADB, size: 0x8, addend: 0x0, symName: __ZNSt3__110__function6__funcIZN6parlay14ThreadSpecificINS2_8internal15block_allocator10local_listEEC1EvEUlmE_NS_9allocatorIS8_EEFS6_jEEC2B8ue170006EOS8_OSA_, symObjAddr: 0x10CC4, symBinAddr: 0x100012A34, symSize: 0x80 }
  - { offset: 0x63B23, size: 0x8, addend: 0x0, symName: __ZNSt3__110__function6__baseIFN6parlay8internal15block_allocator10local_listEjEEC2B8ue170006Ev, symObjAddr: 0x10D44, symBinAddr: 0x100012AB4, symSize: 0x24 }
  - { offset: 0x63B4D, size: 0x8, addend: 0x0, symName: __ZNSt3__110__function12__alloc_funcIZN6parlay14ThreadSpecificINS2_8internal15block_allocator10local_listEEC1EvEUlmE_NS_9allocatorIS8_EEFS6_jEEC1B8ue170006EOS8_OSA_, symObjAddr: 0x10D68, symBinAddr: 0x100012AD8, symSize: 0x3C }
  - { offset: 0x63B93, size: 0x8, addend: 0x0, symName: __ZNSt3__110__function6__baseIFN6parlay8internal15block_allocator10local_listEjEED2Ev, symObjAddr: 0x10DA4, symBinAddr: 0x100012B14, symSize: 0x14 }
  - { offset: 0x63BBD, size: 0x8, addend: 0x0, symName: __ZNSt3__110__function6__funcIZN6parlay14ThreadSpecificINS2_8internal15block_allocator10local_listEEC1EvEUlmE_NS_9allocatorIS8_EEFS6_jEED1Ev, symObjAddr: 0x10DB8, symBinAddr: 0x100012B28, symSize: 0x2C }
  - { offset: 0x63BEA, size: 0x8, addend: 0x0, symName: __ZNSt3__110__function6__funcIZN6parlay14ThreadSpecificINS2_8internal15block_allocator10local_listEEC1EvEUlmE_NS_9allocatorIS8_EEFS6_jEED0Ev, symObjAddr: 0x10DE4, symBinAddr: 0x100012B54, symSize: 0x30 }
  - { offset: 0x63C17, size: 0x8, addend: 0x0, symName: __ZNKSt3__110__function6__funcIZN6parlay14ThreadSpecificINS2_8internal15block_allocator10local_listEEC1EvEUlmE_NS_9allocatorIS8_EEFS6_jEE7__cloneEv, symObjAddr: 0x10E14, symBinAddr: 0x100012B84, symSize: 0xFC }
  - { offset: 0x63C69, size: 0x8, addend: 0x0, symName: __ZNKSt3__110__function6__funcIZN6parlay14ThreadSpecificINS2_8internal15block_allocator10local_listEEC1EvEUlmE_NS_9allocatorIS8_EEFS6_jEE7__cloneEPNS0_6__baseISB_EE, symObjAddr: 0x10F10, symBinAddr: 0x100012C80, symSize: 0x58 }
  - { offset: 0x63CA0, size: 0x8, addend: 0x0, symName: __ZNSt3__110__function6__funcIZN6parlay14ThreadSpecificINS2_8internal15block_allocator10local_listEEC1EvEUlmE_NS_9allocatorIS8_EEFS6_jEE7destroyEv, symObjAddr: 0x10F68, symBinAddr: 0x100012CD8, symSize: 0x28 }
  - { offset: 0x63CC8, size: 0x8, addend: 0x0, symName: __ZNSt3__110__function6__funcIZN6parlay14ThreadSpecificINS2_8internal15block_allocator10local_listEEC1EvEUlmE_NS_9allocatorIS8_EEFS6_jEE18destroy_deallocateEv, symObjAddr: 0x10F90, symBinAddr: 0x100012D00, symSize: 0x58 }
  - { offset: 0x63D0B, size: 0x8, addend: 0x0, symName: __ZNSt3__110__function6__funcIZN6parlay14ThreadSpecificINS2_8internal15block_allocator10local_listEEC1EvEUlmE_NS_9allocatorIS8_EEFS6_jEEclEOj, symObjAddr: 0x10FE8, symBinAddr: 0x100012D58, symSize: 0x30 }
  - { offset: 0x63D42, size: 0x8, addend: 0x0, symName: __ZNKSt3__110__function6__funcIZN6parlay14ThreadSpecificINS2_8internal15block_allocator10local_listEEC1EvEUlmE_NS_9allocatorIS8_EEFS6_jEE6targetERKSt9type_info, symObjAddr: 0x11018, symBinAddr: 0x100012D88, symSize: 0x60 }
  - { offset: 0x63D79, size: 0x8, addend: 0x0, symName: __ZNKSt3__110__function6__funcIZN6parlay14ThreadSpecificINS2_8internal15block_allocator10local_listEEC1EvEUlmE_NS_9allocatorIS8_EEFS6_jEE11target_typeEv, symObjAddr: 0x11078, symBinAddr: 0x100012DE8, symSize: 0x18 }
  - { offset: 0x63DA1, size: 0x8, addend: 0x0, symName: __ZNSt3__110__function6__baseIFN6parlay8internal15block_allocator10local_listEjEED1Ev, symObjAddr: 0x11090, symBinAddr: 0x100012E00, symSize: 0x14 }
  - { offset: 0x63DCB, size: 0x8, addend: 0x0, symName: __ZNSt3__110__function6__baseIFN6parlay8internal15block_allocator10local_listEjEED0Ev, symObjAddr: 0x110A4, symBinAddr: 0x100012E14, symSize: 0xC }
  - { offset: 0x63DF5, size: 0x8, addend: 0x0, symName: __ZNSt3__110__function12__alloc_funcIZN6parlay14ThreadSpecificINS2_8internal15block_allocator10local_listEEC1EvEUlmE_NS_9allocatorIS8_EEFS6_jEEC2B8ue170006EOS8_OSA_, symObjAddr: 0x110B0, symBinAddr: 0x100012E20, symSize: 0x5C }
  - { offset: 0x63E3B, size: 0x8, addend: 0x0, symName: __ZNSt3__117__compressed_pairIZN6parlay14ThreadSpecificINS1_8internal15block_allocator10local_listEEC1EvEUlmE_NS_9allocatorIS7_EEEC1B8ue170006IJOS7_EJOS9_EEENS_21piecewise_construct_tENS_5tupleIJDpT_EEENSF_IJDpT0_EEE, symObjAddr: 0x11164, symBinAddr: 0x100012ED4, symSize: 0x3C }
  - { offset: 0x63EA5, size: 0x8, addend: 0x0, symName: __ZNSt3__15tupleIJOZN6parlay14ThreadSpecificINS1_8internal15block_allocator10local_listEEC1EvEUlmE_EEC1B8ue170006IJS7_ELi0EEEDpOT_, symObjAddr: 0x111A0, symBinAddr: 0x100012F10, symSize: 0x34 }
  - { offset: 0x63EEF, size: 0x8, addend: 0x0, symName: __ZNSt3__15tupleIJOZN6parlay14ThreadSpecificINS1_8internal15block_allocator10local_listEEC1EvEUlmE_EEC2B8ue170006IJS7_ELi0EEEDpOT_, symObjAddr: 0x111D4, symBinAddr: 0x100012F44, symSize: 0x34 }
  - { offset: 0x63F39, size: 0x8, addend: 0x0, symName: __ZNSt3__112__tuple_implINS_15__tuple_indicesIJLm0EEEEJOZN6parlay14ThreadSpecificINS3_8internal15block_allocator10local_listEEC1EvEUlmE_EEC1B8ue170006IJLm0EEJSA_EJEJEJS9_EEENS1_IJXspT_EEEENS_13__tuple_typesIJDpT0_EEENS1_IJXspT1_EEEENSE_IJDpT2_EEEDpOT3_, symObjAddr: 0x11208, symBinAddr: 0x100012F78, symSize: 0x34 }
  - { offset: 0x63FCA, size: 0x8, addend: 0x0, symName: __ZNSt3__112__tuple_implINS_15__tuple_indicesIJLm0EEEEJOZN6parlay14ThreadSpecificINS3_8internal15block_allocator10local_listEEC1EvEUlmE_EEC2B8ue170006IJLm0EEJSA_EJEJEJS9_EEENS1_IJXspT_EEEENS_13__tuple_typesIJDpT0_EEENS1_IJXspT1_EEEENSE_IJDpT2_EEEDpOT3_, symObjAddr: 0x1123C, symBinAddr: 0x100012FAC, symSize: 0x34 }
  - { offset: 0x6405B, size: 0x8, addend: 0x0, symName: __ZNSt3__112__tuple_leafILm0EOZN6parlay14ThreadSpecificINS1_8internal15block_allocator10local_listEEC1EvEUlmE_Lb0EEC2B8ue170006IS7_vEEOT_, symObjAddr: 0x11270, symBinAddr: 0x100012FE0, symSize: 0x20 }
  - { offset: 0x6409E, size: 0x8, addend: 0x0, symName: __ZNSt3__15tupleIJONS_9allocatorIZN6parlay14ThreadSpecificINS2_8internal15block_allocator10local_listEEC1EvEUlmE_EEEEC1B8ue170006IJS9_ELi0EEEDpOT_, symObjAddr: 0x11290, symBinAddr: 0x100013000, symSize: 0x34 }
  - { offset: 0x640E8, size: 0x8, addend: 0x0, symName: __ZNSt3__15tupleIJONS_9allocatorIZN6parlay14ThreadSpecificINS2_8internal15block_allocator10local_listEEC1EvEUlmE_EEEEC2B8ue170006IJS9_ELi0EEEDpOT_, symObjAddr: 0x112C4, symBinAddr: 0x100013034, symSize: 0x34 }
  - { offset: 0x64132, size: 0x8, addend: 0x0, symName: __ZNSt3__112__tuple_implINS_15__tuple_indicesIJLm0EEEEJONS_9allocatorIZN6parlay14ThreadSpecificINS4_8internal15block_allocator10local_listEEC1EvEUlmE_EEEEC1B8ue170006IJLm0EEJSC_EJEJEJSB_EEENS1_IJXspT_EEEENS_13__tuple_typesIJDpT0_EEENS1_IJXspT1_EEEENSG_IJDpT2_EEEDpOT3_, symObjAddr: 0x112F8, symBinAddr: 0x100013068, symSize: 0x34 }
  - { offset: 0x641C3, size: 0x8, addend: 0x0, symName: __ZNSt3__112__tuple_implINS_15__tuple_indicesIJLm0EEEEJONS_9allocatorIZN6parlay14ThreadSpecificINS4_8internal15block_allocator10local_listEEC1EvEUlmE_EEEEC2B8ue170006IJLm0EEJSC_EJEJEJSB_EEENS1_IJXspT_EEEENS_13__tuple_typesIJDpT0_EEENS1_IJXspT1_EEEENSG_IJDpT2_EEEDpOT3_, symObjAddr: 0x1132C, symBinAddr: 0x10001309C, symSize: 0x34 }
  - { offset: 0x64254, size: 0x8, addend: 0x0, symName: __ZNSt3__112__tuple_leafILm0EONS_9allocatorIZN6parlay14ThreadSpecificINS2_8internal15block_allocator10local_listEEC1EvEUlmE_EELb0EEC2B8ue170006IS9_vEEOT_, symObjAddr: 0x11360, symBinAddr: 0x1000130D0, symSize: 0x20 }
  - { offset: 0x64297, size: 0x8, addend: 0x0, symName: __ZNSt3__117__compressed_pairIZN6parlay14ThreadSpecificINS1_8internal15block_allocator10local_listEEC1EvEUlmE_NS_9allocatorIS7_EEEC2B8ue170006IJOS7_EJOS9_EEENS_21piecewise_construct_tENS_5tupleIJDpT_EEENSF_IJDpT0_EEE, symObjAddr: 0x11380, symBinAddr: 0x1000130F0, symSize: 0x54 }
  - { offset: 0x64301, size: 0x8, addend: 0x0, symName: __ZNSt3__122__compressed_pair_elemIZN6parlay14ThreadSpecificINS1_8internal15block_allocator10local_listEEC1EvEUlmE_Li0ELb1EEC2B8ue170006IJOS7_EJLm0EEEENS_21piecewise_construct_tENS_5tupleIJDpT_EEENS_15__tuple_indicesIJXspT0_EEEE, symObjAddr: 0x113D4, symBinAddr: 0x100013144, symSize: 0x38 }
  - { offset: 0x64366, size: 0x8, addend: 0x0, symName: __ZNSt3__122__compressed_pair_elemINS_9allocatorIZN6parlay14ThreadSpecificINS2_8internal15block_allocator10local_listEEC1EvEUlmE_EELi1ELb1EEC2B8ue170006IJOS9_EJLm0EEEENS_21piecewise_construct_tENS_5tupleIJDpT_EEENS_15__tuple_indicesIJXspT0_EEEE, symObjAddr: 0x1140C, symBinAddr: 0x10001317C, symSize: 0x38 }
  - { offset: 0x643CB, size: 0x8, addend: 0x0, symName: __ZNSt3__112__tuple_leafILm0EOZN6parlay14ThreadSpecificINS1_8internal15block_allocator10local_listEEC1EvEUlmE_Lb0EE3getB8ue170006Ev, symObjAddr: 0x11468, symBinAddr: 0x1000131D8, symSize: 0x18 }
  - { offset: 0x643F1, size: 0x8, addend: 0x0, symName: __ZNSt3__112__tuple_leafILm0EONS_9allocatorIZN6parlay14ThreadSpecificINS2_8internal15block_allocator10local_listEEC1EvEUlmE_EELb0EE3getB8ue170006Ev, symObjAddr: 0x114A4, symBinAddr: 0x100013214, symSize: 0x18 }
  - { offset: 0x64417, size: 0x8, addend: 0x0, symName: __ZNSt3__110__function6__funcIZN6parlay14ThreadSpecificINS2_8internal15block_allocator10local_listEEC1EvEUlmE_NS_9allocatorIS8_EEFS6_jEED2Ev, symObjAddr: 0x114BC, symBinAddr: 0x10001322C, symSize: 0x2C }
  - { offset: 0x64444, size: 0x8, addend: 0x0, symName: __ZNKSt3__110__function12__alloc_funcIZN6parlay14ThreadSpecificINS2_8internal15block_allocator10local_listEEC1EvEUlmE_NS_9allocatorIS8_EEFS6_jEE15__get_allocatorB8ue170006Ev, symObjAddr: 0x114E8, symBinAddr: 0x100013258, symSize: 0x24 }
  - { offset: 0x6446A, size: 0x8, addend: 0x0, symName: __ZNSt3__19allocatorINS_10__function6__funcIZN6parlay14ThreadSpecificINS3_8internal15block_allocator10local_listEEC1EvEUlmE_NS0_IS9_EEFS7_jEEEE8allocateB8ue170006Em, symObjAddr: 0x1150C, symBinAddr: 0x10001327C, symSize: 0x58 }
  - { offset: 0x644AF, size: 0x8, addend: 0x0, symName: __ZNSt3__122__allocator_destructorINS_9allocatorINS_10__function6__funcIZN6parlay14ThreadSpecificINS4_8internal15block_allocator10local_listEEC1EvEUlmE_NS1_ISA_EEFS8_jEEEEEEC1B8ue170006ERSE_m, symObjAddr: 0x11564, symBinAddr: 0x1000132D4, symSize: 0x3C }
  - { offset: 0x6458B, size: 0x8, addend: 0x0, symName: __ZNSt3__110unique_ptrINS_10__function6__funcIZN6parlay14ThreadSpecificINS3_8internal15block_allocator10local_listEEC1EvEUlmE_NS_9allocatorIS9_EEFS7_jEEENS_22__allocator_destructorINSA_ISD_EEEEEC1B8ue170006ILb1EvEEPSD_NS_16__dependent_typeINS_27__unique_ptr_deleter_sfinaeISG_EEXT_EE20__good_rval_ref_typeE, symObjAddr: 0x115A0, symBinAddr: 0x100013310, symSize: 0x3C }
  - { offset: 0x645DC, size: 0x8, addend: 0x0, symName: __ZNKSt3__110unique_ptrINS_10__function6__funcIZN6parlay14ThreadSpecificINS3_8internal15block_allocator10local_listEEC1EvEUlmE_NS_9allocatorIS9_EEFS7_jEEENS_22__allocator_destructorINSA_ISD_EEEEE3getB8ue170006Ev, symObjAddr: 0x115DC, symBinAddr: 0x10001334C, symSize: 0x28 }
  - { offset: 0x64602, size: 0x8, addend: 0x0, symName: __ZNKSt3__110__function12__alloc_funcIZN6parlay14ThreadSpecificINS2_8internal15block_allocator10local_listEEC1EvEUlmE_NS_9allocatorIS8_EEFS6_jEE8__targetB8ue170006Ev, symObjAddr: 0x11604, symBinAddr: 0x100013374, symSize: 0x24 }
  - { offset: 0x64628, size: 0x8, addend: 0x0, symName: __ZNSt3__110__function6__funcIZN6parlay14ThreadSpecificINS2_8internal15block_allocator10local_listEEC1EvEUlmE_NS_9allocatorIS8_EEFS6_jEEC1B8ue170006ERKS8_OSA_, symObjAddr: 0x11628, symBinAddr: 0x100013398, symSize: 0x3C }
  - { offset: 0x64670, size: 0x8, addend: 0x0, symName: __ZNSt3__110unique_ptrINS_10__function6__funcIZN6parlay14ThreadSpecificINS3_8internal15block_allocator10local_listEEC1EvEUlmE_NS_9allocatorIS9_EEFS7_jEEENS_22__allocator_destructorINSA_ISD_EEEEE7releaseB8ue170006Ev, symObjAddr: 0x11664, symBinAddr: 0x1000133D4, symSize: 0x44 }
  - { offset: 0x646A5, size: 0x8, addend: 0x0, symName: __ZNSt3__110unique_ptrINS_10__function6__funcIZN6parlay14ThreadSpecificINS3_8internal15block_allocator10local_listEEC1EvEUlmE_NS_9allocatorIS9_EEFS7_jEEENS_22__allocator_destructorINSA_ISD_EEEEED1B8ue170006Ev, symObjAddr: 0x116A8, symBinAddr: 0x100013418, symSize: 0x2C }
  - { offset: 0x646CF, size: 0x8, addend: 0x0, symName: __ZNKSt3__117__compressed_pairIZN6parlay14ThreadSpecificINS1_8internal15block_allocator10local_listEEC1EvEUlmE_NS_9allocatorIS7_EEE6secondB8ue170006Ev, symObjAddr: 0x116D4, symBinAddr: 0x100013444, symSize: 0x24 }
  - { offset: 0x646F5, size: 0x8, addend: 0x0, symName: __ZNKSt3__122__compressed_pair_elemINS_9allocatorIZN6parlay14ThreadSpecificINS2_8internal15block_allocator10local_listEEC1EvEUlmE_EELi1ELb1EE5__getB8ue170006Ev, symObjAddr: 0x116F8, symBinAddr: 0x100013468, symSize: 0x14 }
  - { offset: 0x64726, size: 0x8, addend: 0x0, symName: __ZNSt3__116allocator_traitsINS_9allocatorINS_10__function6__funcIZN6parlay14ThreadSpecificINS4_8internal15block_allocator10local_listEEC1EvEUlmE_NS1_ISA_EEFS8_jEEEEEE8max_sizeB8ue170006ISE_vEEmRKSE_, symObjAddr: 0x1170C, symBinAddr: 0x10001347C, symSize: 0x24 }
  - { offset: 0x64754, size: 0x8, addend: 0x0, symName: __ZNKSt3__19allocatorINS_10__function6__funcIZN6parlay14ThreadSpecificINS3_8internal15block_allocator10local_listEEC1EvEUlmE_NS0_IS9_EEFS7_jEEEE8max_sizeB8ue170006Ev, symObjAddr: 0x11730, symBinAddr: 0x1000134A0, symSize: 0x14 }
  - { offset: 0x6477A, size: 0x8, addend: 0x0, symName: __ZNSt3__122__allocator_destructorINS_9allocatorINS_10__function6__funcIZN6parlay14ThreadSpecificINS4_8internal15block_allocator10local_listEEC1EvEUlmE_NS1_ISA_EEFS8_jEEEEEEC2B8ue170006ERSE_m, symObjAddr: 0x11744, symBinAddr: 0x1000134B4, symSize: 0x2C }
  - { offset: 0x647C0, size: 0x8, addend: 0x0, symName: __ZNSt3__110unique_ptrINS_10__function6__funcIZN6parlay14ThreadSpecificINS3_8internal15block_allocator10local_listEEC1EvEUlmE_NS_9allocatorIS9_EEFS7_jEEENS_22__allocator_destructorINSA_ISD_EEEEEC2B8ue170006ILb1EvEEPSD_NS_16__dependent_typeINS_27__unique_ptr_deleter_sfinaeISG_EEXT_EE20__good_rval_ref_typeE, symObjAddr: 0x11770, symBinAddr: 0x1000134E0, symSize: 0x48 }
  - { offset: 0x64811, size: 0x8, addend: 0x0, symName: __ZNSt3__117__compressed_pairIPNS_10__function6__funcIZN6parlay14ThreadSpecificINS3_8internal15block_allocator10local_listEEC1EvEUlmE_NS_9allocatorIS9_EEFS7_jEEENS_22__allocator_destructorINSA_ISD_EEEEEC1B8ue170006IRSE_SH_EEOT_OT0_, symObjAddr: 0x117B8, symBinAddr: 0x100013528, symSize: 0x3C }
  - { offset: 0x64869, size: 0x8, addend: 0x0, symName: __ZNSt3__117__compressed_pairIPNS_10__function6__funcIZN6parlay14ThreadSpecificINS3_8internal15block_allocator10local_listEEC1EvEUlmE_NS_9allocatorIS9_EEFS7_jEEENS_22__allocator_destructorINSA_ISD_EEEEEC2B8ue170006IRSE_SH_EEOT_OT0_, symObjAddr: 0x117F4, symBinAddr: 0x100013564, symSize: 0x48 }
  - { offset: 0x648C1, size: 0x8, addend: 0x0, symName: __ZNSt3__122__compressed_pair_elemIPNS_10__function6__funcIZN6parlay14ThreadSpecificINS3_8internal15block_allocator10local_listEEC1EvEUlmE_NS_9allocatorIS9_EEFS7_jEEELi0ELb0EEC2B8ue170006IRSE_vEEOT_, symObjAddr: 0x1183C, symBinAddr: 0x1000135AC, symSize: 0x24 }
  - { offset: 0x64903, size: 0x8, addend: 0x0, symName: __ZNSt3__122__compressed_pair_elemINS_22__allocator_destructorINS_9allocatorINS_10__function6__funcIZN6parlay14ThreadSpecificINS5_8internal15block_allocator10local_listEEC1EvEUlmE_NS2_ISB_EEFS9_jEEEEEEELi1ELb0EEC2B8ue170006ISG_vEEOT_, symObjAddr: 0x11860, symBinAddr: 0x1000135D0, symSize: 0x24 }
  - { offset: 0x64945, size: 0x8, addend: 0x0, symName: __ZNKSt3__117__compressed_pairIPNS_10__function6__funcIZN6parlay14ThreadSpecificINS3_8internal15block_allocator10local_listEEC1EvEUlmE_NS_9allocatorIS9_EEFS7_jEEENS_22__allocator_destructorINSA_ISD_EEEEE5firstB8ue170006Ev, symObjAddr: 0x11884, symBinAddr: 0x1000135F4, symSize: 0x24 }
  - { offset: 0x6496B, size: 0x8, addend: 0x0, symName: __ZNKSt3__122__compressed_pair_elemIPNS_10__function6__funcIZN6parlay14ThreadSpecificINS3_8internal15block_allocator10local_listEEC1EvEUlmE_NS_9allocatorIS9_EEFS7_jEEELi0ELb0EE5__getB8ue170006Ev, symObjAddr: 0x118A8, symBinAddr: 0x100013618, symSize: 0x14 }
  - { offset: 0x64991, size: 0x8, addend: 0x0, symName: __ZNKSt3__117__compressed_pairIZN6parlay14ThreadSpecificINS1_8internal15block_allocator10local_listEEC1EvEUlmE_NS_9allocatorIS7_EEE5firstB8ue170006Ev, symObjAddr: 0x118BC, symBinAddr: 0x10001362C, symSize: 0x24 }
  - { offset: 0x649B7, size: 0x8, addend: 0x0, symName: __ZNKSt3__122__compressed_pair_elemIZN6parlay14ThreadSpecificINS1_8internal15block_allocator10local_listEEC1EvEUlmE_Li0ELb1EE5__getB8ue170006Ev, symObjAddr: 0x118E0, symBinAddr: 0x100013650, symSize: 0x14 }
  - { offset: 0x649DD, size: 0x8, addend: 0x0, symName: __ZNSt3__110__function6__funcIZN6parlay14ThreadSpecificINS2_8internal15block_allocator10local_listEEC1EvEUlmE_NS_9allocatorIS8_EEFS6_jEEC2B8ue170006ERKS8_OSA_, symObjAddr: 0x118F4, symBinAddr: 0x100013664, symSize: 0x80 }
  - { offset: 0x64A25, size: 0x8, addend: 0x0, symName: __ZNSt3__110__function12__alloc_funcIZN6parlay14ThreadSpecificINS2_8internal15block_allocator10local_listEEC1EvEUlmE_NS_9allocatorIS8_EEFS6_jEEC1B8ue170006ERKS8_OSA_, symObjAddr: 0x11974, symBinAddr: 0x1000136E4, symSize: 0x3C }
  - { offset: 0x64A6B, size: 0x8, addend: 0x0, symName: __ZNSt3__110__function12__alloc_funcIZN6parlay14ThreadSpecificINS2_8internal15block_allocator10local_listEEC1EvEUlmE_NS_9allocatorIS8_EEFS6_jEEC2B8ue170006ERKS8_OSA_, symObjAddr: 0x119B0, symBinAddr: 0x100013720, symSize: 0x5C }
  - { offset: 0x64AB1, size: 0x8, addend: 0x0, symName: __ZNSt3__117__compressed_pairIZN6parlay14ThreadSpecificINS1_8internal15block_allocator10local_listEEC1EvEUlmE_NS_9allocatorIS7_EEEC1B8ue170006IJRKS7_EJOS9_EEENS_21piecewise_construct_tENS_5tupleIJDpT_EEENSG_IJDpT0_EEE, symObjAddr: 0x11A38, symBinAddr: 0x1000137A8, symSize: 0x3C }
  - { offset: 0x64B1B, size: 0x8, addend: 0x0, symName: __ZNSt3__15tupleIJRKZN6parlay14ThreadSpecificINS1_8internal15block_allocator10local_listEEC1EvEUlmE_EEC1B8ue170006INS_4_AndELi0EEES9_, symObjAddr: 0x11A74, symBinAddr: 0x1000137E4, symSize: 0x34 }
  - { offset: 0x64B64, size: 0x8, addend: 0x0, symName: __ZNSt3__15tupleIJRKZN6parlay14ThreadSpecificINS1_8internal15block_allocator10local_listEEC1EvEUlmE_EEC2B8ue170006INS_4_AndELi0EEES9_, symObjAddr: 0x11AA8, symBinAddr: 0x100013818, symSize: 0x34 }
  - { offset: 0x64BAD, size: 0x8, addend: 0x0, symName: __ZNSt3__112__tuple_implINS_15__tuple_indicesIJLm0EEEEJRKZN6parlay14ThreadSpecificINS3_8internal15block_allocator10local_listEEC1EvEUlmE_EEC1B8ue170006IJLm0EEJSB_EJEJEJSB_EEENS1_IJXspT_EEEENS_13__tuple_typesIJDpT0_EEENS1_IJXspT1_EEEENSF_IJDpT2_EEEDpOT3_, symObjAddr: 0x11ADC, symBinAddr: 0x10001384C, symSize: 0x34 }
  - { offset: 0x64C3E, size: 0x8, addend: 0x0, symName: __ZNSt3__112__tuple_implINS_15__tuple_indicesIJLm0EEEEJRKZN6parlay14ThreadSpecificINS3_8internal15block_allocator10local_listEEC1EvEUlmE_EEC2B8ue170006IJLm0EEJSB_EJEJEJSB_EEENS1_IJXspT_EEEENS_13__tuple_typesIJDpT0_EEENS1_IJXspT1_EEEENSF_IJDpT2_EEEDpOT3_, symObjAddr: 0x11B10, symBinAddr: 0x100013880, symSize: 0x34 }
  - { offset: 0x64CCF, size: 0x8, addend: 0x0, symName: __ZNSt3__112__tuple_leafILm0ERKZN6parlay14ThreadSpecificINS1_8internal15block_allocator10local_listEEC1EvEUlmE_Lb0EEC2B8ue170006IS9_vEEOT_, symObjAddr: 0x11B44, symBinAddr: 0x1000138B4, symSize: 0x20 }
  - { offset: 0x64D12, size: 0x8, addend: 0x0, symName: __ZNSt3__117__compressed_pairIZN6parlay14ThreadSpecificINS1_8internal15block_allocator10local_listEEC1EvEUlmE_NS_9allocatorIS7_EEEC2B8ue170006IJRKS7_EJOS9_EEENS_21piecewise_construct_tENS_5tupleIJDpT_EEENSG_IJDpT0_EEE, symObjAddr: 0x11B64, symBinAddr: 0x1000138D4, symSize: 0x54 }
  - { offset: 0x64D7C, size: 0x8, addend: 0x0, symName: __ZNSt3__122__compressed_pair_elemIZN6parlay14ThreadSpecificINS1_8internal15block_allocator10local_listEEC1EvEUlmE_Li0ELb1EEC2B8ue170006IJRKS7_EJLm0EEEENS_21piecewise_construct_tENS_5tupleIJDpT_EEENS_15__tuple_indicesIJXspT0_EEEE, symObjAddr: 0x11BB8, symBinAddr: 0x100013928, symSize: 0x38 }
  - { offset: 0x64DE1, size: 0x8, addend: 0x0, symName: __ZNSt3__112__tuple_leafILm0ERKZN6parlay14ThreadSpecificINS1_8internal15block_allocator10local_listEEC1EvEUlmE_Lb0EE3getB8ue170006Ev, symObjAddr: 0x11C14, symBinAddr: 0x100013984, symSize: 0x18 }
  - { offset: 0x64E07, size: 0x8, addend: 0x0, symName: __ZNSt3__117__compressed_pairIPNS_10__function6__funcIZN6parlay14ThreadSpecificINS3_8internal15block_allocator10local_listEEC1EvEUlmE_NS_9allocatorIS9_EEFS7_jEEENS_22__allocator_destructorINSA_ISD_EEEEE5firstB8ue170006Ev, symObjAddr: 0x11C2C, symBinAddr: 0x10001399C, symSize: 0x24 }
  - { offset: 0x64E2D, size: 0x8, addend: 0x0, symName: __ZNSt3__122__compressed_pair_elemIPNS_10__function6__funcIZN6parlay14ThreadSpecificINS3_8internal15block_allocator10local_listEEC1EvEUlmE_NS_9allocatorIS9_EEFS7_jEEELi0ELb0EE5__getB8ue170006Ev, symObjAddr: 0x11C50, symBinAddr: 0x1000139C0, symSize: 0x14 }
  - { offset: 0x64E53, size: 0x8, addend: 0x0, symName: __ZNSt3__110unique_ptrINS_10__function6__funcIZN6parlay14ThreadSpecificINS3_8internal15block_allocator10local_listEEC1EvEUlmE_NS_9allocatorIS9_EEFS7_jEEENS_22__allocator_destructorINSA_ISD_EEEEED2B8ue170006Ev, symObjAddr: 0x11C64, symBinAddr: 0x1000139D4, symSize: 0x30 }
  - { offset: 0x64E7D, size: 0x8, addend: 0x0, symName: __ZNSt3__110unique_ptrINS_10__function6__funcIZN6parlay14ThreadSpecificINS3_8internal15block_allocator10local_listEEC1EvEUlmE_NS_9allocatorIS9_EEFS7_jEEENS_22__allocator_destructorINSA_ISD_EEEEE5resetB8ue170006EPSD_, symObjAddr: 0x11C94, symBinAddr: 0x100013A04, symSize: 0x78 }
  - { offset: 0x64EC1, size: 0x8, addend: 0x0, symName: __ZNSt3__117__compressed_pairIPNS_10__function6__funcIZN6parlay14ThreadSpecificINS3_8internal15block_allocator10local_listEEC1EvEUlmE_NS_9allocatorIS9_EEFS7_jEEENS_22__allocator_destructorINSA_ISD_EEEEE6secondB8ue170006Ev, symObjAddr: 0x11D0C, symBinAddr: 0x100013A7C, symSize: 0x28 }
  - { offset: 0x64EE7, size: 0x8, addend: 0x0, symName: __ZNSt3__122__allocator_destructorINS_9allocatorINS_10__function6__funcIZN6parlay14ThreadSpecificINS4_8internal15block_allocator10local_listEEC1EvEUlmE_NS1_ISA_EEFS8_jEEEEEEclB8ue170006EPSD_, symObjAddr: 0x11D34, symBinAddr: 0x100013AA4, symSize: 0x34 }
  - { offset: 0x64F1B, size: 0x8, addend: 0x0, symName: __ZNSt3__122__compressed_pair_elemINS_22__allocator_destructorINS_9allocatorINS_10__function6__funcIZN6parlay14ThreadSpecificINS5_8internal15block_allocator10local_listEEC1EvEUlmE_NS2_ISB_EEFS9_jEEEEEEELi1ELb0EE5__getB8ue170006Ev, symObjAddr: 0x11D68, symBinAddr: 0x100013AD8, symSize: 0x14 }
  - { offset: 0x64F41, size: 0x8, addend: 0x0, symName: __ZNSt3__116allocator_traitsINS_9allocatorINS_10__function6__funcIZN6parlay14ThreadSpecificINS4_8internal15block_allocator10local_listEEC1EvEUlmE_NS1_ISA_EEFS8_jEEEEEE10deallocateB8ue170006ERSE_PSD_m, symObjAddr: 0x11D7C, symBinAddr: 0x100013AEC, symSize: 0x34 }
  - { offset: 0x64F83, size: 0x8, addend: 0x0, symName: __ZNSt3__19allocatorINS_10__function6__funcIZN6parlay14ThreadSpecificINS3_8internal15block_allocator10local_listEEC1EvEUlmE_NS0_IS9_EEFS7_jEEEE10deallocateB8ue170006EPSC_m, symObjAddr: 0x11DB0, symBinAddr: 0x100013B20, symSize: 0x40 }
  - { offset: 0x64FC5, size: 0x8, addend: 0x0, symName: __ZNSt3__110__function6__funcIZN6parlay14ThreadSpecificINS2_8internal15block_allocator10local_listEEC1EvEUlmE_NS_9allocatorIS8_EEFS6_jEEC1B8ue170006ERKS8_RKSA_, symObjAddr: 0x11DF0, symBinAddr: 0x100013B60, symSize: 0x3C }
  - { offset: 0x6500D, size: 0x8, addend: 0x0, symName: __ZNSt3__110__function6__funcIZN6parlay14ThreadSpecificINS2_8internal15block_allocator10local_listEEC1EvEUlmE_NS_9allocatorIS8_EEFS6_jEEC2B8ue170006ERKS8_RKSA_, symObjAddr: 0x11E2C, symBinAddr: 0x100013B9C, symSize: 0x80 }
  - { offset: 0x65055, size: 0x8, addend: 0x0, symName: __ZNSt3__110__function12__alloc_funcIZN6parlay14ThreadSpecificINS2_8internal15block_allocator10local_listEEC1EvEUlmE_NS_9allocatorIS8_EEFS6_jEEC1B8ue170006ERKS8_RKSA_, symObjAddr: 0x11EAC, symBinAddr: 0x100013C1C, symSize: 0x3C }
  - { offset: 0x6509B, size: 0x8, addend: 0x0, symName: __ZNSt3__110__function12__alloc_funcIZN6parlay14ThreadSpecificINS2_8internal15block_allocator10local_listEEC1EvEUlmE_NS_9allocatorIS8_EEFS6_jEEC2B8ue170006ERKS8_RKSA_, symObjAddr: 0x11EE8, symBinAddr: 0x100013C58, symSize: 0x5C }
  - { offset: 0x650E1, size: 0x8, addend: 0x0, symName: __ZNSt3__117__compressed_pairIZN6parlay14ThreadSpecificINS1_8internal15block_allocator10local_listEEC1EvEUlmE_NS_9allocatorIS7_EEEC1B8ue170006IJRKS7_EJRKS9_EEENS_21piecewise_construct_tENS_5tupleIJDpT_EEENSH_IJDpT0_EEE, symObjAddr: 0x11F70, symBinAddr: 0x100013CE0, symSize: 0x3C }
  - { offset: 0x6514B, size: 0x8, addend: 0x0, symName: __ZNSt3__15tupleIJRKNS_9allocatorIZN6parlay14ThreadSpecificINS2_8internal15block_allocator10local_listEEC1EvEUlmE_EEEEC1B8ue170006INS_4_AndELi0EEESB_, symObjAddr: 0x11FAC, symBinAddr: 0x100013D1C, symSize: 0x34 }
  - { offset: 0x65194, size: 0x8, addend: 0x0, symName: __ZNSt3__15tupleIJRKNS_9allocatorIZN6parlay14ThreadSpecificINS2_8internal15block_allocator10local_listEEC1EvEUlmE_EEEEC2B8ue170006INS_4_AndELi0EEESB_, symObjAddr: 0x11FE0, symBinAddr: 0x100013D50, symSize: 0x34 }
  - { offset: 0x651DD, size: 0x8, addend: 0x0, symName: __ZNSt3__112__tuple_implINS_15__tuple_indicesIJLm0EEEEJRKNS_9allocatorIZN6parlay14ThreadSpecificINS4_8internal15block_allocator10local_listEEC1EvEUlmE_EEEEC1B8ue170006IJLm0EEJSD_EJEJEJSD_EEENS1_IJXspT_EEEENS_13__tuple_typesIJDpT0_EEENS1_IJXspT1_EEEENSH_IJDpT2_EEEDpOT3_, symObjAddr: 0x12014, symBinAddr: 0x100013D84, symSize: 0x34 }
  - { offset: 0x6526E, size: 0x8, addend: 0x0, symName: __ZNSt3__112__tuple_implINS_15__tuple_indicesIJLm0EEEEJRKNS_9allocatorIZN6parlay14ThreadSpecificINS4_8internal15block_allocator10local_listEEC1EvEUlmE_EEEEC2B8ue170006IJLm0EEJSD_EJEJEJSD_EEENS1_IJXspT_EEEENS_13__tuple_typesIJDpT0_EEENS1_IJXspT1_EEEENSH_IJDpT2_EEEDpOT3_, symObjAddr: 0x12048, symBinAddr: 0x100013DB8, symSize: 0x34 }
  - { offset: 0x652FF, size: 0x8, addend: 0x0, symName: __ZNSt3__112__tuple_leafILm0ERKNS_9allocatorIZN6parlay14ThreadSpecificINS2_8internal15block_allocator10local_listEEC1EvEUlmE_EELb0EEC2B8ue170006ISB_vEEOT_, symObjAddr: 0x1207C, symBinAddr: 0x100013DEC, symSize: 0x20 }
  - { offset: 0x65342, size: 0x8, addend: 0x0, symName: __ZNSt3__117__compressed_pairIZN6parlay14ThreadSpecificINS1_8internal15block_allocator10local_listEEC1EvEUlmE_NS_9allocatorIS7_EEEC2B8ue170006IJRKS7_EJRKS9_EEENS_21piecewise_construct_tENS_5tupleIJDpT_EEENSH_IJDpT0_EEE, symObjAddr: 0x1209C, symBinAddr: 0x100013E0C, symSize: 0x54 }
  - { offset: 0x653AC, size: 0x8, addend: 0x0, symName: __ZNSt3__122__compressed_pair_elemINS_9allocatorIZN6parlay14ThreadSpecificINS2_8internal15block_allocator10local_listEEC1EvEUlmE_EELi1ELb1EEC2B8ue170006IJRKS9_EJLm0EEEENS_21piecewise_construct_tENS_5tupleIJDpT_EEENS_15__tuple_indicesIJXspT0_EEEE, symObjAddr: 0x120F0, symBinAddr: 0x100013E60, symSize: 0x38 }
  - { offset: 0x65411, size: 0x8, addend: 0x0, symName: __ZNSt3__112__tuple_leafILm0ERKNS_9allocatorIZN6parlay14ThreadSpecificINS2_8internal15block_allocator10local_listEEC1EvEUlmE_EELb0EE3getB8ue170006Ev, symObjAddr: 0x1214C, symBinAddr: 0x100013EBC, symSize: 0x18 }
  - { offset: 0x65437, size: 0x8, addend: 0x0, symName: __ZNSt3__110__function12__alloc_funcIZN6parlay14ThreadSpecificINS2_8internal15block_allocator10local_listEEC1EvEUlmE_NS_9allocatorIS8_EEFS6_jEE7destroyB8ue170006Ev, symObjAddr: 0x12164, symBinAddr: 0x100013ED4, symSize: 0x10 }
  - { offset: 0x6545D, size: 0x8, addend: 0x0, symName: __ZNSt3__110__function12__alloc_funcIZN6parlay14ThreadSpecificINS2_8internal15block_allocator10local_listEEC1EvEUlmE_NS_9allocatorIS8_EEFS6_jEEclB8ue170006EOj, symObjAddr: 0x12174, symBinAddr: 0x100013EE4, symSize: 0x38 }
  - { offset: 0x65491, size: 0x8, addend: 0x0, symName: __ZNSt3__128__invoke_void_return_wrapperIN6parlay8internal15block_allocator10local_listELb0EE6__callB8ue170006IJRZNS1_14ThreadSpecificIS4_EC1EvEUlmE_jEEES4_DpOT_, symObjAddr: 0x121AC, symBinAddr: 0x100013F1C, symSize: 0x2C }
  - { offset: 0x654D4, size: 0x8, addend: 0x0, symName: __ZNSt3__117__compressed_pairIZN6parlay14ThreadSpecificINS1_8internal15block_allocator10local_listEEC1EvEUlmE_NS_9allocatorIS7_EEE5firstB8ue170006Ev, symObjAddr: 0x121D8, symBinAddr: 0x100013F48, symSize: 0x24 }
  - { offset: 0x654FF, size: 0x8, addend: 0x0, symName: __ZZN6parlay14ThreadSpecificINS_8internal15block_allocator10local_listEEC1EvENKUlmE_clEm, symObjAddr: 0x12230, symBinAddr: 0x100013FA0, symSize: 0x30 }
  - { offset: 0x65534, size: 0x8, addend: 0x0, symName: __ZN6parlay8internal15block_allocator10local_listC1Ev, symObjAddr: 0x12260, symBinAddr: 0x100013FD0, symSize: 0x2C }
  - { offset: 0x6555E, size: 0x8, addend: 0x0, symName: __ZN6parlay8internal15block_allocator10local_listC2Ev, symObjAddr: 0x1228C, symBinAddr: 0x100013FFC, symSize: 0x20 }
  - { offset: 0x65588, size: 0x8, addend: 0x0, symName: __ZNSt3__122__compressed_pair_elemIZN6parlay14ThreadSpecificINS1_8internal15block_allocator10local_listEEC1EvEUlmE_Li0ELb1EE5__getB8ue170006Ev, symObjAddr: 0x122AC, symBinAddr: 0x10001401C, symSize: 0x14 }
  - { offset: 0x655AE, size: 0x8, addend: 0x0, symName: __ZNSt3__15arrayINS_6atomicIPN6parlay8internal13UninitializedINS3_15block_allocator10local_listEEEEELm25EEixB8ue170006Em, symObjAddr: 0x122C0, symBinAddr: 0x100014030, symSize: 0x20 }
  - { offset: 0x655E2, size: 0x8, addend: 0x0, symName: __ZNSt3__113__atomic_baseIPN6parlay8internal13UninitializedINS2_15block_allocator10local_listEEELb0EE5storeB8ue170006ES7_NS_12memory_orderE, symObjAddr: 0x122E0, symBinAddr: 0x100014050, symSize: 0x34 }
  - { offset: 0x65624, size: 0x8, addend: 0x0, symName: __ZN6parlay8internal13UninitializedINS0_15block_allocator10local_listEEC1Ev, symObjAddr: 0x12314, symBinAddr: 0x100014084, symSize: 0x2C }
  - { offset: 0x6564E, size: 0x8, addend: 0x0, symName: __ZNSt3__15arrayINS_6atomicIPN6parlay8internal13UninitializedINS3_15block_allocator10local_listEEEEELm25EE5beginB8ue170006Ev, symObjAddr: 0x12374, symBinAddr: 0x1000140E4, symSize: 0x24 }
  - { offset: 0x65674, size: 0x8, addend: 0x0, symName: __ZNSt3__15arrayINS_6atomicIPN6parlay8internal13UninitializedINS3_15block_allocator10local_listEEEEELm25EE3endB8ue170006Ev, symObjAddr: 0x12398, symBinAddr: 0x100014108, symSize: 0x28 }
  - { offset: 0x6569A, size: 0x8, addend: 0x0, symName: __ZNKSt3__113__atomic_baseIPN6parlay8internal13UninitializedINS2_15block_allocator10local_listEEELb0EE4loadB8ue170006ENS_12memory_orderE, symObjAddr: 0x123C0, symBinAddr: 0x100014130, symSize: 0x2C }
  - { offset: 0x656CE, size: 0x8, addend: 0x0, symName: __ZN6parlay8internal13UninitializedINS0_15block_allocator10local_listEE3getEv, symObjAddr: 0x123EC, symBinAddr: 0x10001415C, symSize: 0x14 }
  - { offset: 0x656F4, size: 0x8, addend: 0x0, symName: __ZNKSt3__18functionIFN6parlay8internal15block_allocator10local_listEjEEclEj, symObjAddr: 0x12400, symBinAddr: 0x100014170, symSize: 0x30 }
  - { offset: 0x6572B, size: 0x8, addend: 0x0, symName: __ZN6parlay8internal13UninitializedINS0_15block_allocator10local_listEEC2Ev, symObjAddr: 0x124B4, symBinAddr: 0x100014224, symSize: 0x14 }
  - { offset: 0x65755, size: 0x8, addend: 0x0, symName: __ZNSt3__16atomicIPN6parlay8internal13UninitializedINS2_15block_allocator10local_listEEEEaSB8ue170006ES7_, symObjAddr: 0x125BC, symBinAddr: 0x10001432C, symSize: 0x34 }
  - { offset: 0x65789, size: 0x8, addend: 0x0, symName: __ZNSt3__15arrayINS_6atomicIPN6parlay8internal13UninitializedINS3_15block_allocator10local_listEEEEELm25EE4dataB8ue170006Ev, symObjAddr: 0x125F0, symBinAddr: 0x100014360, symSize: 0x14 }
  - { offset: 0x657AF, size: 0x8, addend: 0x0, symName: __ZNKSt3__110__function12__value_funcIFN6parlay8internal15block_allocator10local_listEjEEclB8ue170006EOj, symObjAddr: 0x12684, symBinAddr: 0x1000143F4, symSize: 0x60 }
  - { offset: 0x657E4, size: 0x8, addend: 0x0, symName: __ZNSt3__18functionIFN6parlay8internal15block_allocator10local_listEjEED2Ev, symObjAddr: 0x126E4, symBinAddr: 0x100014454, symSize: 0x2C }
  - { offset: 0x65810, size: 0x8, addend: 0x0, symName: __ZNSt3__110__function12__value_funcIFN6parlay8internal15block_allocator10local_listEjEED1B8ue170006Ev, symObjAddr: 0x12710, symBinAddr: 0x100014480, symSize: 0x2C }
  - { offset: 0x6583A, size: 0x8, addend: 0x0, symName: __ZNSt3__110__function12__value_funcIFN6parlay8internal15block_allocator10local_listEjEED2B8ue170006Ev, symObjAddr: 0x1273C, symBinAddr: 0x1000144AC, symSize: 0x90 }
  - { offset: 0x65864, size: 0x8, addend: 0x0, symName: __ZN6parlay14ThreadSpecificINS_8internal15block_allocator10local_listEED2Ev, symObjAddr: 0x127CC, symBinAddr: 0x10001453C, symSize: 0x11C }
  - { offset: 0x658DC, size: 0x8, addend: 0x0, symName: __ZNKSt3__113__atomic_baseIPN6parlay8internal13UninitializedINS2_15block_allocator10local_listEEELb0EEcvS7_B8ue170006Ev, symObjAddr: 0x128E8, symBinAddr: 0x100014658, symSize: 0x28 }
  - { offset: 0x65902, size: 0x8, addend: 0x0, symName: __ZN6parlay8internal13UninitializedINS0_15block_allocator10local_listEED1Ev, symObjAddr: 0x12910, symBinAddr: 0x100014680, symSize: 0x2C }
  - { offset: 0x6592C, size: 0x8, addend: 0x0, symName: __ZN6parlay8internal13UninitializedINS0_15block_allocator10local_listEED2Ev, symObjAddr: 0x1293C, symBinAddr: 0x1000146AC, symSize: 0x14 }
  - { offset: 0x65956, size: 0x8, addend: 0x0, symName: __ZN6parlay8internal12hazptr_stackIPNS0_15block_allocator5blockEED2Ev, symObjAddr: 0x12950, symBinAddr: 0x1000146C0, symSize: 0x8C }
  - { offset: 0x659AA, size: 0x8, addend: 0x0, symName: __ZNKSt3__113__atomic_baseIPN6parlay8internal12hazptr_stackIPNS2_15block_allocator5blockEE4NodeELb0EE4loadB8ue170006ENS_12memory_orderE, symObjAddr: 0x129DC, symBinAddr: 0x10001474C, symSize: 0x2C }
  - { offset: 0x659DE, size: 0x8, addend: 0x0, symName: __ZN6parlay8internal12hazptr_stackIPSt4byteED2Ev, symObjAddr: 0x12A88, symBinAddr: 0x1000147F8, symSize: 0x8C }
  - { offset: 0x65A32, size: 0x8, addend: 0x0, symName: __ZNKSt3__113__atomic_baseIPN6parlay8internal12hazptr_stackIPSt4byteE4NodeELb0EE4loadB8ue170006ENS_12memory_orderE, symObjAddr: 0x12B14, symBinAddr: 0x100014884, symSize: 0x2C }
  - { offset: 0x65A66, size: 0x8, addend: 0x0, symName: __ZNSt3__110unique_ptrIA_N6parlay8internal15block_allocatorENS2_20unique_array_deleterIS3_EEEC2B8ue170006IPS3_Lb1EvvEET_NS_16__dependent_typeINS_27__unique_ptr_deleter_sfinaeIS6_EEXT0_EE20__good_rval_ref_typeE, symObjAddr: 0x12BC0, symBinAddr: 0x100014930, symSize: 0x48 }
  - { offset: 0x65AC3, size: 0x8, addend: 0x0, symName: __ZNSt3__117__compressed_pairIPN6parlay8internal15block_allocatorENS2_20unique_array_deleterIS3_EEEC1B8ue170006IRS4_S6_EEOT_OT0_, symObjAddr: 0x12C08, symBinAddr: 0x100014978, symSize: 0x3C }
  - { offset: 0x65B1B, size: 0x8, addend: 0x0, symName: __ZNSt3__117__compressed_pairIPN6parlay8internal15block_allocatorENS2_20unique_array_deleterIS3_EEEC2B8ue170006IRS4_S6_EEOT_OT0_, symObjAddr: 0x12C44, symBinAddr: 0x1000149B4, symSize: 0x48 }
  - { offset: 0x65B73, size: 0x8, addend: 0x0, symName: __ZNSt3__122__compressed_pair_elemIPN6parlay8internal15block_allocatorELi0ELb0EEC2B8ue170006IRS4_vEEOT_, symObjAddr: 0x12C8C, symBinAddr: 0x1000149FC, symSize: 0x24 }
  - { offset: 0x65BB5, size: 0x8, addend: 0x0, symName: __ZNSt3__110unique_ptrIA_N6parlay8internal15block_allocatorENS2_20unique_array_deleterIS3_EEE5resetB8ue170006IPS3_EENS_9enable_ifIXsr28_CheckArrayPointerConversionIT_EE5valueEvE4typeESB_, symObjAddr: 0x12CB0, symBinAddr: 0x100014A20, symSize: 0x80 }
  - { offset: 0x65C02, size: 0x8, addend: 0x0, symName: __ZNSt3__110unique_ptrIA_N6parlay8internal15block_allocatorENS2_20unique_array_deleterIS3_EEE7releaseB8ue170006Ev, symObjAddr: 0x12D30, symBinAddr: 0x100014AA0, symSize: 0x44 }
  - { offset: 0x65C37, size: 0x8, addend: 0x0, symName: __ZNSt3__110unique_ptrIA_N6parlay8internal15block_allocatorENS2_20unique_array_deleterIS3_EEE11get_deleterB8ue170006Ev, symObjAddr: 0x12D74, symBinAddr: 0x100014AE4, symSize: 0x24 }
  - { offset: 0x65C5D, size: 0x8, addend: 0x0, symName: __ZNSt3__117__compressed_pairIPN6parlay8internal15block_allocatorENS2_20unique_array_deleterIS3_EEE6secondB8ue170006Ev, symObjAddr: 0x12D98, symBinAddr: 0x100014B08, symSize: 0x28 }
  - { offset: 0x65C83, size: 0x8, addend: 0x0, symName: __ZNSt3__117__compressed_pairIPN6parlay8internal15block_allocatorENS2_20unique_array_deleterIS3_EEE5firstB8ue170006Ev, symObjAddr: 0x12DC0, symBinAddr: 0x100014B30, symSize: 0x24 }
  - { offset: 0x65CA9, size: 0x8, addend: 0x0, symName: __ZN6parlay8internal20unique_array_deleterINS0_15block_allocatorEEclEPS2_, symObjAddr: 0x12DE4, symBinAddr: 0x100014B54, symSize: 0x9C }
  - { offset: 0x65CFB, size: 0x8, addend: 0x0, symName: __ZNSt3__122__compressed_pair_elemIPN6parlay8internal15block_allocatorELi0ELb0EE5__getB8ue170006Ev, symObjAddr: 0x12E80, symBinAddr: 0x100014BF0, symSize: 0x14 }
  - { offset: 0x65D21, size: 0x8, addend: 0x0, symName: __ZN6parlay8internal15block_allocatorD1Ev, symObjAddr: 0x12E94, symBinAddr: 0x100014C04, symSize: 0x2C }
  - { offset: 0x65D4B, size: 0x8, addend: 0x0, symName: __ZN6parlay8internal15block_allocatorD2Ev, symObjAddr: 0x12EC0, symBinAddr: 0x100014C30, symSize: 0x94 }
  - { offset: 0x65D89, size: 0x8, addend: 0x0, symName: __ZN6parlay8internal15block_allocator5clearEv, symObjAddr: 0x12F54, symBinAddr: 0x100014CC4, symSize: 0xF0 }
  - { offset: 0x65DED, size: 0x8, addend: 0x0, symName: __ZN6parlay8internal15block_allocator15num_used_blocksEv, symObjAddr: 0x13044, symBinAddr: 0x100014DB4, symSize: 0x68 }
  - { offset: 0x65E55, size: 0x8, addend: 0x0, symName: __ZN6parlay14ThreadSpecificINS_8internal15block_allocator10local_listEE8for_eachIZNS2_5clearEvEUlOT_E_EEvS7_, symObjAddr: 0x130AC, symBinAddr: 0x100014E1C, symSize: 0x180 }
  - { offset: 0x65F10, size: 0x8, addend: 0x0, symName: __ZNSt3__18optionalIPSt4byteEC1B8ue170006Ev, symObjAddr: 0x1322C, symBinAddr: 0x100014F9C, symSize: 0x2C }
  - { offset: 0x65F3A, size: 0x8, addend: 0x0, symName: __ZN6parlay8internal12hazptr_stackIPSt4byteE3popEv, symObjAddr: 0x13258, symBinAddr: 0x100014FC8, symSize: 0xAC }
  - { offset: 0x65F7C, size: 0x8, addend: 0x0, symName: __ZNKSt3__18optionalIPSt4byteEcvbB8ue170006Ev, symObjAddr: 0x13304, symBinAddr: 0x100015074, symSize: 0x28 }
  - { offset: 0x65FA2, size: 0x8, addend: 0x0, symName: __ZNRSt3__18optionalIPSt4byteEdeB8ue170006Ev, symObjAddr: 0x1332C, symBinAddr: 0x10001509C, symSize: 0x24 }
  - { offset: 0x65FC8, size: 0x8, addend: 0x0, symName: __ZN6parlay8internal12hazptr_stackIPNS0_15block_allocator5blockEE5clearEv, symObjAddr: 0x13350, symBinAddr: 0x1000150C0, symSize: 0x50 }
  - { offset: 0x65FEE, size: 0x8, addend: 0x0, symName: __ZNSt3__113__atomic_baseImLb0EE5storeB8ue170006EmNS_12memory_orderE, symObjAddr: 0x133A0, symBinAddr: 0x100015110, symSize: 0x34 }
  - { offset: 0x66030, size: 0x8, addend: 0x0, symName: __ZNK6parlay8internal12hazptr_stackIPNS0_15block_allocator5blockEE4sizeEv, symObjAddr: 0x133D4, symBinAddr: 0x100015144, symSize: 0xA4 }
  - { offset: 0x66078, size: 0x8, addend: 0x0, symName: __ZN6parlay14ThreadSpecificINS_8internal15block_allocator10local_listEE8for_eachIZNS2_15num_used_blocksEvEUlOT_E_EEvS7_, symObjAddr: 0x13478, symBinAddr: 0x1000151E8, symSize: 0x180 }
  - { offset: 0x66133, size: 0x8, addend: 0x0, symName: __ZN6parlay8internal24intrusive_acquire_retireINS0_12hazptr_stackIPNS0_15block_allocator5blockEE4NodeENSt3__114default_deleteIS7_EELm1EE7acquireIPS7_EET_RKNS8_6atomicISE_EE, symObjAddr: 0x135F8, symBinAddr: 0x100015368, symSize: 0x84 }
  - { offset: 0x6618C, size: 0x8, addend: 0x0, symName: __ZN6parlay8internal24intrusive_acquire_retireINS0_12hazptr_stackIPNS0_15block_allocator5blockEE4NodeENSt3__114default_deleteIS7_EELm1EE7releaseEv, symObjAddr: 0x1367C, symBinAddr: 0x1000153EC, symSize: 0x30 }
  - { offset: 0x661B2, size: 0x8, addend: 0x0, symName: __ZN6parlay14ThreadSpecificINS_8internal24intrusive_acquire_retireINS1_12hazptr_stackIPNS1_15block_allocator5blockEE4NodeENSt3__114default_deleteIS8_EELm1EE10ThreadDataEEptEv, symObjAddr: 0x136AC, symBinAddr: 0x10001541C, symSize: 0x24 }
  - { offset: 0x661D8, size: 0x8, addend: 0x0, symName: __ZNSt3__113__atomic_baseIPN6parlay8internal12hazptr_stackIPNS2_15block_allocator5blockEE4NodeELb0EE5storeB8ue170006ES9_NS_12memory_orderE, symObjAddr: 0x136D0, symBinAddr: 0x100015440, symSize: 0x34 }
  - { offset: 0x6621A, size: 0x8, addend: 0x0, symName: __ZN6parlay14ThreadSpecificINS_8internal24intrusive_acquire_retireINS1_12hazptr_stackIPNS1_15block_allocator5blockEE4NodeENSt3__114default_deleteIS8_EELm1EE10ThreadDataEE3getEv, symObjAddr: 0x13704, symBinAddr: 0x100015474, symSize: 0x4C }
  - { offset: 0x6624E, size: 0x8, addend: 0x0, symName: __ZN6parlay14ThreadSpecificINS_8internal24intrusive_acquire_retireINS1_12hazptr_stackIPNS1_15block_allocator5blockEE4NodeENSt3__114default_deleteIS8_EELm1EE10ThreadDataEE12get_by_indexEmm, symObjAddr: 0x13750, symBinAddr: 0x1000154C0, symSize: 0x88 }
  - { offset: 0x66292, size: 0x8, addend: 0x0, symName: __ZN6parlay14ThreadSpecificINS_8internal24intrusive_acquire_retireINS1_12hazptr_stackIPNS1_15block_allocator5blockEE4NodeENSt3__114default_deleteIS8_EELm1EE10ThreadDataEE20get_by_index_nocheckEmm, symObjAddr: 0x137D8, symBinAddr: 0x100015548, symSize: 0x98 }
  - { offset: 0x662D6, size: 0x8, addend: 0x0, symName: __ZN6parlay14ThreadSpecificINS_8internal15block_allocator10local_listEE14get_chunk_sizeEm, symObjAddr: 0x138F4, symBinAddr: 0x100015664, symSize: 0xA0 }
  - { offset: 0x662FA, size: 0x8, addend: 0x0, symName: __ZNK6parlay14ThreadSpecificINS_8internal15block_allocator10local_listEE19ensure_chunk_existsEm, symObjAddr: 0x13994, symBinAddr: 0x100015704, symSize: 0x1DC }
  - { offset: 0x6638A, size: 0x8, addend: 0x0, symName: __ZZN6parlay8internal15block_allocator15num_used_blocksEvENKUlOT_E_clIRNS1_10local_listEEEDaS3_, symObjAddr: 0x13B70, symBinAddr: 0x1000158E0, symSize: 0x30 }
  - { offset: 0x663CB, size: 0x8, addend: 0x0, symName: __ZN6parlay8internal13UninitializedINS0_15block_allocator10local_listEEdeEv, symObjAddr: 0x13BA0, symBinAddr: 0x100015910, symSize: 0x14 }
  - { offset: 0x663FB, size: 0x8, addend: 0x0, symName: __ZZN6parlay8internal15block_allocator5clearEvENKUlOT_E_clIRNS1_10local_listEEEDaS3_, symObjAddr: 0x13BB4, symBinAddr: 0x100015924, symSize: 0x1C }
  - { offset: 0x6643C, size: 0x8, addend: 0x0, symName: __ZNSt3__18optionalIPSt4byteEC2B8ue170006Ev, symObjAddr: 0x13BD0, symBinAddr: 0x100015940, symSize: 0x2C }
  - { offset: 0x6646B, size: 0x8, addend: 0x0, symName: __ZNSt3__127__optional_move_assign_baseIPSt4byteLb1EEC2Ev, symObjAddr: 0x13BFC, symBinAddr: 0x10001596C, symSize: 0x2C }
  - { offset: 0x6649D, size: 0x8, addend: 0x0, symName: __ZNSt3__127__optional_copy_assign_baseIPSt4byteLb1EEC2Ev, symObjAddr: 0x13C28, symBinAddr: 0x100015998, symSize: 0x2C }
  - { offset: 0x664CF, size: 0x8, addend: 0x0, symName: __ZNSt3__120__optional_move_baseIPSt4byteLb1EEC2Ev, symObjAddr: 0x13C54, symBinAddr: 0x1000159C4, symSize: 0x2C }
  - { offset: 0x66501, size: 0x8, addend: 0x0, symName: __ZNSt3__120__optional_copy_baseIPSt4byteLb1EEC2Ev, symObjAddr: 0x13C80, symBinAddr: 0x1000159F0, symSize: 0x2C }
  - { offset: 0x6652E, size: 0x8, addend: 0x0, symName: __ZNSt3__123__optional_storage_baseIPSt4byteLb0EEC2Ev, symObjAddr: 0x13CAC, symBinAddr: 0x100015A1C, symSize: 0x2C }
  - { offset: 0x6655B, size: 0x8, addend: 0x0, symName: __ZNSt3__124__optional_destruct_baseIPSt4byteLb1EEC2B8ue170006Ev, symObjAddr: 0x13CD8, symBinAddr: 0x100015A48, symSize: 0x1C }
  - { offset: 0x66585, size: 0x8, addend: 0x0, symName: __ZN6parlay8internal24intrusive_acquire_retireINS0_12hazptr_stackIPSt4byteE4NodeENSt3__114default_deleteIS6_EELm1EE7acquireIPS6_EET_RKNS7_6atomicISD_EE, symObjAddr: 0x13CF4, symBinAddr: 0x100015A64, symSize: 0x84 }
  - { offset: 0x665DE, size: 0x8, addend: 0x0, symName: __ZNSt3__113__atomic_baseIPN6parlay8internal12hazptr_stackIPSt4byteE4NodeELb0EE21compare_exchange_weakB8ue170006ERS8_S8_NS_12memory_orderE, symObjAddr: 0x13D78, symBinAddr: 0x100015AE8, symSize: 0x44 }
  - { offset: 0x6662E, size: 0x8, addend: 0x0, symName: __ZN6parlay8internal24intrusive_acquire_retireINS0_12hazptr_stackIPSt4byteE4NodeENSt3__114default_deleteIS6_EELm1EE6retireIPS6_EEvT_, symObjAddr: 0x13DEC, symBinAddr: 0x100015B5C, symSize: 0x44 }
  - { offset: 0x6666B, size: 0x8, addend: 0x0, symName: __ZN6parlay8internal24intrusive_acquire_retireINS0_12hazptr_stackIPSt4byteE4NodeENSt3__114default_deleteIS6_EELm1EE7releaseEv, symObjAddr: 0x13E30, symBinAddr: 0x100015BA0, symSize: 0x30 }
  - { offset: 0x66691, size: 0x8, addend: 0x0, symName: __ZN6parlay14ThreadSpecificINS_8internal24intrusive_acquire_retireINS1_12hazptr_stackIPSt4byteE4NodeENSt3__114default_deleteIS7_EELm1EE10ThreadDataEEptEv, symObjAddr: 0x13E60, symBinAddr: 0x100015BD0, symSize: 0x24 }
  - { offset: 0x666B7, size: 0x8, addend: 0x0, symName: __ZNSt3__113__atomic_baseIPN6parlay8internal12hazptr_stackIPSt4byteE4NodeELb0EE5storeB8ue170006ES8_NS_12memory_orderE, symObjAddr: 0x13E84, symBinAddr: 0x100015BF4, symSize: 0x34 }
  - { offset: 0x666F9, size: 0x8, addend: 0x0, symName: __ZN6parlay14ThreadSpecificINS_8internal24intrusive_acquire_retireINS1_12hazptr_stackIPSt4byteE4NodeENSt3__114default_deleteIS7_EELm1EE10ThreadDataEE3getEv, symObjAddr: 0x13EB8, symBinAddr: 0x100015C28, symSize: 0x4C }
  - { offset: 0x6672D, size: 0x8, addend: 0x0, symName: __ZN6parlay14ThreadSpecificINS_8internal24intrusive_acquire_retireINS1_12hazptr_stackIPSt4byteE4NodeENSt3__114default_deleteIS7_EELm1EE10ThreadDataEE12get_by_indexEmm, symObjAddr: 0x13F04, symBinAddr: 0x100015C74, symSize: 0x88 }
  - { offset: 0x66771, size: 0x8, addend: 0x0, symName: __ZN6parlay14ThreadSpecificINS_8internal24intrusive_acquire_retireINS1_12hazptr_stackIPSt4byteE4NodeENSt3__114default_deleteIS7_EELm1EE10ThreadDataEE20get_by_index_nocheckEmm, symObjAddr: 0x13F8C, symBinAddr: 0x100015CFC, symSize: 0x98 }
  - { offset: 0x667BB, size: 0x8, addend: 0x0, symName: __ZNSt3__18optionalIPSt4byteEC1B8ue170006IS2_Li0EEEOT_, symObjAddr: 0x146FC, symBinAddr: 0x10001646C, symSize: 0x34 }
  - { offset: 0x66803, size: 0x8, addend: 0x0, symName: __ZNSt3__18optionalIPSt4byteEC2B8ue170006IS2_Li0EEEOT_, symObjAddr: 0x14730, symBinAddr: 0x1000164A0, symSize: 0x34 }
  - { offset: 0x6684B, size: 0x8, addend: 0x0, symName: __ZNSt3__127__optional_move_assign_baseIPSt4byteLb1EECI2NS_24__optional_destruct_baseIS2_Lb1EEEIJS2_EEENS_10in_place_tEDpOT_, symObjAddr: 0x14764, symBinAddr: 0x1000164D4, symSize: 0x34 }
  - { offset: 0x6688A, size: 0x8, addend: 0x0, symName: __ZNSt3__127__optional_copy_assign_baseIPSt4byteLb1EECI2NS_24__optional_destruct_baseIS2_Lb1EEEIJS2_EEENS_10in_place_tEDpOT_, symObjAddr: 0x14798, symBinAddr: 0x100016508, symSize: 0x34 }
  - { offset: 0x668C9, size: 0x8, addend: 0x0, symName: __ZNSt3__120__optional_move_baseIPSt4byteLb1EECI2NS_24__optional_destruct_baseIS2_Lb1EEEIJS2_EEENS_10in_place_tEDpOT_, symObjAddr: 0x147CC, symBinAddr: 0x10001653C, symSize: 0x34 }
  - { offset: 0x66908, size: 0x8, addend: 0x0, symName: __ZNSt3__120__optional_copy_baseIPSt4byteLb1EECI2NS_24__optional_destruct_baseIS2_Lb1EEEIJS2_EEENS_10in_place_tEDpOT_, symObjAddr: 0x14800, symBinAddr: 0x100016570, symSize: 0x34 }
  - { offset: 0x66947, size: 0x8, addend: 0x0, symName: __ZNSt3__123__optional_storage_baseIPSt4byteLb0EECI2NS_24__optional_destruct_baseIS2_Lb1EEEIJS2_EEENS_10in_place_tEDpOT_, symObjAddr: 0x14834, symBinAddr: 0x1000165A4, symSize: 0x34 }
  - { offset: 0x66986, size: 0x8, addend: 0x0, symName: __ZNSt3__124__optional_destruct_baseIPSt4byteLb1EEC2B8ue170006IJS2_EEENS_10in_place_tEDpOT_, symObjAddr: 0x14868, symBinAddr: 0x1000165D8, symSize: 0x2C }
  - { offset: 0x669D5, size: 0x8, addend: 0x0, symName: __ZN6parlay8internal24intrusive_acquire_retireINS0_12hazptr_stackIPSt4byteE4NodeENSt3__114default_deleteIS6_EELm1EE11RetiredList4pushEPS6_, symObjAddr: 0x14894, symBinAddr: 0x100016604, symSize: 0x58 }
  - { offset: 0x66A09, size: 0x8, addend: 0x0, symName: __ZN6parlay8internal24intrusive_acquire_retireINS0_12hazptr_stackIPSt4byteE4NodeENSt3__114default_deleteIS6_EELm1EE18work_toward_ejectsEm, symObjAddr: 0x148EC, symBinAddr: 0x10001665C, symSize: 0x1AC }
  - { offset: 0x66BEC, size: 0x8, addend: 0x0, symName: __ZNSt3__113unordered_setIPN6parlay8internal12hazptr_stackIPSt4byteE4NodeENS_4hashIS8_EENS_8equal_toIS8_EENS_9allocatorIS8_EEEC1B8ue170006Ev, symObjAddr: 0x14ACC, symBinAddr: 0x10001683C, symSize: 0x2C }
  - { offset: 0x66C1C, size: 0x8, addend: 0x0, symName: __ZN6parlay8internal24intrusive_acquire_retireINS0_12hazptr_stackIPSt4byteE4NodeENSt3__114default_deleteIS6_EELm1EE10scan_slotsIZNSA_18work_toward_ejectsEmEUlPS6_E_EEvOT_, symObjAddr: 0x14AF8, symBinAddr: 0x100016868, symSize: 0x44 }
  - { offset: 0x66C8D, size: 0x8, addend: 0x0, symName: __ZN6parlay8internal24intrusive_acquire_retireINS0_12hazptr_stackIPSt4byteE4NodeENSt3__114default_deleteIS6_EELm1EE11RetiredList7cleanupIZNSA_18work_toward_ejectsEmEUlPS6_E0_EEvOT_RS9_, symObjAddr: 0x14B3C, symBinAddr: 0x1000168AC, symSize: 0x18C }
  - { offset: 0x66D3A, size: 0x8, addend: 0x0, symName: __ZNSt3__113unordered_setIPN6parlay8internal12hazptr_stackIPSt4byteE4NodeENS_4hashIS8_EENS_8equal_toIS8_EENS_9allocatorIS8_EEED1B8ue170006Ev, symObjAddr: 0x14CC8, symBinAddr: 0x100016A38, symSize: 0x2C }
  - { offset: 0x66D64, size: 0x8, addend: 0x0, symName: __ZNSt3__113unordered_setIPN6parlay8internal12hazptr_stackIPSt4byteE4NodeENS_4hashIS8_EENS_8equal_toIS8_EENS_9allocatorIS8_EEEC2B8ue170006Ev, symObjAddr: 0x14CF4, symBinAddr: 0x100016A64, symSize: 0x2C }
  - { offset: 0x66D8E, size: 0x8, addend: 0x0, symName: __ZNSt3__112__hash_tableIPN6parlay8internal12hazptr_stackIPSt4byteE4NodeENS_4hashIS8_EENS_8equal_toIS8_EENS_9allocatorIS8_EEEC1Ev, symObjAddr: 0x14D20, symBinAddr: 0x100016A90, symSize: 0x2C }
  - { offset: 0x66DBA, size: 0x8, addend: 0x0, symName: __ZNSt3__112__hash_tableIPN6parlay8internal12hazptr_stackIPSt4byteE4NodeENS_4hashIS8_EENS_8equal_toIS8_EENS_9allocatorIS8_EEEC2Ev, symObjAddr: 0x14D4C, symBinAddr: 0x100016ABC, symSize: 0x7C }
  - { offset: 0x66DE6, size: 0x8, addend: 0x0, symName: __ZNSt3__110unique_ptrIA_PNS_16__hash_node_baseIPNS_11__hash_nodeIPN6parlay8internal12hazptr_stackIPSt4byteE4NodeEPvEEEENS_25__bucket_list_deallocatorINS_9allocatorISF_EEEEEC1B8ue170006ILb1EvEEv, symObjAddr: 0x14DC8, symBinAddr: 0x100016B38, symSize: 0x2C }
  - { offset: 0x66E1B, size: 0x8, addend: 0x0, symName: __ZNSt3__117__compressed_pairINS_16__hash_node_baseIPNS_11__hash_nodeIPN6parlay8internal12hazptr_stackIPSt4byteE4NodeEPvEEEENS_9allocatorISC_EEEC1B8ue170006ILb1EvEEv, symObjAddr: 0x14DF4, symBinAddr: 0x100016B64, symSize: 0x2C }
  - { offset: 0x66E50, size: 0x8, addend: 0x0, symName: __ZNSt3__117__compressed_pairImNS_4hashIPN6parlay8internal12hazptr_stackIPSt4byteE4NodeEEEEC1B8ue170006IiNS_18__default_init_tagEEEOT_OT0_, symObjAddr: 0x14E20, symBinAddr: 0x100016B90, symSize: 0x3C }
  - { offset: 0x66EAE, size: 0x8, addend: 0x0, symName: __ZNSt3__117__compressed_pairIfNS_8equal_toIPN6parlay8internal12hazptr_stackIPSt4byteE4NodeEEEEC1B8ue170006IfNS_18__default_init_tagEEEOT_OT0_, symObjAddr: 0x14E5C, symBinAddr: 0x100016BCC, symSize: 0x3C }
  - { offset: 0x66F06, size: 0x8, addend: 0x0, symName: __ZNSt3__110unique_ptrIA_PNS_16__hash_node_baseIPNS_11__hash_nodeIPN6parlay8internal12hazptr_stackIPSt4byteE4NodeEPvEEEENS_25__bucket_list_deallocatorINS_9allocatorISF_EEEEEC2B8ue170006ILb1EvEEv, symObjAddr: 0x14E98, symBinAddr: 0x100016C08, symSize: 0x3C }
  - { offset: 0x66F3B, size: 0x8, addend: 0x0, symName: __ZNSt3__117__compressed_pairIPPNS_16__hash_node_baseIPNS_11__hash_nodeIPN6parlay8internal12hazptr_stackIPSt4byteE4NodeEPvEEEENS_25__bucket_list_deallocatorINS_9allocatorISF_EEEEEC1B8ue170006INS_16__value_init_tagESN_EEOT_OT0_, symObjAddr: 0x14ED4, symBinAddr: 0x100016C44, symSize: 0x3C }
  - { offset: 0x66F93, size: 0x8, addend: 0x0, symName: __ZNSt3__117__compressed_pairIPPNS_16__hash_node_baseIPNS_11__hash_nodeIPN6parlay8internal12hazptr_stackIPSt4byteE4NodeEPvEEEENS_25__bucket_list_deallocatorINS_9allocatorISF_EEEEEC2B8ue170006INS_16__value_init_tagESN_EEOT_OT0_, symObjAddr: 0x14F10, symBinAddr: 0x100016C80, symSize: 0x40 }
  - { offset: 0x66FEB, size: 0x8, addend: 0x0, symName: __ZNSt3__122__compressed_pair_elemIPPNS_16__hash_node_baseIPNS_11__hash_nodeIPN6parlay8internal12hazptr_stackIPSt4byteE4NodeEPvEEEELi0ELb0EEC2B8ue170006ENS_16__value_init_tagE, symObjAddr: 0x14F50, symBinAddr: 0x100016CC0, symSize: 0x18 }
  - { offset: 0x67020, size: 0x8, addend: 0x0, symName: __ZNSt3__122__compressed_pair_elemINS_25__bucket_list_deallocatorINS_9allocatorIPNS_16__hash_node_baseIPNS_11__hash_nodeIPN6parlay8internal12hazptr_stackIPSt4byteE4NodeEPvEEEEEEEELi1ELb0EEC2B8ue170006ENS_16__value_init_tagE, symObjAddr: 0x14F68, symBinAddr: 0x100016CD8, symSize: 0x2C }
  - { offset: 0x67055, size: 0x8, addend: 0x0, symName: __ZNSt3__125__bucket_list_deallocatorINS_9allocatorIPNS_16__hash_node_baseIPNS_11__hash_nodeIPN6parlay8internal12hazptr_stackIPSt4byteE4NodeEPvEEEEEEEC1B8ue170006Ev, symObjAddr: 0x14F94, symBinAddr: 0x100016D04, symSize: 0x2C }
  - { offset: 0x6707F, size: 0x8, addend: 0x0, symName: __ZNSt3__125__bucket_list_deallocatorINS_9allocatorIPNS_16__hash_node_baseIPNS_11__hash_nodeIPN6parlay8internal12hazptr_stackIPSt4byteE4NodeEPvEEEEEEEC2B8ue170006Ev, symObjAddr: 0x14FC0, symBinAddr: 0x100016D30, symSize: 0x40 }
  - { offset: 0x670A9, size: 0x8, addend: 0x0, symName: __ZNSt3__117__compressed_pairImNS_9allocatorIPNS_16__hash_node_baseIPNS_11__hash_nodeIPN6parlay8internal12hazptr_stackIPSt4byteE4NodeEPvEEEEEEEC1B8ue170006IiNS_18__default_init_tagEEEOT_OT0_, symObjAddr: 0x15000, symBinAddr: 0x100016D70, symSize: 0x3C }
  - { offset: 0x67101, size: 0x8, addend: 0x0, symName: __ZNSt3__117__compressed_pairImNS_9allocatorIPNS_16__hash_node_baseIPNS_11__hash_nodeIPN6parlay8internal12hazptr_stackIPSt4byteE4NodeEPvEEEEEEEC2B8ue170006IiNS_18__default_init_tagEEEOT_OT0_, symObjAddr: 0x1503C, symBinAddr: 0x100016DAC, symSize: 0x40 }
  - { offset: 0x67159, size: 0x8, addend: 0x0, symName: __ZNSt3__122__compressed_pair_elemImLi0ELb0EEC2B8ue170006IivEEOT_, symObjAddr: 0x1507C, symBinAddr: 0x100016DEC, symSize: 0x24 }
  - { offset: 0x6719B, size: 0x8, addend: 0x0, symName: __ZNSt3__122__compressed_pair_elemINS_9allocatorIPNS_16__hash_node_baseIPNS_11__hash_nodeIPN6parlay8internal12hazptr_stackIPSt4byteE4NodeEPvEEEEEELi1ELb1EEC2B8ue170006ENS_18__default_init_tagE, symObjAddr: 0x150A0, symBinAddr: 0x100016E10, symSize: 0x2C }
  - { offset: 0x671D0, size: 0x8, addend: 0x0, symName: __ZNSt3__19allocatorIPNS_16__hash_node_baseIPNS_11__hash_nodeIPN6parlay8internal12hazptr_stackIPSt4byteE4NodeEPvEEEEEC2B8ue170006Ev, symObjAddr: 0x150CC, symBinAddr: 0x100016E3C, symSize: 0x2C }
  - { offset: 0x671FA, size: 0x8, addend: 0x0, symName: __ZNSt3__116__non_trivial_ifILb1ENS_9allocatorIPNS_16__hash_node_baseIPNS_11__hash_nodeIPN6parlay8internal12hazptr_stackIPSt4byteE4NodeEPvEEEEEEEC2B8ue170006Ev, symObjAddr: 0x150F8, symBinAddr: 0x100016E68, symSize: 0x14 }
  - { offset: 0x67224, size: 0x8, addend: 0x0, symName: __ZNSt3__117__compressed_pairINS_16__hash_node_baseIPNS_11__hash_nodeIPN6parlay8internal12hazptr_stackIPSt4byteE4NodeEPvEEEENS_9allocatorISC_EEEC2B8ue170006ILb1EvEEv, symObjAddr: 0x1510C, symBinAddr: 0x100016E7C, symSize: 0x34 }
  - { offset: 0x67259, size: 0x8, addend: 0x0, symName: __ZNSt3__122__compressed_pair_elemINS_16__hash_node_baseIPNS_11__hash_nodeIPN6parlay8internal12hazptr_stackIPSt4byteE4NodeEPvEEEELi0ELb0EEC2B8ue170006ENS_16__value_init_tagE, symObjAddr: 0x15140, symBinAddr: 0x100016EB0, symSize: 0x2C }
  - { offset: 0x6728E, size: 0x8, addend: 0x0, symName: __ZNSt3__122__compressed_pair_elemINS_9allocatorINS_11__hash_nodeIPN6parlay8internal12hazptr_stackIPSt4byteE4NodeEPvEEEELi1ELb1EEC2B8ue170006ENS_16__value_init_tagE, symObjAddr: 0x1516C, symBinAddr: 0x100016EDC, symSize: 0x2C }
  - { offset: 0x672C3, size: 0x8, addend: 0x0, symName: __ZNSt3__116__hash_node_baseIPNS_11__hash_nodeIPN6parlay8internal12hazptr_stackIPSt4byteE4NodeEPvEEEC1B8ue170006Ev, symObjAddr: 0x15198, symBinAddr: 0x100016F08, symSize: 0x2C }
  - { offset: 0x672ED, size: 0x8, addend: 0x0, symName: __ZNSt3__116__hash_node_baseIPNS_11__hash_nodeIPN6parlay8internal12hazptr_stackIPSt4byteE4NodeEPvEEEC2B8ue170006Ev, symObjAddr: 0x151C4, symBinAddr: 0x100016F34, symSize: 0x18 }
  - { offset: 0x67317, size: 0x8, addend: 0x0, symName: __ZNSt3__19allocatorINS_11__hash_nodeIPN6parlay8internal12hazptr_stackIPSt4byteE4NodeEPvEEEC2B8ue170006Ev, symObjAddr: 0x151DC, symBinAddr: 0x100016F4C, symSize: 0x2C }
  - { offset: 0x67341, size: 0x8, addend: 0x0, symName: __ZNSt3__116__non_trivial_ifILb1ENS_9allocatorINS_11__hash_nodeIPN6parlay8internal12hazptr_stackIPSt4byteE4NodeEPvEEEEEC2B8ue170006Ev, symObjAddr: 0x15208, symBinAddr: 0x100016F78, symSize: 0x14 }
  - { offset: 0x6736B, size: 0x8, addend: 0x0, symName: __ZNSt3__117__compressed_pairImNS_4hashIPN6parlay8internal12hazptr_stackIPSt4byteE4NodeEEEEC2B8ue170006IiNS_18__default_init_tagEEEOT_OT0_, symObjAddr: 0x1521C, symBinAddr: 0x100016F8C, symSize: 0x40 }
  - { offset: 0x673C3, size: 0x8, addend: 0x0, symName: __ZNSt3__122__compressed_pair_elemINS_4hashIPN6parlay8internal12hazptr_stackIPSt4byteE4NodeEEELi1ELb1EEC2B8ue170006ENS_18__default_init_tagE, symObjAddr: 0x1525C, symBinAddr: 0x100016FCC, symSize: 0x14 }
  - { offset: 0x673F8, size: 0x8, addend: 0x0, symName: __ZNSt3__117__compressed_pairIfNS_8equal_toIPN6parlay8internal12hazptr_stackIPSt4byteE4NodeEEEEC2B8ue170006IfNS_18__default_init_tagEEEOT_OT0_, symObjAddr: 0x15270, symBinAddr: 0x100016FE0, symSize: 0x40 }
  - { offset: 0x67450, size: 0x8, addend: 0x0, symName: __ZNSt3__122__compressed_pair_elemIfLi0ELb0EEC2B8ue170006IfvEEOT_, symObjAddr: 0x152B0, symBinAddr: 0x100017020, symSize: 0x24 }
  - { offset: 0x67492, size: 0x8, addend: 0x0, symName: __ZNSt3__122__compressed_pair_elemINS_8equal_toIPN6parlay8internal12hazptr_stackIPSt4byteE4NodeEEELi1ELb1EEC2B8ue170006ENS_18__default_init_tagE, symObjAddr: 0x152D4, symBinAddr: 0x100017044, symSize: 0x14 }
  - { offset: 0x674D3, size: 0x8, addend: 0x0, symName: __ZN6parlay14ThreadSpecificINS_8internal24intrusive_acquire_retireINS1_12hazptr_stackIPSt4byteE4NodeENSt3__114default_deleteIS7_EELm1EE10ThreadDataEE8for_eachIZNSB_10scan_slotsIZNSB_18work_toward_ejectsEmEUlPS7_E_EEvOT_EUlSJ_E_EEvSJ_, symObjAddr: 0x1530C, symBinAddr: 0x10001707C, symSize: 0x180 }
  - { offset: 0x67598, size: 0x8, addend: 0x0, symName: __ZZN6parlay8internal24intrusive_acquire_retireINS0_12hazptr_stackIPSt4byteE4NodeENSt3__114default_deleteIS6_EELm1EE10scan_slotsIZNSA_18work_toward_ejectsEmEUlPS6_E_EEvOT_ENKUlSF_E_clIRNSA_10ThreadDataEEEDaSF_, symObjAddr: 0x15508, symBinAddr: 0x100017278, symSize: 0x60 }
  - { offset: 0x675F1, size: 0x8, addend: 0x0, symName: __ZZN6parlay8internal24intrusive_acquire_retireINS0_12hazptr_stackIPSt4byteE4NodeENSt3__114default_deleteIS6_EELm1EE18work_toward_ejectsEmENKUlPS6_E_clESB_, symObjAddr: 0x15568, symBinAddr: 0x1000172D8, symSize: 0x3C }
  - { offset: 0x67629, size: 0x8, addend: 0x0, symName: __ZNSt3__113unordered_setIPN6parlay8internal12hazptr_stackIPSt4byteE4NodeENS_4hashIS8_EENS_8equal_toIS8_EENS_9allocatorIS8_EEE6insertB8ue170006ERKS8_, symObjAddr: 0x155A4, symBinAddr: 0x100017314, symSize: 0x4C }
  - { offset: 0x6765E, size: 0x8, addend: 0x0, symName: __ZNSt3__112__hash_tableIPN6parlay8internal12hazptr_stackIPSt4byteE4NodeENS_4hashIS8_EENS_8equal_toIS8_EENS_9allocatorIS8_EEE15__insert_uniqueB8ue170006ERKS8_, symObjAddr: 0x155F0, symBinAddr: 0x100017360, symSize: 0x50 }
  - { offset: 0x67693, size: 0x8, addend: 0x0, symName: __ZNSt3__14pairINS_21__hash_const_iteratorIPNS_11__hash_nodeIPN6parlay8internal12hazptr_stackIPSt4byteE4NodeEPvEEEEbEC1B8ue170006INS_15__hash_iteratorISD_EEbLSB_0EEEONS0_IT_T0_EE, symObjAddr: 0x15640, symBinAddr: 0x1000173B0, symSize: 0x34 }
  - { offset: 0x676E4, size: 0x8, addend: 0x0, symName: __ZNSt3__112__hash_tableIPN6parlay8internal12hazptr_stackIPSt4byteE4NodeENS_4hashIS8_EENS_8equal_toIS8_EENS_9allocatorIS8_EEE25__emplace_unique_key_argsIS8_JRKS8_EEENS_4pairINS_15__hash_iteratorIPNS_11__hash_nodeIS8_PvEEEEbEERKT_DpOT0_, symObjAddr: 0x15674, symBinAddr: 0x1000173E4, symSize: 0x4DC }
  - { offset: 0x677C4, size: 0x8, addend: 0x0, symName: __ZNSt3__122__hash_key_value_typesIPN6parlay8internal12hazptr_stackIPSt4byteE4NodeEE9__get_keyB8ue170006ERKS8_, symObjAddr: 0x15B50, symBinAddr: 0x1000178C0, symSize: 0x14 }
  - { offset: 0x677E7, size: 0x8, addend: 0x0, symName: __ZNSt3__112__hash_tableIPN6parlay8internal12hazptr_stackIPSt4byteE4NodeENS_4hashIS8_EENS_8equal_toIS8_EENS_9allocatorIS8_EEE13hash_functionB8ue170006Ev, symObjAddr: 0x15B64, symBinAddr: 0x1000178D4, symSize: 0x28 }
  - { offset: 0x6780D, size: 0x8, addend: 0x0, symName: __ZNKSt3__14hashIPN6parlay8internal12hazptr_stackIPSt4byteE4NodeEEclB8ue170006ES8_, symObjAddr: 0x15B8C, symBinAddr: 0x1000178FC, symSize: 0x48 }
  - { offset: 0x67873, size: 0x8, addend: 0x0, symName: __ZNKSt3__112__hash_tableIPN6parlay8internal12hazptr_stackIPSt4byteE4NodeENS_4hashIS8_EENS_8equal_toIS8_EENS_9allocatorIS8_EEE12bucket_countB8ue170006Ev, symObjAddr: 0x15BD4, symBinAddr: 0x100017944, symSize: 0x28 }
  - { offset: 0x67899, size: 0x8, addend: 0x0, symName: __ZNKSt3__110unique_ptrIA_PNS_16__hash_node_baseIPNS_11__hash_nodeIPN6parlay8internal12hazptr_stackIPSt4byteE4NodeEPvEEEENS_25__bucket_list_deallocatorINS_9allocatorISF_EEEEEixB8ue170006Em, symObjAddr: 0x15C94, symBinAddr: 0x100017A04, symSize: 0x34 }
  - { offset: 0x678CE, size: 0x8, addend: 0x0, symName: __ZNKSt3__116__hash_node_baseIPNS_11__hash_nodeIPN6parlay8internal12hazptr_stackIPSt4byteE4NodeEPvEEE6__hashB8ue170006Ev, symObjAddr: 0x15CC8, symBinAddr: 0x100017A38, symSize: 0x18 }
  - { offset: 0x678F4, size: 0x8, addend: 0x0, symName: __ZNSt3__112__hash_tableIPN6parlay8internal12hazptr_stackIPSt4byteE4NodeENS_4hashIS8_EENS_8equal_toIS8_EENS_9allocatorIS8_EEE6key_eqB8ue170006Ev, symObjAddr: 0x15CE0, symBinAddr: 0x100017A50, symSize: 0x28 }
  - { offset: 0x6791A, size: 0x8, addend: 0x0, symName: __ZNKSt3__18equal_toIPN6parlay8internal12hazptr_stackIPSt4byteE4NodeEEclB8ue170006ERKS8_SB_, symObjAddr: 0x15D08, symBinAddr: 0x100017A78, symSize: 0x34 }
  - { offset: 0x6795E, size: 0x8, addend: 0x0, symName: __ZNSt3__116__hash_node_baseIPNS_11__hash_nodeIPN6parlay8internal12hazptr_stackIPSt4byteE4NodeEPvEEE8__upcastB8ue170006Ev, symObjAddr: 0x15D3C, symBinAddr: 0x100017AAC, symSize: 0x24 }
  - { offset: 0x67984, size: 0x8, addend: 0x0, symName: __ZNSt3__112__hash_tableIPN6parlay8internal12hazptr_stackIPSt4byteE4NodeENS_4hashIS8_EENS_8equal_toIS8_EENS_9allocatorIS8_EEE21__construct_node_hashIRKS8_JEEENS_10unique_ptrINS_11__hash_nodeIS8_PvEENS_22__hash_node_destructorINSD_ISM_EEEEEEmOT_DpOT0_, symObjAddr: 0x15D60, symBinAddr: 0x100017AD0, symSize: 0x140 }
  - { offset: 0x679F7, size: 0x8, addend: 0x0, symName: __ZNSt3__112__hash_tableIPN6parlay8internal12hazptr_stackIPSt4byteE4NodeENS_4hashIS8_EENS_8equal_toIS8_EENS_9allocatorIS8_EEE4sizeB8ue170006Ev, symObjAddr: 0x15EA0, symBinAddr: 0x100017C10, symSize: 0x28 }
  - { offset: 0x67A1D, size: 0x8, addend: 0x0, symName: __ZNSt3__112__hash_tableIPN6parlay8internal12hazptr_stackIPSt4byteE4NodeENS_4hashIS8_EENS_8equal_toIS8_EENS_9allocatorIS8_EEE15max_load_factorB8ue170006Ev, symObjAddr: 0x15EC8, symBinAddr: 0x100017C38, symSize: 0x28 }
  - { offset: 0x67A43, size: 0x8, addend: 0x0, symName: __ZNSt3__112__hash_tableIPN6parlay8internal12hazptr_stackIPSt4byteE4NodeENS_4hashIS8_EENS_8equal_toIS8_EENS_9allocatorIS8_EEE15__rehash_uniqueB8ue170006Em, symObjAddr: 0x15EF0, symBinAddr: 0x100017C60, symSize: 0x2C }
  - { offset: 0x67A78, size: 0x8, addend: 0x0, symName: __Z4ceilB8ue170006f, symObjAddr: 0x15F6C, symBinAddr: 0x100017CDC, symSize: 0x18 }
  - { offset: 0x67AA7, size: 0x8, addend: 0x0, symName: __ZNSt3__117__compressed_pairINS_16__hash_node_baseIPNS_11__hash_nodeIPN6parlay8internal12hazptr_stackIPSt4byteE4NodeEPvEEEENS_9allocatorISC_EEE5firstB8ue170006Ev, symObjAddr: 0x15F84, symBinAddr: 0x100017CF4, symSize: 0x24 }
  - { offset: 0x67ACD, size: 0x8, addend: 0x0, symName: __ZNSt3__116__hash_node_baseIPNS_11__hash_nodeIPN6parlay8internal12hazptr_stackIPSt4byteE4NodeEPvEEE5__ptrB8ue170006Ev, symObjAddr: 0x15FA8, symBinAddr: 0x100017D18, symSize: 0x24 }
  - { offset: 0x67AF3, size: 0x8, addend: 0x0, symName: __ZNKSt3__110unique_ptrINS_11__hash_nodeIPN6parlay8internal12hazptr_stackIPSt4byteE4NodeEPvEENS_22__hash_node_destructorINS_9allocatorISB_EEEEEptB8ue170006Ev, symObjAddr: 0x15FCC, symBinAddr: 0x100017D3C, symSize: 0x28 }
  - { offset: 0x67B19, size: 0x8, addend: 0x0, symName: __ZNKSt3__110unique_ptrINS_11__hash_nodeIPN6parlay8internal12hazptr_stackIPSt4byteE4NodeEPvEENS_22__hash_node_destructorINS_9allocatorISB_EEEEE3getB8ue170006Ev, symObjAddr: 0x15FF4, symBinAddr: 0x100017D64, symSize: 0x28 }
  - { offset: 0x67B3F, size: 0x8, addend: 0x0, symName: __ZNSt3__110unique_ptrINS_11__hash_nodeIPN6parlay8internal12hazptr_stackIPSt4byteE4NodeEPvEENS_22__hash_node_destructorINS_9allocatorISB_EEEEE7releaseB8ue170006Ev, symObjAddr: 0x1601C, symBinAddr: 0x100017D8C, symSize: 0x44 }
  - { offset: 0x67B74, size: 0x8, addend: 0x0, symName: __ZNSt3__110unique_ptrINS_11__hash_nodeIPN6parlay8internal12hazptr_stackIPSt4byteE4NodeEPvEENS_22__hash_node_destructorINS_9allocatorISB_EEEEED1B8ue170006Ev, symObjAddr: 0x16060, symBinAddr: 0x100017DD0, symSize: 0x2C }
  - { offset: 0x67B9E, size: 0x8, addend: 0x0, symName: __ZNSt3__115__hash_iteratorIPNS_11__hash_nodeIPN6parlay8internal12hazptr_stackIPSt4byteE4NodeEPvEEEC1B8ue170006EPNS_16__hash_node_baseISC_EE, symObjAddr: 0x1608C, symBinAddr: 0x100017DFC, symSize: 0x34 }
  - { offset: 0x67BDD, size: 0x8, addend: 0x0, symName: __ZNSt3__14pairINS_15__hash_iteratorIPNS_11__hash_nodeIPN6parlay8internal12hazptr_stackIPSt4byteE4NodeEPvEEEEbEC1B8ue170006ISE_RbLSB_0EEEOT_OT0_, symObjAddr: 0x160C0, symBinAddr: 0x100017E30, symSize: 0x3C }
  - { offset: 0x67C3B, size: 0x8, addend: 0x0, symName: __ZNSt3__117__compressed_pairImNS_4hashIPN6parlay8internal12hazptr_stackIPSt4byteE4NodeEEEE6secondB8ue170006Ev, symObjAddr: 0x160FC, symBinAddr: 0x100017E6C, symSize: 0x24 }
  - { offset: 0x67C61, size: 0x8, addend: 0x0, symName: __ZNSt3__122__compressed_pair_elemINS_4hashIPN6parlay8internal12hazptr_stackIPSt4byteE4NodeEEELi1ELb1EE5__getB8ue170006Ev, symObjAddr: 0x16120, symBinAddr: 0x100017E90, symSize: 0x14 }
  - { offset: 0x67C87, size: 0x8, addend: 0x0, symName: __ZNKSt3__121__murmur2_or_cityhashImLm64EEclB8ue170006EPKvm, symObjAddr: 0x16134, symBinAddr: 0x100017EA4, symSize: 0x410 }
  - { offset: 0x67D21, size: 0x8, addend: 0x0, symName: __ZNSt3__121__murmur2_or_cityhashImLm64EE18__hash_len_0_to_16B8ue170006EPKcm, symObjAddr: 0x16544, symBinAddr: 0x1000182B4, symSize: 0x1C8 }
  - { offset: 0x67DFA, size: 0x8, addend: 0x0, symName: __ZNSt3__121__murmur2_or_cityhashImLm64EE19__hash_len_17_to_32B8ue170006EPKcm, symObjAddr: 0x1670C, symBinAddr: 0x10001847C, symSize: 0x130 }
  - { offset: 0x67E63, size: 0x8, addend: 0x0, symName: __ZNSt3__121__murmur2_or_cityhashImLm64EE19__hash_len_33_to_64B8ue170006EPKcm, symObjAddr: 0x1683C, symBinAddr: 0x1000185AC, symSize: 0x2B8 }
  - { offset: 0x67F18, size: 0x8, addend: 0x0, symName: __ZNSt3__121__murmur2_or_cityhashImLm64EE13__hash_len_16B8ue170006Emm, symObjAddr: 0x16B14, symBinAddr: 0x100018884, symSize: 0x80 }
  - { offset: 0x67F73, size: 0x8, addend: 0x0, symName: __ZNSt3__121__murmur2_or_cityhashImLm64EE29__weak_hash_len_32_with_seedsB8ue170006EPKcmm, symObjAddr: 0x16B94, symBinAddr: 0x100018904, symSize: 0x88 }
  - { offset: 0x67FB2, size: 0x8, addend: 0x0, symName: __ZNSt3__121__murmur2_or_cityhashImLm64EE8__rotateB8ue170006Emi, symObjAddr: 0x16C1C, symBinAddr: 0x10001898C, symSize: 0x64 }
  - { offset: 0x67FE3, size: 0x8, addend: 0x0, symName: __ZNSt3__14pairImmEaSB8ue170006EOS1_, symObjAddr: 0x16C80, symBinAddr: 0x1000189F0, symSize: 0x30 }
  - { offset: 0x68018, size: 0x8, addend: 0x0, symName: __ZNSt3__121__murmur2_or_cityhashImLm64EE11__shift_mixB8ue170006Em, symObjAddr: 0x16CEC, symBinAddr: 0x100018A5C, symSize: 0x1C }
  - { offset: 0x6803B, size: 0x8, addend: 0x0, symName: __ZNSt3__121__murmur2_or_cityhashImLm64EE22__rotate_by_at_least_1B8ue170006Emi, symObjAddr: 0x16D08, symBinAddr: 0x100018A78, symSize: 0x38 }
  - { offset: 0x6806C, size: 0x8, addend: 0x0, symName: __ZNSt3__121__murmur2_or_cityhashImLm64EE29__weak_hash_len_32_with_seedsB8ue170006Emmmmmm, symObjAddr: 0x16D60, symBinAddr: 0x100018AD0, symSize: 0xD8 }
  - { offset: 0x680E3, size: 0x8, addend: 0x0, symName: __ZNSt3__14pairImmEC1B8ue170006ImmLPv0EEEOT_OT0_, symObjAddr: 0x16E38, symBinAddr: 0x100018BA8, symSize: 0x3C }
  - { offset: 0x68141, size: 0x8, addend: 0x0, symName: __ZNSt3__14pairImmEC2B8ue170006ImmLPv0EEEOT_OT0_, symObjAddr: 0x16E74, symBinAddr: 0x100018BE4, symSize: 0x34 }
  - { offset: 0x6819F, size: 0x8, addend: 0x0, symName: __ZNKSt3__110unique_ptrIA_PNS_16__hash_node_baseIPNS_11__hash_nodeIPN6parlay8internal12hazptr_stackIPSt4byteE4NodeEPvEEEENS_25__bucket_list_deallocatorINS_9allocatorISF_EEEEE11get_deleterB8ue170006Ev, symObjAddr: 0x16EA8, symBinAddr: 0x100018C18, symSize: 0x24 }
  - { offset: 0x681C5, size: 0x8, addend: 0x0, symName: __ZNKSt3__125__bucket_list_deallocatorINS_9allocatorIPNS_16__hash_node_baseIPNS_11__hash_nodeIPN6parlay8internal12hazptr_stackIPSt4byteE4NodeEPvEEEEEEE4sizeB8ue170006Ev, symObjAddr: 0x16ECC, symBinAddr: 0x100018C3C, symSize: 0x28 }
  - { offset: 0x681EB, size: 0x8, addend: 0x0, symName: __ZNKSt3__117__compressed_pairIPPNS_16__hash_node_baseIPNS_11__hash_nodeIPN6parlay8internal12hazptr_stackIPSt4byteE4NodeEPvEEEENS_25__bucket_list_deallocatorINS_9allocatorISF_EEEEE6secondB8ue170006Ev, symObjAddr: 0x16EF4, symBinAddr: 0x100018C64, symSize: 0x28 }
  - { offset: 0x68211, size: 0x8, addend: 0x0, symName: __ZNKSt3__122__compressed_pair_elemINS_25__bucket_list_deallocatorINS_9allocatorIPNS_16__hash_node_baseIPNS_11__hash_nodeIPN6parlay8internal12hazptr_stackIPSt4byteE4NodeEPvEEEEEEEELi1ELb0EE5__getB8ue170006Ev, symObjAddr: 0x16F1C, symBinAddr: 0x100018C8C, symSize: 0x14 }
  - { offset: 0x68237, size: 0x8, addend: 0x0, symName: __ZNKSt3__117__compressed_pairImNS_9allocatorIPNS_16__hash_node_baseIPNS_11__hash_nodeIPN6parlay8internal12hazptr_stackIPSt4byteE4NodeEPvEEEEEEE5firstB8ue170006Ev, symObjAddr: 0x16F30, symBinAddr: 0x100018CA0, symSize: 0x24 }
  - { offset: 0x6825D, size: 0x8, addend: 0x0, symName: __ZNKSt3__122__compressed_pair_elemImLi0ELb0EE5__getB8ue170006Ev, symObjAddr: 0x16F54, symBinAddr: 0x100018CC4, symSize: 0x14 }
  - { offset: 0x68283, size: 0x8, addend: 0x0, symName: __ZNKSt3__117__compressed_pairIPPNS_16__hash_node_baseIPNS_11__hash_nodeIPN6parlay8internal12hazptr_stackIPSt4byteE4NodeEPvEEEENS_25__bucket_list_deallocatorINS_9allocatorISF_EEEEE5firstB8ue170006Ev, symObjAddr: 0x16F68, symBinAddr: 0x100018CD8, symSize: 0x24 }
  - { offset: 0x682A9, size: 0x8, addend: 0x0, symName: __ZNKSt3__122__compressed_pair_elemIPPNS_16__hash_node_baseIPNS_11__hash_nodeIPN6parlay8internal12hazptr_stackIPSt4byteE4NodeEPvEEEELi0ELb0EE5__getB8ue170006Ev, symObjAddr: 0x16F8C, symBinAddr: 0x100018CFC, symSize: 0x14 }
  - { offset: 0x682CF, size: 0x8, addend: 0x0, symName: __ZNSt3__117__compressed_pairIfNS_8equal_toIPN6parlay8internal12hazptr_stackIPSt4byteE4NodeEEEE6secondB8ue170006Ev, symObjAddr: 0x16FA0, symBinAddr: 0x100018D10, symSize: 0x24 }
  - { offset: 0x682F5, size: 0x8, addend: 0x0, symName: __ZNSt3__122__compressed_pair_elemINS_8equal_toIPN6parlay8internal12hazptr_stackIPSt4byteE4NodeEEELi1ELb1EE5__getB8ue170006Ev, symObjAddr: 0x16FC4, symBinAddr: 0x100018D34, symSize: 0x14 }
  - { offset: 0x6831B, size: 0x8, addend: 0x0, symName: __ZNSt3__114pointer_traitsIPNS_16__hash_node_baseIPNS_11__hash_nodeIPN6parlay8internal12hazptr_stackIPSt4byteE4NodeEPvEEEEE10pointer_toB8ue170006ERSE_, symObjAddr: 0x16FD8, symBinAddr: 0x100018D48, symSize: 0x14 }
  - { offset: 0x6833E, size: 0x8, addend: 0x0, symName: __ZNSt3__112__hash_tableIPN6parlay8internal12hazptr_stackIPSt4byteE4NodeENS_4hashIS8_EENS_8equal_toIS8_EENS_9allocatorIS8_EEE12__node_allocB8ue170006Ev, symObjAddr: 0x16FEC, symBinAddr: 0x100018D5C, symSize: 0x28 }
  - { offset: 0x68364, size: 0x8, addend: 0x0, symName: __ZNSt3__116allocator_traitsINS_9allocatorINS_11__hash_nodeIPN6parlay8internal12hazptr_stackIPSt4byteE4NodeEPvEEEEE8allocateB8ue170006ERSD_m, symObjAddr: 0x17014, symBinAddr: 0x100018D84, symSize: 0x2C }
  - { offset: 0x68397, size: 0x8, addend: 0x0, symName: __ZNSt3__122__hash_node_destructorINS_9allocatorINS_11__hash_nodeIPN6parlay8internal12hazptr_stackIPSt4byteE4NodeEPvEEEEEC1B8ue170006ERSD_b, symObjAddr: 0x17040, symBinAddr: 0x100018DB0, symSize: 0x48 }
  - { offset: 0x683E5, size: 0x8, addend: 0x0, symName: __ZNSt3__110unique_ptrINS_11__hash_nodeIPN6parlay8internal12hazptr_stackIPSt4byteE4NodeEPvEENS_22__hash_node_destructorINS_9allocatorISB_EEEEEC1B8ue170006ILb1EvEEPSB_NS_16__dependent_typeINS_27__unique_ptr_deleter_sfinaeISF_EEXT_EE20__good_rval_ref_typeE, symObjAddr: 0x17088, symBinAddr: 0x100018DF8, symSize: 0x3C }
  - { offset: 0x68436, size: 0x8, addend: 0x0, symName: __ZNSt3__116allocator_traitsINS_9allocatorINS_11__hash_nodeIPN6parlay8internal12hazptr_stackIPSt4byteE4NodeEPvEEEEE9constructB8ue170006ISA_JRKSA_EvEEvRSD_PT_DpOT0_, symObjAddr: 0x170C4, symBinAddr: 0x100018E34, symSize: 0x34 }
  - { offset: 0x6848D, size: 0x8, addend: 0x0, symName: __ZNSt3__122__hash_key_value_typesIPN6parlay8internal12hazptr_stackIPSt4byteE4NodeEE9__get_ptrB8ue170006ERS8_, symObjAddr: 0x170F8, symBinAddr: 0x100018E68, symSize: 0x14 }
  - { offset: 0x684B0, size: 0x8, addend: 0x0, symName: __ZNSt3__110unique_ptrINS_11__hash_nodeIPN6parlay8internal12hazptr_stackIPSt4byteE4NodeEPvEENS_22__hash_node_destructorINS_9allocatorISB_EEEEE11get_deleterB8ue170006Ev, symObjAddr: 0x1710C, symBinAddr: 0x100018E7C, symSize: 0x24 }
  - { offset: 0x684D6, size: 0x8, addend: 0x0, symName: __ZNSt3__117__compressed_pairINS_16__hash_node_baseIPNS_11__hash_nodeIPN6parlay8internal12hazptr_stackIPSt4byteE4NodeEPvEEEENS_9allocatorISC_EEE6secondB8ue170006Ev, symObjAddr: 0x17130, symBinAddr: 0x100018EA0, symSize: 0x24 }
  - { offset: 0x684FC, size: 0x8, addend: 0x0, symName: __ZNSt3__122__compressed_pair_elemINS_9allocatorINS_11__hash_nodeIPN6parlay8internal12hazptr_stackIPSt4byteE4NodeEPvEEEELi1ELb1EE5__getB8ue170006Ev, symObjAddr: 0x17154, symBinAddr: 0x100018EC4, symSize: 0x14 }
  - { offset: 0x68522, size: 0x8, addend: 0x0, symName: __ZNSt3__19allocatorINS_11__hash_nodeIPN6parlay8internal12hazptr_stackIPSt4byteE4NodeEPvEEE8allocateB8ue170006Em, symObjAddr: 0x17168, symBinAddr: 0x100018ED8, symSize: 0x5C }
  - { offset: 0x68561, size: 0x8, addend: 0x0, symName: __ZNSt3__116allocator_traitsINS_9allocatorINS_11__hash_nodeIPN6parlay8internal12hazptr_stackIPSt4byteE4NodeEPvEEEEE8max_sizeB8ue170006ISD_vEEmRKSD_, symObjAddr: 0x171C4, symBinAddr: 0x100018F34, symSize: 0x24 }
  - { offset: 0x6858F, size: 0x8, addend: 0x0, symName: __ZNKSt3__19allocatorINS_11__hash_nodeIPN6parlay8internal12hazptr_stackIPSt4byteE4NodeEPvEEE8max_sizeB8ue170006Ev, symObjAddr: 0x171E8, symBinAddr: 0x100018F58, symSize: 0x18 }
  - { offset: 0x685B5, size: 0x8, addend: 0x0, symName: __ZNSt3__122__hash_node_destructorINS_9allocatorINS_11__hash_nodeIPN6parlay8internal12hazptr_stackIPSt4byteE4NodeEPvEEEEEC2B8ue170006ERSD_b, symObjAddr: 0x17200, symBinAddr: 0x100018F70, symSize: 0x38 }
  - { offset: 0x685FD, size: 0x8, addend: 0x0, symName: __ZNSt3__110unique_ptrINS_11__hash_nodeIPN6parlay8internal12hazptr_stackIPSt4byteE4NodeEPvEENS_22__hash_node_destructorINS_9allocatorISB_EEEEEC2B8ue170006ILb1EvEEPSB_NS_16__dependent_typeINS_27__unique_ptr_deleter_sfinaeISF_EEXT_EE20__good_rval_ref_typeE, symObjAddr: 0x17238, symBinAddr: 0x100018FA8, symSize: 0x48 }
  - { offset: 0x6864E, size: 0x8, addend: 0x0, symName: __ZNSt3__117__compressed_pairIPNS_11__hash_nodeIPN6parlay8internal12hazptr_stackIPSt4byteE4NodeEPvEENS_22__hash_node_destructorINS_9allocatorISB_EEEEEC1B8ue170006IRSC_SG_EEOT_OT0_, symObjAddr: 0x17280, symBinAddr: 0x100018FF0, symSize: 0x3C }
  - { offset: 0x686A6, size: 0x8, addend: 0x0, symName: __ZNSt3__117__compressed_pairIPNS_11__hash_nodeIPN6parlay8internal12hazptr_stackIPSt4byteE4NodeEPvEENS_22__hash_node_destructorINS_9allocatorISB_EEEEEC2B8ue170006IRSC_SG_EEOT_OT0_, symObjAddr: 0x172BC, symBinAddr: 0x10001902C, symSize: 0x48 }
  - { offset: 0x686FE, size: 0x8, addend: 0x0, symName: __ZNSt3__122__compressed_pair_elemIPNS_11__hash_nodeIPN6parlay8internal12hazptr_stackIPSt4byteE4NodeEPvEELi0ELb0EEC2B8ue170006IRSC_vEEOT_, symObjAddr: 0x17304, symBinAddr: 0x100019074, symSize: 0x24 }
  - { offset: 0x68740, size: 0x8, addend: 0x0, symName: __ZNSt3__122__compressed_pair_elemINS_22__hash_node_destructorINS_9allocatorINS_11__hash_nodeIPN6parlay8internal12hazptr_stackIPSt4byteE4NodeEPvEEEEEELi1ELb0EEC2B8ue170006ISF_vEEOT_, symObjAddr: 0x17328, symBinAddr: 0x100019098, symSize: 0x24 }
  - { offset: 0x68782, size: 0x8, addend: 0x0, symName: __ZNSt3__19allocatorINS_11__hash_nodeIPN6parlay8internal12hazptr_stackIPSt4byteE4NodeEPvEEE9constructB8ue170006IS9_JRKS9_EEEvPT_DpOT0_, symObjAddr: 0x1734C, symBinAddr: 0x1000190BC, symSize: 0x28 }
  - { offset: 0x687D8, size: 0x8, addend: 0x0, symName: __ZNSt3__117__compressed_pairIPNS_11__hash_nodeIPN6parlay8internal12hazptr_stackIPSt4byteE4NodeEPvEENS_22__hash_node_destructorINS_9allocatorISB_EEEEE6secondB8ue170006Ev, symObjAddr: 0x17374, symBinAddr: 0x1000190E4, symSize: 0x28 }
  - { offset: 0x687FE, size: 0x8, addend: 0x0, symName: __ZNSt3__122__compressed_pair_elemINS_22__hash_node_destructorINS_9allocatorINS_11__hash_nodeIPN6parlay8internal12hazptr_stackIPSt4byteE4NodeEPvEEEEEELi1ELb0EE5__getB8ue170006Ev, symObjAddr: 0x1739C, symBinAddr: 0x10001910C, symSize: 0x14 }
  - { offset: 0x68824, size: 0x8, addend: 0x0, symName: __ZNSt3__117__compressed_pairImNS_4hashIPN6parlay8internal12hazptr_stackIPSt4byteE4NodeEEEE5firstB8ue170006Ev, symObjAddr: 0x173B0, symBinAddr: 0x100019120, symSize: 0x24 }
  - { offset: 0x6884A, size: 0x8, addend: 0x0, symName: __ZNSt3__122__compressed_pair_elemImLi0ELb0EE5__getB8ue170006Ev, symObjAddr: 0x173D4, symBinAddr: 0x100019144, symSize: 0x14 }
  - { offset: 0x68870, size: 0x8, addend: 0x0, symName: __ZNSt3__117__compressed_pairIfNS_8equal_toIPN6parlay8internal12hazptr_stackIPSt4byteE4NodeEEEE5firstB8ue170006Ev, symObjAddr: 0x173E8, symBinAddr: 0x100019158, symSize: 0x24 }
  - { offset: 0x68896, size: 0x8, addend: 0x0, symName: __ZNSt3__122__compressed_pair_elemIfLi0ELb0EE5__getB8ue170006Ev, symObjAddr: 0x1740C, symBinAddr: 0x10001917C, symSize: 0x14 }
  - { offset: 0x688BC, size: 0x8, addend: 0x0, symName: __ZNSt3__112__hash_tableIPN6parlay8internal12hazptr_stackIPSt4byteE4NodeENS_4hashIS8_EENS_8equal_toIS8_EENS_9allocatorIS8_EEE8__rehashILb1EEEvm, symObjAddr: 0x17420, symBinAddr: 0x100019190, symSize: 0x1A8 }
  - { offset: 0x6890C, size: 0x8, addend: 0x0, symName: __ZNSt3__112__hash_tableIPN6parlay8internal12hazptr_stackIPSt4byteE4NodeENS_4hashIS8_EENS_8equal_toIS8_EENS_9allocatorIS8_EEE11__do_rehashILb1EEEvm, symObjAddr: 0x175C8, symBinAddr: 0x100019338, symSize: 0x288 }
  - { offset: 0x689EF, size: 0x8, addend: 0x0, symName: __ZNSt3__110unique_ptrIA_PNS_16__hash_node_baseIPNS_11__hash_nodeIPN6parlay8internal12hazptr_stackIPSt4byteE4NodeEPvEEEENS_25__bucket_list_deallocatorINS_9allocatorISF_EEEEE11get_deleterB8ue170006Ev, symObjAddr: 0x178BC, symBinAddr: 0x10001962C, symSize: 0x24 }
  - { offset: 0x68A15, size: 0x8, addend: 0x0, symName: __ZNSt3__125__bucket_list_deallocatorINS_9allocatorIPNS_16__hash_node_baseIPNS_11__hash_nodeIPN6parlay8internal12hazptr_stackIPSt4byteE4NodeEPvEEEEEEE7__allocB8ue170006Ev, symObjAddr: 0x178E0, symBinAddr: 0x100019650, symSize: 0x24 }
  - { offset: 0x68A3B, size: 0x8, addend: 0x0, symName: __ZNSt3__110unique_ptrIA_PNS_16__hash_node_baseIPNS_11__hash_nodeIPN6parlay8internal12hazptr_stackIPSt4byteE4NodeEPvEEEENS_25__bucket_list_deallocatorINS_9allocatorISF_EEEEE5resetB8ue170006IPSF_EENS_9enable_ifIXsr28_CheckArrayPointerConversionIT_EE5valueEvE4typeESP_, symObjAddr: 0x17904, symBinAddr: 0x100019674, symSize: 0x78 }
  - { offset: 0x68A88, size: 0x8, addend: 0x0, symName: __ZNSt3__116allocator_traitsINS_9allocatorIPNS_16__hash_node_baseIPNS_11__hash_nodeIPN6parlay8internal12hazptr_stackIPSt4byteE4NodeEPvEEEEEEE8allocateB8ue170006ERSH_m, symObjAddr: 0x1797C, symBinAddr: 0x1000196EC, symSize: 0x2C }
  - { offset: 0x68ABB, size: 0x8, addend: 0x0, symName: __ZNSt3__125__bucket_list_deallocatorINS_9allocatorIPNS_16__hash_node_baseIPNS_11__hash_nodeIPN6parlay8internal12hazptr_stackIPSt4byteE4NodeEPvEEEEEEE4sizeB8ue170006Ev, symObjAddr: 0x179A8, symBinAddr: 0x100019718, symSize: 0x24 }
  - { offset: 0x68AE1, size: 0x8, addend: 0x0, symName: __ZNSt3__117__compressed_pairIPPNS_16__hash_node_baseIPNS_11__hash_nodeIPN6parlay8internal12hazptr_stackIPSt4byteE4NodeEPvEEEENS_25__bucket_list_deallocatorINS_9allocatorISF_EEEEE6secondB8ue170006Ev, symObjAddr: 0x179CC, symBinAddr: 0x10001973C, symSize: 0x28 }
  - { offset: 0x68B07, size: 0x8, addend: 0x0, symName: __ZNSt3__122__compressed_pair_elemINS_25__bucket_list_deallocatorINS_9allocatorIPNS_16__hash_node_baseIPNS_11__hash_nodeIPN6parlay8internal12hazptr_stackIPSt4byteE4NodeEPvEEEEEEEELi1ELb0EE5__getB8ue170006Ev, symObjAddr: 0x179F4, symBinAddr: 0x100019764, symSize: 0x14 }
  - { offset: 0x68B2D, size: 0x8, addend: 0x0, symName: __ZNSt3__117__compressed_pairImNS_9allocatorIPNS_16__hash_node_baseIPNS_11__hash_nodeIPN6parlay8internal12hazptr_stackIPSt4byteE4NodeEPvEEEEEEE6secondB8ue170006Ev, symObjAddr: 0x17A08, symBinAddr: 0x100019778, symSize: 0x24 }
  - { offset: 0x68B53, size: 0x8, addend: 0x0, symName: __ZNSt3__122__compressed_pair_elemINS_9allocatorIPNS_16__hash_node_baseIPNS_11__hash_nodeIPN6parlay8internal12hazptr_stackIPSt4byteE4NodeEPvEEEEEELi1ELb1EE5__getB8ue170006Ev, symObjAddr: 0x17A2C, symBinAddr: 0x10001979C, symSize: 0x14 }
  - { offset: 0x68B79, size: 0x8, addend: 0x0, symName: __ZNSt3__117__compressed_pairIPPNS_16__hash_node_baseIPNS_11__hash_nodeIPN6parlay8internal12hazptr_stackIPSt4byteE4NodeEPvEEEENS_25__bucket_list_deallocatorINS_9allocatorISF_EEEEE5firstB8ue170006Ev, symObjAddr: 0x17A40, symBinAddr: 0x1000197B0, symSize: 0x24 }
  - { offset: 0x68B9F, size: 0x8, addend: 0x0, symName: __ZNSt3__125__bucket_list_deallocatorINS_9allocatorIPNS_16__hash_node_baseIPNS_11__hash_nodeIPN6parlay8internal12hazptr_stackIPSt4byteE4NodeEPvEEEEEEEclB8ue170006EPSG_, symObjAddr: 0x17A64, symBinAddr: 0x1000197D4, symSize: 0x58 }
  - { offset: 0x68BD4, size: 0x8, addend: 0x0, symName: __ZNSt3__122__compressed_pair_elemIPPNS_16__hash_node_baseIPNS_11__hash_nodeIPN6parlay8internal12hazptr_stackIPSt4byteE4NodeEPvEEEELi0ELb0EE5__getB8ue170006Ev, symObjAddr: 0x17ABC, symBinAddr: 0x10001982C, symSize: 0x14 }
  - { offset: 0x68BFA, size: 0x8, addend: 0x0, symName: __ZNSt3__116allocator_traitsINS_9allocatorIPNS_16__hash_node_baseIPNS_11__hash_nodeIPN6parlay8internal12hazptr_stackIPSt4byteE4NodeEPvEEEEEEE10deallocateB8ue170006ERSH_PSG_m, symObjAddr: 0x17AD0, symBinAddr: 0x100019840, symSize: 0x34 }
  - { offset: 0x68C3C, size: 0x8, addend: 0x0, symName: __ZNSt3__19allocatorIPNS_16__hash_node_baseIPNS_11__hash_nodeIPN6parlay8internal12hazptr_stackIPSt4byteE4NodeEPvEEEEE10deallocateB8ue170006EPSF_m, symObjAddr: 0x17B04, symBinAddr: 0x100019874, symSize: 0x40 }
  - { offset: 0x68C7E, size: 0x8, addend: 0x0, symName: __ZNSt3__19allocatorIPNS_16__hash_node_baseIPNS_11__hash_nodeIPN6parlay8internal12hazptr_stackIPSt4byteE4NodeEPvEEEEE8allocateB8ue170006Em, symObjAddr: 0x17B44, symBinAddr: 0x1000198B4, symSize: 0x58 }
