---
triple:          'arm64-apple-darwin'
binary-path:     testTreeGen.out
relocations:
  - { offset: 0x39, size: 0x8, addend: 0x0, symName: __ZN6parlay8internal19ThreadListChunkData22thread_list_chunk_sizeE, symObjAddr: 0xB48248, symBinAddr: 0x1000DC1E8, symSize: 0x0 }
  - { offset: 0x104, size: 0x8, addend: 0x0, symName: __ZN6parlay8internal31default_allocator_max_pool_sizeE, symObjAddr: 0xB48258, symBinAddr: 0x1000DC1F8, symSize: 0x0 }
  - { offset: 0x1EC, size: 0x8, addend: 0x0, symName: __ZN6parlay8internal21get_default_allocatorEv, symObjAddr: 0x24028, symBinAddr: 0x100026F1C, symSize: 0xBC }
  - { offset: 0x20B, size: 0x8, addend: 0x0, symName: __ZZN6parlay8internal21get_default_allocatorEvE17default_allocator, symObjAddr: 0xB48268, symBinAddr: 0x1000DC208, symSize: 0x0 }
  - { offset: 0x14F2, size: 0x8, addend: 0x0, symName: __ZN6parlay8internal7get_keyE, symObjAddr: 0xBB1B8, symBinAddr: 0x1000B7038, symSize: 0x0 }
  - { offset: 0x1543, size: 0x8, addend: 0x0, symName: __ZN6parlay8internal6reduceINS_5sliceIPlS3_EENS_4plusIlEEEEDaRKT_OT0_j, symObjAddr: 0xA6830, symBinAddr: 0x1000A8AE4, symSize: 0x29C }
  - { offset: 0x1B3A, size: 0x8, addend: 0x0, symName: __ZN6parlay8internal6reduceINS_8sequenceIlNS_9allocatorIlEELb0EEERNS_4plusIlEEEEDaRKT_OT0_j, symObjAddr: 0xB0090, symBinAddr: 0x1000B2344, symSize: 0x298 }
  - { offset: 0x24C5, size: 0x8, addend: 0x0, symName: __ZN6parlay8internal5scan_INS_5sliceIPmS3_EES4_NS_4plusImEEEEDaRKT_T0_OT1_jb, symObjAddr: 0x27B14, symBinAddr: 0x10002AA08, symSize: 0x3E0 }
  - { offset: 0x3A10, size: 0x8, addend: 0x0, symName: __ZN6parlay8internal6reduceINS_8sequenceImNS_9allocatorImEELb0EEERNS_7maximumImEEEEDaRKT_OT0_j, symObjAddr: 0x99970, symBinAddr: 0x10009BC24, symSize: 0x2BC }
  - { offset: 0x40D4, size: 0x8, addend: 0x0, symName: __ZN6parlay8internal14integer_sort_rINSt3__117integral_constantIbLb0EEENS_22uninitialized_copy_tagEPNS2_4pairIllEES8_S8_NS0_7get_keyMUlOT_E_EEENS_8sequenceImNS_9allocatorImEELb0EEENS_5sliceIT1_SH_EENSG_IT2_SJ_EENSG_IT3_SL_EERKT4_mmf, symObjAddr: 0x75F50, symBinAddr: 0x100078BFC, symSize: 0x2164 }
  - { offset: 0x9F9D, size: 0x8, addend: 0x0, symName: __ZN6parlay8internal14integer_sort_rINSt3__117integral_constantIbLb1EEENS_26uninitialized_relocate_tagEPNS2_4pairIllEES8_S8_NS0_7get_keyMUlOT_E_EEENS_8sequenceImNS_9allocatorImEELb0EEENS_5sliceIT1_SH_EENSG_IT2_SJ_EENSG_IT3_SL_EERKT4_mmf, symObjAddr: 0x7A6A0, symBinAddr: 0x10007D34C, symSize: 0x2040 }
  - { offset: 0xFA7E, size: 0x8, addend: 0x0, symName: __ZN6parlay8internal14integer_sort_rINSt3__117integral_constantIbLb0EEENS_26uninitialized_relocate_tagEPNS2_4pairIllEES8_S8_NS0_7get_keyMUlOT_E_EEENS_8sequenceImNS_9allocatorImEELb0EEENS_5sliceIT1_SH_EENSG_IT2_SJ_EENSG_IT3_SL_EERKT4_mmf, symObjAddr: 0x7EB54, symBinAddr: 0x100081800, symSize: 0x20D8 }
  - { offset: 0x15D63, size: 0x8, addend: 0x0, symName: __ZN6parlay8internal22collect_reduce_sparse_INS_26uninitialized_relocate_tagENS_5sliceIPlS4_EENS_24remove_duplicates_helperIlNS_4hashIlvEENSt3__18equal_toIvEEEEEEDaT0_RKT1_, symObjAddr: 0x62F80, symBinAddr: 0x100065D50, symSize: 0x35E4 }
  - { offset: 0x224F4, size: 0x8, addend: 0x0, symName: __ZN6parlay8internal16init_num_workersEv, symObjAddr: 0x1B8C0, symBinAddr: 0x10001E8D8, symSize: 0xF8 }
  - { offset: 0x236A5, size: 0x8, addend: 0x0, symName: __ZN6parlay8internal13get_thread_idEv, symObjAddr: 0x1D4B0, symBinAddr: 0x1000204C8, symSize: 0x20C }
  - { offset: 0x23D7E, size: 0x8, addend: 0x0, symName: __ZN6parlay8internal23default_allocator_sizesEv, symObjAddr: 0x44DF8, symBinAddr: 0x100047CD8, symSize: 0x280 }
  - { offset: 0x26E64, size: 0x8, addend: 0x0, symName: __ZN6parlay8internal25seq_collect_reduce_sparseINS_26uninitialized_relocate_tagENS_5sliceIPlS4_EENS_24remove_duplicates_helperIlNS_4hashIlvEENSt3__18equal_toIvEEEEEEDaT0_RKT1_, symObjAddr: 0x675C8, symBinAddr: 0x10006A398, symSize: 0x5A8 }
  - { offset: 0x27D02, size: 0x8, addend: 0x0, symName: __ZN6parlay8internal10seq_count_INS_5sliceIPlS3_EEPjNS2_INS_16delayed_sequenceImmZNS0_22collect_reduce_sparse_INS_26uninitialized_relocate_tagES4_NS_24remove_duplicates_helperIlNS_4hashIlvEENSt3__18equal_toIvEEEEEEDaT0_RKT1_EUlmE_E8iteratorESN_EEEEvT_SI_SH_m, symObjAddr: 0x6D55C, symBinAddr: 0x10007032C, symSize: 0x250 }
  - { offset: 0x28137, size: 0x8, addend: 0x0, symName: __ZN6parlay8internal10seq_count_INS_5sliceIPlS3_EEPmNS2_INS_16delayed_sequenceImmZNS0_22collect_reduce_sparse_INS_26uninitialized_relocate_tagES4_NS_24remove_duplicates_helperIlNS_4hashIlvEENSt3__18equal_toIvEEEEEEDaT0_RKT1_EUlmE_E8iteratorESN_EEEEvT_SI_SH_m, symObjAddr: 0x6B894, symBinAddr: 0x10006E664, symSize: 0x218 }
  - { offset: 0x28649, size: 0x8, addend: 0x0, symName: __ZN6parlay8internal15seq_count_sort_INS_26uninitialized_relocate_tagENS_5sliceIPlS4_EES5_PmNS3_INS_16delayed_sequenceImmZNS0_22collect_reduce_sparse_IS2_S5_NS_24remove_duplicates_helperIlNS_4hashIlvEENSt3__18equal_toIvEEEEEEDaT0_RKT1_EUlmE_E8iteratorESN_EEEEvSH_SI_T3_T2_m, symObjAddr: 0x6A16C, symBinAddr: 0x10006CF3C, symSize: 0x15C }
  - { offset: 0x2893B, size: 0x8, addend: 0x0, symName: __ZN6parlay8internal10seq_write_INS_26uninitialized_relocate_tagENS_5sliceIPlS4_EEPS4_NS3_INS_16delayed_sequenceImmZNS0_22collect_reduce_sparse_IS2_S5_NS_24remove_duplicates_helperIlNS_4hashIlvEENSt3__18equal_toIvEEEEEEDaT0_RKT1_EUlmE_E8iteratorESN_EEEEvSH_T2_SI_m, symObjAddr: 0x6A44C, symBinAddr: 0x10006D21C, symSize: 0x184 }
  - { offset: 0x29290, size: 0x8, addend: 0x0, symName: __ZN6parlay8internal10seq_count_INS_5sliceIPNSt3__14pairIllEES6_EEPjNS2_INS_16delayed_sequenceImmZNS0_14integer_sort_rINS3_17integral_constantIbLb0EEENS_22uninitialized_copy_tagES6_S6_S6_NS0_7get_keyMUlOT_E_EEENS_8sequenceImNS_9allocatorImEELb0EEENS2_IT1_SL_EENS2_IT2_SN_EENS2_IT3_SP_EERKT4_mmfEUlmE1_E8iteratorESW_EEEEvSE_SL_T0_m, symObjAddr: 0x94F30, symBinAddr: 0x100097504, symSize: 0x19C }
  - { offset: 0x2964B, size: 0x8, addend: 0x0, symName: __ZN6parlay8internal15seq_radix_sort_IPNSt3__14pairIllEES5_NS0_7get_keyMUlOT_E_EEEvNS_5sliceIS6_S6_EENS9_IT0_SB_EERKT1_mb, symObjAddr: 0x781D8, symBinAddr: 0x10007AE84, symSize: 0x42C }
  - { offset: 0x2A0B3, size: 0x8, addend: 0x0, symName: __ZN6parlay8internal10count_sortINS_22uninitialized_copy_tagEPNSt3__14pairIllEES6_NS_16delayed_sequenceImmZNS0_14integer_sort_rINS3_17integral_constantIbLb0EEES2_S6_S6_S6_NS0_7get_keyMUlOT_E_EEENS_8sequenceImNS_9allocatorImEELb0EEENS_5sliceIT1_SJ_EENSI_IT2_SL_EENSI_IT3_SN_EERKT4_mmfEUlmE0_E8iteratorEEEDaNSI_IT0_SW_EESK_SM_mfb, symObjAddr: 0x78604, symBinAddr: 0x10007B2B0, symSize: 0x17AC }
  - { offset: 0x2D980, size: 0x8, addend: 0x0, symName: __ZN6parlay8internal10seq_count_INS_5sliceIPNSt3__14pairIllEES6_EEPmNS2_INS_16delayed_sequenceImmZNS0_14integer_sort_rINS3_17integral_constantIbLb0EEENS_22uninitialized_copy_tagES6_S6_S6_NS0_7get_keyMUlOT_E_EEENS_8sequenceImNS_9allocatorImEELb0EEENS2_IT1_SL_EENS2_IT2_SN_EENS2_IT3_SP_EERKT4_mmfEUlmE1_E8iteratorESW_EEEEvSE_SL_T0_m, symObjAddr: 0x93458, symBinAddr: 0x100095A2C, symSize: 0x1AC }
  - { offset: 0x2DD89, size: 0x8, addend: 0x0, symName: __ZN6parlay8internal14seq_count_sortINS_22uninitialized_copy_tagEPNSt3__14pairIllEES6_NS_16delayed_sequenceImmZNS0_14integer_sort_rINS3_17integral_constantIbLb0EEES2_S6_S6_S6_NS0_7get_keyMUlOT_E_EEENS_8sequenceImNS_9allocatorImEELb0EEENS_5sliceIT1_SJ_EENSI_IT2_SL_EENSI_IT3_SN_EERKT4_mmfEUlmE1_E8iteratorEEESH_NSI_IT0_SV_EESK_SM_m, symObjAddr: 0x91F20, symBinAddr: 0x100094608, symSize: 0x160 }
  - { offset: 0x2EA48, size: 0x8, addend: 0x0, symName: __ZN6parlay8internal10seq_count_INS_5sliceIPNSt3__14pairIllEES6_EEPjNS2_INS_16delayed_sequenceImmZNS0_14integer_sort_rINS3_17integral_constantIbLb0EEENS_22uninitialized_copy_tagES6_S6_S6_NS0_7get_keyMUlOT_E_EEENS_8sequenceImNS_9allocatorImEELb0EEENS2_IT1_SL_EENS2_IT2_SN_EENS2_IT3_SP_EERKT4_mmfEUlmE0_E8iteratorESW_EEEEvSE_SL_T0_m, symObjAddr: 0x98A98, symBinAddr: 0x10009AD4C, symSize: 0x190 }
  - { offset: 0x2EE03, size: 0x8, addend: 0x0, symName: __ZN6parlay8internal10seq_count_INS_5sliceIPNSt3__14pairIllEES6_EEPmNS2_INS_16delayed_sequenceImmZNS0_14integer_sort_rINS3_17integral_constantIbLb0EEENS_22uninitialized_copy_tagES6_S6_S6_NS0_7get_keyMUlOT_E_EEENS_8sequenceImNS_9allocatorImEELb0EEENS2_IT1_SL_EENS2_IT2_SN_EENS2_IT3_SP_EERKT4_mmfEUlmE0_E8iteratorESW_EEEEvSE_SL_T0_m, symObjAddr: 0x96D78, symBinAddr: 0x1000991BC, symSize: 0x1A0 }
  - { offset: 0x2F20B, size: 0x8, addend: 0x0, symName: __ZN6parlay8internal14seq_count_sortINS_22uninitialized_copy_tagEPNSt3__14pairIllEES6_NS_16delayed_sequenceImmZNS0_14integer_sort_rINS3_17integral_constantIbLb0EEES2_S6_S6_S6_NS0_7get_keyMUlOT_E_EEENS_8sequenceImNS_9allocatorImEELb0EEENS_5sliceIT1_SJ_EENSI_IT2_SL_EENSI_IT3_SN_EERKT4_mmfEUlmE0_E8iteratorEEESH_NSI_IT0_SV_EESK_SM_m, symObjAddr: 0x95704, symBinAddr: 0x100097CD8, symSize: 0x15C }
  - { offset: 0x2FA01, size: 0x8, addend: 0x0, symName: __ZN6parlay8internal10seq_count_INS_5sliceIPNSt3__14pairIllEES6_EEPjNS2_INS_16delayed_sequenceImmZNS0_14integer_sort_rINS3_17integral_constantIbLb1EEENS_26uninitialized_relocate_tagES6_S6_S6_NS0_7get_keyMUlOT_E_EEENS_8sequenceImNS_9allocatorImEELb0EEENS2_IT1_SL_EENS2_IT2_SN_EENS2_IT3_SP_EERKT4_mmfEUlmE0_E8iteratorESW_EEEEvSE_SL_T0_m, symObjAddr: 0x8D37C, symBinAddr: 0x10008FD84, symSize: 0x19C }
  - { offset: 0x2FDBC, size: 0x8, addend: 0x0, symName: __ZN6parlay8internal10count_sortINS_26uninitialized_relocate_tagEPNSt3__14pairIllEES6_NS_16delayed_sequenceImmZNS0_14integer_sort_rINS3_17integral_constantIbLb1EEES2_S6_S6_S6_NS0_7get_keyMUlOT_E_EEENS_8sequenceImNS_9allocatorImEELb0EEENS_5sliceIT1_SJ_EENSI_IT2_SL_EENSI_IT3_SN_EERKT4_mmfEUlmE_E8iteratorEEEDaNSI_IT0_SW_EESK_SM_mfb, symObjAddr: 0x7C6E0, symBinAddr: 0x10007F38C, symSize: 0x19CC }
  - { offset: 0x3388C, size: 0x8, addend: 0x0, symName: __ZN6parlay8internal10seq_count_INS_5sliceIPNSt3__14pairIllEES6_EEPmNS2_INS_16delayed_sequenceImmZNS0_14integer_sort_rINS3_17integral_constantIbLb1EEENS_26uninitialized_relocate_tagES6_S6_S6_NS0_7get_keyMUlOT_E_EEENS_8sequenceImNS_9allocatorImEELb0EEENS2_IT1_SL_EENS2_IT2_SN_EENS2_IT3_SP_EERKT4_mmfEUlmE0_E8iteratorESW_EEEEvSE_SL_T0_m, symObjAddr: 0x8B8A4, symBinAddr: 0x10008E2AC, symSize: 0x1AC }
  - { offset: 0x33C95, size: 0x8, addend: 0x0, symName: __ZN6parlay8internal14seq_count_sortINS_26uninitialized_relocate_tagEPNSt3__14pairIllEES6_NS_16delayed_sequenceImmZNS0_14integer_sort_rINS3_17integral_constantIbLb1EEES2_S6_S6_S6_NS0_7get_keyMUlOT_E_EEENS_8sequenceImNS_9allocatorImEELb0EEENS_5sliceIT1_SJ_EENSI_IT2_SL_EENSI_IT3_SN_EERKT4_mmfEUlmE0_E8iteratorEEESH_NSI_IT0_SV_EESK_SM_m, symObjAddr: 0x8A36C, symBinAddr: 0x10008CE88, symSize: 0x160 }
  - { offset: 0x34612, size: 0x8, addend: 0x0, symName: __ZN6parlay8internal10seq_count_INS_5sliceIPNSt3__14pairIllEES6_EEPjNS2_INS_16delayed_sequenceImmZNS0_14integer_sort_rINS3_17integral_constantIbLb1EEENS_26uninitialized_relocate_tagES6_S6_S6_NS0_7get_keyMUlOT_E_EEENS_8sequenceImNS_9allocatorImEELb0EEENS2_IT1_SL_EENS2_IT2_SN_EENS2_IT3_SP_EERKT4_mmfEUlmE_E8iteratorESW_EEEEvSE_SL_T0_m, symObjAddr: 0x9167C, symBinAddr: 0x100093D64, symSize: 0x190 }
  - { offset: 0x349CD, size: 0x8, addend: 0x0, symName: __ZN6parlay8internal10seq_count_INS_5sliceIPNSt3__14pairIllEES6_EEPmNS2_INS_16delayed_sequenceImmZNS0_14integer_sort_rINS3_17integral_constantIbLb1EEENS_26uninitialized_relocate_tagES6_S6_S6_NS0_7get_keyMUlOT_E_EEENS_8sequenceImNS_9allocatorImEELb0EEENS2_IT1_SL_EENS2_IT2_SN_EENS2_IT3_SP_EERKT4_mmfEUlmE_E8iteratorESW_EEEEvSE_SL_T0_m, symObjAddr: 0x8F95C, symBinAddr: 0x1000921D4, symSize: 0x1A0 }
  - { offset: 0x34DD5, size: 0x8, addend: 0x0, symName: __ZN6parlay8internal14seq_count_sortINS_26uninitialized_relocate_tagEPNSt3__14pairIllEES6_NS_16delayed_sequenceImmZNS0_14integer_sort_rINS3_17integral_constantIbLb1EEES2_S6_S6_S6_NS0_7get_keyMUlOT_E_EEENS_8sequenceImNS_9allocatorImEELb0EEENS_5sliceIT1_SJ_EENSI_IT2_SL_EENSI_IT3_SN_EERKT4_mmfEUlmE_E8iteratorEEESH_NSI_IT0_SV_EESK_SM_m, symObjAddr: 0x8E2E8, symBinAddr: 0x100090CF0, symSize: 0x15C }
  - { offset: 0x355E3, size: 0x8, addend: 0x0, symName: __ZN6parlay8internal10seq_count_INS_5sliceIPNSt3__14pairIllEES6_EEPjNS2_INS_16delayed_sequenceImmZNS0_14integer_sort_rINS3_17integral_constantIbLb0EEENS_26uninitialized_relocate_tagES6_S6_S6_NS0_7get_keyMUlOT_E_EEENS_8sequenceImNS_9allocatorImEELb0EEENS2_IT1_SL_EENS2_IT2_SN_EENS2_IT3_SP_EERKT4_mmfEUlmE0_E8iteratorESW_EEEEvSE_SL_T0_m, symObjAddr: 0x85F60, symBinAddr: 0x100088C0C, symSize: 0x19C }
  - { offset: 0x3599E, size: 0x8, addend: 0x0, symName: __ZN6parlay8internal10count_sortINS_26uninitialized_relocate_tagEPNSt3__14pairIllEES6_NS_16delayed_sequenceImmZNS0_14integer_sort_rINS3_17integral_constantIbLb0EEES2_S6_S6_S6_NS0_7get_keyMUlOT_E_EEENS_8sequenceImNS_9allocatorImEELb0EEENS_5sliceIT1_SJ_EENSI_IT2_SL_EENSI_IT3_SN_EERKT4_mmfEUlmE_E8iteratorEEEDaNSI_IT0_SW_EESK_SM_mfb, symObjAddr: 0x80C2C, symBinAddr: 0x1000838D8, symSize: 0x17D4 }
  - { offset: 0x3921A, size: 0x8, addend: 0x0, symName: __ZN6parlay8internal10seq_count_INS_5sliceIPNSt3__14pairIllEES6_EEPmNS2_INS_16delayed_sequenceImmZNS0_14integer_sort_rINS3_17integral_constantIbLb0EEENS_26uninitialized_relocate_tagES6_S6_S6_NS0_7get_keyMUlOT_E_EEENS_8sequenceImNS_9allocatorImEELb0EEENS2_IT1_SL_EENS2_IT2_SN_EENS2_IT3_SP_EERKT4_mmfEUlmE0_E8iteratorESW_EEEEvSE_SL_T0_m, symObjAddr: 0x84488, symBinAddr: 0x100087134, symSize: 0x1AC }
  - { offset: 0x39623, size: 0x8, addend: 0x0, symName: __ZN6parlay8internal14seq_count_sortINS_26uninitialized_relocate_tagEPNSt3__14pairIllEES6_NS_16delayed_sequenceImmZNS0_14integer_sort_rINS3_17integral_constantIbLb0EEES2_S6_S6_S6_NS0_7get_keyMUlOT_E_EEENS_8sequenceImNS_9allocatorImEELb0EEENS_5sliceIT1_SJ_EENSI_IT2_SL_EENSI_IT3_SN_EERKT4_mmfEUlmE0_E8iteratorEEESH_NSI_IT0_SV_EESK_SM_m, symObjAddr: 0x82DCC, symBinAddr: 0x100085A78, symSize: 0x160 }
  - { offset: 0x39AFB, size: 0x8, addend: 0x0, symName: __ZN6parlay8internal10seq_write_INS_26uninitialized_relocate_tagENS_5sliceIPNSt3__14pairIllEES7_EEPS7_NS3_INS_16delayed_sequenceImmZNS0_14integer_sort_rINS4_17integral_constantIbLb0EEES2_S7_S7_S7_NS0_7get_keyMUlOT_E_EEENS_8sequenceImNS_9allocatorImEELb0EEENS3_IT1_SL_EENS3_IT2_SN_EENS3_IT3_SP_EERKT4_mmfEUlmE0_E8iteratorESW_EEEEvT0_SN_SL_m, symObjAddr: 0x830B0, symBinAddr: 0x100085D5C, symSize: 0x114 }
  - { offset: 0x3A1B7, size: 0x8, addend: 0x0, symName: __ZN6parlay8internal10seq_count_INS_5sliceIPNSt3__14pairIllEES6_EEPjNS2_INS_16delayed_sequenceImmZNS0_14integer_sort_rINS3_17integral_constantIbLb0EEENS_26uninitialized_relocate_tagES6_S6_S6_NS0_7get_keyMUlOT_E_EEENS_8sequenceImNS_9allocatorImEELb0EEENS2_IT1_SL_EENS2_IT2_SN_EENS2_IT3_SP_EERKT4_mmfEUlmE_E8iteratorESW_EEEEvSE_SL_T0_m, symObjAddr: 0x89AC8, symBinAddr: 0x10008C5E4, symSize: 0x190 }
  - { offset: 0x3A572, size: 0x8, addend: 0x0, symName: __ZN6parlay8internal10seq_count_INS_5sliceIPNSt3__14pairIllEES6_EEPmNS2_INS_16delayed_sequenceImmZNS0_14integer_sort_rINS3_17integral_constantIbLb0EEENS_26uninitialized_relocate_tagES6_S6_S6_NS0_7get_keyMUlOT_E_EEENS_8sequenceImNS_9allocatorImEELb0EEENS2_IT1_SL_EENS2_IT2_SN_EENS2_IT3_SP_EERKT4_mmfEUlmE_E8iteratorESW_EEEEvSE_SL_T0_m, symObjAddr: 0x87DA8, symBinAddr: 0x10008AA54, symSize: 0x1A0 }
  - { offset: 0x3A97A, size: 0x8, addend: 0x0, symName: __ZN6parlay8internal14seq_count_sortINS_26uninitialized_relocate_tagEPNSt3__14pairIllEES6_NS_16delayed_sequenceImmZNS0_14integer_sort_rINS3_17integral_constantIbLb0EEES2_S6_S6_S6_NS0_7get_keyMUlOT_E_EEENS_8sequenceImNS_9allocatorImEELb0EEENS_5sliceIT1_SJ_EENSI_IT2_SL_EENSI_IT3_SN_EERKT4_mmfEUlmE_E8iteratorEEESH_NSI_IT0_SV_EESK_SM_m, symObjAddr: 0x86734, symBinAddr: 0x1000893E0, symSize: 0x15C }
  - { offset: 0x60C13, size: 0x8, addend: 0x0, symName: __ZN6parlay14group_by_indexImRNS_8sequenceINSt3__14pairIllEENS_9allocatorIS4_EELb0EEEEEDaOT0_T_, symObjAddr: 0x5D220, symBinAddr: 0x10005FFF0, symSize: 0x4B58 }
  - { offset: 0x7C3F0, size: 0x8, addend: 0x0, symName: __ZN6parlay7flattenIP4nodeIldEEEDaONS_8sequenceINS5_IT_NS_9allocatorIS6_EEXsr3std7is_sameIS6_cEE5valueEEENS7_IS9_EEXsr3std7is_sameIS9_cEE5valueEEE, symObjAddr: 0x254F0, symBinAddr: 0x1000283E4, symSize: 0x1378 }
  - { offset: 0x868E7, size: 0x8, addend: 0x0, symName: __ZN6parlay12parallel_forIZNS_17sequence_internal13sequence_baseINS_8sequenceIlNS_9allocatorIlEELb0EEENS4_IS6_EELb0EE12storage_impl11destroy_allEvEUlmE_EEvmmOT_lb, symObjAddr: 0xE348, symBinAddr: 0x100011360, symSize: 0xB58 }
  - { offset: 0x881C0, size: 0x8, addend: 0x0, symName: __ZN6parlay12parallel_forIZNS_17sequence_internal13sequence_baseI7clusterIldENS_9allocatorIS4_EELb0EE12storage_impl11destroy_allEvEUlmE_EEvmmOT_lb, symObjAddr: 0x1BFF4, symBinAddr: 0x10001F00C, symSize: 0xD14 }
  - { offset: 0x8A981, size: 0x8, addend: 0x0, symName: __ZN6parlay12parallel_forIZNS_24uninitialized_relocate_nIPNSt3__14pairIllEElS5_EENS3_IT_T1_EES6_T0_S7_EUlmE_EEvmmOS6_lb, symObjAddr: 0x7E0AC, symBinAddr: 0x100080D58, symSize: 0x1B8 }
  - { offset: 0x8AC0C, size: 0x8, addend: 0x0, symName: __ZN6parlay12parallel_forIZNS_17sequence_internal13sequence_baseINS_8sequenceINSt3__14pairIllEENS_9allocatorIS6_EELb0EEENS7_IS9_EELb0EE12storage_impl11destroy_allEvEUlmE_EEvmmOT_lb, symObjAddr: 0x9E25C, symBinAddr: 0x1000A0510, symSize: 0xB58 }
  - { offset: 0x8E500, size: 0x8, addend: 0x0, symName: __ZN6parlay12parallel_forIZNS_17sequence_internal13sequence_baseINS_8sequenceIP4nodeIldENS_9allocatorIS6_EELb0EEENS7_IS9_EELb0EE12storage_impl11destroy_allEvEUlmE_EEvmmOT_lb, symObjAddr: 0x24998, symBinAddr: 0x10002788C, symSize: 0xB58 }
  - { offset: 0x9012B, size: 0x8, addend: 0x0, symName: __ZN6parlay12parallel_forIZNS_24uninitialized_relocate_nIPP4nodeIldElS5_EENSt3__14pairIT_T1_EES8_T0_S9_EUlmE_EEvmmOS8_lb, symObjAddr: 0x493B4, symBinAddr: 0x10004C184, symSize: 0x1B8 }
  - { offset: 0x92672, size: 0x8, addend: 0x0, symName: __ZN6parlay14stream_delayed10filter_mapINS_5sliceINS_16delayed_sequenceImmZNS_14group_by_indexImRNS_8sequenceINSt3__14pairIllEENS_9allocatorIS8_EELb0EEEEEDaOT0_T_EUlmE_E8iteratorESJ_EEZNS4_ImSC_EESD_SF_SG_EUlmE0_ZNS_13block_delayed6filterISI_SL_EESD_RKSG_RKSE_EUlSG_E_EESD_SP_SE_T1_, symObjAddr: 0x71D0C, symBinAddr: 0x100074ADC, symSize: 0x2C4 }
  - { offset: 0x92DBC, size: 0x8, addend: 0x0, symName: __ZN6parlay12parallel_forIZNS_17sequence_internal13sequence_baseINS_8sequenceImNS_9allocatorImEELb0EEENS4_IS6_EELb0EE12storage_impl11destroy_allEvEUlmE_EEvmmOT_lb, symObjAddr: 0x71FD0, symBinAddr: 0x100074DA0, symSize: 0xB58 }
  - { offset: 0x95033, size: 0x8, addend: 0x0, symName: __ZN6parlay12parallel_forIZNS_24uninitialized_relocate_nIPllS2_EENSt3__14pairIT_T1_EES5_T0_S6_EUlmE_EEvmmOS5_lb, symObjAddr: 0x68018, symBinAddr: 0x10006ADE8, symSize: 0x1B8 }
  - { offset: 0x98919, size: 0x8, addend: 0x0, symName: __ZN6parlay9schedulerINS_15WorkStealingJobEE11worker_infoE, symObjAddr: 0xCC37C, symBinAddr: 0x1000DC040, symSize: 0x0 }
  - { offset: 0xB7403, size: 0x8, addend: 0x0, symName: __ZNSt3__124__put_character_sequenceB8ue170006IcNS_11char_traitsIcEEEERNS_13basic_ostreamIT_T0_EES7_PKS4_m, symObjAddr: 0x590C, symBinAddr: 0x100008924, symSize: 0x290 }
  - { offset: 0xBDE48, size: 0x8, addend: 0x0, symName: __ZNSt3__14endlB8ue170006IcNS_11char_traitsIcEEEERNS_13basic_ostreamIT_T0_EES7_, symObjAddr: 0x5B9C, symBinAddr: 0x100008BB4, symSize: 0x90 }
  - { offset: 0xBE91E, size: 0x8, addend: 0x0, symName: __ZNSt3__125__throw_bad_function_callB8ue170006Ev, symObjAddr: 0x1EB84, symBinAddr: 0x100021B9C, symSize: 0x30 }
  - { offset: 0xC05C9, size: 0x8, addend: 0x0, symName: __ZNSt3__120__throw_bad_weak_ptrB8ue170006Ev, symObjAddr: 0x1F788, symBinAddr: 0x1000227A0, symSize: 0x34 }
  - { offset: 0xC08F4, size: 0x8, addend: 0x0, symName: __ZNSt3__1lsB8ue170006INS_11char_traitsIcEEEERNS_13basic_ostreamIcT_EES6_PKc, symObjAddr: 0x1EB24, symBinAddr: 0x100021B3C, symSize: 0x34 }
  - { offset: 0xC2F1F, size: 0x8, addend: 0x0, symName: __ZNSt3__120__throw_length_errorB8ue170006EPKc, symObjAddr: 0x2387C, symBinAddr: 0x100026770, symSize: 0x50 }
  - { offset: 0xC356E, size: 0x8, addend: 0x0, symName: __ZNSt3__114__thread_proxyB8ue170006INS_5tupleIJNS_10unique_ptrINS_15__thread_structENS_14default_deleteIS3_EEEEZN6parlay9schedulerINS7_15WorkStealingJobEEC1EmEUlvE_EEEEEPvSD_, symObjAddr: 0x238F0, symBinAddr: 0x1000267E4, symSize: 0x4DC }
  - { offset: 0xCA448, size: 0x8, addend: 0x0, symName: __ZSt28__throw_bad_array_new_lengthB8ue170006v, symObjAddr: 0x21974, symBinAddr: 0x10002498C, symSize: 0x28 }
  - { offset: 0xCC0C9, size: 0x8, addend: 0x0, symName: __ZN6parlay8internal12ThreadIdPool7acquireEv, symObjAddr: 0x1F7BC, symBinAddr: 0x1000227D4, symSize: 0xE4 }
  - { offset: 0xCC0EC, size: 0x8, addend: 0x0, symName: __ZZN6parlay8internal12ThreadIdPool7acquireEvE2m_, symObjAddr: 0xD7D80, symBinAddr: 0x1000DC000, symSize: 0x0 }
  - { offset: 0xCC41D, size: 0x8, addend: 0x0, symName: '__Z15batchInsertEdgeIldZ4mainE3$_0EvRKN6parlay8sequenceINSt3__14pairIT_S5_EENS1_9allocatorIS6_EEXsr3std7is_sameIS6_cEE5valueEEERKNS2_INS3_5tupleIJS5_S5_T0_EEENS7_ISE_EEXsr3std7is_sameISE_cEE5valueEEERNS2_I7clusterIS5_SD_ENS7_ISK_EEXsr3std7is_sameISK_cEE5valueEEESD_T1_', symObjAddr: 0x137E8, symBinAddr: 0x100016800, symSize: 0x80D8 }
  - { offset: 0xE0DF2, size: 0x8, addend: 0x0, symName: __ZN6parlay19fork_join_scheduler7parfor_IZNS_17sequence_internal13sequence_baseINS_8sequenceIlNS_9allocatorIlEELb0EEENS5_IS7_EELb0EE12storage_impl11destroy_allEvEUlmE_EEvRNS_9schedulerINS_15WorkStealingJobEEEmmRT_mb, symObjAddr: 0x5CC60, symBinAddr: 0x10005FA30, symSize: 0x594 }
  - { offset: 0xE230D, size: 0x8, addend: 0x0, symName: __ZN6parlay9schedulerINS_15WorkStealingJobEEC2Em, symObjAddr: 0x1B9B8, symBinAddr: 0x10001E9D0, symSize: 0x460 }
  - { offset: 0xE53C1, size: 0x8, addend: 0x0, symName: __ZN6parlay19fork_join_scheduler7parfor_IZNS_17sequence_internal13sequence_baseI7clusterIldENS_9allocatorIS5_EELb0EE12storage_impl11destroy_allEvEUlmE_EEvRNS_9schedulerINS_15WorkStealingJobEEEmmRT_mb, symObjAddr: 0x1DB5C, symBinAddr: 0x100020B74, symSize: 0xE9C }
  - { offset: 0xE8013, size: 0x8, addend: 0x0, symName: __ZN7TreeGenIldE20generateInitialEdgesEv, symObjAddr: 0x5C2C, symBinAddr: 0x100008C44, symSize: 0x4DB8 }
  - { offset: 0xF479E, size: 0x8, addend: 0x0, symName: __ZN6parlay19fork_join_scheduler7parfor_IZNS_8internal10sliced_forIZNS2_6reduceINS_5sliceIPlS6_EENS_4plusIlEEEEDaRKT_OT0_jEUlmmmE_EEvmmSD_jEUlmE_EEvRNS_9schedulerINS_15WorkStealingJobEEEmmRSB_mb, symObjAddr: 0xB09D8, symBinAddr: 0x1000B2C8C, symSize: 0x678 }
  - { offset: 0xF5A66, size: 0x8, addend: 0x0, symName: __ZN6parlay19fork_join_scheduler7parfor_IZNS_8internal10sliced_forIZNS2_6reduceINS_8sequenceIlNS_9allocatorIlEELb0EEERNS_4plusIlEEEEDaRKT_OT0_jEUlmmmE_EEvmmSF_jEUlmE_EEvRNS_9schedulerINS_15WorkStealingJobEEEmmRSD_mb, symObjAddr: 0xB0328, symBinAddr: 0x1000B25DC, symSize: 0x684 }
  - { offset: 0xF6F91, size: 0x8, addend: 0x0, symName: __ZN6parlay19fork_join_scheduler7parfor_IZNS_8sequenceIlNS_9allocatorIlEELb0EEC1IZN7TreeGenIldE20generateInitialEdgesEvEUllE1_EEmOT_NS5_18_from_function_tagEmEUlmE_EEvRNS_9schedulerINS_15WorkStealingJobEEEmmRSA_mb, symObjAddr: 0xAE894, symBinAddr: 0x1000B0B48, symSize: 0x610 }
  - { offset: 0xF82C8, size: 0x8, addend: 0x0, symName: __ZN6parlay19fork_join_scheduler7parfor_IZNS_8sequenceIlNS_9allocatorIlEELb0EEC1IZN7TreeGenIldE20generateInitialEdgesEvEUllE2_EEmOT_NS5_18_from_function_tagEmEUlmE_EEvRNS_9schedulerINS_15WorkStealingJobEEEmmRSA_mb, symObjAddr: 0xADFDC, symBinAddr: 0x1000B0290, symSize: 0x640 }
  - { offset: 0xF95F5, size: 0x8, addend: 0x0, symName: __ZN6parlay19fork_join_scheduler7parfor_IZNS_8internal10sliced_forIZNS2_5scan_INS_5sliceIPlS6_EES7_NS_4plusIlEEEEDaRKT_T0_OT1_jbEUlmmmE_EEvmmSD_jEUlmE_EEvRNS_9schedulerINS_15WorkStealingJobEEEmmRSB_mb, symObjAddr: 0xAD938, symBinAddr: 0x1000AFBEC, symSize: 0x678 }
  - { offset: 0xFA8BD, size: 0x8, addend: 0x0, symName: __ZN6parlay19fork_join_scheduler7parfor_IZNS_8internal10sliced_forIZNS2_5scan_INS_5sliceIPlS6_EES7_NS_4plusIlEEEEDaRKT_T0_OT1_jbEUlmmmE0_EEvmmSD_jEUlmE_EEvRNS_9schedulerINS_15WorkStealingJobEEEmmRSB_mb, symObjAddr: 0xAD19C, symBinAddr: 0x1000AF450, symSize: 0x770 }
  - { offset: 0xFBD33, size: 0x8, addend: 0x0, symName: __ZN6parlay19fork_join_scheduler7parfor_IZNS_8internal13find_if_indexIZNS_7find_ifIRNS_8sequenceIlNS_9allocatorIlEELb0EEEZN7TreeGenIldE20generateInitialEdgesEvEUllE4_EEDaOT_OT0_EUlmE_EEmmSF_mEUlmE_EEvRNS_9schedulerINS_15WorkStealingJobEEEmmRSE_mb, symObjAddr: 0xABBD8, symBinAddr: 0x1000ADE8C, symSize: 0x5B8 }
  - { offset: 0xFD22E, size: 0x8, addend: 0x0, symName: __ZN6parlay19fork_join_scheduler7parfor_IZNS_8sequenceINSt3__14pairIllEENS_9allocatorIS5_EELb0EEC1IZN7TreeGenIldE20generateInitialEdgesEvEUllE6_EEmOT_NS8_18_from_function_tagEmEUlmE_EEvRNS_9schedulerINS_15WorkStealingJobEEEmmRSD_mb, symObjAddr: 0xAAD90, symBinAddr: 0x1000AD044, symSize: 0x5CC }
  - { offset: 0xFE66F, size: 0x8, addend: 0x0, symName: __ZN6parlay19fork_join_scheduler7parfor_IZN7TreeGenIldE20generateInitialEdgesEvEUllE7_EEvRNS_9schedulerINS_15WorkStealingJobEEEmmRT_mb, symObjAddr: 0xAA7BC, symBinAddr: 0x1000ACA70, symSize: 0x5A8 }
  - { offset: 0xFFA72, size: 0x8, addend: 0x0, symName: __ZN7TreeGenIldE16populateSubGraphENSt3__14pairIllEE, symObjAddr: 0xA87AC, symBinAddr: 0x1000AAA60, symSize: 0x298 }
  - { offset: 0x100041, size: 0x8, addend: 0x0, symName: __ZN6parlay19fork_join_scheduler7parfor_IZN7TreeGenIldE20generateInitialEdgesEvEUllE8_EEvRNS_9schedulerINS_15WorkStealingJobEEEmmRT_mb, symObjAddr: 0xA8A44, symBinAddr: 0x1000AACF8, symSize: 0x584 }
  - { offset: 0x1017DF, size: 0x8, addend: 0x0, symName: __ZN6parlay19fork_join_scheduler7parfor_IZNS_8internal10sliced_forIZNS2_10filter_mapINS_5sliceIPNSt3__15tupleIJNS6_4pairIllEES9_NS7_IJlldEEEbEEESC_EEZN7TreeGenIldE21generateInterconnectsEvEUlSB_E_RZNS2_6filterISD_SG_EENS_8sequenceINT_10value_typeENS_9allocatorISK_EEXsr3std7is_sameISK_cEE5valueEEERKSJ_OT0_EUlOSJ_E_EEDaSP_SR_OT1_EUlmmmE_EEvmmSP_jEUlmE_EEvRNS_9schedulerINS_15WorkStealingJobEEEmmRSJ_mb, symObjAddr: 0xA7170, symBinAddr: 0x1000A9424, symSize: 0xA2C }
  - { offset: 0x102AB4, size: 0x8, addend: 0x0, symName: __ZN6parlay19fork_join_scheduler7parfor_IZNS_8internal10sliced_forIZNS2_5scan_INS_5sliceIPmS6_EES7_NS_4plusImEEEEDaRKT_T0_OT1_jbEUlmmmE_EEvmmSD_jEUlmE_EEvRNS_9schedulerINS_15WorkStealingJobEEEmmRSB_mb, symObjAddr: 0x47E84, symBinAddr: 0x10004AC54, symSize: 0x678 }
  - { offset: 0x103D76, size: 0x8, addend: 0x0, symName: __ZN6parlay19fork_join_scheduler7parfor_IZNS_8internal10sliced_forIZNS2_5scan_INS_5sliceIPmS6_EES7_NS_4plusImEEEEDaRKT_T0_OT1_jbEUlmmmE0_EEvmmSD_jEUlmE_EEvRNS_9schedulerINS_15WorkStealingJobEEEmmRSB_mb, symObjAddr: 0x476E8, symBinAddr: 0x10004A4B8, symSize: 0x770 }
  - { offset: 0x105116, size: 0x8, addend: 0x0, symName: __ZN6parlay19fork_join_scheduler7parfor_IZNS_8internal10sliced_forIZNS2_10filter_mapINS_5sliceIPNSt3__15tupleIJNS6_4pairIllEES9_NS7_IJlldEEEbEEESC_EEZN7TreeGenIldE21generateInterconnectsEvEUlSB_E_RZNS2_6filterISD_SG_EENS_8sequenceINT_10value_typeENS_9allocatorISK_EEXsr3std7is_sameISK_cEE5valueEEERKSJ_OT0_EUlOSJ_E_EEDaSP_SR_OT1_EUlmmmE0_EEvmmSP_jEUlmE_EEvRNS_9schedulerINS_15WorkStealingJobEEEmmRSJ_mb, symObjAddr: 0xA6ACC, symBinAddr: 0x1000A8D80, symSize: 0x678 }
  - { offset: 0x10686D, size: 0x8, addend: 0x0, symName: __ZN6parlay19fork_join_scheduler7parfor_IZNS_8sequenceINSt3__15tupleIJlldEEENS_9allocatorIS5_EELb0EEC1IZN7TreeGenIldE11getAllEdgesEvEUllE_EEmOT_NS8_18_from_function_tagEmEUlmE_EEvRNS_9schedulerINS_15WorkStealingJobEEEmmRSD_mb, symObjAddr: 0xA6254, symBinAddr: 0x1000A8508, symSize: 0x5B0 }
  - { offset: 0x107D2A, size: 0x8, addend: 0x0, symName: __ZN6parlay19fork_join_scheduler7parfor_IZNS_8internal10sliced_forIZNS2_10filter_mapINS_5sliceIPNSt3__15tupleIJlldEEES9_EEZN7TreeGenIldE11getAllEdgesEvEUlS8_E_RZNS2_6filterISA_SD_EENS_8sequenceINT_10value_typeENS_9allocatorISH_EEXsr3std7is_sameISH_cEE5valueEEERKSG_OT0_EUlOSG_E_EEDaSM_SO_OT1_EUlmmmE_EEvmmSM_jEUlmE_EEvRNS_9schedulerINS_15WorkStealingJobEEEmmRSG_mb, symObjAddr: 0xA5894, symBinAddr: 0x1000A7B48, symSize: 0x994 }
  - { offset: 0x10906C, size: 0x8, addend: 0x0, symName: __ZN6parlay19fork_join_scheduler7parfor_IZNS_8internal10sliced_forIZNS2_10filter_mapINS_5sliceIPNSt3__15tupleIJlldEEES9_EEZN7TreeGenIldE11getAllEdgesEvEUlS8_E_RZNS2_6filterISA_SD_EENS_8sequenceINT_10value_typeENS_9allocatorISH_EEXsr3std7is_sameISH_cEE5valueEEERKSG_OT0_EUlOSG_E_EEDaSM_SO_OT1_EUlmmmE0_EEvmmSM_jEUlmE_EEvRNS_9schedulerINS_15WorkStealingJobEEEmmRSG_mb, symObjAddr: 0xA51E4, symBinAddr: 0x1000A7498, symSize: 0x684 }
  - { offset: 0x10A70C, size: 0x8, addend: 0x0, symName: __ZN7TreeGenIldE13verifyParentsEv, symObjAddr: 0xA9E4, symBinAddr: 0x10000D9FC, symSize: 0x4DC }
  - { offset: 0x10B626, size: 0x8, addend: 0x0, symName: __ZN6parlay19fork_join_scheduler7parfor_IZN7TreeGenIldE13verifyParentsEvEUllE_EEvRNS_9schedulerINS_15WorkStealingJobEEEmmRT_mb, symObjAddr: 0xA44F4, symBinAddr: 0x1000A67A8, symSize: 0x5D8 }
  - { offset: 0x10CBA2, size: 0x8, addend: 0x0, symName: __Z24convert_parents_to_graphIN6parlay8sequenceINS1_IlNS0_9allocatorIlEELb0EEENS2_IS4_EELb0EEElET_S7_NS1_IT0_NS2_IS8_EEXsr3std7is_sameIS8_cEE5valueEEE, symObjAddr: 0xB18C, symBinAddr: 0x10000E1A4, symSize: 0x31BC }
  - { offset: 0x1157DE, size: 0x8, addend: 0x0, symName: __ZN6parlay19fork_join_scheduler7parfor_IZNS_7flattenINSt3__14pairIllEEEEDaONS_8sequenceINS7_IT_NS_9allocatorIS8_EEXsr3std7is_sameIS8_cEE5valueEEENS9_ISB_EEXsr3std7is_sameISB_cEE5valueEEEEUlmE0_EEvRNS_9schedulerINS_15WorkStealingJobEEEmmRS8_mb, symObjAddr: 0x9F3F0, symBinAddr: 0x1000A16A4, symSize: 0x618 }
  - { offset: 0x116D36, size: 0x8, addend: 0x0, symName: __ZN6parlay19fork_join_scheduler7parfor_IZNS_17sequence_internal13sequence_baseINS_8sequenceINSt3__14pairIllEENS_9allocatorIS7_EELb0EEENS8_ISA_EELb0EE12storage_impl11destroy_allEvEUlmE_EEvRNS_9schedulerINS_15WorkStealingJobEEEmmRT_mb, symObjAddr: 0x9EE30, symBinAddr: 0x1000A10E4, symSize: 0x594 }
  - { offset: 0x11848A, size: 0x8, addend: 0x0, symName: __ZN6parlay8sequenceINSt3__14pairIllEENS_9allocatorIS3_EELb0EEC2IZNS_8internal3mapIRKNS0_IlNS4_IlEELb0EEEZZN11graph_utilsIlE9transposeERKNS0_ISB_NS4_ISB_EELb0EEEENKUllE_clElEUlT_E_EEDaOSL_OT0_mEUlmE_EEmSO_NS6_18_from_function_tagEm, symObjAddr: 0xA0534, symBinAddr: 0x1000A27E8, symSize: 0x3CC }
  - { offset: 0x118CF1, size: 0x8, addend: 0x0, symName: __ZN6parlay19fork_join_scheduler7parfor_IZNS_8sequenceINS2_INSt3__14pairIllEENS_9allocatorIS5_EELb0EEENS6_IS8_EELb0EE16initialize_rangeINS_16delayed_sequenceIS8_S8_ZN11graph_utilsIlE9transposeERKNS2_INS2_IlNS6_IlEELb0EEENS6_ISG_EELb0EEEEUllE_E8iteratorEEEvT_SO_EUlmE_EEvRNS_9schedulerINS_15WorkStealingJobEEEmmRSO_mb, symObjAddr: 0xA0900, symBinAddr: 0x1000A2BB4, symSize: 0x5E0 }
  - { offset: 0x11A40B, size: 0x8, addend: 0x0, symName: __ZN6parlay19fork_join_scheduler7parfor_IZNS_8internal10sliced_forIZNS2_18group_by_small_intINS_16delayed_sequenceIllZNS2_11delayed_mapIRNS_8sequenceINSt3__14pairIllEENS_9allocatorISA_EELb0EEEZNS_14group_by_indexImSE_EEDaOT0_T_EUlRKSJ_E0_Li0EEESG_OSJ_SH_EUlmE_E8iteratorENS5_IllZNS6_ISE_ZNSF_ImSE_EESG_SI_SJ_EUlSL_E_Li0EEESG_SN_SH_EUlmE_E8iteratorEEESG_NS_5sliceISJ_SJ_EENSV_ISH_SH_EEmEUlmmmE_EEvmmSL_jEUlmE_EEvRNS_9schedulerINS_15WorkStealingJobEEEmmRSJ_mb, symObjAddr: 0x9DBC0, symBinAddr: 0x10009FE74, symSize: 0x670 }
  - { offset: 0x11B7C6, size: 0x8, addend: 0x0, symName: __ZN6parlay19fork_join_scheduler7parfor_IZNS_8internal10sliced_forIZNS2_18group_by_small_intINS_16delayed_sequenceIllZNS2_11delayed_mapIRNS_8sequenceINSt3__14pairIllEENS_9allocatorISA_EELb0EEEZNS_14group_by_indexImSE_EEDaOT0_T_EUlRKSJ_E0_Li0EEESG_OSJ_SH_EUlmE_E8iteratorENS5_IllZNS6_ISE_ZNSF_ImSE_EESG_SI_SJ_EUlSL_E_Li0EEESG_SN_SH_EUlmE_E8iteratorEEESG_NS_5sliceISJ_SJ_EENSV_ISH_SH_EEmEUlmmmE0_EEvmmSL_jEUlmE_EEvRNS_9schedulerINS_15WorkStealingJobEEEmmRSJ_mb, symObjAddr: 0x9D558, symBinAddr: 0x10009F80C, symSize: 0x63C }
  - { offset: 0x11CD79, size: 0x8, addend: 0x0, symName: __ZN6parlay19fork_join_scheduler7parfor_IZNS_8internal18group_by_small_intINS_16delayed_sequenceIllZNS2_11delayed_mapIRNS_8sequenceINSt3__14pairIllEENS_9allocatorIS9_EELb0EEEZNS_14group_by_indexImSD_EEDaOT0_T_EUlRKSI_E0_Li0EEESF_OSI_SG_EUlmE_E8iteratorENS4_IllZNS5_ISD_ZNSE_ImSD_EESF_SH_SI_EUlSK_E_Li0EEESF_SM_SG_EUlmE_E8iteratorEEESF_NS_5sliceISI_SI_EENSU_ISG_SG_EEmEUlmE0_EEvRNS_9schedulerINS_15WorkStealingJobEEEmmRSI_mb, symObjAddr: 0x9C6E8, symBinAddr: 0x10009E99C, symSize: 0x63C }
  - { offset: 0x11E0E4, size: 0x8, addend: 0x0, symName: __ZN6parlay19fork_join_scheduler7parfor_IZNS_8sequenceINS2_IlNS_9allocatorIlEELb0EEENS3_IS5_EELb0EEC1IZNS_8internal3mapIRNS2_ImNS3_ImEELb0EEEZNS9_18group_by_small_intINS_16delayed_sequenceIllZNS9_11delayed_mapIRNS2_INSt3__14pairIllEENS3_ISJ_EELb0EEEZNS_14group_by_indexImSM_EEDaOT0_T_EUlRKSR_E0_Li0EEESO_OSR_SP_EUlmE_E8iteratorENSF_IllZNSG_ISM_ZNSN_ImSM_EESO_SQ_SR_EUlST_E_Li0EEESO_SV_SP_EUlmE_E8iteratorEEESO_NS_5sliceISR_SR_EENS13_ISP_SP_EEmEUlmE1_EESO_SV_SQ_mEUlmE_EEmSV_NS7_18_from_function_tagEmEUlmE_EEvRNS_9schedulerINS_15WorkStealingJobEEEmmRSR_mb, symObjAddr: 0x9C11C, symBinAddr: 0x10009E3D0, symSize: 0x5A0 }
  - { offset: 0x11F499, size: 0x8, addend: 0x0, symName: __ZN6parlay19fork_join_scheduler7parfor_IZNS_8internal18group_by_small_intINS_16delayed_sequenceIllZNS2_11delayed_mapIRNS_8sequenceINSt3__14pairIllEENS_9allocatorIS9_EELb0EEEZNS_14group_by_indexImSD_EEDaOT0_T_EUlRKSI_E0_Li0EEESF_OSI_SG_EUlmE_E8iteratorENS4_IllZNS5_ISD_ZNSE_ImSD_EESF_SH_SI_EUlSK_E_Li0EEESF_SM_SG_EUlmE_E8iteratorEEESF_NS_5sliceISI_SI_EENSU_ISG_SG_EEmEUlmE2_EEvRNS_9schedulerINS_15WorkStealingJobEEEmmRSI_mb, symObjAddr: 0x9BAF0, symBinAddr: 0x10009DDA4, symSize: 0x600 }
  - { offset: 0x120AB7, size: 0x8, addend: 0x0, symName: __ZN6parlay19fork_join_scheduler7parfor_IZNS_8internal10sliced_forIZNS2_6reduceINS_5sliceINS_16delayed_sequenceImmZNS2_13integer_sort_INSt3__117integral_constantIbLb0EEENS_22uninitialized_copy_tagEPNS8_4pairIllEESE_SE_NS2_7get_keyMUlOT_E_EEENS_8sequenceImNS_9allocatorImEELb0EEENS5_IT1_SM_EENS5_IT2_SO_EENS5_IT3_SQ_EERKT4_mmEUlmE_E8iteratorESX_EENS_7maximumImEEEEDaRKSF_OT0_jEUlmmmE_EEvmmS13_jEUlmE_EEvRNS_9schedulerINS_15WorkStealingJobEEEmmRSF_mb, symObjAddr: 0x9A300, symBinAddr: 0x10009C5B4, symSize: 0x6D8 }
  - { offset: 0x121F9A, size: 0x8, addend: 0x0, symName: __ZN6parlay19fork_join_scheduler7parfor_IZNS_8internal10sliced_forIZNS2_6reduceINS_8sequenceImNS_9allocatorImEELb0EEERNS_7maximumImEEEEDaRKT_OT0_jEUlmmmE_EEvmmSF_jEUlmE_EEvRNS_9schedulerINS_15WorkStealingJobEEEmmRSD_mb, symObjAddr: 0x99C2C, symBinAddr: 0x10009BEE0, symSize: 0x6A8 }
  - { offset: 0x1236F6, size: 0x8, addend: 0x0, symName: __ZN6parlay19fork_join_scheduler7parfor_IZNS_8internal11count_sort_INS_22uninitialized_copy_tagEjPNSt3__14pairIllEES8_NS_16delayed_sequenceImmZNS2_14integer_sort_rINS5_17integral_constantIbLb0EEES4_S8_S8_S8_NS2_7get_keyMUlOT_E_EEENS_8sequenceImNS_9allocatorImEELb0EEENS_5sliceIT1_SL_EENSK_IT2_SN_EENSK_IT3_SP_EERKT4_mmfEUlmE0_E8iteratorEEENS6_ISJ_bEESM_SO_SQ_mfbEUlmE_EEvRNS_9schedulerINS_15WorkStealingJobEEEmmRSD_mb, symObjAddr: 0x98C28, symBinAddr: 0x10009AEDC, symSize: 0x60C }
  - { offset: 0x124B11, size: 0x8, addend: 0x0, symName: __ZN6parlay19fork_join_scheduler7parfor_IZNS_8internal11count_sort_INS_22uninitialized_copy_tagEjPNSt3__14pairIllEES8_NS_16delayed_sequenceImmZNS2_14integer_sort_rINS5_17integral_constantIbLb0EEES4_S8_S8_S8_NS2_7get_keyMUlOT_E_EEENS_8sequenceImNS_9allocatorImEELb0EEENS_5sliceIT1_SL_EENSK_IT2_SN_EENSK_IT3_SP_EERKT4_mmfEUlmE0_E8iteratorEEENS6_ISJ_bEESM_SO_SQ_mfbEUlmE0_EEvRNS_9schedulerINS_15WorkStealingJobEEEmmRSD_mb, symObjAddr: 0x98400, symBinAddr: 0x10009A6B4, symSize: 0x66C }
  - { offset: 0x125E2C, size: 0x8, addend: 0x0, symName: __ZN6parlay19fork_join_scheduler7parfor_IZNS_8internal11count_sort_INS_22uninitialized_copy_tagEjPNSt3__14pairIllEES8_NS_16delayed_sequenceImmZNS2_14integer_sort_rINS5_17integral_constantIbLb0EEES4_S8_S8_S8_NS2_7get_keyMUlOT_E_EEENS_8sequenceImNS_9allocatorImEELb0EEENS_5sliceIT1_SL_EENSK_IT2_SN_EENSK_IT3_SP_EERKT4_mmfEUlmE0_E8iteratorEEENS6_ISJ_bEESM_SO_SQ_mfbEUlmE1_EEvRNS_9schedulerINS_15WorkStealingJobEEEmmRSD_mb, symObjAddr: 0x97DDC, symBinAddr: 0x10009A090, symSize: 0x5F8 }
  - { offset: 0x1272BD, size: 0x8, addend: 0x0, symName: __ZN6parlay19fork_join_scheduler7parfor_IZNS_8internal11count_sort_INS_22uninitialized_copy_tagEmPNSt3__14pairIllEES8_NS_16delayed_sequenceImmZNS2_14integer_sort_rINS5_17integral_constantIbLb0EEES4_S8_S8_S8_NS2_7get_keyMUlOT_E_EEENS_8sequenceImNS_9allocatorImEELb0EEENS_5sliceIT1_SL_EENSK_IT2_SN_EENSK_IT3_SP_EERKT4_mmfEUlmE0_E8iteratorEEENS6_ISJ_bEESM_SO_SQ_mfbEUlmE_EEvRNS_9schedulerINS_15WorkStealingJobEEEmmRSD_mb, symObjAddr: 0x96F18, symBinAddr: 0x10009935C, symSize: 0x60C }
  - { offset: 0x1286D8, size: 0x8, addend: 0x0, symName: __ZN6parlay19fork_join_scheduler7parfor_IZNS_8internal11count_sort_INS_22uninitialized_copy_tagEmPNSt3__14pairIllEES8_NS_16delayed_sequenceImmZNS2_14integer_sort_rINS5_17integral_constantIbLb0EEES4_S8_S8_S8_NS2_7get_keyMUlOT_E_EEENS_8sequenceImNS_9allocatorImEELb0EEENS_5sliceIT1_SL_EENSK_IT2_SN_EENSK_IT3_SP_EERKT4_mmfEUlmE0_E8iteratorEEENS6_ISJ_bEESM_SO_SQ_mfbEUlmE0_EEvRNS_9schedulerINS_15WorkStealingJobEEEmmRSD_mb, symObjAddr: 0x96710, symBinAddr: 0x100098B54, symSize: 0x63C }
  - { offset: 0x1298DF, size: 0x8, addend: 0x0, symName: __ZN6parlay19fork_join_scheduler7parfor_IZNS_8internal11count_sort_INS_22uninitialized_copy_tagEmPNSt3__14pairIllEES8_NS_16delayed_sequenceImmZNS2_14integer_sort_rINS5_17integral_constantIbLb0EEES4_S8_S8_S8_NS2_7get_keyMUlOT_E_EEENS_8sequenceImNS_9allocatorImEELb0EEENS_5sliceIT1_SL_EENSK_IT2_SN_EENSK_IT3_SP_EERKT4_mmfEUlmE0_E8iteratorEEENS6_ISJ_bEESM_SO_SQ_mfbEUlmE1_EEvRNS_9schedulerINS_15WorkStealingJobEEEmmRSD_mb, symObjAddr: 0x960EC, symBinAddr: 0x100098530, symSize: 0x5F8 }
  - { offset: 0x12AE0C, size: 0x8, addend: 0x0, symName: __ZN6parlay19fork_join_scheduler7parfor_IZNS_8internal11count_sort_INS_22uninitialized_copy_tagEjPNSt3__14pairIllEES8_NS_16delayed_sequenceImmZNS2_14integer_sort_rINS5_17integral_constantIbLb0EEES4_S8_S8_S8_NS2_7get_keyMUlOT_E_EEENS_8sequenceImNS_9allocatorImEELb0EEENS_5sliceIT1_SL_EENSK_IT2_SN_EENSK_IT3_SP_EERKT4_mmfEUlmE1_E8iteratorEEENS6_ISJ_bEESM_SO_SQ_mfbEUlmE_EEvRNS_9schedulerINS_15WorkStealingJobEEEmmRSD_mb, symObjAddr: 0x950CC, symBinAddr: 0x1000976A0, symSize: 0x60C }
  - { offset: 0x12C227, size: 0x8, addend: 0x0, symName: __ZN6parlay19fork_join_scheduler7parfor_IZNS_8internal11count_sort_INS_22uninitialized_copy_tagEjPNSt3__14pairIllEES8_NS_16delayed_sequenceImmZNS2_14integer_sort_rINS5_17integral_constantIbLb0EEES4_S8_S8_S8_NS2_7get_keyMUlOT_E_EEENS_8sequenceImNS_9allocatorImEELb0EEENS_5sliceIT1_SL_EENSK_IT2_SN_EENSK_IT3_SP_EERKT4_mmfEUlmE1_E8iteratorEEENS6_ISJ_bEESM_SO_SQ_mfbEUlmE0_EEvRNS_9schedulerINS_15WorkStealingJobEEEmmRSD_mb, symObjAddr: 0x94898, symBinAddr: 0x100096E6C, symSize: 0x66C }
  - { offset: 0x12D42E, size: 0x8, addend: 0x0, symName: __ZN6parlay19fork_join_scheduler7parfor_IZNS_8internal11count_sort_INS_22uninitialized_copy_tagEjPNSt3__14pairIllEES8_NS_16delayed_sequenceImmZNS2_14integer_sort_rINS5_17integral_constantIbLb0EEES4_S8_S8_S8_NS2_7get_keyMUlOT_E_EEENS_8sequenceImNS_9allocatorImEELb0EEENS_5sliceIT1_SL_EENSK_IT2_SN_EENSK_IT3_SP_EERKT4_mmfEUlmE1_E8iteratorEEENS6_ISJ_bEESM_SO_SQ_mfbEUlmE1_EEvRNS_9schedulerINS_15WorkStealingJobEEEmmRSD_mb, symObjAddr: 0x94274, symBinAddr: 0x100096848, symSize: 0x5F8 }
  - { offset: 0x12E847, size: 0x8, addend: 0x0, symName: __ZN6parlay19fork_join_scheduler7parfor_IZNS_8internal11count_sort_INS_22uninitialized_copy_tagEjPNSt3__14pairIllEES8_NS_16delayed_sequenceImmZNS2_14integer_sort_rINS5_17integral_constantIbLb0EEES4_S8_S8_S8_NS2_7get_keyMUlOT_E_EEENS_8sequenceImNS_9allocatorImEELb0EEENS_5sliceIT1_SL_EENSK_IT2_SN_EENSK_IT3_SP_EERKT4_mmfEUlmE1_E8iteratorEEENS6_ISJ_bEESM_SO_SQ_mfbEUlmE2_EEvRNS_9schedulerINS_15WorkStealingJobEEEmmRSD_mb, symObjAddr: 0x93C3C, symBinAddr: 0x100096210, symSize: 0x60C }
  - { offset: 0x12FC20, size: 0x8, addend: 0x0, symName: __ZN6parlay19fork_join_scheduler7parfor_IZNS_8internal11count_sort_INS_22uninitialized_copy_tagEmPNSt3__14pairIllEES8_NS_16delayed_sequenceImmZNS2_14integer_sort_rINS5_17integral_constantIbLb0EEES4_S8_S8_S8_NS2_7get_keyMUlOT_E_EEENS_8sequenceImNS_9allocatorImEELb0EEENS_5sliceIT1_SL_EENSK_IT2_SN_EENSK_IT3_SP_EERKT4_mmfEUlmE1_E8iteratorEEENS6_ISJ_bEESM_SO_SQ_mfbEUlmE_EEvRNS_9schedulerINS_15WorkStealingJobEEEmmRSD_mb, symObjAddr: 0x93604, symBinAddr: 0x100095BD8, symSize: 0x60C }
  - { offset: 0x13103B, size: 0x8, addend: 0x0, symName: __ZN6parlay19fork_join_scheduler7parfor_IZNS_8internal11count_sort_INS_22uninitialized_copy_tagEmPNSt3__14pairIllEES8_NS_16delayed_sequenceImmZNS2_14integer_sort_rINS5_17integral_constantIbLb0EEES4_S8_S8_S8_NS2_7get_keyMUlOT_E_EEENS_8sequenceImNS_9allocatorImEELb0EEENS_5sliceIT1_SL_EENSK_IT2_SN_EENSK_IT3_SP_EERKT4_mmfEUlmE1_E8iteratorEEENS6_ISJ_bEESM_SO_SQ_mfbEUlmE0_EEvRNS_9schedulerINS_15WorkStealingJobEEEmmRSD_mb, symObjAddr: 0x92DF0, symBinAddr: 0x1000953C4, symSize: 0x63C }
  - { offset: 0x132242, size: 0x8, addend: 0x0, symName: __ZN6parlay19fork_join_scheduler7parfor_IZNS_8internal11count_sort_INS_22uninitialized_copy_tagEmPNSt3__14pairIllEES8_NS_16delayed_sequenceImmZNS2_14integer_sort_rINS5_17integral_constantIbLb0EEES4_S8_S8_S8_NS2_7get_keyMUlOT_E_EEENS_8sequenceImNS_9allocatorImEELb0EEENS_5sliceIT1_SL_EENSK_IT2_SN_EENSK_IT3_SP_EERKT4_mmfEUlmE1_E8iteratorEEENS6_ISJ_bEESM_SO_SQ_mfbEUlmE1_EEvRNS_9schedulerINS_15WorkStealingJobEEEmmRSD_mb, symObjAddr: 0x927CC, symBinAddr: 0x100094DA0, symSize: 0x5F8 }
  - { offset: 0x13365B, size: 0x8, addend: 0x0, symName: __ZN6parlay19fork_join_scheduler7parfor_IZNS_8internal11count_sort_INS_22uninitialized_copy_tagEmPNSt3__14pairIllEES8_NS_16delayed_sequenceImmZNS2_14integer_sort_rINS5_17integral_constantIbLb0EEES4_S8_S8_S8_NS2_7get_keyMUlOT_E_EEENS_8sequenceImNS_9allocatorImEELb0EEENS_5sliceIT1_SL_EENSK_IT2_SN_EENSK_IT3_SP_EERKT4_mmfEUlmE1_E8iteratorEEENS6_ISJ_bEESM_SO_SQ_mfbEUlmE2_EEvRNS_9schedulerINS_15WorkStealingJobEEEmmRSD_mb, symObjAddr: 0x92194, symBinAddr: 0x100094768, symSize: 0x60C }
  - { offset: 0x134AD0, size: 0x8, addend: 0x0, symName: __ZN6parlay19fork_join_scheduler7parfor_IZNS_8internal11count_sort_INS_26uninitialized_relocate_tagEjPNSt3__14pairIllEES8_NS_16delayed_sequenceImmZNS2_14integer_sort_rINS5_17integral_constantIbLb1EEES4_S8_S8_S8_NS2_7get_keyMUlOT_E_EEENS_8sequenceImNS_9allocatorImEELb0EEENS_5sliceIT1_SL_EENSK_IT2_SN_EENSK_IT3_SP_EERKT4_mmfEUlmE_E8iteratorEEENS6_ISJ_bEESM_SO_SQ_mfbEUlmE_EEvRNS_9schedulerINS_15WorkStealingJobEEEmmRSD_mb, symObjAddr: 0x9180C, symBinAddr: 0x100093EF4, symSize: 0x60C }
  - { offset: 0x135EEB, size: 0x8, addend: 0x0, symName: __ZN6parlay19fork_join_scheduler7parfor_IZNS_8internal11count_sort_INS_26uninitialized_relocate_tagEjPNSt3__14pairIllEES8_NS_16delayed_sequenceImmZNS2_14integer_sort_rINS5_17integral_constantIbLb1EEES4_S8_S8_S8_NS2_7get_keyMUlOT_E_EEENS_8sequenceImNS_9allocatorImEELb0EEENS_5sliceIT1_SL_EENSK_IT2_SN_EENSK_IT3_SP_EERKT4_mmfEUlmE_E8iteratorEEENS6_ISJ_bEESM_SO_SQ_mfbEUlmE0_EEvRNS_9schedulerINS_15WorkStealingJobEEEmmRSD_mb, symObjAddr: 0x90FE4, symBinAddr: 0x1000936CC, symSize: 0x66C }
  - { offset: 0x1370F2, size: 0x8, addend: 0x0, symName: __ZN6parlay19fork_join_scheduler7parfor_IZNS_8internal11count_sort_INS_26uninitialized_relocate_tagEjPNSt3__14pairIllEES8_NS_16delayed_sequenceImmZNS2_14integer_sort_rINS5_17integral_constantIbLb1EEES4_S8_S8_S8_NS2_7get_keyMUlOT_E_EEENS_8sequenceImNS_9allocatorImEELb0EEENS_5sliceIT1_SL_EENSK_IT2_SN_EENSK_IT3_SP_EERKT4_mmfEUlmE_E8iteratorEEENS6_ISJ_bEESM_SO_SQ_mfbEUlmE1_EEvRNS_9schedulerINS_15WorkStealingJobEEEmmRSD_mb, symObjAddr: 0x909C0, symBinAddr: 0x1000930A8, symSize: 0x5F8 }
  - { offset: 0x138583, size: 0x8, addend: 0x0, symName: __ZN6parlay19fork_join_scheduler7parfor_IZNS_8internal11count_sort_INS_26uninitialized_relocate_tagEmPNSt3__14pairIllEES8_NS_16delayed_sequenceImmZNS2_14integer_sort_rINS5_17integral_constantIbLb1EEES4_S8_S8_S8_NS2_7get_keyMUlOT_E_EEENS_8sequenceImNS_9allocatorImEELb0EEENS_5sliceIT1_SL_EENSK_IT2_SN_EENSK_IT3_SP_EERKT4_mmfEUlmE_E8iteratorEEENS6_ISJ_bEESM_SO_SQ_mfbEUlmE_EEvRNS_9schedulerINS_15WorkStealingJobEEEmmRSD_mb, symObjAddr: 0x8FAFC, symBinAddr: 0x100092374, symSize: 0x60C }
  - { offset: 0x13999E, size: 0x8, addend: 0x0, symName: __ZN6parlay19fork_join_scheduler7parfor_IZNS_8internal11count_sort_INS_26uninitialized_relocate_tagEmPNSt3__14pairIllEES8_NS_16delayed_sequenceImmZNS2_14integer_sort_rINS5_17integral_constantIbLb1EEES4_S8_S8_S8_NS2_7get_keyMUlOT_E_EEENS_8sequenceImNS_9allocatorImEELb0EEENS_5sliceIT1_SL_EENSK_IT2_SN_EENSK_IT3_SP_EERKT4_mmfEUlmE_E8iteratorEEENS6_ISJ_bEESM_SO_SQ_mfbEUlmE0_EEvRNS_9schedulerINS_15WorkStealingJobEEEmmRSD_mb, symObjAddr: 0x8F2F4, symBinAddr: 0x100091B6C, symSize: 0x63C }
  - { offset: 0x13ABA5, size: 0x8, addend: 0x0, symName: __ZN6parlay19fork_join_scheduler7parfor_IZNS_8internal11count_sort_INS_26uninitialized_relocate_tagEmPNSt3__14pairIllEES8_NS_16delayed_sequenceImmZNS2_14integer_sort_rINS5_17integral_constantIbLb1EEES4_S8_S8_S8_NS2_7get_keyMUlOT_E_EEENS_8sequenceImNS_9allocatorImEELb0EEENS_5sliceIT1_SL_EENSK_IT2_SN_EENSK_IT3_SP_EERKT4_mmfEUlmE_E8iteratorEEENS6_ISJ_bEESM_SO_SQ_mfbEUlmE1_EEvRNS_9schedulerINS_15WorkStealingJobEEEmmRSD_mb, symObjAddr: 0x8ECD0, symBinAddr: 0x100091548, symSize: 0x5F8 }
  - { offset: 0x13C0D2, size: 0x8, addend: 0x0, symName: __ZN6parlay19fork_join_scheduler7parfor_IZNS_8internal11count_sort_INS_26uninitialized_relocate_tagEjPNSt3__14pairIllEES8_NS_16delayed_sequenceImmZNS2_14integer_sort_rINS5_17integral_constantIbLb1EEES4_S8_S8_S8_NS2_7get_keyMUlOT_E_EEENS_8sequenceImNS_9allocatorImEELb0EEENS_5sliceIT1_SL_EENSK_IT2_SN_EENSK_IT3_SP_EERKT4_mmfEUlmE0_E8iteratorEEENS6_ISJ_bEESM_SO_SQ_mfbEUlmE_EEvRNS_9schedulerINS_15WorkStealingJobEEEmmRSD_mb, symObjAddr: 0x8D518, symBinAddr: 0x10008FF20, symSize: 0x60C }
  - { offset: 0x13D4ED, size: 0x8, addend: 0x0, symName: __ZN6parlay19fork_join_scheduler7parfor_IZNS_8internal11count_sort_INS_26uninitialized_relocate_tagEjPNSt3__14pairIllEES8_NS_16delayed_sequenceImmZNS2_14integer_sort_rINS5_17integral_constantIbLb1EEES4_S8_S8_S8_NS2_7get_keyMUlOT_E_EEENS_8sequenceImNS_9allocatorImEELb0EEENS_5sliceIT1_SL_EENSK_IT2_SN_EENSK_IT3_SP_EERKT4_mmfEUlmE0_E8iteratorEEENS6_ISJ_bEESM_SO_SQ_mfbEUlmE0_EEvRNS_9schedulerINS_15WorkStealingJobEEEmmRSD_mb, symObjAddr: 0x8CCE4, symBinAddr: 0x10008F6EC, symSize: 0x66C }
  - { offset: 0x13E6F4, size: 0x8, addend: 0x0, symName: __ZN6parlay19fork_join_scheduler7parfor_IZNS_8internal11count_sort_INS_26uninitialized_relocate_tagEjPNSt3__14pairIllEES8_NS_16delayed_sequenceImmZNS2_14integer_sort_rINS5_17integral_constantIbLb1EEES4_S8_S8_S8_NS2_7get_keyMUlOT_E_EEENS_8sequenceImNS_9allocatorImEELb0EEENS_5sliceIT1_SL_EENSK_IT2_SN_EENSK_IT3_SP_EERKT4_mmfEUlmE0_E8iteratorEEENS6_ISJ_bEESM_SO_SQ_mfbEUlmE1_EEvRNS_9schedulerINS_15WorkStealingJobEEEmmRSD_mb, symObjAddr: 0x8C6C0, symBinAddr: 0x10008F0C8, symSize: 0x5F8 }
  - { offset: 0x13FB0D, size: 0x8, addend: 0x0, symName: __ZN6parlay19fork_join_scheduler7parfor_IZNS_8internal11count_sort_INS_26uninitialized_relocate_tagEjPNSt3__14pairIllEES8_NS_16delayed_sequenceImmZNS2_14integer_sort_rINS5_17integral_constantIbLb1EEES4_S8_S8_S8_NS2_7get_keyMUlOT_E_EEENS_8sequenceImNS_9allocatorImEELb0EEENS_5sliceIT1_SL_EENSK_IT2_SN_EENSK_IT3_SP_EERKT4_mmfEUlmE0_E8iteratorEEENS6_ISJ_bEESM_SO_SQ_mfbEUlmE2_EEvRNS_9schedulerINS_15WorkStealingJobEEEmmRSD_mb, symObjAddr: 0x8C088, symBinAddr: 0x10008EA90, symSize: 0x60C }
  - { offset: 0x140EE6, size: 0x8, addend: 0x0, symName: __ZN6parlay19fork_join_scheduler7parfor_IZNS_8internal11count_sort_INS_26uninitialized_relocate_tagEmPNSt3__14pairIllEES8_NS_16delayed_sequenceImmZNS2_14integer_sort_rINS5_17integral_constantIbLb1EEES4_S8_S8_S8_NS2_7get_keyMUlOT_E_EEENS_8sequenceImNS_9allocatorImEELb0EEENS_5sliceIT1_SL_EENSK_IT2_SN_EENSK_IT3_SP_EERKT4_mmfEUlmE0_E8iteratorEEENS6_ISJ_bEESM_SO_SQ_mfbEUlmE_EEvRNS_9schedulerINS_15WorkStealingJobEEEmmRSD_mb, symObjAddr: 0x8BA50, symBinAddr: 0x10008E458, symSize: 0x60C }
  - { offset: 0x142301, size: 0x8, addend: 0x0, symName: __ZN6parlay19fork_join_scheduler7parfor_IZNS_8internal11count_sort_INS_26uninitialized_relocate_tagEmPNSt3__14pairIllEES8_NS_16delayed_sequenceImmZNS2_14integer_sort_rINS5_17integral_constantIbLb1EEES4_S8_S8_S8_NS2_7get_keyMUlOT_E_EEENS_8sequenceImNS_9allocatorImEELb0EEENS_5sliceIT1_SL_EENSK_IT2_SN_EENSK_IT3_SP_EERKT4_mmfEUlmE0_E8iteratorEEENS6_ISJ_bEESM_SO_SQ_mfbEUlmE0_EEvRNS_9schedulerINS_15WorkStealingJobEEEmmRSD_mb, symObjAddr: 0x8B23C, symBinAddr: 0x10008DC44, symSize: 0x63C }
  - { offset: 0x143508, size: 0x8, addend: 0x0, symName: __ZN6parlay19fork_join_scheduler7parfor_IZNS_8internal11count_sort_INS_26uninitialized_relocate_tagEmPNSt3__14pairIllEES8_NS_16delayed_sequenceImmZNS2_14integer_sort_rINS5_17integral_constantIbLb1EEES4_S8_S8_S8_NS2_7get_keyMUlOT_E_EEENS_8sequenceImNS_9allocatorImEELb0EEENS_5sliceIT1_SL_EENSK_IT2_SN_EENSK_IT3_SP_EERKT4_mmfEUlmE0_E8iteratorEEENS6_ISJ_bEESM_SO_SQ_mfbEUlmE1_EEvRNS_9schedulerINS_15WorkStealingJobEEEmmRSD_mb, symObjAddr: 0x8AC18, symBinAddr: 0x10008D620, symSize: 0x5F8 }
  - { offset: 0x144921, size: 0x8, addend: 0x0, symName: __ZN6parlay19fork_join_scheduler7parfor_IZNS_8internal11count_sort_INS_26uninitialized_relocate_tagEmPNSt3__14pairIllEES8_NS_16delayed_sequenceImmZNS2_14integer_sort_rINS5_17integral_constantIbLb1EEES4_S8_S8_S8_NS2_7get_keyMUlOT_E_EEENS_8sequenceImNS_9allocatorImEELb0EEENS_5sliceIT1_SL_EENSK_IT2_SN_EENSK_IT3_SP_EERKT4_mmfEUlmE0_E8iteratorEEENS6_ISJ_bEESM_SO_SQ_mfbEUlmE2_EEvRNS_9schedulerINS_15WorkStealingJobEEEmmRSD_mb, symObjAddr: 0x8A5E0, symBinAddr: 0x10008CFE8, symSize: 0x60C }
  - { offset: 0x145D96, size: 0x8, addend: 0x0, symName: __ZN6parlay19fork_join_scheduler7parfor_IZNS_8internal11count_sort_INS_26uninitialized_relocate_tagEjPNSt3__14pairIllEES8_NS_16delayed_sequenceImmZNS2_14integer_sort_rINS5_17integral_constantIbLb0EEES4_S8_S8_S8_NS2_7get_keyMUlOT_E_EEENS_8sequenceImNS_9allocatorImEELb0EEENS_5sliceIT1_SL_EENSK_IT2_SN_EENSK_IT3_SP_EERKT4_mmfEUlmE_E8iteratorEEENS6_ISJ_bEESM_SO_SQ_mfbEUlmE_EEvRNS_9schedulerINS_15WorkStealingJobEEEmmRSD_mb, symObjAddr: 0x89C58, symBinAddr: 0x10008C774, symSize: 0x60C }
  - { offset: 0x1471B1, size: 0x8, addend: 0x0, symName: __ZN6parlay19fork_join_scheduler7parfor_IZNS_8internal11count_sort_INS_26uninitialized_relocate_tagEjPNSt3__14pairIllEES8_NS_16delayed_sequenceImmZNS2_14integer_sort_rINS5_17integral_constantIbLb0EEES4_S8_S8_S8_NS2_7get_keyMUlOT_E_EEENS_8sequenceImNS_9allocatorImEELb0EEENS_5sliceIT1_SL_EENSK_IT2_SN_EENSK_IT3_SP_EERKT4_mmfEUlmE_E8iteratorEEENS6_ISJ_bEESM_SO_SQ_mfbEUlmE0_EEvRNS_9schedulerINS_15WorkStealingJobEEEmmRSD_mb, symObjAddr: 0x89430, symBinAddr: 0x10008BF4C, symSize: 0x66C }
  - { offset: 0x1483B8, size: 0x8, addend: 0x0, symName: __ZN6parlay19fork_join_scheduler7parfor_IZNS_8internal11count_sort_INS_26uninitialized_relocate_tagEjPNSt3__14pairIllEES8_NS_16delayed_sequenceImmZNS2_14integer_sort_rINS5_17integral_constantIbLb0EEES4_S8_S8_S8_NS2_7get_keyMUlOT_E_EEENS_8sequenceImNS_9allocatorImEELb0EEENS_5sliceIT1_SL_EENSK_IT2_SN_EENSK_IT3_SP_EERKT4_mmfEUlmE_E8iteratorEEENS6_ISJ_bEESM_SO_SQ_mfbEUlmE1_EEvRNS_9schedulerINS_15WorkStealingJobEEEmmRSD_mb, symObjAddr: 0x88E0C, symBinAddr: 0x10008B928, symSize: 0x5F8 }
  - { offset: 0x149849, size: 0x8, addend: 0x0, symName: __ZN6parlay19fork_join_scheduler7parfor_IZNS_8internal11count_sort_INS_26uninitialized_relocate_tagEmPNSt3__14pairIllEES8_NS_16delayed_sequenceImmZNS2_14integer_sort_rINS5_17integral_constantIbLb0EEES4_S8_S8_S8_NS2_7get_keyMUlOT_E_EEENS_8sequenceImNS_9allocatorImEELb0EEENS_5sliceIT1_SL_EENSK_IT2_SN_EENSK_IT3_SP_EERKT4_mmfEUlmE_E8iteratorEEENS6_ISJ_bEESM_SO_SQ_mfbEUlmE_EEvRNS_9schedulerINS_15WorkStealingJobEEEmmRSD_mb, symObjAddr: 0x87F48, symBinAddr: 0x10008ABF4, symSize: 0x60C }
  - { offset: 0x14AC64, size: 0x8, addend: 0x0, symName: __ZN6parlay19fork_join_scheduler7parfor_IZNS_8internal11count_sort_INS_26uninitialized_relocate_tagEmPNSt3__14pairIllEES8_NS_16delayed_sequenceImmZNS2_14integer_sort_rINS5_17integral_constantIbLb0EEES4_S8_S8_S8_NS2_7get_keyMUlOT_E_EEENS_8sequenceImNS_9allocatorImEELb0EEENS_5sliceIT1_SL_EENSK_IT2_SN_EENSK_IT3_SP_EERKT4_mmfEUlmE_E8iteratorEEENS6_ISJ_bEESM_SO_SQ_mfbEUlmE0_EEvRNS_9schedulerINS_15WorkStealingJobEEEmmRSD_mb, symObjAddr: 0x87740, symBinAddr: 0x10008A3EC, symSize: 0x63C }
  - { offset: 0x14BE6B, size: 0x8, addend: 0x0, symName: __ZN6parlay19fork_join_scheduler7parfor_IZNS_8internal11count_sort_INS_26uninitialized_relocate_tagEmPNSt3__14pairIllEES8_NS_16delayed_sequenceImmZNS2_14integer_sort_rINS5_17integral_constantIbLb0EEES4_S8_S8_S8_NS2_7get_keyMUlOT_E_EEENS_8sequenceImNS_9allocatorImEELb0EEENS_5sliceIT1_SL_EENSK_IT2_SN_EENSK_IT3_SP_EERKT4_mmfEUlmE_E8iteratorEEENS6_ISJ_bEESM_SO_SQ_mfbEUlmE1_EEvRNS_9schedulerINS_15WorkStealingJobEEEmmRSD_mb, symObjAddr: 0x8711C, symBinAddr: 0x100089DC8, symSize: 0x5F8 }
  - { offset: 0x14D398, size: 0x8, addend: 0x0, symName: __ZN6parlay19fork_join_scheduler7parfor_IZNS_8internal11count_sort_INS_26uninitialized_relocate_tagEjPNSt3__14pairIllEES8_NS_16delayed_sequenceImmZNS2_14integer_sort_rINS5_17integral_constantIbLb0EEES4_S8_S8_S8_NS2_7get_keyMUlOT_E_EEENS_8sequenceImNS_9allocatorImEELb0EEENS_5sliceIT1_SL_EENSK_IT2_SN_EENSK_IT3_SP_EERKT4_mmfEUlmE0_E8iteratorEEENS6_ISJ_bEESM_SO_SQ_mfbEUlmE_EEvRNS_9schedulerINS_15WorkStealingJobEEEmmRSD_mb, symObjAddr: 0x860FC, symBinAddr: 0x100088DA8, symSize: 0x60C }
  - { offset: 0x14E7B3, size: 0x8, addend: 0x0, symName: __ZN6parlay19fork_join_scheduler7parfor_IZNS_8internal11count_sort_INS_26uninitialized_relocate_tagEjPNSt3__14pairIllEES8_NS_16delayed_sequenceImmZNS2_14integer_sort_rINS5_17integral_constantIbLb0EEES4_S8_S8_S8_NS2_7get_keyMUlOT_E_EEENS_8sequenceImNS_9allocatorImEELb0EEENS_5sliceIT1_SL_EENSK_IT2_SN_EENSK_IT3_SP_EERKT4_mmfEUlmE0_E8iteratorEEENS6_ISJ_bEESM_SO_SQ_mfbEUlmE0_EEvRNS_9schedulerINS_15WorkStealingJobEEEmmRSD_mb, symObjAddr: 0x858C8, symBinAddr: 0x100088574, symSize: 0x66C }
  - { offset: 0x14F9BA, size: 0x8, addend: 0x0, symName: __ZN6parlay19fork_join_scheduler7parfor_IZNS_8internal11count_sort_INS_26uninitialized_relocate_tagEjPNSt3__14pairIllEES8_NS_16delayed_sequenceImmZNS2_14integer_sort_rINS5_17integral_constantIbLb0EEES4_S8_S8_S8_NS2_7get_keyMUlOT_E_EEENS_8sequenceImNS_9allocatorImEELb0EEENS_5sliceIT1_SL_EENSK_IT2_SN_EENSK_IT3_SP_EERKT4_mmfEUlmE0_E8iteratorEEENS6_ISJ_bEESM_SO_SQ_mfbEUlmE1_EEvRNS_9schedulerINS_15WorkStealingJobEEEmmRSD_mb, symObjAddr: 0x852A4, symBinAddr: 0x100087F50, symSize: 0x5F8 }
  - { offset: 0x150DD3, size: 0x8, addend: 0x0, symName: __ZN6parlay19fork_join_scheduler7parfor_IZNS_8internal11count_sort_INS_26uninitialized_relocate_tagEjPNSt3__14pairIllEES8_NS_16delayed_sequenceImmZNS2_14integer_sort_rINS5_17integral_constantIbLb0EEES4_S8_S8_S8_NS2_7get_keyMUlOT_E_EEENS_8sequenceImNS_9allocatorImEELb0EEENS_5sliceIT1_SL_EENSK_IT2_SN_EENSK_IT3_SP_EERKT4_mmfEUlmE0_E8iteratorEEENS6_ISJ_bEESM_SO_SQ_mfbEUlmE2_EEvRNS_9schedulerINS_15WorkStealingJobEEEmmRSD_mb, symObjAddr: 0x84C6C, symBinAddr: 0x100087918, symSize: 0x60C }
  - { offset: 0x1521AC, size: 0x8, addend: 0x0, symName: __ZN6parlay19fork_join_scheduler7parfor_IZNS_8internal11count_sort_INS_26uninitialized_relocate_tagEmPNSt3__14pairIllEES8_NS_16delayed_sequenceImmZNS2_14integer_sort_rINS5_17integral_constantIbLb0EEES4_S8_S8_S8_NS2_7get_keyMUlOT_E_EEENS_8sequenceImNS_9allocatorImEELb0EEENS_5sliceIT1_SL_EENSK_IT2_SN_EENSK_IT3_SP_EERKT4_mmfEUlmE0_E8iteratorEEENS6_ISJ_bEESM_SO_SQ_mfbEUlmE_EEvRNS_9schedulerINS_15WorkStealingJobEEEmmRSD_mb, symObjAddr: 0x84634, symBinAddr: 0x1000872E0, symSize: 0x60C }
  - { offset: 0x1535C7, size: 0x8, addend: 0x0, symName: __ZN6parlay19fork_join_scheduler7parfor_IZNS_8internal11count_sort_INS_26uninitialized_relocate_tagEmPNSt3__14pairIllEES8_NS_16delayed_sequenceImmZNS2_14integer_sort_rINS5_17integral_constantIbLb0EEES4_S8_S8_S8_NS2_7get_keyMUlOT_E_EEENS_8sequenceImNS_9allocatorImEELb0EEENS_5sliceIT1_SL_EENSK_IT2_SN_EENSK_IT3_SP_EERKT4_mmfEUlmE0_E8iteratorEEENS6_ISJ_bEESM_SO_SQ_mfbEUlmE0_EEvRNS_9schedulerINS_15WorkStealingJobEEEmmRSD_mb, symObjAddr: 0x83E20, symBinAddr: 0x100086ACC, symSize: 0x63C }
  - { offset: 0x1547CE, size: 0x8, addend: 0x0, symName: __ZN6parlay19fork_join_scheduler7parfor_IZNS_8internal11count_sort_INS_26uninitialized_relocate_tagEmPNSt3__14pairIllEES8_NS_16delayed_sequenceImmZNS2_14integer_sort_rINS5_17integral_constantIbLb0EEES4_S8_S8_S8_NS2_7get_keyMUlOT_E_EEENS_8sequenceImNS_9allocatorImEELb0EEENS_5sliceIT1_SL_EENSK_IT2_SN_EENSK_IT3_SP_EERKT4_mmfEUlmE0_E8iteratorEEENS6_ISJ_bEESM_SO_SQ_mfbEUlmE1_EEvRNS_9schedulerINS_15WorkStealingJobEEEmmRSD_mb, symObjAddr: 0x837FC, symBinAddr: 0x1000864A8, symSize: 0x5F8 }
  - { offset: 0x155BE7, size: 0x8, addend: 0x0, symName: __ZN6parlay19fork_join_scheduler7parfor_IZNS_8internal11count_sort_INS_26uninitialized_relocate_tagEmPNSt3__14pairIllEES8_NS_16delayed_sequenceImmZNS2_14integer_sort_rINS5_17integral_constantIbLb0EEES4_S8_S8_S8_NS2_7get_keyMUlOT_E_EEENS_8sequenceImNS_9allocatorImEELb0EEENS_5sliceIT1_SL_EENSK_IT2_SN_EENSK_IT3_SP_EERKT4_mmfEUlmE0_E8iteratorEEENS6_ISJ_bEESM_SO_SQ_mfbEUlmE2_EEvRNS_9schedulerINS_15WorkStealingJobEEEmmRSD_mb, symObjAddr: 0x831C4, symBinAddr: 0x100085E70, symSize: 0x60C }
  - { offset: 0x15732E, size: 0x8, addend: 0x0, symName: __ZN6parlay19fork_join_scheduler7parfor_IZNS_8sequenceINS_5sliceINS_16delayed_sequenceImmZNS_14group_by_indexImRNS2_INSt3__14pairIllEENS_9allocatorIS8_EELb0EEEEEDaOT0_T_EUlmE_E8iteratorESJ_EENS9_ISK_EELb0EEC1IZNS_13block_delayed14make_iteratorsISI_EESD_RKSG_EUlmE_EEmOSG_NSM_18_from_function_tagEmEUlmE_EEvRNS_9schedulerINS_15WorkStealingJobEEEmmRSG_mb, symObjAddr: 0x757F4, symBinAddr: 0x1000784A0, symSize: 0x5DC }
  - { offset: 0x1587D9, size: 0x8, addend: 0x0, symName: __ZN6parlay19fork_join_scheduler7parfor_IZNS_17sequence_internal13sequence_baseINS_8sequenceImNS_9allocatorImEELb0EEENS5_IS7_EELb0EE12storage_impl11destroy_allEvEUlmE_EEvRNS_9schedulerINS_15WorkStealingJobEEEmmRT_mb, symObjAddr: 0x72BA4, symBinAddr: 0x100075974, symSize: 0x594 }
  - { offset: 0x159B60, size: 0x8, addend: 0x0, symName: __ZN6parlay19fork_join_scheduler7parfor_IZNS_8sequenceINS2_ImNS_9allocatorImEELb0EEENS3_IS5_EELb0EEC1IZNS_13block_delayed10filter_mapINS_16delayed_sequenceImmZNS_14group_by_indexImRNS2_INSt3__14pairIllEENS3_ISF_EELb0EEEEEDaOT0_T_EUlmE_EEZNSC_ImSI_EESJ_SL_SM_EUlmE0_ZNS9_6filterISO_SP_EESJ_RKSM_RKSK_EUlSM_E_EESJ_SM_SU_RKT1_EUlmE_EEmOSM_NS7_18_from_function_tagEmEUlmE_EEvRNS_9schedulerINS_15WorkStealingJobEEEmmRSM_mb, symObjAddr: 0x750B8, symBinAddr: 0x100077E88, symSize: 0x5BC }
  - { offset: 0x15B033, size: 0x8, addend: 0x0, symName: __ZN6parlay19fork_join_scheduler7parfor_IZNS_8internal10sliced_forIZNS2_5scan_INS_8sequenceImNS_9allocatorImEELb0EEENS_5sliceIPmSA_EENS_4plusImEEEEDaRKT_T0_OT1_jbEUlmmmE_EEvmmSH_jEUlmE_EEvRNS_9schedulerINS_15WorkStealingJobEEEmmRSF_mb, symObjAddr: 0x73F08, symBinAddr: 0x100076CD8, symSize: 0x684 }
  - { offset: 0x15C2F5, size: 0x8, addend: 0x0, symName: __ZN6parlay19fork_join_scheduler7parfor_IZNS_8internal10sliced_forIZNS2_5scan_INS_8sequenceImNS_9allocatorImEELb0EEENS_5sliceIPmSA_EENS_4plusImEEEEDaRKT_T0_OT1_jbEUlmmmE0_EEvmmSH_jEUlmE_EEvRNS_9schedulerINS_15WorkStealingJobEEEmmRSF_mb, symObjAddr: 0x73760, symBinAddr: 0x100076530, symSize: 0x77C }
  - { offset: 0x15D5FF, size: 0x8, addend: 0x0, symName: __ZN6parlay19fork_join_scheduler7parfor_IZNS_13block_delayed10filter_mapINS_16delayed_sequenceImmZNS_14group_by_indexImRNS_8sequenceINSt3__14pairIllEENS_9allocatorIS9_EELb0EEEEEDaOT0_T_EUlmE_EEZNS5_ImSD_EESE_SG_SH_EUlmE0_ZNS2_6filterISJ_SK_EESE_RKSH_RKSF_EUlSH_E_EESE_SH_SP_RKT1_EUlmE0_EEvRNS_9schedulerINS_15WorkStealingJobEEEmmRSH_mb, symObjAddr: 0x73164, symBinAddr: 0x100075F34, symSize: 0x5D0 }
  - { offset: 0x15E8CC, size: 0x8, addend: 0x0, symName: __ZN6parlay8sequenceIlNS_9allocatorIlEELb0EEC2IZNS_8internal3mapINS_5sliceIPNSt3__14pairIllEESB_EEZZNS_14group_by_indexImRNS0_ISA_NS1_ISA_EELb0EEEEEDaOT0_T_ENKUlmE1_clEmEUlSK_E_EESH_OSK_SJ_mEUlmE_EEmSN_NS3_18_from_function_tagEm, symObjAddr: 0x7015C, symBinAddr: 0x100072F2C, symSize: 0x3B4 }
  - { offset: 0x15F02B, size: 0x8, addend: 0x0, symName: __ZN6parlay19fork_join_scheduler7parfor_IZNS_14group_by_indexImRNS_8sequenceINSt3__14pairIllEENS_9allocatorIS6_EELb0EEEEEDaOT0_T_EUlmE1_EEvRNS_9schedulerINS_15WorkStealingJobEEEmmRSE_mb, symObjAddr: 0x70510, symBinAddr: 0x1000732E0, symSize: 0x6C8 }
  - { offset: 0x16084E, size: 0x8, addend: 0x0, symName: __ZZN11graph_utilsIlE10symmetrizeERKN6parlay8sequenceINS2_IlNS1_9allocatorIlEELb0EEENS3_IS5_EELb0EEEENKUllE_clEl, symObjAddr: 0x61E70, symBinAddr: 0x100064C40, symSize: 0xB3C }
  - { offset: 0x1629EA, size: 0x8, addend: 0x0, symName: __ZN6parlay19fork_join_scheduler7parfor_IZNS_8internal10sliced_forIZNS2_10filter_mapINS_5sliceIPlS6_EEZZN11graph_utilsIlE10symmetrizeERKNS_8sequenceINSA_IlNS_9allocatorIlEELb0EEENSB_ISD_EELb0EEEENKUllE_clElEUlT_E_RZNS2_6filterIS7_SK_EENSA_INSJ_10value_typeENSB_ISM_EEXsr3std7is_sameISM_cEE5valueEEERKSJ_OT0_EUlOSJ_E_EEDaSQ_SS_OT1_EUlmmmE_EEvmmSQ_jEUlmE_EEvRNS_9schedulerINS_15WorkStealingJobEEEmmRSJ_mb, symObjAddr: 0x66D7C, symBinAddr: 0x100069B4C, symSize: 0x820 }
  - { offset: 0x163D19, size: 0x8, addend: 0x0, symName: __ZN6parlay19fork_join_scheduler7parfor_IZNS_8internal10sliced_forIZNS2_10filter_mapINS_5sliceIPlS6_EEZZN11graph_utilsIlE10symmetrizeERKNS_8sequenceINSA_IlNS_9allocatorIlEELb0EEENSB_ISD_EELb0EEEENKUllE_clElEUlT_E_RZNS2_6filterIS7_SK_EENSA_INSJ_10value_typeENSB_ISM_EEXsr3std7is_sameISM_cEE5valueEEERKSJ_OT0_EUlOSJ_E_EEDaSQ_SS_OT1_EUlmmmE0_EEvmmSQ_jEUlmE_EEvRNS_9schedulerINS_15WorkStealingJobEEEmmRSJ_mb, symObjAddr: 0x666E8, symBinAddr: 0x1000694B8, symSize: 0x668 }
  - { offset: 0x16572E, size: 0x8, addend: 0x0, symName: __ZN6parlay19fork_join_scheduler7parfor_IZNS_8internal11count_sort_INS_26uninitialized_relocate_tagEjPlS5_NS_16delayed_sequenceImmZNS2_22collect_reduce_sparse_IS4_NS_5sliceIS5_S5_EENS_24remove_duplicates_helperIlNS_4hashIlvEENSt3__18equal_toIvEEEEEEDaT0_RKT1_EUlmE_E8iteratorEEENSD_4pairINS_8sequenceImNS_9allocatorImEELb0EEEbEENS8_ISJ_SJ_EENS8_IT2_SW_EENS8_IT3_SY_EEmfbEUlmE_EEvRNS_9schedulerINS_15WorkStealingJobEEEmmRT_mb, symObjAddr: 0x6D7AC, symBinAddr: 0x10007057C, symSize: 0x60C }
  - { offset: 0x166B49, size: 0x8, addend: 0x0, symName: __ZN6parlay19fork_join_scheduler7parfor_IZNS_8internal11count_sort_INS_26uninitialized_relocate_tagEjPlS5_NS_16delayed_sequenceImmZNS2_22collect_reduce_sparse_IS4_NS_5sliceIS5_S5_EENS_24remove_duplicates_helperIlNS_4hashIlvEENSt3__18equal_toIvEEEEEEDaT0_RKT1_EUlmE_E8iteratorEEENSD_4pairINS_8sequenceImNS_9allocatorImEELb0EEEbEENS8_ISJ_SJ_EENS8_IT2_SW_EENS8_IT3_SY_EEmfbEUlmE0_EEvRNS_9schedulerINS_15WorkStealingJobEEEmmRT_mb, symObjAddr: 0x6CEC4, symBinAddr: 0x10006FC94, symSize: 0x66C }
  - { offset: 0x167D50, size: 0x8, addend: 0x0, symName: __ZN6parlay19fork_join_scheduler7parfor_IZNS_8internal11count_sort_INS_26uninitialized_relocate_tagEjPlS5_NS_16delayed_sequenceImmZNS2_22collect_reduce_sparse_IS4_NS_5sliceIS5_S5_EENS_24remove_duplicates_helperIlNS_4hashIlvEENSt3__18equal_toIvEEEEEEDaT0_RKT1_EUlmE_E8iteratorEEENSD_4pairINS_8sequenceImNS_9allocatorImEELb0EEEbEENS8_ISJ_SJ_EENS8_IT2_SW_EENS8_IT3_SY_EEmfbEUlmE1_EEvRNS_9schedulerINS_15WorkStealingJobEEEmmRT_mb, symObjAddr: 0x6C8A0, symBinAddr: 0x10006F670, symSize: 0x5F8 }
  - { offset: 0x169169, size: 0x8, addend: 0x0, symName: __ZN6parlay19fork_join_scheduler7parfor_IZNS_8internal11count_sort_INS_26uninitialized_relocate_tagEjPlS5_NS_16delayed_sequenceImmZNS2_22collect_reduce_sparse_IS4_NS_5sliceIS5_S5_EENS_24remove_duplicates_helperIlNS_4hashIlvEENSt3__18equal_toIvEEEEEEDaT0_RKT1_EUlmE_E8iteratorEEENSD_4pairINS_8sequenceImNS_9allocatorImEELb0EEEbEENS8_ISJ_SJ_EENS8_IT2_SW_EENS8_IT3_SY_EEmfbEUlmE2_EEvRNS_9schedulerINS_15WorkStealingJobEEEmmRT_mb, symObjAddr: 0x6C268, symBinAddr: 0x10006F038, symSize: 0x60C }
  - { offset: 0x16A542, size: 0x8, addend: 0x0, symName: __ZN6parlay19fork_join_scheduler7parfor_IZNS_8internal11count_sort_INS_26uninitialized_relocate_tagEmPlS5_NS_16delayed_sequenceImmZNS2_22collect_reduce_sparse_IS4_NS_5sliceIS5_S5_EENS_24remove_duplicates_helperIlNS_4hashIlvEENSt3__18equal_toIvEEEEEEDaT0_RKT1_EUlmE_E8iteratorEEENSD_4pairINS_8sequenceImNS_9allocatorImEELb0EEEbEENS8_ISJ_SJ_EENS8_IT2_SW_EENS8_IT3_SY_EEmfbEUlmE_EEvRNS_9schedulerINS_15WorkStealingJobEEEmmRT_mb, symObjAddr: 0x6BAAC, symBinAddr: 0x10006E87C, symSize: 0x60C }
  - { offset: 0x16B95D, size: 0x8, addend: 0x0, symName: __ZN6parlay19fork_join_scheduler7parfor_IZNS_8internal11count_sort_INS_26uninitialized_relocate_tagEmPlS5_NS_16delayed_sequenceImmZNS2_22collect_reduce_sparse_IS4_NS_5sliceIS5_S5_EENS_24remove_duplicates_helperIlNS_4hashIlvEENSt3__18equal_toIvEEEEEEDaT0_RKT1_EUlmE_E8iteratorEEENSD_4pairINS_8sequenceImNS_9allocatorImEELb0EEEbEENS8_ISJ_SJ_EENS8_IT2_SW_EENS8_IT3_SY_EEmfbEUlmE0_EEvRNS_9schedulerINS_15WorkStealingJobEEEmmRT_mb, symObjAddr: 0x6B22C, symBinAddr: 0x10006DFFC, symSize: 0x63C }
  - { offset: 0x16CB64, size: 0x8, addend: 0x0, symName: __ZN6parlay19fork_join_scheduler7parfor_IZNS_8internal11count_sort_INS_26uninitialized_relocate_tagEmPlS5_NS_16delayed_sequenceImmZNS2_22collect_reduce_sparse_IS4_NS_5sliceIS5_S5_EENS_24remove_duplicates_helperIlNS_4hashIlvEENSt3__18equal_toIvEEEEEEDaT0_RKT1_EUlmE_E8iteratorEEENSD_4pairINS_8sequenceImNS_9allocatorImEELb0EEEbEENS8_ISJ_SJ_EENS8_IT2_SW_EENS8_IT3_SY_EEmfbEUlmE1_EEvRNS_9schedulerINS_15WorkStealingJobEEEmmRT_mb, symObjAddr: 0x6AC08, symBinAddr: 0x10006D9D8, symSize: 0x5F8 }
  - { offset: 0x16DF7D, size: 0x8, addend: 0x0, symName: __ZN6parlay19fork_join_scheduler7parfor_IZNS_8internal11count_sort_INS_26uninitialized_relocate_tagEmPlS5_NS_16delayed_sequenceImmZNS2_22collect_reduce_sparse_IS4_NS_5sliceIS5_S5_EENS_24remove_duplicates_helperIlNS_4hashIlvEENSt3__18equal_toIvEEEEEEDaT0_RKT1_EUlmE_E8iteratorEEENSD_4pairINS_8sequenceImNS_9allocatorImEELb0EEEbEENS8_ISJ_SJ_EENS8_IT2_SW_EENS8_IT3_SY_EEmfbEUlmE2_EEvRNS_9schedulerINS_15WorkStealingJobEEEmmRT_mb, symObjAddr: 0x6A5D0, symBinAddr: 0x10006D3A0, symSize: 0x60C }
  - { offset: 0x16F462, size: 0x8, addend: 0x0, symName: __ZN6parlay19fork_join_scheduler7parfor_IZNS_8sequenceINS2_IlNS_9allocatorIlEELb0EEENS3_IS5_EELb0EEC1IZNS_8internal22collect_reduce_sparse_INS_26uninitialized_relocate_tagENS_5sliceIPlSD_EENS_24remove_duplicates_helperIlNS_4hashIlvEENSt3__18equal_toIvEEEEEEDaT0_RKT1_EUlmE0_EEmOT_NS7_18_from_function_tagEmEUlmE_EEvRNS_9schedulerINS_15WorkStealingJobEEEmmRSS_mb, symObjAddr: 0x69B3C, symBinAddr: 0x10006C90C, symSize: 0x604 }
  - { offset: 0x170B6D, size: 0x8, addend: 0x0, symName: __ZN6parlay19fork_join_scheduler7parfor_IZNS_7flattenIlEEDaONS_8sequenceINS4_IT_NS_9allocatorIS5_EEXsr3std7is_sameIS5_cEE5valueEEENS6_IS8_EEXsr3std7is_sameIS8_cEE5valueEEEEUlmE0_EEvRNS_9schedulerINS_15WorkStealingJobEEEmmRS5_mb, symObjAddr: 0x681D0, symBinAddr: 0x10006AFA0, symSize: 0x618 }
  - { offset: 0x1720E2, size: 0x8, addend: 0x0, symName: __ZN6parlay19fork_join_scheduler7parfor_IZNS_8sequenceIlNS_9allocatorIlEELb0EEC1IZNS_6appendIRS5_RKS5_EEDaOT_OT0_EUlmE_EEmSD_NS5_18_from_function_tagEmEUlmE_EEvRNS_9schedulerINS_15WorkStealingJobEEEmmRSC_mb, symObjAddr: 0x6FB88, symBinAddr: 0x100072958, symSize: 0x5A8 }
  - { offset: 0x17338B, size: 0x8, addend: 0x0, symName: __ZN6parlay19fork_join_scheduler7parfor_IZNS_8sequenceINS2_IlNS_9allocatorIlEELb0EEENS3_IS5_EELb0EEC1IZN11graph_utilsIlE10symmetrizeERKS7_EUllE_EEmOT_NS7_18_from_function_tagEmEUlmE_EEvRNS_9schedulerINS_15WorkStealingJobEEEmmRSE_mb, symObjAddr: 0x629AC, symBinAddr: 0x10006577C, symSize: 0x5A8 }
  - { offset: 0x174773, size: 0x8, addend: 0x0, symName: __ZN6parlay17sequence_internal13sequence_baseIlNS_9allocatorIlEELb0EE12storage_implC2ERKS5_, symObjAddr: 0xAEC0, symBinAddr: 0x10000DED8, symSize: 0x2CC }
  - { offset: 0x174E11, size: 0x8, addend: 0x0, symName: __Z20create_base_clustersIldEvRN6parlay8sequenceINS1_IT_NS0_9allocatorIS2_EEXsr3std7is_sameIS2_cEE5valueEEENS3_IS5_EEXsr3std7is_sameIS5_cEE5valueEEERNS1_I7clusterIS2_T0_ENS3_ISB_EEXsr3std7is_sameISB_cEE5valueEEES2_SA_, symObjAddr: 0xEFA4, symBinAddr: 0x100011FBC, symSize: 0x47C8 }
  - { offset: 0x17CA61, size: 0x8, addend: 0x0, symName: __ZN6parlay19fork_join_scheduler7parfor_IZ20create_base_clustersIldEvRNS_8sequenceINS3_IT_NS_9allocatorIS4_EEXsr3std7is_sameIS4_cEE5valueEEENS5_IS7_EEXsr3std7is_sameIS7_cEE5valueEEERNS3_I7clusterIS4_T0_ENS5_ISD_EEXsr3std7is_sameISD_cEE5valueEEES4_SC_EUllE0_EEvRNS_9schedulerINS_15WorkStealingJobEEEmmRS4_mb, symObjAddr: 0x5BC90, symBinAddr: 0x10005EA60, symSize: 0x5F8 }
  - { offset: 0x17E26A, size: 0x8, addend: 0x0, symName: __Z20recreate_last_levelsIldEvRN6parlay8sequenceIP4nodeIT_T0_ENS0_9allocatorIS6_EEXsr3std7is_sameIS6_cEE5valueEEE, symObjAddr: 0x503C4, symBinAddr: 0x100053194, symSize: 0x688 }
  - { offset: 0x17F10E, size: 0x8, addend: 0x0, symName: __ZN6parlay19fork_join_scheduler7parfor_IZNS_8internal10sliced_forIZNS2_10filter_mapINS_5sliceIPP4nodeIldES9_EEZ14create_RC_treeIldEvRNS_8sequenceI7clusterIT_T0_ENS_9allocatorISG_EEXsr3std7is_sameISG_cEE5valueEEESE_bSF_EUlSE_E_RZNS2_6filterISA_SL_EENSC_INSE_10value_typeENSH_ISN_EEXsr3std7is_sameISN_cEE5valueEEERKSE_OSF_EUlOSE_E_EEDaSR_SS_OT1_EUlmmmE_EEvmmSR_jEUlmE_EEvRNS_9schedulerINS_15WorkStealingJobEEEmmRSE_mb, symObjAddr: 0x539F4, symBinAddr: 0x1000567C4, symSize: 0x660 }
  - { offset: 0x1804A5, size: 0x8, addend: 0x0, symName: __ZN6parlay19fork_join_scheduler7parfor_IZNS_8internal10sliced_forIZNS2_10filter_mapINS_5sliceIPP4nodeIldES9_EEZ14create_RC_treeIldEvRNS_8sequenceI7clusterIT_T0_ENS_9allocatorISG_EEXsr3std7is_sameISG_cEE5valueEEESE_bSF_EUlSE_E_RZNS2_6filterISA_SL_EENSC_INSE_10value_typeENSH_ISN_EEXsr3std7is_sameISN_cEE5valueEEERKSE_OSF_EUlOSE_E_EEDaSR_SS_OT1_EUlmmmE0_EEvmmSR_jEUlmE_EEvRNS_9schedulerINS_15WorkStealingJobEEEmmRSE_mb, symObjAddr: 0x53360, symBinAddr: 0x100056130, symSize: 0x668 }
  - { offset: 0x181C17, size: 0x8, addend: 0x0, symName: __Z7set_MISIldEvRN6parlay8sequenceIP4nodeIT_T0_ENS0_9allocatorIS6_EEXsr3std7is_sameIS6_cEE5valueEEEb, symObjAddr: 0x310B0, symBinAddr: 0x100033FA4, symSize: 0x219C }
  - { offset: 0x186DC9, size: 0x8, addend: 0x0, symName: __ZN6parlay17sequence_internal13sequence_baseIP4nodeIldENS_9allocatorIS4_EELb0EE12storage_implC2ERKS8_, symObjAddr: 0x35000, symBinAddr: 0x100037EF4, symSize: 0x26C }
  - { offset: 0x187450, size: 0x8, addend: 0x0, symName: __ZN6parlay19fork_join_scheduler7parfor_IZ7set_MISIldEvRNS_8sequenceIP4nodeIT_T0_ENS_9allocatorIS8_EEXsr3std7is_sameIS8_cEE5valueEEEbEUllE0_EEvRNS_9schedulerINS_15WorkStealingJobEEEmmRS5_mb, symObjAddr: 0x3CA98, symBinAddr: 0x10003F978, symSize: 0x5B8 }
  - { offset: 0x188C13, size: 0x8, addend: 0x0, symName: __ZN6parlay19fork_join_scheduler7parfor_IZNS_8sequenceImNS_9allocatorImEELb0EEC1IZ13counting_sortIPlS8_S8_ES5_RKT_SB_T0_RKT1_lEUllE1_EEmOS9_NS5_18_from_function_tagEmEUlmE_EEvRNS_9schedulerINS_15WorkStealingJobEEEmmRS9_mb, symObjAddr: 0x3B238, symBinAddr: 0x10003E12C, symSize: 0x5A8 }
  - { offset: 0x189F07, size: 0x8, addend: 0x0, symName: __ZN6parlay19fork_join_scheduler7parfor_IZ7set_MISIldEvRNS_8sequenceIP4nodeIT_T0_ENS_9allocatorIS8_EEXsr3std7is_sameIS8_cEE5valueEEEbEUllE3_EEvRNS_9schedulerINS_15WorkStealingJobEEEmmRS5_mb, symObjAddr: 0x39B50, symBinAddr: 0x10003CA44, symSize: 0x5EC }
  - { offset: 0x18B224, size: 0x8, addend: 0x0, symName: __ZN6parlay19fork_join_scheduler7parfor_IZNS_8internal10sliced_forIZNS2_10filter_mapINS_5sliceIPP4nodeIldES9_EEZ14create_RC_treeIldEvRNS_8sequenceI7clusterIT_T0_ENS_9allocatorISG_EEXsr3std7is_sameISG_cEE5valueEEESE_bSF_EUlSE_E0_RZNS2_6filterISA_SL_EENSC_INSE_10value_typeENSH_ISN_EEXsr3std7is_sameISN_cEE5valueEEERKSE_OSF_EUlOSE_E_EEDaSR_SS_OT1_EUlmmmE_EEvmmSR_jEUlmE_EEvRNS_9schedulerINS_15WorkStealingJobEEEmmRSE_mb, symObjAddr: 0x52C84, symBinAddr: 0x100055A54, symSize: 0x6B0 }
  - { offset: 0x18C54D, size: 0x8, addend: 0x0, symName: __ZN6parlay19fork_join_scheduler7parfor_IZNS_8internal10sliced_forIZNS2_10filter_mapINS_5sliceIPP4nodeIldES9_EEZ14create_RC_treeIldEvRNS_8sequenceI7clusterIT_T0_ENS_9allocatorISG_EEXsr3std7is_sameISG_cEE5valueEEESE_bSF_EUlSE_E0_RZNS2_6filterISA_SL_EENSC_INSE_10value_typeENSH_ISN_EEXsr3std7is_sameISN_cEE5valueEEERKSE_OSF_EUlOSE_E_EEDaSR_SS_OT1_EUlmmmE0_EEvmmSR_jEUlmE_EEvRNS_9schedulerINS_15WorkStealingJobEEEmmRSE_mb, symObjAddr: 0x525F0, symBinAddr: 0x1000553C0, symSize: 0x668 }
  - { offset: 0x18DC53, size: 0x8, addend: 0x0, symName: __ZN6parlay19fork_join_scheduler7parfor_IZ14create_RC_treeIldEvRNS_8sequenceI7clusterIT_T0_ENS_9allocatorIS7_EEXsr3std7is_sameIS7_cEE5valueEEES5_bS6_EUllE0_EEvRNS_9schedulerINS_15WorkStealingJobEEEmmRS5_mb, symObjAddr: 0x517B0, symBinAddr: 0x100054580, symSize: 0x594 }
  - { offset: 0x18EF0E, size: 0x8, addend: 0x0, symName: __ZN6parlay19fork_join_scheduler7parfor_IZNS_8internal10sliced_forIZNS2_10filter_mapINS_5sliceIPP4nodeIldES9_EEZ14create_RC_treeIldEvRNS_8sequenceI7clusterIT_T0_ENS_9allocatorISG_EEXsr3std7is_sameISG_cEE5valueEEESE_bSF_EUlSE_E1_RZNS2_6filterISA_SL_EENSC_INSE_10value_typeENSH_ISN_EEXsr3std7is_sameISN_cEE5valueEEERKSE_OSF_EUlOSE_E_EEDaSR_SS_OT1_EUlmmmE_EEvmmSR_jEUlmE_EEvRNS_9schedulerINS_15WorkStealingJobEEEmmRSE_mb, symObjAddr: 0x510E0, symBinAddr: 0x100053EB0, symSize: 0x6A4 }
  - { offset: 0x190220, size: 0x8, addend: 0x0, symName: __ZN6parlay19fork_join_scheduler7parfor_IZNS_8internal10sliced_forIZNS2_10filter_mapINS_5sliceIPP4nodeIldES9_EEZ14create_RC_treeIldEvRNS_8sequenceI7clusterIT_T0_ENS_9allocatorISG_EEXsr3std7is_sameISG_cEE5valueEEESE_bSF_EUlSE_E1_RZNS2_6filterISA_SL_EENSC_INSE_10value_typeENSH_ISN_EEXsr3std7is_sameISN_cEE5valueEEERKSE_OSF_EUlOSE_E_EEDaSR_SS_OT1_EUlmmmE0_EEvmmSR_jEUlmE_EEvRNS_9schedulerINS_15WorkStealingJobEEEmmRSE_mb, symObjAddr: 0x50A4C, symBinAddr: 0x10005381C, symSize: 0x668 }
  - { offset: 0x191A79, size: 0x8, addend: 0x0, symName: __ZN6parlay19fork_join_scheduler7parfor_IZNS_8internal10sliced_forIZNS2_10filter_mapINS_5sliceIPNSt3__14pairIllEES9_EEZN7TreeGenIldE19generateDeleteEdgesEdEUlS8_E_RZNS2_6filterISA_SD_EENS_8sequenceINT_10value_typeENS_9allocatorISH_EEXsr3std7is_sameISH_cEE5valueEEERKSG_OT0_EUlOSG_E_EEDaSM_SO_OT1_EUlmmmE_EEvmmSM_jEUlmE_EEvRNS_9schedulerINS_15WorkStealingJobEEEmmRSG_mb, symObjAddr: 0x4D990, symBinAddr: 0x100050760, symSize: 0x86C }
  - { offset: 0x192DB0, size: 0x8, addend: 0x0, symName: __ZN6parlay19fork_join_scheduler7parfor_IZNS_8internal10sliced_forIZNS2_10filter_mapINS_5sliceIPNSt3__14pairIllEES9_EEZN7TreeGenIldE19generateDeleteEdgesEdEUlS8_E_RZNS2_6filterISA_SD_EENS_8sequenceINT_10value_typeENS_9allocatorISH_EEXsr3std7is_sameISH_cEE5valueEEERKSG_OT0_EUlOSG_E_EEDaSM_SO_OT1_EUlmmmE0_EEvmmSM_jEUlmE_EEvRNS_9schedulerINS_15WorkStealingJobEEEmmRSG_mb, symObjAddr: 0x4D2FC, symBinAddr: 0x1000500CC, symSize: 0x668 }
  - { offset: 0x1944B9, size: 0x8, addend: 0x0, symName: __ZN6parlay19fork_join_scheduler7parfor_IZNS_8sequenceINSt3__15tupleIJlldEEENS_9allocatorIS5_EELb0EEC1IZN7TreeGenIldE16generateAddEdgesEdEUllE_EEmOT_NS8_18_from_function_tagEmEUlmE_EEvRNS_9schedulerINS_15WorkStealingJobEEEmmRSD_mb, symObjAddr: 0x4CA90, symBinAddr: 0x10004F860, symSize: 0x598 }
  - { offset: 0x19570C, size: 0x8, addend: 0x0, symName: __ZN6parlay19fork_join_scheduler7parfor_IZNS_8internal10sliced_forIZNS2_10filter_mapINS_5sliceIPNSt3__15tupleIJlldEEES9_EEZN7TreeGenIldE16generateAddEdgesEdEUlS8_E_RZNS2_6filterISA_SD_EENS_8sequenceINT_10value_typeENS_9allocatorISH_EEXsr3std7is_sameISH_cEE5valueEEERKSG_OT0_EUlOSG_E_EEDaSM_SO_OT1_EUlmmmE_EEvmmSM_jEUlmE_EEvRNS_9schedulerINS_15WorkStealingJobEEEmmRSG_mb, symObjAddr: 0x4BD64, symBinAddr: 0x10004EB34, symSize: 0x994 }
  - { offset: 0x196A48, size: 0x8, addend: 0x0, symName: __ZN6parlay19fork_join_scheduler7parfor_IZNS_8internal10sliced_forIZNS2_10filter_mapINS_5sliceIPNSt3__15tupleIJlldEEES9_EEZN7TreeGenIldE16generateAddEdgesEdEUlS8_E_RZNS2_6filterISA_SD_EENS_8sequenceINT_10value_typeENS_9allocatorISH_EEXsr3std7is_sameISH_cEE5valueEEERKSG_OT0_EUlOSG_E_EEDaSM_SO_OT1_EUlmmmE0_EEvmmSM_jEUlmE_EEvRNS_9schedulerINS_15WorkStealingJobEEEmmRSG_mb, symObjAddr: 0x4B6B4, symBinAddr: 0x10004E484, symSize: 0x684 }
  - { offset: 0x19833C, size: 0x8, addend: 0x0, symName: __ZN6parlay19fork_join_scheduler7parfor_IZNS_7flattenIP4nodeIldEEEDaONS_8sequenceINS7_IT_NS_9allocatorIS8_EEXsr3std7is_sameIS8_cEE5valueEEENS9_ISB_EEXsr3std7is_sameISB_cEE5valueEEEEUlmE0_EEvRNS_9schedulerINS_15WorkStealingJobEEEmmRS8_mb, symObjAddr: 0x4956C, symBinAddr: 0x10004C33C, symSize: 0x618 }
  - { offset: 0x199894, size: 0x8, addend: 0x0, symName: __ZN6parlay19fork_join_scheduler7parfor_IZNS_17sequence_internal13sequence_baseINS_8sequenceIP4nodeIldENS_9allocatorIS7_EELb0EEENS8_ISA_EELb0EE12storage_impl11destroy_allEvEUlmE_EEvRNS_9schedulerINS_15WorkStealingJobEEEmmRT_mb, symObjAddr: 0x4AF38, symBinAddr: 0x10004DD08, symSize: 0x594 }
  - { offset: 0x19ABFF, size: 0x8, addend: 0x0, symName: '__ZN6parlay19fork_join_scheduler7parfor_IZNS_8sequenceINS2_IP4nodeIldENS_9allocatorIS5_EELb0EEENS6_IS8_EELb0EEC1IZ15batchInsertEdgeIldZ4mainE3$_0EvRKNS2_INSt3__14pairIT_SG_EENS6_ISH_EEXsr3std7is_sameISH_cEE5valueEEERKNS2_INSE_5tupleIJSG_SG_T0_EEENS6_ISO_EEXsr3std7is_sameISO_cEE5valueEEERNS2_I7clusterISG_SN_ENS6_ISU_EEXsr3std7is_sameISU_cEE5valueEEESN_T1_EUllE_EEmOSG_NSA_18_from_function_tagEmEUlmE_EEvRNS_9schedulerINS_15WorkStealingJobEEEmmRSG_mb', symObjAddr: 0x24424, symBinAddr: 0x100027318, symSize: 0x574 }
  - { offset: 0x19BDDA, size: 0x8, addend: 0x0, symName: '__ZN6parlay19fork_join_scheduler7parfor_IZ15batchInsertEdgeIldZ4mainE3$_0EvRKNS_8sequenceINSt3__14pairIT_S7_EENS_9allocatorIS8_EEXsr3std7is_sameIS8_cEE5valueEEERKNS4_INS5_5tupleIJS7_S7_T0_EEENS9_ISG_EEXsr3std7is_sameISG_cEE5valueEEERNS4_I7clusterIS7_SF_ENS9_ISM_EEXsr3std7is_sameISM_cEE5valueEEESF_T1_EUllE0_EEvRNS_9schedulerINS_15WorkStealingJobEEEmmRS7_mb', symObjAddr: 0x268E4, symBinAddr: 0x1000297D8, symSize: 0x590 }
  - { offset: 0x19D06E, size: 0x8, addend: 0x0, symName: '__ZN6parlay19fork_join_scheduler7parfor_IZNS_8internal10sliced_forIZNS2_10filter_mapINS_5sliceIPP4nodeIldES9_EEZ15batchInsertEdgeIldZ4mainE3$_0EvRKNS_8sequenceINSt3__14pairIT_SG_EENS_9allocatorISH_EEXsr3std7is_sameISH_cEE5valueEEERKNSD_INSE_5tupleIJSG_SG_T0_EEENSI_ISP_EEXsr3std7is_sameISP_cEE5valueEEERNSD_I7clusterISG_SO_ENSI_ISV_EEXsr3std7is_sameISV_cEE5valueEEESO_T1_EUlSG_E_RZNS2_6filterISA_S10_EENSD_INSG_10value_typeENSI_IS12_EEXsr3std7is_sameIS12_cEE5valueEEERKSG_OSO_EUlOSG_E_EEDaS16_S17_OSZ_EUlmmmE_EEvmmS16_jEUlmE_EEvRNS_9schedulerINS_15WorkStealingJobEEEmmRSG_mb', symObjAddr: 0x274E0, symBinAddr: 0x10002A3D4, symSize: 0x634 }
  - { offset: 0x19E39B, size: 0x8, addend: 0x0, symName: '__ZN6parlay19fork_join_scheduler7parfor_IZNS_8internal10sliced_forIZNS2_10filter_mapINS_5sliceIPP4nodeIldES9_EEZ15batchInsertEdgeIldZ4mainE3$_0EvRKNS_8sequenceINSt3__14pairIT_SG_EENS_9allocatorISH_EEXsr3std7is_sameISH_cEE5valueEEERKNSD_INSE_5tupleIJSG_SG_T0_EEENSI_ISP_EEXsr3std7is_sameISP_cEE5valueEEERNSD_I7clusterISG_SO_ENSI_ISV_EEXsr3std7is_sameISV_cEE5valueEEESO_T1_EUlSG_E_RZNS2_6filterISA_S10_EENSD_INSG_10value_typeENSI_IS12_EEXsr3std7is_sameIS12_cEE5valueEEERKSG_OSO_EUlOSG_E_EEDaS16_S17_OSZ_EUlmmmE0_EEvmmS16_jEUlmE_EEvRNS_9schedulerINS_15WorkStealingJobEEEmmRSG_mb', symObjAddr: 0x28078, symBinAddr: 0x10002AF6C, symSize: 0x668 }
  - { offset: 0x19FA2B, size: 0x8, addend: 0x0, symName: __Z8get_3dp1IldEN6parlay8sequenceIP4nodeIT_T0_ENS0_9allocatorIS6_EEXsr3std7is_sameIS6_cEE5valueEEERS9_, symObjAddr: 0x286E0, symBinAddr: 0x10002B5D4, symSize: 0x15EC }
  - { offset: 0x1A3594, size: 0x8, addend: 0x0, symName: __ZN6parlay19fork_join_scheduler7parfor_IZNS_8sequenceINS2_IP4nodeIldENS_9allocatorIS5_EELb0EEENS6_IS8_EELb0EEC1IZ8get_3dp1IldENS2_IPS3_IT_T0_ENS6_ISG_EEXsr3std7is_sameISG_cEE5valueEEERSI_EUllE_EEmOSD_NSA_18_from_function_tagEmEUlmE_EEvRNS_9schedulerINS_15WorkStealingJobEEEmmRSD_mb, symObjAddr: 0x470EC, symBinAddr: 0x100049EBC, symSize: 0x5A4 }
  - { offset: 0x1A4915, size: 0x8, addend: 0x0, symName: __ZN6parlay19fork_join_scheduler7parfor_IZNS_8sequenceINS2_IP4nodeIldENS_9allocatorIS5_EELb0EEENS6_IS8_EELb0EEC1IZ8get_3dp1IldENS2_IPS3_IT_T0_ENS6_ISG_EEXsr3std7is_sameISG_cEE5valueEEERSI_EUllE0_EEmOSD_NSA_18_from_function_tagEmEUlmE_EEvRNS_9schedulerINS_15WorkStealingJobEEEmmRSD_mb, symObjAddr: 0x44828, symBinAddr: 0x100047708, symSize: 0x5A4 }
  - { offset: 0x1A5DBA, size: 0x8, addend: 0x0, symName: __ZN6parlay19fork_join_scheduler7parfor_IZNS_8internal10sliced_forIZNS2_10filter_mapINS_5sliceIPP4nodeIldES9_EEZ8tiebreakIldENS_8sequenceIPS6_IT_T0_ENS_9allocatorISG_EEXsr3std7is_sameISG_cEE5valueEEERSJ_EUlSD_E_RZNS2_6filterISA_SL_EENSC_INSD_10value_typeENSH_ISN_EEXsr3std7is_sameISN_cEE5valueEEERKSD_OSE_EUlOSD_E_EEDaSR_SS_OT1_EUlmmmE_EEvmmSR_jEUlmE_EEvRNS_9schedulerINS_15WorkStealingJobEEEmmRSD_mb, symObjAddr: 0x42D94, symBinAddr: 0x100045C74, symSize: 0x924 }
  - { offset: 0x1A70E9, size: 0x8, addend: 0x0, symName: __ZN6parlay19fork_join_scheduler7parfor_IZNS_8internal10sliced_forIZNS2_10filter_mapINS_5sliceIPP4nodeIldES9_EEZ8tiebreakIldENS_8sequenceIPS6_IT_T0_ENS_9allocatorISG_EEXsr3std7is_sameISG_cEE5valueEEERSJ_EUlSD_E_RZNS2_6filterISA_SL_EENSC_INSD_10value_typeENSH_ISN_EEXsr3std7is_sameISN_cEE5valueEEERKSD_OSE_EUlOSD_E_EEDaSR_SS_OT1_EUlmmmE0_EEvmmSR_jEUlmE_EEvRNS_9schedulerINS_15WorkStealingJobEEEmmRSD_mb, symObjAddr: 0x42700, symBinAddr: 0x1000455E0, symSize: 0x668 }
  - { offset: 0x1A874D, size: 0x8, addend: 0x0, symName: '__ZN6parlay19fork_join_scheduler7parfor_IZ15batchInsertEdgeIldZ4mainE3$_0EvRKNS_8sequenceINSt3__14pairIT_S7_EENS_9allocatorIS8_EEXsr3std7is_sameIS8_cEE5valueEEERKNS4_INS5_5tupleIJS7_S7_T0_EEENS9_ISG_EEXsr3std7is_sameISG_cEE5valueEEERNS4_I7clusterIS7_SF_ENS9_ISM_EEXsr3std7is_sameISM_cEE5valueEEESF_T1_EUllE1_EEvRNS_9schedulerINS_15WorkStealingJobEEEmmRS7_mb', symObjAddr: 0x2A0AC, symBinAddr: 0x10002CFA0, symSize: 0x570 }
  - { offset: 0x1A9AD5, size: 0x8, addend: 0x0, symName: '__ZN6parlay19fork_join_scheduler7parfor_IZNS_8sequenceI14edge_with_flagINSt3__15tupleIJlldEEEENS_9allocatorIS7_EELb0EEC1IZ15batchInsertEdgeIldZ4mainE3$_0EvRKNS2_INS4_4pairIT_SF_EENS8_ISG_EEXsr3std7is_sameISG_cEE5valueEEERKNS2_INS5_IJSF_SF_T0_EEENS8_ISM_EEXsr3std7is_sameISM_cEE5valueEEERNS2_I7clusterISF_SL_ENS8_ISS_EEXsr3std7is_sameISS_cEE5valueEEESL_T1_EUllE2_EEmOSF_NSA_18_from_function_tagEmEUlmE_EEvRNS_9schedulerINS_15WorkStealingJobEEEmmRSF_mb', symObjAddr: 0x2A61C, symBinAddr: 0x10002D510, symSize: 0x5B4 }
  - { offset: 0x1AAEB7, size: 0x8, addend: 0x0, symName: '__ZN6parlay19fork_join_scheduler7parfor_IZ15batchInsertEdgeIldZ4mainE3$_0EvRKNS_8sequenceINSt3__14pairIT_S7_EENS_9allocatorIS8_EEXsr3std7is_sameIS8_cEE5valueEEERKNS4_INS5_5tupleIJS7_S7_T0_EEENS9_ISG_EEXsr3std7is_sameISG_cEE5valueEEERNS4_I7clusterIS7_SF_ENS9_ISM_EEXsr3std7is_sameISM_cEE5valueEEESF_T1_EUllE3_EEvRNS_9schedulerINS_15WorkStealingJobEEEmmRS7_mb', symObjAddr: 0x2ABD0, symBinAddr: 0x10002DAC4, symSize: 0x5BC }
  - { offset: 0x1AC165, size: 0x8, addend: 0x0, symName: '__ZN6parlay19fork_join_scheduler7parfor_IZ15batchInsertEdgeIldZ4mainE3$_0EvRKNS_8sequenceINSt3__14pairIT_S7_EENS_9allocatorIS8_EEXsr3std7is_sameIS8_cEE5valueEEERKNS4_INS5_5tupleIJS7_S7_T0_EEENS9_ISG_EEXsr3std7is_sameISG_cEE5valueEEERNS4_I7clusterIS7_SF_ENS9_ISM_EEXsr3std7is_sameISM_cEE5valueEEESF_T1_EUllE4_EEvRNS_9schedulerINS_15WorkStealingJobEEEmmRS7_mb', symObjAddr: 0x2B448, symBinAddr: 0x10002E33C, symSize: 0x574 }
  - { offset: 0x1AD376, size: 0x8, addend: 0x0, symName: '__ZN6parlay19fork_join_scheduler7parfor_IZNS_8internal10sliced_forIZNS2_10filter_mapINS_5sliceIP14edge_with_flagINSt3__15tupleIJlldEEEESB_EEZ15batchInsertEdgeIldZ4mainE3$_0EvRKNS_8sequenceINS7_4pairIT_SH_EENS_9allocatorISI_EEXsr3std7is_sameISI_cEE5valueEEERKNSF_INS8_IJSH_SH_T0_EEENSJ_ISP_EEXsr3std7is_sameISP_cEE5valueEEERNSF_I7clusterISH_SO_ENSJ_ISV_EEXsr3std7is_sameISV_cEE5valueEEESO_T1_EUlSH_E0_RZNS2_6filterISC_S10_EENSF_INSH_10value_typeENSJ_IS12_EEXsr3std7is_sameIS12_cEE5valueEEERKSH_OSO_EUlOSH_E_EEDaS16_S17_OSZ_EUlmmmE_EEvmmS16_jEUlmE_EEvRNS_9schedulerINS_15WorkStealingJobEEEmmRSH_mb', symObjAddr: 0x2B9BC, symBinAddr: 0x10002E8B0, symSize: 0x99C }
  - { offset: 0x1AE6A9, size: 0x8, addend: 0x0, symName: '__ZN6parlay19fork_join_scheduler7parfor_IZNS_8internal10sliced_forIZNS2_10filter_mapINS_5sliceIP14edge_with_flagINSt3__15tupleIJlldEEEESB_EEZ15batchInsertEdgeIldZ4mainE3$_0EvRKNS_8sequenceINS7_4pairIT_SH_EENS_9allocatorISI_EEXsr3std7is_sameISI_cEE5valueEEERKNSF_INS8_IJSH_SH_T0_EEENSJ_ISP_EEXsr3std7is_sameISP_cEE5valueEEERNSF_I7clusterISH_SO_ENSJ_ISV_EEXsr3std7is_sameISV_cEE5valueEEESO_T1_EUlSH_E0_RZNS2_6filterISC_S10_EENSF_INSH_10value_typeENSJ_IS12_EEXsr3std7is_sameIS12_cEE5valueEEERKSH_OSO_EUlOSH_E_EEDaS16_S17_OSZ_EUlmmmE0_EEvmmS16_jEUlmE_EEvRNS_9schedulerINS_15WorkStealingJobEEEmmRSH_mb', symObjAddr: 0x2C4DC, symBinAddr: 0x10002F3D0, symSize: 0x670 }
  - { offset: 0x1AFC75, size: 0x8, addend: 0x0, symName: '__ZN6parlay19fork_join_scheduler7parfor_IZ15batchInsertEdgeIldZ4mainE3$_0EvRKNS_8sequenceINSt3__14pairIT_S7_EENS_9allocatorIS8_EEXsr3std7is_sameIS8_cEE5valueEEERKNS4_INS5_5tupleIJS7_S7_T0_EEENS9_ISG_EEXsr3std7is_sameISG_cEE5valueEEERNS4_I7clusterIS7_SF_ENS9_ISM_EEXsr3std7is_sameISM_cEE5valueEEESF_T1_EUllE5_EEvRNS_9schedulerINS_15WorkStealingJobEEEmmRS7_mb', symObjAddr: 0x2CB4C, symBinAddr: 0x10002FA40, symSize: 0x5BC }
  - { offset: 0x1B0F23, size: 0x8, addend: 0x0, symName: '__ZN6parlay19fork_join_scheduler7parfor_IZ15batchInsertEdgeIldZ4mainE3$_0EvRKNS_8sequenceINSt3__14pairIT_S7_EENS_9allocatorIS8_EEXsr3std7is_sameIS8_cEE5valueEEERKNS4_INS5_5tupleIJS7_S7_T0_EEENS9_ISG_EEXsr3std7is_sameISG_cEE5valueEEERNS4_I7clusterIS7_SF_ENS9_ISM_EEXsr3std7is_sameISM_cEE5valueEEESF_T1_EUllE6_EEvRNS_9schedulerINS_15WorkStealingJobEEEmmRS7_mb', symObjAddr: 0x2D2CC, symBinAddr: 0x1000301C0, symSize: 0x574 }
  - { offset: 0x1B2110, size: 0x8, addend: 0x0, symName: '__ZN6parlay19fork_join_scheduler7parfor_IZNS_8internal10sliced_forIZNS2_10filter_mapINS_5sliceIP14edge_with_flagINSt3__15tupleIJlldEEEESB_EEZ15batchInsertEdgeIldZ4mainE3$_0EvRKNS_8sequenceINS7_4pairIT_SH_EENS_9allocatorISI_EEXsr3std7is_sameISI_cEE5valueEEERKNSF_INS8_IJSH_SH_T0_EEENSJ_ISP_EEXsr3std7is_sameISP_cEE5valueEEERNSF_I7clusterISH_SO_ENSJ_ISV_EEXsr3std7is_sameISV_cEE5valueEEESO_T1_EUlSH_E1_RZNS2_6filterISC_S10_EENSF_INSH_10value_typeENSJ_IS12_EEXsr3std7is_sameIS12_cEE5valueEEERKSH_OSO_EUlOSH_E_EEDaS16_S17_OSZ_EUlmmmE_EEvmmS16_jEUlmE_EEvRNS_9schedulerINS_15WorkStealingJobEEEmmRSH_mb', symObjAddr: 0x2D840, symBinAddr: 0x100030734, symSize: 0x99C }
  - { offset: 0x1B343D, size: 0x8, addend: 0x0, symName: '__ZN6parlay19fork_join_scheduler7parfor_IZNS_8internal10sliced_forIZNS2_10filter_mapINS_5sliceIP14edge_with_flagINSt3__15tupleIJlldEEEESB_EEZ15batchInsertEdgeIldZ4mainE3$_0EvRKNS_8sequenceINS7_4pairIT_SH_EENS_9allocatorISI_EEXsr3std7is_sameISI_cEE5valueEEERKNSF_INS8_IJSH_SH_T0_EEENSJ_ISP_EEXsr3std7is_sameISP_cEE5valueEEERNSF_I7clusterISH_SO_ENSJ_ISV_EEXsr3std7is_sameISV_cEE5valueEEESO_T1_EUlSH_E1_RZNS2_6filterISC_S10_EENSF_INSH_10value_typeENSJ_IS12_EEXsr3std7is_sameIS12_cEE5valueEEERKSH_OSO_EUlOSH_E_EEDaS16_S17_OSZ_EUlmmmE0_EEvmmS16_jEUlmE_EEvRNS_9schedulerINS_15WorkStealingJobEEEmmRSH_mb', symObjAddr: 0x2E1DC, symBinAddr: 0x1000310D0, symSize: 0x670 }
  - { offset: 0x1B4A1B, size: 0x8, addend: 0x0, symName: '__ZN6parlay19fork_join_scheduler7parfor_IZNS_8internal10sliced_forIZNS2_10filter_mapINS_5sliceIPP4nodeIldES9_EEZ15batchInsertEdgeIldZ4mainE3$_0EvRKNS_8sequenceINSt3__14pairIT_SG_EENS_9allocatorISH_EEXsr3std7is_sameISH_cEE5valueEEERKNSD_INSE_5tupleIJSG_SG_T0_EEENSI_ISP_EEXsr3std7is_sameISP_cEE5valueEEERNSD_I7clusterISG_SO_ENSI_ISV_EEXsr3std7is_sameISV_cEE5valueEEESO_T1_EUlSG_E2_RZNS2_6filterISA_S10_EENSD_INSG_10value_typeENSI_IS12_EEXsr3std7is_sameIS12_cEE5valueEEERKSG_OSO_EUlOSG_E_EEDaS16_S17_OSZ_EUlmmmE_EEvmmS16_jEUlmE_EEvRNS_9schedulerINS_15WorkStealingJobEEEmmRSG_mb', symObjAddr: 0x2E84C, symBinAddr: 0x100031740, symSize: 0x784 }
  - { offset: 0x1B5FF6, size: 0x8, addend: 0x0, symName: '__ZN6parlay19fork_join_scheduler7parfor_IZNS_8internal10sliced_forIZNS2_10filter_mapINS_5sliceIPP4nodeIldES9_EEZ15batchInsertEdgeIldZ4mainE3$_0EvRKNS_8sequenceINSt3__14pairIT_SG_EENS_9allocatorISH_EEXsr3std7is_sameISH_cEE5valueEEERKNSD_INSE_5tupleIJSG_SG_T0_EEENSI_ISP_EEXsr3std7is_sameISP_cEE5valueEEERNSD_I7clusterISG_SO_ENSI_ISV_EEXsr3std7is_sameISV_cEE5valueEEESO_T1_EUlSG_E2_RZNS2_6filterISA_S10_EENSD_INSG_10value_typeENSI_IS12_EEXsr3std7is_sameIS12_cEE5valueEEERKSG_OSO_EUlOSG_E_EEDaS16_S17_OSZ_EUlmmmE0_EEvmmS16_jEUlmE_EEvRNS_9schedulerINS_15WorkStealingJobEEEmmRSG_mb', symObjAddr: 0x2EFD0, symBinAddr: 0x100031EC4, symSize: 0x668 }
  - { offset: 0x1B7891, size: 0x8, addend: 0x0, symName: __ZN6parlay19fork_join_scheduler7parfor_IZ28create_decompressed_affectedIldEvRNS_8sequenceIP4nodeIT_T0_ENS_9allocatorIS8_EEXsr3std7is_sameIS8_cEE5valueEEEEUllE2_EEvRNS_9schedulerINS_15WorkStealingJobEEEmmRS5_mb, symObjAddr: 0x3FFC8, symBinAddr: 0x100042EA8, symSize: 0x608 }
  - { offset: 0x1B8BB2, size: 0x8, addend: 0x0, symName: '__ZN6parlay19fork_join_scheduler7parfor_IZNS_8internal10sliced_forIZNS2_10filter_mapINS_5sliceIPP4nodeIldES9_EEZ15batchInsertEdgeIldZ4mainE3$_0EvRKNS_8sequenceINSt3__14pairIT_SG_EENS_9allocatorISH_EEXsr3std7is_sameISH_cEE5valueEEERKNSD_INSE_5tupleIJSG_SG_T0_EEENSI_ISP_EEXsr3std7is_sameISP_cEE5valueEEERNSD_I7clusterISG_SO_ENSI_ISV_EEXsr3std7is_sameISV_cEE5valueEEESO_T1_EUlSG_E3_RZNS2_6filterISA_S10_EENSD_INSG_10value_typeENSI_IS12_EEXsr3std7is_sameIS12_cEE5valueEEERKSG_OSO_EUlOSG_E_EEDaS16_S17_OSZ_EUlmmmE_EEvmmS16_jEUlmE_EEvRNS_9schedulerINS_15WorkStealingJobEEEmmRSG_mb', symObjAddr: 0x2F638, symBinAddr: 0x10003252C, symSize: 0x744 }
  - { offset: 0x1B9F8E, size: 0x8, addend: 0x0, symName: '__ZN6parlay19fork_join_scheduler7parfor_IZNS_8internal10sliced_forIZNS2_10filter_mapINS_5sliceIPP4nodeIldES9_EEZ15batchInsertEdgeIldZ4mainE3$_0EvRKNS_8sequenceINSt3__14pairIT_SG_EENS_9allocatorISH_EEXsr3std7is_sameISH_cEE5valueEEERKNSD_INSE_5tupleIJSG_SG_T0_EEENSI_ISP_EEXsr3std7is_sameISP_cEE5valueEEERNSD_I7clusterISG_SO_ENSI_ISV_EEXsr3std7is_sameISV_cEE5valueEEESO_T1_EUlSG_E3_RZNS2_6filterISA_S10_EENSD_INSG_10value_typeENSI_IS12_EEXsr3std7is_sameIS12_cEE5valueEEERKSG_OSO_EUlOSG_E_EEDaS16_S17_OSZ_EUlmmmE0_EEvmmS16_jEUlmE_EEvRNS_9schedulerINS_15WorkStealingJobEEEmmRSG_mb', symObjAddr: 0x2FD7C, symBinAddr: 0x100032C70, symSize: 0x668 }
  - { offset: 0x1BB5ED, size: 0x8, addend: 0x0, symName: '__ZN6parlay19fork_join_scheduler7parfor_IZNS_8internal10sliced_forIZNS2_10filter_mapINS_5sliceIPP4nodeIldES9_EEZ15batchInsertEdgeIldZ4mainE3$_0EvRKNS_8sequenceINSt3__14pairIT_SG_EENS_9allocatorISH_EEXsr3std7is_sameISH_cEE5valueEEERKNSD_INSE_5tupleIJSG_SG_T0_EEENSI_ISP_EEXsr3std7is_sameISP_cEE5valueEEERNSD_I7clusterISG_SO_ENSI_ISV_EEXsr3std7is_sameISV_cEE5valueEEESO_T1_EUlSG_E4_RZNS2_6filterISA_S10_EENSD_INSG_10value_typeENSI_IS12_EEXsr3std7is_sameIS12_cEE5valueEEERKSG_OSO_EUlOSG_E_EEDaS16_S17_OSZ_EUlmmmE_EEvmmS16_jEUlmE_EEvRNS_9schedulerINS_15WorkStealingJobEEEmmRSG_mb', symObjAddr: 0x303E4, symBinAddr: 0x1000332D8, symSize: 0x664 }
  - { offset: 0x1BC982, size: 0x8, addend: 0x0, symName: '__ZN6parlay19fork_join_scheduler7parfor_IZNS_8internal10sliced_forIZNS2_10filter_mapINS_5sliceIPP4nodeIldES9_EEZ15batchInsertEdgeIldZ4mainE3$_0EvRKNS_8sequenceINSt3__14pairIT_SG_EENS_9allocatorISH_EEXsr3std7is_sameISH_cEE5valueEEERKNSD_INSE_5tupleIJSG_SG_T0_EEENSI_ISP_EEXsr3std7is_sameISP_cEE5valueEEERNSD_I7clusterISG_SO_ENSI_ISV_EEXsr3std7is_sameISV_cEE5valueEEESO_T1_EUlSG_E4_RZNS2_6filterISA_S10_EENSD_INSG_10value_typeENSI_IS12_EEXsr3std7is_sameIS12_cEE5valueEEERKSG_OSO_EUlOSG_E_EEDaS16_S17_OSZ_EUlmmmE0_EEvmmS16_jEUlmE_EEvRNS_9schedulerINS_15WorkStealingJobEEEmmRSG_mb', symObjAddr: 0x30A48, symBinAddr: 0x10003393C, symSize: 0x668 }
  - { offset: 0x1BDFE1, size: 0x8, addend: 0x0, symName: '__ZN6parlay19fork_join_scheduler7parfor_IZNS_8internal10sliced_forIZNS2_10filter_mapINS_5sliceIPP4nodeIldES9_EEZ15batchInsertEdgeIldZ4mainE3$_0EvRKNS_8sequenceINSt3__14pairIT_SG_EENS_9allocatorISH_EEXsr3std7is_sameISH_cEE5valueEEERKNSD_INSE_5tupleIJSG_SG_T0_EEENSI_ISP_EEXsr3std7is_sameISP_cEE5valueEEERNSD_I7clusterISG_SO_ENSI_ISV_EEXsr3std7is_sameISV_cEE5valueEEESO_T1_EUlSG_E5_RZNS2_6filterISA_S10_EENSD_INSG_10value_typeENSI_IS12_EEXsr3std7is_sameIS12_cEE5valueEEERKSG_OSO_EUlOSG_E_EEDaS16_S17_OSZ_EUlmmmE_EEvmmS16_jEUlmE_EEvRNS_9schedulerINS_15WorkStealingJobEEEmmRSG_mb', symObjAddr: 0x3324C, symBinAddr: 0x100036140, symSize: 0x6B4 }
  - { offset: 0x1BF2F1, size: 0x8, addend: 0x0, symName: '__ZN6parlay19fork_join_scheduler7parfor_IZNS_8internal10sliced_forIZNS2_10filter_mapINS_5sliceIPP4nodeIldES9_EEZ15batchInsertEdgeIldZ4mainE3$_0EvRKNS_8sequenceINSt3__14pairIT_SG_EENS_9allocatorISH_EEXsr3std7is_sameISH_cEE5valueEEERKNSD_INSE_5tupleIJSG_SG_T0_EEENSI_ISP_EEXsr3std7is_sameISP_cEE5valueEEERNSD_I7clusterISG_SO_ENSI_ISV_EEXsr3std7is_sameISV_cEE5valueEEESO_T1_EUlSG_E5_RZNS2_6filterISA_S10_EENSD_INSG_10value_typeENSI_IS12_EEXsr3std7is_sameIS12_cEE5valueEEERKSG_OSO_EUlOSG_E_EEDaS16_S17_OSZ_EUlmmmE0_EEvmmS16_jEUlmE_EEvRNS_9schedulerINS_15WorkStealingJobEEEmmRSG_mb', symObjAddr: 0x33900, symBinAddr: 0x1000367F4, symSize: 0x668 }
  - { offset: 0x1C093E, size: 0x8, addend: 0x0, symName: _main, symObjAddr: 0x0, symBinAddr: 0x100003018, symSize: 0x590C }
  - { offset: 0x1D1225, size: 0x8, addend: 0x0, symName: '__ZN6parlay19fork_join_scheduler7parfor_IZ15batchInsertEdgeIldZ4mainE3$_0EvRKNS_8sequenceINSt3__14pairIT_S7_EENS_9allocatorIS8_EEXsr3std7is_sameIS8_cEE5valueEEERKNS4_INS5_5tupleIJS7_S7_T0_EEENS9_ISG_EEXsr3std7is_sameISG_cEE5valueEEERNS4_I7clusterIS7_SF_ENS9_ISM_EEXsr3std7is_sameISM_cEE5valueEEESF_T1_EUllE9_EEvRNS_9schedulerINS_15WorkStealingJobEEEmmRS7_mb', symObjAddr: 0x34A90, symBinAddr: 0x100037984, symSize: 0x570 }
  - { offset: 0x1D2400, size: 0x8, addend: 0x0, symName: '__ZN6parlay19fork_join_scheduler7parfor_IZ15batchInsertEdgeIldZ4mainE3$_0EvRKNS_8sequenceINSt3__14pairIT_S7_EENS_9allocatorIS8_EEXsr3std7is_sameIS8_cEE5valueEEERKNS4_INS5_5tupleIJS7_S7_T0_EEENS9_ISG_EEXsr3std7is_sameISG_cEE5valueEEERNS4_I7clusterIS7_SF_ENS9_ISM_EEXsr3std7is_sameISM_cEE5valueEEESF_T1_EUllE11_EEvRNS_9schedulerINS_15WorkStealingJobEEEmmRS7_mb', symObjAddr: 0x3526C, symBinAddr: 0x100038160, symSize: 0x5D8 }
  - { offset: 0x1D37E4, size: 0x8, addend: 0x0, symName: '__ZN6parlay19fork_join_scheduler7parfor_IZNS_8internal10sliced_forIZNS2_10filter_mapINS_5sliceIPP4nodeIldES9_EEZ15batchInsertEdgeIldZ4mainE3$_0EvRKNS_8sequenceINSt3__14pairIT_SG_EENS_9allocatorISH_EEXsr3std7is_sameISH_cEE5valueEEERKNSD_INSE_5tupleIJSG_SG_T0_EEENSI_ISP_EEXsr3std7is_sameISP_cEE5valueEEERNSD_I7clusterISG_SO_ENSI_ISV_EEXsr3std7is_sameISV_cEE5valueEEESO_T1_EUlSG_E6_RZNS2_6filterISA_S10_EENSD_INSG_10value_typeENSI_IS12_EEXsr3std7is_sameIS12_cEE5valueEEERKSG_OSO_EUlOSG_E_EEDaS16_S17_OSZ_EUlmmmE_EEvmmS16_jEUlmE_EEvRNS_9schedulerINS_15WorkStealingJobEEEmmRSG_mb', symObjAddr: 0x35844, symBinAddr: 0x100038738, symSize: 0x6C0 }
  - { offset: 0x1D4B01, size: 0x8, addend: 0x0, symName: '__ZN6parlay19fork_join_scheduler7parfor_IZNS_8internal10sliced_forIZNS2_10filter_mapINS_5sliceIPP4nodeIldES9_EEZ15batchInsertEdgeIldZ4mainE3$_0EvRKNS_8sequenceINSt3__14pairIT_SG_EENS_9allocatorISH_EEXsr3std7is_sameISH_cEE5valueEEERKNSD_INSE_5tupleIJSG_SG_T0_EEENSI_ISP_EEXsr3std7is_sameISP_cEE5valueEEERNSD_I7clusterISG_SO_ENSI_ISV_EEXsr3std7is_sameISV_cEE5valueEEESO_T1_EUlSG_E6_RZNS2_6filterISA_S10_EENSD_INSG_10value_typeENSI_IS12_EEXsr3std7is_sameIS12_cEE5valueEEERKSG_OSO_EUlOSG_E_EEDaS16_S17_OSZ_EUlmmmE0_EEvmmS16_jEUlmE_EEvRNS_9schedulerINS_15WorkStealingJobEEEmmRSG_mb', symObjAddr: 0x35F04, symBinAddr: 0x100038DF8, symSize: 0x668 }
  - { offset: 0x1D6160, size: 0x8, addend: 0x0, symName: '__ZN6parlay19fork_join_scheduler7parfor_IZNS_8internal10sliced_forIZNS2_10filter_mapINS_5sliceIPP4nodeIldES9_EEZ15batchInsertEdgeIldZ4mainE3$_0EvRKNS_8sequenceINSt3__14pairIT_SG_EENS_9allocatorISH_EEXsr3std7is_sameISH_cEE5valueEEERKNSD_INSE_5tupleIJSG_SG_T0_EEENSI_ISP_EEXsr3std7is_sameISP_cEE5valueEEERNSD_I7clusterISG_SO_ENSI_ISV_EEXsr3std7is_sameISV_cEE5valueEEESO_T1_EUlSG_E7_RZNS2_6filterISA_S10_EENSD_INSG_10value_typeENSI_IS12_EEXsr3std7is_sameIS12_cEE5valueEEERKSG_OSO_EUlOSG_E_EEDaS16_S17_OSZ_EUlmmmE_EEvmmS16_jEUlmE_EEvRNS_9schedulerINS_15WorkStealingJobEEEmmRSG_mb', symObjAddr: 0x3656C, symBinAddr: 0x100039460, symSize: 0x784 }
  - { offset: 0x1D773B, size: 0x8, addend: 0x0, symName: '__ZN6parlay19fork_join_scheduler7parfor_IZNS_8internal10sliced_forIZNS2_10filter_mapINS_5sliceIPP4nodeIldES9_EEZ15batchInsertEdgeIldZ4mainE3$_0EvRKNS_8sequenceINSt3__14pairIT_SG_EENS_9allocatorISH_EEXsr3std7is_sameISH_cEE5valueEEERKNSD_INSE_5tupleIJSG_SG_T0_EEENSI_ISP_EEXsr3std7is_sameISP_cEE5valueEEERNSD_I7clusterISG_SO_ENSI_ISV_EEXsr3std7is_sameISV_cEE5valueEEESO_T1_EUlSG_E7_RZNS2_6filterISA_S10_EENSD_INSG_10value_typeENSI_IS12_EEXsr3std7is_sameIS12_cEE5valueEEERKSG_OSO_EUlOSG_E_EEDaS16_S17_OSZ_EUlmmmE0_EEvmmS16_jEUlmE_EEvRNS_9schedulerINS_15WorkStealingJobEEEmmRSG_mb', symObjAddr: 0x36CF0, symBinAddr: 0x100039BE4, symSize: 0x668 }
  - { offset: 0x1D8D88, size: 0x8, addend: 0x0, symName: '__ZN6parlay19fork_join_scheduler7parfor_IZ15batchInsertEdgeIldZ4mainE3$_0EvRKNS_8sequenceINSt3__14pairIT_S7_EENS_9allocatorIS8_EEXsr3std7is_sameIS8_cEE5valueEEERKNS4_INS5_5tupleIJS7_S7_T0_EEENS9_ISG_EEXsr3std7is_sameISG_cEE5valueEEERNS4_I7clusterIS7_SF_ENS9_ISM_EEXsr3std7is_sameISM_cEE5valueEEESF_T1_EUllE12_EEvRNS_9schedulerINS_15WorkStealingJobEEEmmRS7_mb', symObjAddr: 0x37358, symBinAddr: 0x10003A24C, symSize: 0xDDC }
  - { offset: 0x1E1754, size: 0x8, addend: 0x0, symName: __ZN6parlay8sequenceINSt3__14pairIllEENS_9allocatorIS3_EELb0EEC2Ev, symObjAddr: 0x4D054, symBinAddr: 0x10004FE24, symSize: 0x124 }
  - { offset: 0x1E19E9, size: 0x8, addend: 0x0, symName: __ZN6parlay8sequenceIlNS_9allocatorIlEELb0EEC2Ev, symObjAddr: 0x714D4, symBinAddr: 0x1000742A4, symSize: 0x124 }
  - { offset: 0x1E1C75, size: 0x8, addend: 0x0, symName: __ZN6parlay9allocatorISt4byteE8allocateEm, symObjAddr: 0x240E4, symBinAddr: 0x100026FD8, symSize: 0xF8 }
  - { offset: 0x1E1EC9, size: 0x8, addend: 0x0, symName: __ZN6parlay8sequenceImNS_9allocatorImEELb0EEC2Em, symObjAddr: 0x26E74, symBinAddr: 0x100029D68, symSize: 0x338 }
  - { offset: 0x1E2577, size: 0x8, addend: 0x0, symName: __ZN6parlay8sequenceIbNS_9allocatorIbEELb0EEC2Em, symObjAddr: 0x271AC, symBinAddr: 0x10002A0A0, symSize: 0x334 }
  - { offset: 0x1E2C25, size: 0x8, addend: 0x0, symName: __ZN6parlay8sequenceINSt3__15tupleIJlldEEENS_9allocatorIS3_EELb0EEC2EmNS6_18_uninitialized_tagE, symObjAddr: 0x4B524, symBinAddr: 0x10004E2F4, symSize: 0x190 }
  - { offset: 0x1E2FBE, size: 0x8, addend: 0x0, symName: __ZNSt3__116allocator_traitsIN6parlay9allocatorISt4byteEEE10deallocateB8ue170006ERS4_PS3_m, symObjAddr: 0xEEA0, symBinAddr: 0x100011EB8, symSize: 0xF4 }
  - { offset: 0x1E31EC, size: 0x8, addend: 0x0, symName: __ZN6parlay19fork_join_scheduler5pardoIZNS0_7parfor_IZNS_17sequence_internal13sequence_baseINS_8sequenceIlNS_9allocatorIlEELb0EEENS6_IS8_EELb0EE12storage_implC1ERKSB_EUlmE_EEvRNS_9schedulerINS_15WorkStealingJobEEEmmRT_mbEUlvE_ZNS2_ISE_EEvSI_mmSK_mbEUlvE0_EEvSI_OSJ_OT0_b, symObjAddr: 0xA3190, symBinAddr: 0x1000A5444, symSize: 0x640 }
  - { offset: 0x1E44E4, size: 0x8, addend: 0x0, symName: __ZN6parlay19fork_join_scheduler5pardoIZNS0_7parfor_IZNS_8sequenceIP4nodeIldENS_9allocatorIS6_EELb0EEC1IZ14create_RC_treeIldEvRNS3_I7clusterIT_T0_ENS7_ISF_EEXsr3std7is_sameISF_cEE5valueEEESD_bSE_EUllE_EEmOSD_NS9_18_from_function_tagEmEUlmE_EEvRNS_9schedulerINS_15WorkStealingJobEEEmmRSD_mbEUlvE_ZNS2_ISM_EEvSQ_mmSR_mbEUlvE0_EEvSQ_SK_OSE_b, symObjAddr: 0x565B4, symBinAddr: 0x100059384, symSize: 0x670 }
  - { offset: 0x1E590C, size: 0x8, addend: 0x0, symName: __ZZ17check_consistencyIldEvRN6parlay8sequenceIP4nodeIT_T0_ENS0_9allocatorIS6_EEXsr3std7is_sameIS6_cEE5valueEEEENKUllE_clEl, symObjAddr: 0x54080, symBinAddr: 0x100056E50, symSize: 0x230 }
  - { offset: 0x1E5AE7, size: 0x8, addend: 0x0, symName: __ZN6parlay19fork_join_scheduler5pardoIZNS0_7parfor_IZ17check_consistencyIldEvRNS_8sequenceIP4nodeIT_T0_ENS_9allocatorIS9_EEXsr3std7is_sameIS9_cEE5valueEEEEUllE_EEvRNS_9schedulerINS_15WorkStealingJobEEEmmRS6_mbEUlvE_ZNS2_ISE_EEvSI_mmSJ_mbEUlvE0_EEvSI_OS6_OS7_b, symObjAddr: 0x542B0, symBinAddr: 0x100057080, symSize: 0x628 }
  - { offset: 0x1E5AFE, size: 0x8, addend: 0x0, symName: __ZN6parlay19fork_join_scheduler5pardoIZNS0_7parfor_IZ17check_consistencyIldEvRNS_8sequenceIP4nodeIT_T0_ENS_9allocatorIS9_EEXsr3std7is_sameIS9_cEE5valueEEEEUllE_EEvRNS_9schedulerINS_15WorkStealingJobEEEmmRS6_mbEUlvE_ZNS2_ISE_EEvSI_mmSJ_mbEUlvE0_EEvSI_OS6_OS7_b, symObjAddr: 0x542B0, symBinAddr: 0x100057080, symSize: 0x628 }
  - { offset: 0x1E6CA8, size: 0x8, addend: 0x0, symName: __ZN6parlay8sequenceIP4nodeIldENS_9allocatorIS3_EELb0EEC2EmNS6_18_uninitialized_tagE, symObjAddr: 0x27EF4, symBinAddr: 0x10002ADE8, symSize: 0x184 }
  - { offset: 0x1E704E, size: 0x8, addend: 0x0, symName: __ZZ9check_misIldEvRN6parlay8sequenceIP4nodeIT_T0_ENS0_9allocatorIS6_EEXsr3std7is_sameIS6_cEE5valueEEEENKUllE_clEl, symObjAddr: 0x51D70, symBinAddr: 0x100054B40, symSize: 0x178 }
  - { offset: 0x1E71F8, size: 0x8, addend: 0x0, symName: __ZN6parlay19fork_join_scheduler5pardoIZNS0_7parfor_IZ9check_misIldEvRNS_8sequenceIP4nodeIT_T0_ENS_9allocatorIS9_EEXsr3std7is_sameIS9_cEE5valueEEEEUllE_EEvRNS_9schedulerINS_15WorkStealingJobEEEmmRS6_mbEUlvE_ZNS2_ISE_EEvSI_mmSJ_mbEUlvE0_EEvSI_OS6_OS7_b, symObjAddr: 0x51EE8, symBinAddr: 0x100054CB8, symSize: 0x628 }
  - { offset: 0x1E720F, size: 0x8, addend: 0x0, symName: __ZN6parlay19fork_join_scheduler5pardoIZNS0_7parfor_IZ9check_misIldEvRNS_8sequenceIP4nodeIT_T0_ENS_9allocatorIS9_EEXsr3std7is_sameIS9_cEE5valueEEEEUllE_EEvRNS_9schedulerINS_15WorkStealingJobEEEmmRS6_mbEUlvE_ZNS2_ISE_EEvSI_mmSJ_mbEUlvE0_EEvSI_OS6_OS7_b, symObjAddr: 0x51EE8, symBinAddr: 0x100054CB8, symSize: 0x628 }
  - { offset: 0x1E83B9, size: 0x8, addend: 0x0, symName: __Z8contractIldEvP4nodeIT_T0_Eb, symObjAddr: 0x391CC, symBinAddr: 0x10003C0C0, symSize: 0x80C }
  - { offset: 0x1E9027, size: 0x8, addend: 0x0, symName: __ZN6parlay19fork_join_scheduler5pardoIZNS0_7parfor_IZN7TreeGenIldE12clearWeightsEdEUllE_EEvRNS_9schedulerINS_15WorkStealingJobEEEmmRT_mbEUlvE_ZNS2_IS5_EEvS9_mmSB_mbEUlvE0_EEvS9_OSA_OT0_b, symObjAddr: 0x4FBB8, symBinAddr: 0x100052988, symSize: 0x6E0 }
  - { offset: 0x1EA1F3, size: 0x8, addend: 0x0, symName: __ZN6parlay19fork_join_scheduler5pardoIZNS0_7parfor_IZNS_8sequenceINSt3__14pairIllEENS_9allocatorIS6_EELb0EEC1IZN7TreeGenIldE19generateDeleteEdgesEdEUllE_EEmOT_NS9_18_from_function_tagEmEUlmE_EEvRNS_9schedulerINS_15WorkStealingJobEEEmmRSE_mbEUlvE_ZNS2_ISH_EEvSL_mmSM_mbEUlvE0_EEvSL_SF_OT0_b, symObjAddr: 0x4E38C, symBinAddr: 0x10005115C, symSize: 0x648 }
  - { offset: 0x1EB43D, size: 0x8, addend: 0x0, symName: __ZZN7TreeGenIldE19generateDeleteEdgesEdENKUllE_clEl, symObjAddr: 0x4E228, symBinAddr: 0x100050FF8, symSize: 0x164 }
  - { offset: 0x1EB93D, size: 0x8, addend: 0x0, symName: __ZN6parlay8sequenceINSt3__14pairIllEENS_9allocatorIS3_EELb0EEC2EmNS6_18_uninitialized_tagE, symObjAddr: 0x4D178, symBinAddr: 0x10004FF48, symSize: 0x184 }
  - { offset: 0x1EBCE3, size: 0x8, addend: 0x0, symName: __ZZN7TreeGenIldE16generateAddEdgesEdENKUllE_clEl, symObjAddr: 0x4C724, symBinAddr: 0x10004F4F4, symSize: 0x36C }
  - { offset: 0x1EC7A0, size: 0x8, addend: 0x0, symName: __ZN6parlay19fork_join_scheduler7parfor_IZNS_8sequenceINSt3__15tupleIJlldEEENS_9allocatorIS5_EELb0EEC1IZN7TreeGenIldE16generateAddEdgesEdEUllE_EEmOT_NS8_18_from_function_tagEmEUlmE_EEvRNS_9schedulerINS_15WorkStealingJobEEEmmRSD_mb, symObjAddr: 0x4CA90, symBinAddr: 0x10004F860, symSize: 0x598 }
  - { offset: 0x1EC7B7, size: 0x8, addend: 0x0, symName: __ZZ18testPathQueryValidIldEvRN6parlay8sequenceI7clusterIT_T0_ENS0_9allocatorIS5_EEXsr3std7is_sameIS5_cEE5valueEEERNS1_IS3_NS6_IS3_EEXsr3std7is_sameIS3_cEE5valueEEERNS1_IS4_NS6_IS4_EEXsr3std7is_sameIS4_cEE5valueEEEENKUllE_clEl, symObjAddr: 0x226F4, symBinAddr: 0x1000255FC, symSize: 0x65C }
  - { offset: 0x1ED0A5, size: 0x8, addend: 0x0, symName: __ZN6parlay19fork_join_scheduler5pardoIZNS0_7parfor_IZ18testPathQueryValidIldEvRNS_8sequenceI7clusterIT_T0_ENS_9allocatorIS8_EEXsr3std7is_sameIS8_cEE5valueEEERNS4_IS6_NS9_IS6_EEXsr3std7is_sameIS6_cEE5valueEEERNS4_IS7_NS9_IS7_EEXsr3std7is_sameIS7_cEE5valueEEEEUllE_EEvRNS_9schedulerINS_15WorkStealingJobEEEmmRS6_mbEUlvE_ZNS2_ISJ_EEvSN_mmSO_mbEUlvE0_EEvSN_OS6_OS7_b, symObjAddr: 0x22D50, symBinAddr: 0x100025C58, symSize: 0x610 }
  - { offset: 0x1ED0BC, size: 0x8, addend: 0x0, symName: __ZN6parlay19fork_join_scheduler5pardoIZNS0_7parfor_IZ18testPathQueryValidIldEvRNS_8sequenceI7clusterIT_T0_ENS_9allocatorIS8_EEXsr3std7is_sameIS8_cEE5valueEEERNS4_IS6_NS9_IS6_EEXsr3std7is_sameIS6_cEE5valueEEERNS4_IS7_NS9_IS7_EEXsr3std7is_sameIS7_cEE5valueEEEEUllE_EEvRNS_9schedulerINS_15WorkStealingJobEEEmmRS6_mbEUlvE_ZNS2_ISJ_EEvSN_mmSO_mbEUlvE0_EEvSN_OS6_OS7_b, symObjAddr: 0x22D50, symBinAddr: 0x100025C58, symSize: 0x610 }
  - { offset: 0x1EE28A, size: 0x8, addend: 0x0, symName: __ZZ12deleteRCtreeIldEvRN6parlay8sequenceI7clusterIT_T0_ENS0_9allocatorIS5_EEXsr3std7is_sameIS5_cEE5valueEEEENKUllE_clEl, symObjAddr: 0x4EACC, symBinAddr: 0x10005189C, symSize: 0x9E4 }
  - { offset: 0x1EF47E, size: 0x8, addend: 0x0, symName: __ZN6parlay19fork_join_scheduler5pardoIZNS0_7parfor_IZ12deleteRCtreeIldEvRNS_8sequenceI7clusterIT_T0_ENS_9allocatorIS8_EEXsr3std7is_sameIS8_cEE5valueEEEEUllE_EEvRNS_9schedulerINS_15WorkStealingJobEEEmmRS6_mbEUlvE_ZNS2_ISD_EEvSH_mmSI_mbEUlvE0_EEvSH_OS6_OS7_b, symObjAddr: 0x4F4B0, symBinAddr: 0x100052280, symSize: 0x628 }
  - { offset: 0x1F0645, size: 0x8, addend: 0x0, symName: __ZN6parlay8sequenceINS0_IlNS_9allocatorIlEELb0EEENS1_IS3_EELb0EED1Ev, symObjAddr: 0x1376C, symBinAddr: 0x100016784, symSize: 0x7C }
  - { offset: 0x1F0828, size: 0x8, addend: 0x0, symName: __ZN6parlay8sequenceI7clusterIldENS_9allocatorIS2_EELb0EED1Ev, symObjAddr: 0x1CDDC, symBinAddr: 0x10001FDF4, symSize: 0x80 }
  - { offset: 0x1F0A0B, size: 0x8, addend: 0x0, symName: __ZN7TreeGenIldED2Ev, symObjAddr: 0x1CD08, symBinAddr: 0x10001FD20, symSize: 0xD4 }
  - { offset: 0x1F1450, size: 0x8, addend: 0x0, symName: __ZNKSt3__112basic_stringIcNS_11char_traitsIcEENS_9allocatorIcEEE20__throw_length_errorB8ue170006Ev, symObjAddr: 0x24014, symBinAddr: 0x100026F08, symSize: 0x14 }
  - { offset: 0x1F1475, size: 0x8, addend: 0x0, symName: __ZN6parlay8internal21get_default_allocatorEv, symObjAddr: 0x24028, symBinAddr: 0x100026F1C, symSize: 0xBC }
  - { offset: 0x1F5461, size: 0x8, addend: 0x0, symName: __ZNSt3__130negative_binomial_distributionIlEclIN6parlay16random_generatorEEElRT_RKNS1_10param_typeE, symObjAddr: 0xAE648, symBinAddr: 0x1000B08FC, symSize: 0x24C }
  - { offset: 0x1F56AD, size: 0x8, addend: 0x0, symName: __ZZN7TreeGenIldE20generateInitialEdgesEvENKUllE0_clEl, symObjAddr: 0xAF824, symBinAddr: 0x1000B1AD8, symSize: 0x12C }
  - { offset: 0x1F583D, size: 0x8, addend: 0x0, symName: __ZNSt3__120poisson_distributionIlEclIN6parlay16random_generatorEEElRT_RKNS1_10param_typeE, symObjAddr: 0xAF1C0, symBinAddr: 0x1000B1474, symSize: 0x664 }
  - { offset: 0x1F60A5, size: 0x8, addend: 0x0, symName: __ZNSt3__118gamma_distributionIdEclIN6parlay16random_generatorEEEdRT_RKNS1_10param_typeE, symObjAddr: 0xAEED0, symBinAddr: 0x1000B1184, symSize: 0x2F0 }
  - { offset: 0x1F65F0, size: 0x8, addend: 0x0, symName: __ZN6parlay19fork_join_scheduler5pardoIZNS0_7parfor_IZNS_8sequenceIlNS_9allocatorIlEELb0EEC1IZN7TreeGenIldE20generateInitialEdgesEvEUllE_EEmOT_NS6_18_from_function_tagEmEUlmE_EEvRNS_9schedulerINS_15WorkStealingJobEEEmmRSB_mbEUlvE_ZNS2_ISE_EEvSI_mmSJ_mbEUlvE0_EEvSI_SC_OT0_b, symObjAddr: 0xB107C, symBinAddr: 0x1000B3330, symSize: 0x6A8 }
  - { offset: 0x1F7818, size: 0x8, addend: 0x0, symName: __ZN6parlay19fork_join_scheduler5pardoIZNS0_7parfor_IZNS_8sequenceIlNS_9allocatorIlEELb0EEC1IZN7TreeGenIldE20generateInitialEdgesEvEUllE0_EEmOT_NS6_18_from_function_tagEmEUlmE_EEvRNS_9schedulerINS_15WorkStealingJobEEEmmRSB_mbEUlvE_ZNS2_ISE_EEvSI_mmSJ_mbEUlvE0_EEvSI_SC_OT0_b, symObjAddr: 0xAF950, symBinAddr: 0x1000B1C04, symSize: 0x648 }
  - { offset: 0x1F8A8E, size: 0x8, addend: 0x0, symName: __ZN6parlay8sequenceIlNS_9allocatorIlEELb0EEC2EmNS3_18_uninitialized_tagE, symObjAddr: 0x66564, symBinAddr: 0x100069334, symSize: 0x184 }
  - { offset: 0x1F8E20, size: 0x8, addend: 0x0, symName: __ZN6parlay19fork_join_scheduler5pardoIZNS0_7parfor_IZNS_24uninitialized_relocate_nIPlmS4_EENSt3__14pairIT_T1_EES7_T0_S8_EUlmE_EEvRNS_9schedulerINS_15WorkStealingJobEEEmmRS7_mbEUlvE_ZNS2_ISB_EEvSF_mmSG_mbEUlvE0_EEvSF_OS7_OSA_b, symObjAddr: 0xACA04, symBinAddr: 0x1000AECB8, symSize: 0x688 }
  - { offset: 0x1FA0D6, size: 0x8, addend: 0x0, symName: __ZN6parlay19fork_join_scheduler5pardoIZNS0_7parfor_IZNS_8sequenceIlNS_9allocatorIlEELb0EEC1IZN7TreeGenIldE20generateInitialEdgesEvEUllE3_EEmOT_NS6_18_from_function_tagEmEUlmE_EEvRNS_9schedulerINS_15WorkStealingJobEEEmmRSB_mbEUlvE_ZNS2_ISE_EEvSI_mmSJ_mbEUlvE0_EEvSI_SC_OT0_b, symObjAddr: 0xAC1BC, symBinAddr: 0x1000AE470, symSize: 0x708 }
  - { offset: 0x1FB2FE, size: 0x8, addend: 0x0, symName: __ZN6parlay19fork_join_scheduler5pardoIZNS0_7parfor_IZNS_8sequenceIlNS_9allocatorIlEELb0EEC1IZN7TreeGenIldE20generateInitialEdgesEvEUllE5_EEmOT_NS6_18_from_function_tagEmEUlmE_EEvRNS_9schedulerINS_15WorkStealingJobEEEmmRSB_mbEUlvE_ZNS2_ISE_EEvSI_mmSJ_mbEUlvE0_EEvSI_SC_OT0_b, symObjAddr: 0xAB388, symBinAddr: 0x1000AD63C, symSize: 0x708 }
  - { offset: 0x1FC5BA, size: 0x8, addend: 0x0, symName: __ZN6parlay8sequenceINSt3__16atomicIsEENS_9allocatorIS3_EELb0EEC2Em, symObjAddr: 0xA38BC, symBinAddr: 0x1000A5B70, symSize: 0x330 }
  - { offset: 0x1FCC9C, size: 0x8, addend: 0x0, symName: __ZN6parlay19fork_join_scheduler5pardoIZNS0_7parfor_IZNS_8sequenceIlNS_9allocatorIlEELb0EE18initialize_defaultEmEUlmE_EEvRNS_9schedulerINS_15WorkStealingJobEEEmmRT_mbEUlvE_ZNS2_IS7_EEvSB_mmSD_mbEUlvE0_EEvSB_OSC_OT0_b, symObjAddr: 0xAA064, symBinAddr: 0x1000AC318, symSize: 0x688 }
  - { offset: 0x1FDEC4, size: 0x8, addend: 0x0, symName: __ZN6parlay19fork_join_scheduler5pardoIZNS0_7parfor_IZNS_8sequenceIdNS_9allocatorIdEELb0EE18initialize_defaultEmEUlmE_EEvRNS_9schedulerINS_15WorkStealingJobEEEmmRT_mbEUlvE_ZNS2_IS7_EEvSB_mmSD_mbEUlvE0_EEvSB_OSC_OT0_b, symObjAddr: 0xA997C, symBinAddr: 0x1000ABC30, symSize: 0x618 }
  - { offset: 0x1FF0E8, size: 0x8, addend: 0x0, symName: __ZZN7TreeGenIldE16populateSubGraphENSt3__14pairIllEEENKUllE_clEl, symObjAddr: 0xA8FF4, symBinAddr: 0x1000AB2A8, symSize: 0x28C }
  - { offset: 0x1FF8C7, size: 0x8, addend: 0x0, symName: __ZN6parlay19fork_join_scheduler5pardoIZNS0_7parfor_IZN7TreeGenIldE16populateSubGraphENSt3__14pairIllEEEUllE_EEvRNS_9schedulerINS_15WorkStealingJobEEEmmRT_mbEUlvE_ZNS2_IS8_EEvSC_mmSE_mbEUlvE0_EEvSC_OSD_OT0_b, symObjAddr: 0xA9280, symBinAddr: 0x1000AB534, symSize: 0x620 }
  - { offset: 0x200A8D, size: 0x8, addend: 0x0, symName: __ZZN7TreeGenIldE21generateInterconnectsEvENKUllE_clEl, symObjAddr: 0xA7BC8, symBinAddr: 0x1000A9E7C, symSize: 0x454 }
  - { offset: 0x20191B, size: 0x8, addend: 0x0, symName: __ZN6parlay19fork_join_scheduler5pardoIZNS0_7parfor_IZNS_8sequenceINSt3__15tupleIJNS4_4pairIllEES7_NS5_IJlldEEEbEEENS_9allocatorIS9_EELb0EEC1IZN7TreeGenIldE21generateInterconnectsEvEUllE_EEmOT_NSC_18_from_function_tagEmEUlmE_EEvRNS_9schedulerINS_15WorkStealingJobEEEmmRSH_mbEUlvE_ZNS2_ISK_EEvSO_mmSP_mbEUlvE0_EEvSO_SI_OT0_b, symObjAddr: 0xA801C, symBinAddr: 0x1000AA2D0, symSize: 0x688 }
  - { offset: 0x201932, size: 0x8, addend: 0x0, symName: __ZN6parlay19fork_join_scheduler5pardoIZNS0_7parfor_IZNS_8sequenceINSt3__15tupleIJNS4_4pairIllEES7_NS5_IJlldEEEbEEENS_9allocatorIS9_EELb0EEC1IZN7TreeGenIldE21generateInterconnectsEvEUllE_EEmOT_NSC_18_from_function_tagEmEUlmE_EEvRNS_9schedulerINS_15WorkStealingJobEEEmmRSH_mbEUlvE_ZNS2_ISK_EEvSO_mmSP_mbEUlvE0_EEvSO_SI_OT0_b, symObjAddr: 0xA801C, symBinAddr: 0x1000AA2D0, symSize: 0x688 }
  - { offset: 0x202EAA, size: 0x8, addend: 0x0, symName: __ZZN7TreeGenIldE13verifyParentsEvENKUllE0_clEl, symObjAddr: 0xA3BEC, symBinAddr: 0x1000A5EA0, symSize: 0x20C }
  - { offset: 0x2036ED, size: 0x8, addend: 0x0, symName: __ZN6parlay19fork_join_scheduler5pardoIZNS0_7parfor_IZN7TreeGenIldE13verifyParentsEvEUllE0_EEvRNS_9schedulerINS_15WorkStealingJobEEEmmRT_mbEUlvE_ZNS2_IS5_EEvS9_mmSB_mbEUlvE0_EEvS9_OSA_OT0_b, symObjAddr: 0xA3DF8, symBinAddr: 0x1000A60AC, symSize: 0x620 }
  - { offset: 0x204AEF, size: 0x8, addend: 0x0, symName: __ZN6parlay19fork_join_scheduler5pardoIZNS0_7parfor_IZNS_17sequence_internal13sequence_baseIlNS_9allocatorIlEELb0EE12storage_implC1ERKS8_EUlmE_EEvRNS_9schedulerINS_15WorkStealingJobEEEmmRT_mbEUlvE_ZNS2_ISB_EEvSF_mmSH_mbEUlvE0_EEvSF_OSG_OT0_b, symObjAddr: 0xA2970, symBinAddr: 0x1000A4C24, symSize: 0x6E8 }
  - { offset: 0x2081FB, size: 0x8, addend: 0x0, symName: __ZN6parlay19fork_join_scheduler5pardoIZNS0_7parfor_IZNS_8sequenceIlNS_9allocatorIlEELb0EEC1IZ24convert_parents_to_graphINS3_IS6_NS4_IS6_EELb0EEElET_SB_NS3_IT0_NS4_ISC_EEXsr3std7is_sameISC_cEE5valueEEEEUllE_EEmOSB_NS6_18_from_function_tagEmEUlmE_EEvRNS_9schedulerINS_15WorkStealingJobEEEmmRSB_mbEUlvE_ZNS2_ISI_EEvSM_mmSN_mbEUlvE0_EEvSM_SG_OSC_b, symObjAddr: 0xA2128, symBinAddr: 0x1000A43DC, symSize: 0x708 }
  - { offset: 0x209417, size: 0x8, addend: 0x0, symName: __ZZN6parlay8sequenceINS0_IlNS_9allocatorIlEELb0EEENS1_IS3_EELb0EEC1IZNS_8internal3mapIRS3_Z24convert_parents_to_graphIS5_lET_SB_NS0_IT0_NS1_ISC_EEXsr3std7is_sameISC_cEE5valueEEEEUllE0_EEDaOSB_OSC_mEUlmE_EEmSH_NS5_18_from_function_tagEmENKUlmE_clEm, symObjAddr: 0xA186C, symBinAddr: 0x1000A3B20, symSize: 0x1B4 }
  - { offset: 0x209AD1, size: 0x8, addend: 0x0, symName: __ZN6parlay8internal12hazptr_stackIPvE3popEv, symObjAddr: 0x456A0, symBinAddr: 0x100048580, symSize: 0xB30 }
  - { offset: 0x20C492, size: 0x8, addend: 0x0, symName: __ZNK6parlay14ThreadSpecificINS_8internal15block_allocator10local_listEE19ensure_chunk_existsEm, symObjAddr: 0x1D6BC, symBinAddr: 0x1000206D4, symSize: 0x144 }
  - { offset: 0x20C66E, size: 0x8, addend: 0x0, symName: __ZN6parlay8internal12hazptr_stackIPNS0_15block_allocator5blockEE3popEv, symObjAddr: 0x20D34, symBinAddr: 0x100023D4C, symSize: 0xB30 }
  - { offset: 0x20F04B, size: 0x8, addend: 0x0, symName: __ZN6parlay8internal12hazptr_stackIPSt4byteE4pushES3_, symObjAddr: 0x3FDE0, symBinAddr: 0x100042CC0, symSize: 0x1E8 }
  - { offset: 0x20F6F2, size: 0x8, addend: 0x0, symName: __ZN6parlay14ThreadSpecificINS_8internal15block_allocator10local_listEE3getEv, symObjAddr: 0x1D800, symBinAddr: 0x100020818, symSize: 0x174 }
  - { offset: 0x20F989, size: 0x8, addend: 0x0, symName: __ZN6parlay8internal12hazptr_stackIPNS0_15block_allocator5blockEE4pushES4_, symObjAddr: 0x1D974, symBinAddr: 0x10002098C, symSize: 0x1E8 }
  - { offset: 0x210030, size: 0x8, addend: 0x0, symName: __ZN6parlay8internal14pool_allocatorC2ERKNSt3__16vectorImNS2_9allocatorImEEEE, symObjAddr: 0x45078, symBinAddr: 0x100047F58, symSize: 0x4E8 }
  - { offset: 0x210D4A, size: 0x8, addend: 0x0, symName: __ZN6parlay19fork_join_scheduler5pardoIZNS0_7parfor_IZNS_8sequenceINS3_IlNS_9allocatorIlEELb0EEENS4_IS6_EELb0EEC1IZNS_8internal3mapIRS6_Z24convert_parents_to_graphIS8_lET_SE_NS3_IT0_NS4_ISF_EEXsr3std7is_sameISF_cEE5valueEEEEUllE0_EEDaOSE_OSF_mEUlmE_EEmSK_NS8_18_from_function_tagEmEUlmE_EEvRNS_9schedulerINS_15WorkStealingJobEEEmmRSE_mbEUlvE_ZNS2_ISO_EEvSS_mmST_mbEUlvE0_EEvSS_SK_SL_b, symObjAddr: 0xA1A20, symBinAddr: 0x1000A3CD4, symSize: 0x628 }
  - { offset: 0x211F00, size: 0x8, addend: 0x0, symName: __ZN6parlay19fork_join_scheduler5pardoIZNS0_7parfor_IZNS_8sequenceImNS_9allocatorImEELb0EEC1IZNS_7flattenINSt3__14pairIllEEEEDaONS3_INS3_IT_NS4_ISD_EEXsr3std7is_sameISD_cEE5valueEEENS4_ISF_EEXsr3std7is_sameISF_cEE5valueEEEEUlmE_EEmOSD_NS6_18_from_function_tagEmEUlmE_EEvRNS_9schedulerINS_15WorkStealingJobEEEmmRSD_mbEUlvE_ZNS2_ISM_EEvSQ_mmSR_mbEUlvE0_EEvSQ_SK_OT0_b, symObjAddr: 0x9FA34, symBinAddr: 0x1000A1CE8, symSize: 0x830 }
  - { offset: 0x2131DD, size: 0x8, addend: 0x0, symName: __ZN6parlay19fork_join_scheduler5pardoIZNS0_7parfor_IZNS_24uninitialized_relocate_nIPNSt3__14pairIllEElS7_EENS5_IT_T1_EES8_T0_S9_EUlmE_EEvRNS_9schedulerINS_15WorkStealingJobEEEmmRS8_mbEUlvE_ZNS2_ISC_EEvSG_mmSH_mbEUlvE0_EEvSG_OS8_OSB_b, symObjAddr: 0x8DB50, symBinAddr: 0x100090558, symSize: 0x688 }
  - { offset: 0x214487, size: 0x8, addend: 0x0, symName: __ZN6parlay8internal12hazptr_stackIPvE4pushES2_, symObjAddr: 0x4A238, symBinAddr: 0x10004D008, symSize: 0x1E8 }
  - { offset: 0x214B2E, size: 0x8, addend: 0x0, symName: __ZN6parlay17sequence_internal13sequence_baseINS_8sequenceIlNS_9allocatorIlEELb0EEENS3_IS5_EELb0EE12storage_implD1Ev, symObjAddr: 0x61D78, symBinAddr: 0x100064B48, symSize: 0x7C }
  - { offset: 0x214CCE, size: 0x8, addend: 0x0, symName: __ZN6parlay17sequence_internal13sequence_baseINS_8sequenceINSt3__14pairIllEENS_9allocatorIS5_EELb0EEENS6_IS8_EELb0EE12storage_implD1Ev, symObjAddr: 0xA043C, symBinAddr: 0x1000A26F0, symSize: 0x7C }
  - { offset: 0x214E6E, size: 0x8, addend: 0x0, symName: __ZN6parlay17sequence_internal13sequence_baseINS_8sequenceIlNS_9allocatorIlEELb0EEENS3_IS5_EELb0EED2Ev, symObjAddr: 0x61DF4, symBinAddr: 0x100064BC4, symSize: 0x7C }
  - { offset: 0x215025, size: 0x8, addend: 0x0, symName: __ZN6parlay8sequenceINS0_INSt3__14pairIllEENS_9allocatorIS3_EELb0EEENS4_IS6_EELb0EED1Ev, symObjAddr: 0x9EDB4, symBinAddr: 0x1000A1068, symSize: 0x7C }
  - { offset: 0x215208, size: 0x8, addend: 0x0, symName: __ZN6parlay17sequence_internal13sequence_baseINS_8sequenceINSt3__14pairIllEENS_9allocatorIS5_EELb0EEENS6_IS8_EELb0EED2Ev, symObjAddr: 0xA04B8, symBinAddr: 0x1000A276C, symSize: 0x7C }
  - { offset: 0x215530, size: 0x8, addend: 0x0, symName: __ZN6parlay8internal15block_allocator4freeEPv, symObjAddr: 0x2260C, symBinAddr: 0x100025514, symSize: 0xE8 }
  - { offset: 0x216883, size: 0x8, addend: 0x0, symName: __ZZN6parlay8sequenceI7clusterIldENS_9allocatorIS2_EELb0EEC1IZ20create_base_clustersIldEvRNS0_INS0_IT_NS3_IS8_EEXsr3std7is_sameIS8_cEE5valueEEENS3_ISA_EEXsr3std7is_sameISA_cEE5valueEEERNS0_IS1_IS8_T0_ENS3_ISF_EEXsr3std7is_sameISF_cEE5valueEEES8_SE_EUllE_EEmOS8_NS5_18_from_function_tagEmENKUlmE_clEm, symObjAddr: 0x5C334, symBinAddr: 0x10005F104, symSize: 0x1B0 }
  - { offset: 0x2170D7, size: 0x8, addend: 0x0, symName: __ZN6parlay8internal15block_allocatorC2Emmmmm, symObjAddr: 0x1CF44, symBinAddr: 0x10001FF5C, symSize: 0x568 }
  - { offset: 0x217D4B, size: 0x8, addend: 0x0, symName: __ZN6parlay19fork_join_scheduler5pardoIZNS0_7parfor_IZNS_8sequenceI7clusterIldENS_9allocatorIS5_EELb0EEC1IZ20create_base_clustersIldEvRNS3_INS3_IT_NS6_ISB_EEXsr3std7is_sameISB_cEE5valueEEENS6_ISD_EEXsr3std7is_sameISD_cEE5valueEEERNS3_IS4_ISB_T0_ENS6_ISI_EEXsr3std7is_sameISI_cEE5valueEEESB_SH_EUllE_EEmOSB_NS8_18_from_function_tagEmEUlmE_EEvRNS_9schedulerINS_15WorkStealingJobEEEmmRSB_mbEUlvE_ZNS2_ISP_EEvST_mmSU_mbEUlvE0_EEvST_SN_OSH_b, symObjAddr: 0x5C564, symBinAddr: 0x10005F334, symSize: 0x620 }
  - { offset: 0x218F04, size: 0x8, addend: 0x0, symName: __ZN6parlay14type_allocatorI4nodeIldEE5allocEv, symObjAddr: 0x3FB60, symBinAddr: 0x100042A40, symSize: 0xC0 }
  - { offset: 0x218FAB, size: 0x8, addend: 0x0, symName: __ZZ20create_base_clustersIldEvRN6parlay8sequenceINS1_IT_NS0_9allocatorIS2_EEXsr3std7is_sameIS2_cEE5valueEEENS3_IS5_EEXsr3std7is_sameIS5_cEE5valueEEERNS1_I7clusterIS2_T0_ENS3_ISB_EEXsr3std7is_sameISB_cEE5valueEEES2_SA_ENKUllE1_clEl, symObjAddr: 0x56D18, symBinAddr: 0x100059AE8, symSize: 0x1F8 }
  - { offset: 0x21966C, size: 0x8, addend: 0x0, symName: __ZN6parlay19fork_join_scheduler15get_granularityIZ20create_base_clustersIldEvRNS_8sequenceINS3_IT_NS_9allocatorIS4_EEXsr3std7is_sameIS4_cEE5valueEEENS5_IS7_EEXsr3std7is_sameIS7_cEE5valueEEERNS3_I7clusterIS4_T0_ENS5_ISD_EEXsr3std7is_sameISD_cEE5valueEEES4_SC_EUllE1_EEmmmRS4_, symObjAddr: 0x577A4, symBinAddr: 0x10005A574, symSize: 0x3DF0 }
  - { offset: 0x22024C, size: 0x8, addend: 0x0, symName: __ZN6parlay19fork_join_scheduler5pardoIZNS0_7parfor_IZ20create_base_clustersIldEvRNS_8sequenceINS4_IT_NS_9allocatorIS5_EEXsr3std7is_sameIS5_cEE5valueEEENS6_IS8_EEXsr3std7is_sameIS8_cEE5valueEEERNS4_I7clusterIS5_T0_ENS6_ISE_EEXsr3std7is_sameISE_cEE5valueEEES5_SD_EUllE1_EEvRNS_9schedulerINS_15WorkStealingJobEEEmmRS5_mbEUlvE_ZNS2_ISI_EEvSM_mmSN_mbEUlvE0_EEvSM_OS5_OSD_b, symObjAddr: 0x5B594, symBinAddr: 0x10005E364, symSize: 0x620 }
  - { offset: 0x221406, size: 0x8, addend: 0x0, symName: __ZZ20create_base_clustersIldEvRN6parlay8sequenceINS1_IT_NS0_9allocatorIS2_EEXsr3std7is_sameIS2_cEE5valueEEENS3_IS5_EEXsr3std7is_sameIS5_cEE5valueEEERNS1_I7clusterIS2_T0_ENS3_ISB_EEXsr3std7is_sameISB_cEE5valueEEES2_SA_ENKUllE2_clEl, symObjAddr: 0x56F10, symBinAddr: 0x100059CE0, symSize: 0x198 }
  - { offset: 0x221867, size: 0x8, addend: 0x0, symName: __ZN6parlay19fork_join_scheduler5pardoIZNS0_7parfor_IZ20create_base_clustersIldEvRNS_8sequenceINS4_IT_NS_9allocatorIS5_EEXsr3std7is_sameIS5_cEE5valueEEENS6_IS8_EEXsr3std7is_sameIS8_cEE5valueEEERNS4_I7clusterIS5_T0_ENS6_ISE_EEXsr3std7is_sameISE_cEE5valueEEES5_SD_EUllE2_EEvRNS_9schedulerINS_15WorkStealingJobEEEmmRS5_mbEUlvE_ZNS2_ISI_EEvSM_mmSN_mbEUlvE0_EEvSM_OS5_OSD_b, symObjAddr: 0x570A8, symBinAddr: 0x100059E78, symSize: 0x620 }
  - { offset: 0x222A21, size: 0x8, addend: 0x0, symName: __ZN6parlay17sequence_internal13sequence_baseI7clusterIldENS_9allocatorIS3_EELb0EE12storage_implD1Ev, symObjAddr: 0x5C2B4, symBinAddr: 0x10005F084, symSize: 0x80 }
  - { offset: 0x222BC1, size: 0x8, addend: 0x0, symName: __ZN6parlay17sequence_internal13sequence_baseI7clusterIldENS_9allocatorIS3_EELb0EED2Ev, symObjAddr: 0x5C4E4, symBinAddr: 0x10005F2B4, symSize: 0x80 }
  - { offset: 0x22802E, size: 0x8, addend: 0x0, symName: '__ZZN6parlay8sequenceINS0_IP4nodeIldENS_9allocatorIS3_EELb0EEENS4_IS6_EELb0EEC1IZ15batchInsertEdgeIldZ4mainE3$_0EvRKNS0_INSt3__14pairIT_SE_EENS4_ISF_EEXsr3std7is_sameISF_cEE5valueEEERKNS0_INSC_5tupleIJSE_SE_T0_EEENS4_ISM_EEXsr3std7is_sameISM_cEE5valueEEERNS0_I7clusterISE_SL_ENS4_ISS_EEXsr3std7is_sameISS_cEE5valueEEESL_T1_EUllE_EEmOSE_NS8_18_from_function_tagEmENKUlmE_clEm', symObjAddr: 0x241DC, symBinAddr: 0x1000270D0, symSize: 0x248 }
  - { offset: 0x228997, size: 0x8, addend: 0x0, symName: '__ZZ15batchInsertEdgeIldZ4mainE3$_0EvRKN6parlay8sequenceINSt3__14pairIT_S5_EENS1_9allocatorIS6_EEXsr3std7is_sameIS6_cEE5valueEEERKNS2_INS3_5tupleIJS5_S5_T0_EEENS7_ISE_EEXsr3std7is_sameISE_cEE5valueEEERNS2_I7clusterIS5_SD_ENS7_ISK_EEXsr3std7is_sameISK_cEE5valueEEESD_T1_ENKUllE1_clEl', symObjAddr: 0x29CCC, symBinAddr: 0x10002CBC0, symSize: 0x3E0 }
  - { offset: 0x228FEF, size: 0x8, addend: 0x0, symName: __ZN6parlay19fork_join_scheduler5pardoIZNS0_7parfor_IZNS_17sequence_internal13sequence_baseI14edge_with_flagINSt3__15tupleIJlldEEEENS_9allocatorIS9_EELb0EE12storage_implC1ERKSD_EUlmE_EEvRNS_9schedulerINS_15WorkStealingJobEEEmmRT_mbEUlvE_ZNS2_ISG_EEvSK_mmSM_mbEUlvE0_EEvSK_OSL_OT0_b, symObjAddr: 0x41EBC, symBinAddr: 0x100044D9C, symSize: 0x648 }
  - { offset: 0x22A21F, size: 0x8, addend: 0x0, symName: '__ZZ15batchInsertEdgeIldZ4mainE3$_0EvRKN6parlay8sequenceINSt3__14pairIT_S5_EENS1_9allocatorIS6_EEXsr3std7is_sameIS6_cEE5valueEEERKNS2_INS3_5tupleIJS5_S5_T0_EEENS7_ISE_EEXsr3std7is_sameISE_cEE5valueEEERNS2_I7clusterIS5_SD_ENS7_ISK_EEXsr3std7is_sameISK_cEE5valueEEESD_T1_ENKUllE4_clEl', symObjAddr: 0x2B18C, symBinAddr: 0x10002E080, symSize: 0x2BC }
  - { offset: 0x22A7E7, size: 0x8, addend: 0x0, symName: __ZN6parlay8sequenceI14edge_with_flagINSt3__15tupleIJlldEEEENS_9allocatorIS5_EELb0EEC2EmNS8_18_uninitialized_tagE, symObjAddr: 0x2C358, symBinAddr: 0x10002F24C, symSize: 0x184 }
  - { offset: 0x22AB81, size: 0x8, addend: 0x0, symName: '__ZZ15batchInsertEdgeIldZ4mainE3$_0EvRKN6parlay8sequenceINSt3__14pairIT_S5_EENS1_9allocatorIS6_EEXsr3std7is_sameIS6_cEE5valueEEERKNS2_INS3_5tupleIJS5_S5_T0_EEENS7_ISE_EEXsr3std7is_sameISE_cEE5valueEEERNS2_I7clusterIS5_SD_ENS7_ISK_EEXsr3std7is_sameISK_cEE5valueEEESD_T1_ENKUllE6_clEl', symObjAddr: 0x2D108, symBinAddr: 0x10002FFFC, symSize: 0x1C4 }
  - { offset: 0x22AE27, size: 0x8, addend: 0x0, symName: __ZZ28create_decompressed_affectedIldEvRN6parlay8sequenceIP4nodeIT_T0_ENS0_9allocatorIS6_EEXsr3std7is_sameIS6_cEE5valueEEEENKUllE_clEl, symObjAddr: 0x3E110, symBinAddr: 0x100040FF0, symSize: 0x248 }
  - { offset: 0x22B124, size: 0x8, addend: 0x0, symName: __ZN6parlay19fork_join_scheduler5pardoIZNS0_7parfor_IZ28create_decompressed_affectedIldEvRNS_8sequenceIP4nodeIT_T0_ENS_9allocatorIS9_EEXsr3std7is_sameIS9_cEE5valueEEEEUllE_EEvRNS_9schedulerINS_15WorkStealingJobEEEmmRS6_mbEUlvE_ZNS2_ISE_EEvSI_mmSJ_mbEUlvE0_EEvSI_OS6_OS7_b, symObjAddr: 0x4153C, symBinAddr: 0x10004441C, symSize: 0x628 }
  - { offset: 0x22C2DA, size: 0x8, addend: 0x0, symName: __ZZ28create_decompressed_affectedIldEvRN6parlay8sequenceIP4nodeIT_T0_ENS0_9allocatorIS6_EEXsr3std7is_sameIS6_cEE5valueEEEENKUllE0_clEl, symObjAddr: 0x3E358, symBinAddr: 0x100041238, symSize: 0x2FC }
  - { offset: 0x22C46C, size: 0x8, addend: 0x0, symName: __ZN6parlay19fork_join_scheduler5pardoIZNS0_7parfor_IZ28create_decompressed_affectedIldEvRNS_8sequenceIP4nodeIT_T0_ENS_9allocatorIS9_EEXsr3std7is_sameIS9_cEE5valueEEEEUllE0_EEvRNS_9schedulerINS_15WorkStealingJobEEEmmRS6_mbEUlvE_ZNS2_ISE_EEvSI_mmSJ_mbEUlvE0_EEvSI_OS6_OS7_b, symObjAddr: 0x40E34, symBinAddr: 0x100043D14, symSize: 0x628 }
  - { offset: 0x22D622, size: 0x8, addend: 0x0, symName: __ZZ28create_decompressed_affectedIldEvRN6parlay8sequenceIP4nodeIT_T0_ENS0_9allocatorIS6_EEXsr3std7is_sameIS6_cEE5valueEEEENKUllE1_clEl, symObjAddr: 0x3E654, symBinAddr: 0x100041534, symSize: 0x29C }
  - { offset: 0x22D79F, size: 0x8, addend: 0x0, symName: __ZN6parlay19fork_join_scheduler5pardoIZNS0_7parfor_IZ28create_decompressed_affectedIldEvRNS_8sequenceIP4nodeIT_T0_ENS_9allocatorIS9_EEXsr3std7is_sameIS9_cEE5valueEEEEUllE1_EEvRNS_9schedulerINS_15WorkStealingJobEEEmmRS6_mbEUlvE_ZNS2_ISE_EEvSI_mmSJ_mbEUlvE0_EEvSI_OS6_OS7_b, symObjAddr: 0x405FC, symBinAddr: 0x1000434DC, symSize: 0x628 }
  - { offset: 0x22E955, size: 0x8, addend: 0x0, symName: __ZZ28create_decompressed_affectedIldEvRN6parlay8sequenceIP4nodeIT_T0_ENS0_9allocatorIS6_EEXsr3std7is_sameIS6_cEE5valueEEEENKUllE3_clEl, symObjAddr: 0x3E8F0, symBinAddr: 0x1000417D0, symSize: 0x200 }
  - { offset: 0x22EFF2, size: 0x8, addend: 0x0, symName: __ZN6parlay19fork_join_scheduler5pardoIZNS0_7parfor_IZ28create_decompressed_affectedIldEvRNS_8sequenceIP4nodeIT_T0_ENS_9allocatorIS9_EEXsr3std7is_sameIS9_cEE5valueEEEEUllE3_EEvRNS_9schedulerINS_15WorkStealingJobEEEmmRS6_mbEUlvE_ZNS2_ISE_EEvSI_mmSJ_mbEUlvE0_EEvSI_OS6_OS7_b, symObjAddr: 0x3F458, symBinAddr: 0x100042338, symSize: 0x628 }
  - { offset: 0x2301A8, size: 0x8, addend: 0x0, symName: __ZZ28create_decompressed_affectedIldEvRN6parlay8sequenceIP4nodeIT_T0_ENS0_9allocatorIS6_EEXsr3std7is_sameIS6_cEE5valueEEEENKUllE4_clEl, symObjAddr: 0x3EAF0, symBinAddr: 0x1000419D0, symSize: 0x260 }
  - { offset: 0x23037F, size: 0x8, addend: 0x0, symName: __ZN6parlay19fork_join_scheduler5pardoIZNS0_7parfor_IZ28create_decompressed_affectedIldEvRNS_8sequenceIP4nodeIT_T0_ENS_9allocatorIS9_EEXsr3std7is_sameIS9_cEE5valueEEEEUllE4_EEvRNS_9schedulerINS_15WorkStealingJobEEEmmRS6_mbEUlvE_ZNS2_ISE_EEvSI_mmSJ_mbEUlvE0_EEvSI_OS6_OS7_b, symObjAddr: 0x3ED50, symBinAddr: 0x100041C30, symSize: 0x628 }
  - { offset: 0x231529, size: 0x8, addend: 0x0, symName: __ZN7clusterIldE5printEh, symObjAddr: 0x33F68, symBinAddr: 0x100036E5C, symSize: 0x908 }
  - { offset: 0x23248F, size: 0x8, addend: 0x0, symName: '__ZZ15batchInsertEdgeIldZ4mainE3$_0EvRKN6parlay8sequenceINSt3__14pairIT_S5_EENS1_9allocatorIS6_EEXsr3std7is_sameIS6_cEE5valueEEERKNS2_INS3_5tupleIJS5_S5_T0_EEENS7_ISE_EEXsr3std7is_sameISE_cEE5valueEEERNS2_I7clusterIS5_SD_ENS7_ISK_EEXsr3std7is_sameISK_cEE5valueEEESD_T1_ENKUllE9_clEl', symObjAddr: 0x34870, symBinAddr: 0x100037764, symSize: 0x220 }
  - { offset: 0x23270F, size: 0x8, addend: 0x0, symName: '__ZN6parlay19fork_join_scheduler7parfor_IZ15batchInsertEdgeIldZ4mainE3$_0EvRKNS_8sequenceINSt3__14pairIT_S7_EENS_9allocatorIS8_EEXsr3std7is_sameIS8_cEE5valueEEERKNS4_INS5_5tupleIJS7_S7_T0_EEENS9_ISG_EEXsr3std7is_sameISG_cEE5valueEEERNS4_I7clusterIS7_SF_ENS9_ISM_EEXsr3std7is_sameISM_cEE5valueEEESF_T1_EUllE9_EEvRNS_9schedulerINS_15WorkStealingJobEEEmmRS7_mb', symObjAddr: 0x34A90, symBinAddr: 0x100037984, symSize: 0x570 }
  - { offset: 0x232719, size: 0x8, addend: 0x0, symName: __ZN6parlay14type_allocatorI4nodeIldEE4freeEPS2_, symObjAddr: 0x1CE5C, symBinAddr: 0x10001FE74, symSize: 0xE8 }
  - { offset: 0x2327CE, size: 0x8, addend: 0x0, symName: __ZZ22check_parents_childrenIldEvRN6parlay8sequenceI7clusterIT_T0_ENS0_9allocatorIS5_EEXsr3std7is_sameIS5_cEE5valueEEEENKUllE_clEl, symObjAddr: 0x38134, symBinAddr: 0x10003B028, symSize: 0x14C }
  - { offset: 0x232A0A, size: 0x8, addend: 0x0, symName: __ZN6parlay19fork_join_scheduler5pardoIZNS0_7parfor_IZ22check_parents_childrenIldEvRNS_8sequenceI7clusterIT_T0_ENS_9allocatorIS8_EEXsr3std7is_sameIS8_cEE5valueEEEEUllE_EEvRNS_9schedulerINS_15WorkStealingJobEEEmmRS6_mbEUlvE_ZNS2_ISD_EEvSH_mmSI_mbEUlvE0_EEvSH_OS6_OS7_b, symObjAddr: 0x38280, symBinAddr: 0x10003B174, symSize: 0x628 }
  - { offset: 0x232A21, size: 0x8, addend: 0x0, symName: __ZN6parlay19fork_join_scheduler5pardoIZNS0_7parfor_IZ22check_parents_childrenIldEvRNS_8sequenceI7clusterIT_T0_ENS_9allocatorIS8_EEXsr3std7is_sameIS8_cEE5valueEEEEUllE_EEvRNS_9schedulerINS_15WorkStealingJobEEEmmRS6_mbEUlvE_ZNS2_ISD_EEvSH_mmSI_mbEUlvE0_EEvSH_OS6_OS7_b, symObjAddr: 0x38280, symBinAddr: 0x10003B174, symSize: 0x628 }
  - { offset: 0x233BD9, size: 0x8, addend: 0x0, symName: __ZN6parlay8sequenceINS0_IP4nodeIldENS_9allocatorIS3_EELb0EEENS4_IS6_EELb0EED1Ev, symObjAddr: 0x26868, symBinAddr: 0x10002975C, symSize: 0x7C }
  - { offset: 0x234D94, size: 0x8, addend: 0x0, symName: __ZNSt3__16threadC2IZN6parlay9schedulerINS2_15WorkStealingJobEEC1EmEUlvE_JEvEEOT_DpOT0_, symObjAddr: 0x236C4, symBinAddr: 0x1000265CC, symSize: 0xC4 }
  - { offset: 0x235100, size: 0x8, addend: 0x0, symName: __ZNSt3__114__split_bufferINS_6threadERNS_9allocatorIS1_EEED1Ev, symObjAddr: 0x2382C, symBinAddr: 0x100026720, symSize: 0x50 }
  - { offset: 0x23510B, size: 0x8, addend: 0x0, symName: __ZNKSt3__16vectorIN6parlay8internal5DequeINS1_15WorkStealingJobEEENS_9allocatorIS5_EEE20__throw_length_errorB8ue170006Ev, symObjAddr: 0x236B0, symBinAddr: 0x1000265B8, symSize: 0x14 }
  - { offset: 0x235130, size: 0x8, addend: 0x0, symName: __ZNSt3__16threadC2IZN6parlay9schedulerINS2_15WorkStealingJobEEC1EmEUlvE_JEvEEOT_DpOT0_, symObjAddr: 0x236C4, symBinAddr: 0x1000265CC, symSize: 0xC4 }
  - { offset: 0x23513B, size: 0x8, addend: 0x0, symName: __ZNSt3__114__split_bufferINS_6threadERNS_9allocatorIS1_EEED1Ev, symObjAddr: 0x2382C, symBinAddr: 0x100026720, symSize: 0x50 }
  - { offset: 0x2352AD, size: 0x8, addend: 0x0, symName: __ZNSt3__16vectorINS_6threadENS_9allocatorIS1_EEED1B8ue170006Ev, symObjAddr: 0x23788, symBinAddr: 0x100026690, symSize: 0x90 }
  - { offset: 0x23569C, size: 0x8, addend: 0x0, symName: __ZN6parlay9schedulerINS_15WorkStealingJobEED1Ev, symObjAddr: 0x1BE18, symBinAddr: 0x10001EE30, symSize: 0x1DC }
  - { offset: 0x236BFA, size: 0x8, addend: 0x0, symName: __ZN6parlay14ThreadSpecificINS_8internal24intrusive_acquire_retireINS1_12hazptr_stackIPSt4byteE4NodeENSt3__114default_deleteIS7_EELm1EE10ThreadDataEE10initializeEv, symObjAddr: 0x2199C, symBinAddr: 0x1000249B4, symSize: 0x25C }
  - { offset: 0x236EBB, size: 0x8, addend: 0x0, symName: __ZN6parlay14ThreadSpecificINS_8internal24intrusive_acquire_retireINS1_12hazptr_stackIPNS1_15block_allocator5blockEE4NodeENSt3__114default_deleteIS8_EELm1EE10ThreadDataEE10initializeEv, symObjAddr: 0x1EBCC, symBinAddr: 0x100021BE4, symSize: 0x25C }
  - { offset: 0x23717C, size: 0x8, addend: 0x0, symName: __ZN6parlay14ThreadSpecificINS_8internal15block_allocator10local_listEED1Ev, symObjAddr: 0x20A88, symBinAddr: 0x100023AA0, symSize: 0x2AC }
  - { offset: 0x2372CD, size: 0x8, addend: 0x0, symName: __ZN6parlay8internal15block_allocatorD1Ev, symObjAddr: 0x1D4AC, symBinAddr: 0x1000204C4, symSize: 0x4 }
  - { offset: 0x2372F0, size: 0x8, addend: 0x0, symName: __ZN6parlay8internal15block_allocatorD1Ev, symObjAddr: 0x1D4AC, symBinAddr: 0x1000204C4, symSize: 0x4 }
  - { offset: 0x2372FB, size: 0x8, addend: 0x0, symName: __ZN6parlay8internal15block_allocatorD2Ev, symObjAddr: 0x1F92C, symBinAddr: 0x100022944, symSize: 0x115C }
  - { offset: 0x23B99F, size: 0x8, addend: 0x0, symName: __ZN6parlay14ThreadSpecificINS_8internal24intrusive_acquire_retireINS1_12hazptr_stackIPNS1_15block_allocator5blockEE4NodeENSt3__114default_deleteIS8_EELm1EE10ThreadDataEE3getEv, symObjAddr: 0x1F2E4, symBinAddr: 0x1000222FC, symSize: 0x17C }
  - { offset: 0x23C46F, size: 0x8, addend: 0x0, symName: __ZN6parlay9schedulerINS_15WorkStealingJobEE5spawnEPS1_, symObjAddr: 0x1E9F8, symBinAddr: 0x100021A10, symSize: 0x12C }
  - { offset: 0x23C7F3, size: 0x8, addend: 0x0, symName: __ZNSt3__1lsB8ue170006INS_11char_traitsIcEEEERNS_13basic_ostreamIcT_EES6_PKc, symObjAddr: 0x1EB24, symBinAddr: 0x100021B3C, symSize: 0x34 }
  - { offset: 0x23C894, size: 0x8, addend: 0x0, symName: __ZN6parlay7JobImplIZNS_19fork_join_scheduler7parfor_IZNS_17sequence_internal13sequence_baseI7clusterIldENS_9allocatorIS6_EELb0EE12storage_impl11destroy_allEvEUlmE_EEvRNS_9schedulerINS_15WorkStealingJobEEEmmRT_mbEUlvE0_ED1Ev, symObjAddr: 0x1EB58, symBinAddr: 0x100021B70, symSize: 0x4 }
  - { offset: 0x23C8BF, size: 0x8, addend: 0x0, symName: __ZN6parlay7JobImplIZNS_19fork_join_scheduler7parfor_IZNS_17sequence_internal13sequence_baseI7clusterIldENS_9allocatorIS6_EELb0EE12storage_impl11destroy_allEvEUlmE_EEvRNS_9schedulerINS_15WorkStealingJobEEEmmRT_mbEUlvE0_ED0Ev, symObjAddr: 0x1EB5C, symBinAddr: 0x100021B74, symSize: 0x4 }
  - { offset: 0x23C8EA, size: 0x8, addend: 0x0, symName: __ZN6parlay7JobImplIZNS_19fork_join_scheduler7parfor_IZNS_17sequence_internal13sequence_baseI7clusterIldENS_9allocatorIS6_EELb0EE12storage_impl11destroy_allEvEUlmE_EEvRNS_9schedulerINS_15WorkStealingJobEEEmmRT_mbEUlvE0_E7executeEv, symObjAddr: 0x1EB60, symBinAddr: 0x100021B78, symSize: 0x24 }
  - { offset: 0x23C99B, size: 0x8, addend: 0x0, symName: __ZNSt3__117bad_function_callD1Ev, symObjAddr: 0x1EBB4, symBinAddr: 0x100021BCC, symSize: 0x4 }
  - { offset: 0x23C9BD, size: 0x8, addend: 0x0, symName: __ZNSt3__117bad_function_callD1Ev, symObjAddr: 0x1EBB4, symBinAddr: 0x100021BCC, symSize: 0x4 }
  - { offset: 0x23C9F1, size: 0x8, addend: 0x0, symName: __ZNSt3__117bad_function_callD0Ev, symObjAddr: 0x1EBB8, symBinAddr: 0x100021BD0, symSize: 0x14 }
  - { offset: 0x23CF60, size: 0x8, addend: 0x0, symName: __ZN6parlay8internal24intrusive_acquire_retireINS0_12hazptr_stackIPNS0_15block_allocator5blockEE4NodeENSt3__114default_deleteIS7_EELm1EED1Ev, symObjAddr: 0x1EE28, symBinAddr: 0x100021E40, symSize: 0x4BC }
  - { offset: 0x23DFCD, size: 0x8, addend: 0x0, symName: __ZNK6parlay14ThreadSpecificINS_8internal24intrusive_acquire_retireINS1_12hazptr_stackIPNS1_15block_allocator5blockEE4NodeENSt3__114default_deleteIS8_EELm1EE10ThreadDataEE19ensure_chunk_existsEm, symObjAddr: 0x1F460, symBinAddr: 0x100022478, symSize: 0x144 }
  - { offset: 0x23E22D, size: 0x8, addend: 0x0, symName: __ZNSt3__110shared_ptrIN6parlay8internal12ThreadIdPoolEED1B8ue170006Ev, symObjAddr: 0x1F5A4, symBinAddr: 0x1000225BC, symSize: 0x50 }
  - { offset: 0x23E2E9, size: 0x8, addend: 0x0, symName: __ZNSt3__120__shared_ptr_emplaceIN6parlay8internal12ThreadIdPoolENS_9allocatorIS3_EEED1Ev, symObjAddr: 0x1F5F4, symBinAddr: 0x10002260C, symSize: 0x10 }
  - { offset: 0x23E30B, size: 0x8, addend: 0x0, symName: __ZNSt3__120__shared_ptr_emplaceIN6parlay8internal12ThreadIdPoolENS_9allocatorIS3_EEED1Ev, symObjAddr: 0x1F5F4, symBinAddr: 0x10002260C, symSize: 0x10 }
  - { offset: 0x23E343, size: 0x8, addend: 0x0, symName: __ZNSt3__120__shared_ptr_emplaceIN6parlay8internal12ThreadIdPoolENS_9allocatorIS3_EEED0Ev, symObjAddr: 0x1F604, symBinAddr: 0x10002261C, symSize: 0x20 }
  - { offset: 0x23E489, size: 0x8, addend: 0x0, symName: __ZNSt3__120__shared_ptr_emplaceIN6parlay8internal12ThreadIdPoolENS_9allocatorIS3_EEE16__on_zero_sharedEv, symObjAddr: 0x1F624, symBinAddr: 0x10002263C, symSize: 0x98 }
  - { offset: 0x23E690, size: 0x8, addend: 0x0, symName: __ZNSt3__120__shared_ptr_emplaceIN6parlay8internal12ThreadIdPoolENS_9allocatorIS3_EEE21__on_zero_shared_weakEv, symObjAddr: 0x1F6BC, symBinAddr: 0x1000226D4, symSize: 0x4 }
  - { offset: 0x23E6C3, size: 0x8, addend: 0x0, symName: __ZNSt3__120__shared_ptr_emplaceIN6parlay8internal12ThreadIdPoolENS_9allocatorIS3_EEE21__on_zero_shared_weakEv, symObjAddr: 0x1F6BC, symBinAddr: 0x1000226D4, symSize: 0x4 }
  - { offset: 0x23E6E5, size: 0x8, addend: 0x0, symName: __ZNSt3__120__shared_ptr_emplaceIN6parlay8internal12ThreadIdPoolENS_9allocatorIS3_EEE21__on_zero_shared_weakEv, symObjAddr: 0x1F6BC, symBinAddr: 0x1000226D4, symSize: 0x4 }
  - { offset: 0x23E707, size: 0x8, addend: 0x0, symName: __ZNSt3__120__shared_ptr_emplaceIN6parlay8internal12ThreadIdPoolENS_9allocatorIS3_EEE21__on_zero_shared_weakEv, symObjAddr: 0x1F6BC, symBinAddr: 0x1000226D4, symSize: 0x4 }
  - { offset: 0x23E733, size: 0x8, addend: 0x0, symName: __ZNSt3__120__shared_ptr_emplaceIN6parlay8internal12ThreadIdPoolENS_9allocatorIS3_EEE21__on_zero_shared_weakEv, symObjAddr: 0x1F6BC, symBinAddr: 0x1000226D4, symSize: 0x4 }
  - { offset: 0x23E75A, size: 0x8, addend: 0x0, symName: __ZNSt3__120__shared_ptr_emplaceIN6parlay8internal12ThreadIdPoolENS_9allocatorIS3_EEE21__on_zero_shared_weakEv, symObjAddr: 0x1F6BC, symBinAddr: 0x1000226D4, symSize: 0x4 }
  - { offset: 0x23E786, size: 0x8, addend: 0x0, symName: __ZNSt3__110__function6__funcIZN6parlay14ThreadSpecificINS2_8internal24intrusive_acquire_retireINS4_12hazptr_stackIPNS4_15block_allocator5blockEE4NodeENS_14default_deleteISB_EELm1EE10ThreadDataEEC1EvEUlmE_NS_9allocatorISH_EEFSF_jEED1Ev, symObjAddr: 0x1F6C0, symBinAddr: 0x1000226D8, symSize: 0x4 }
  - { offset: 0x23E7B2, size: 0x8, addend: 0x0, symName: __ZNSt3__110__function6__funcIZN6parlay14ThreadSpecificINS2_8internal24intrusive_acquire_retireINS4_12hazptr_stackIPNS4_15block_allocator5blockEE4NodeENS_14default_deleteISB_EELm1EE10ThreadDataEEC1EvEUlmE_NS_9allocatorISH_EEFSF_jEED0Ev, symObjAddr: 0x1F6C4, symBinAddr: 0x1000226DC, symSize: 0x4 }
  - { offset: 0x23E869, size: 0x8, addend: 0x0, symName: __ZNKSt3__110__function6__funcIZN6parlay14ThreadSpecificINS2_8internal24intrusive_acquire_retireINS4_12hazptr_stackIPNS4_15block_allocator5blockEE4NodeENS_14default_deleteISB_EELm1EE10ThreadDataEEC1EvEUlmE_NS_9allocatorISH_EEFSF_jEE7__cloneEv, symObjAddr: 0x1F6C8, symBinAddr: 0x1000226E0, symSize: 0x24 }
  - { offset: 0x23E9AE, size: 0x8, addend: 0x0, symName: __ZNKSt3__110__function6__funcIZN6parlay14ThreadSpecificINS2_8internal24intrusive_acquire_retireINS4_12hazptr_stackIPNS4_15block_allocator5blockEE4NodeENS_14default_deleteISB_EELm1EE10ThreadDataEEC1EvEUlmE_NS_9allocatorISH_EEFSF_jEE7__cloneEPNS0_6__baseISK_EE, symObjAddr: 0x1F6EC, symBinAddr: 0x100022704, symSize: 0x10 }
  - { offset: 0x23E9E3, size: 0x8, addend: 0x0, symName: __ZNKSt3__110__function6__funcIZN6parlay14ThreadSpecificINS2_8internal24intrusive_acquire_retireINS4_12hazptr_stackIPNS4_15block_allocator5blockEE4NodeENS_14default_deleteISB_EELm1EE10ThreadDataEEC1EvEUlmE_NS_9allocatorISH_EEFSF_jEE7__cloneEPNS0_6__baseISK_EE, symObjAddr: 0x1F6EC, symBinAddr: 0x100022704, symSize: 0x10 }
  - { offset: 0x23E9FF, size: 0x8, addend: 0x0, symName: __ZNKSt3__110__function6__funcIZN6parlay14ThreadSpecificINS2_8internal24intrusive_acquire_retireINS4_12hazptr_stackIPNS4_15block_allocator5blockEE4NodeENS_14default_deleteISB_EELm1EE10ThreadDataEEC1EvEUlmE_NS_9allocatorISH_EEFSF_jEE7__cloneEPNS0_6__baseISK_EE, symObjAddr: 0x1F6EC, symBinAddr: 0x100022704, symSize: 0x10 }
  - { offset: 0x23EA1B, size: 0x8, addend: 0x0, symName: __ZNSt3__110__function6__funcIZN6parlay14ThreadSpecificINS2_8internal24intrusive_acquire_retireINS4_12hazptr_stackIPNS4_15block_allocator5blockEE4NodeENS_14default_deleteISB_EELm1EE10ThreadDataEEC1EvEUlmE_NS_9allocatorISH_EEFSF_jEE7destroyEv, symObjAddr: 0x1F6FC, symBinAddr: 0x100022714, symSize: 0x4 }
  - { offset: 0x23EA6C, size: 0x8, addend: 0x0, symName: __ZNSt3__110__function6__funcIZN6parlay14ThreadSpecificINS2_8internal24intrusive_acquire_retireINS4_12hazptr_stackIPNS4_15block_allocator5blockEE4NodeENS_14default_deleteISB_EELm1EE10ThreadDataEEC1EvEUlmE_NS_9allocatorISH_EEFSF_jEE18destroy_deallocateEv, symObjAddr: 0x1F700, symBinAddr: 0x100022718, symSize: 0x4 }
  - { offset: 0x23EAA1, size: 0x8, addend: 0x0, symName: __ZNSt3__110__function6__funcIZN6parlay14ThreadSpecificINS2_8internal24intrusive_acquire_retireINS4_12hazptr_stackIPNS4_15block_allocator5blockEE4NodeENS_14default_deleteISB_EELm1EE10ThreadDataEEC1EvEUlmE_NS_9allocatorISH_EEFSF_jEE18destroy_deallocateEv, symObjAddr: 0x1F700, symBinAddr: 0x100022718, symSize: 0x4 }
  - { offset: 0x23EAC3, size: 0x8, addend: 0x0, symName: __ZNSt3__110__function6__funcIZN6parlay14ThreadSpecificINS2_8internal24intrusive_acquire_retireINS4_12hazptr_stackIPNS4_15block_allocator5blockEE4NodeENS_14default_deleteISB_EELm1EE10ThreadDataEEC1EvEUlmE_NS_9allocatorISH_EEFSF_jEE18destroy_deallocateEv, symObjAddr: 0x1F700, symBinAddr: 0x100022718, symSize: 0x4 }
  - { offset: 0x23EAEE, size: 0x8, addend: 0x0, symName: __ZNSt3__110__function6__funcIZN6parlay14ThreadSpecificINS2_8internal24intrusive_acquire_retireINS4_12hazptr_stackIPNS4_15block_allocator5blockEE4NodeENS_14default_deleteISB_EELm1EE10ThreadDataEEC1EvEUlmE_NS_9allocatorISH_EEFSF_jEE18destroy_deallocateEv, symObjAddr: 0x1F700, symBinAddr: 0x100022718, symSize: 0x4 }
  - { offset: 0x23EB14, size: 0x8, addend: 0x0, symName: __ZNSt3__110__function6__funcIZN6parlay14ThreadSpecificINS2_8internal24intrusive_acquire_retireINS4_12hazptr_stackIPNS4_15block_allocator5blockEE4NodeENS_14default_deleteISB_EELm1EE10ThreadDataEEC1EvEUlmE_NS_9allocatorISH_EEFSF_jEE18destroy_deallocateEv, symObjAddr: 0x1F700, symBinAddr: 0x100022718, symSize: 0x4 }
  - { offset: 0x23EBBA, size: 0x8, addend: 0x0, symName: __ZNSt3__110__function6__funcIZN6parlay14ThreadSpecificINS2_8internal24intrusive_acquire_retireINS4_12hazptr_stackIPNS4_15block_allocator5blockEE4NodeENS_14default_deleteISB_EELm1EE10ThreadDataEEC1EvEUlmE_NS_9allocatorISH_EEFSF_jEEclEOj, symObjAddr: 0x1F704, symBinAddr: 0x10002271C, symSize: 0x14 }
  - { offset: 0x23EBED, size: 0x8, addend: 0x0, symName: __ZNSt3__110__function6__funcIZN6parlay14ThreadSpecificINS2_8internal24intrusive_acquire_retireINS4_12hazptr_stackIPNS4_15block_allocator5blockEE4NodeENS_14default_deleteISB_EELm1EE10ThreadDataEEC1EvEUlmE_NS_9allocatorISH_EEFSF_jEEclEOj, symObjAddr: 0x1F704, symBinAddr: 0x10002271C, symSize: 0x14 }
  - { offset: 0x23EC02, size: 0x8, addend: 0x0, symName: __ZNSt3__110__function6__funcIZN6parlay14ThreadSpecificINS2_8internal24intrusive_acquire_retireINS4_12hazptr_stackIPNS4_15block_allocator5blockEE4NodeENS_14default_deleteISB_EELm1EE10ThreadDataEEC1EvEUlmE_NS_9allocatorISH_EEFSF_jEEclEOj, symObjAddr: 0x1F704, symBinAddr: 0x10002271C, symSize: 0x14 }
  - { offset: 0x23EC16, size: 0x8, addend: 0x0, symName: __ZNSt3__110__function6__funcIZN6parlay14ThreadSpecificINS2_8internal24intrusive_acquire_retireINS4_12hazptr_stackIPNS4_15block_allocator5blockEE4NodeENS_14default_deleteISB_EELm1EE10ThreadDataEEC1EvEUlmE_NS_9allocatorISH_EEFSF_jEEclEOj, symObjAddr: 0x1F704, symBinAddr: 0x10002271C, symSize: 0x14 }
  - { offset: 0x23EC2B, size: 0x8, addend: 0x0, symName: __ZNSt3__110__function6__funcIZN6parlay14ThreadSpecificINS2_8internal24intrusive_acquire_retireINS4_12hazptr_stackIPNS4_15block_allocator5blockEE4NodeENS_14default_deleteISB_EELm1EE10ThreadDataEEC1EvEUlmE_NS_9allocatorISH_EEFSF_jEEclEOj, symObjAddr: 0x1F704, symBinAddr: 0x10002271C, symSize: 0x14 }
  - { offset: 0x23EC40, size: 0x8, addend: 0x0, symName: __ZNSt3__110__function6__funcIZN6parlay14ThreadSpecificINS2_8internal24intrusive_acquire_retireINS4_12hazptr_stackIPNS4_15block_allocator5blockEE4NodeENS_14default_deleteISB_EELm1EE10ThreadDataEEC1EvEUlmE_NS_9allocatorISH_EEFSF_jEEclEOj, symObjAddr: 0x1F704, symBinAddr: 0x10002271C, symSize: 0x14 }
  - { offset: 0x23EC61, size: 0x8, addend: 0x0, symName: __ZNSt3__110__function6__funcIZN6parlay14ThreadSpecificINS2_8internal24intrusive_acquire_retireINS4_12hazptr_stackIPNS4_15block_allocator5blockEE4NodeENS_14default_deleteISB_EELm1EE10ThreadDataEEC1EvEUlmE_NS_9allocatorISH_EEFSF_jEEclEOj, symObjAddr: 0x1F704, symBinAddr: 0x10002271C, symSize: 0x14 }
  - { offset: 0x23EC82, size: 0x8, addend: 0x0, symName: __ZNSt3__110__function6__funcIZN6parlay14ThreadSpecificINS2_8internal24intrusive_acquire_retireINS4_12hazptr_stackIPNS4_15block_allocator5blockEE4NodeENS_14default_deleteISB_EELm1EE10ThreadDataEEC1EvEUlmE_NS_9allocatorISH_EEFSF_jEEclEOj, symObjAddr: 0x1F704, symBinAddr: 0x10002271C, symSize: 0x14 }
  - { offset: 0x23ECA3, size: 0x8, addend: 0x0, symName: __ZNSt3__110__function6__funcIZN6parlay14ThreadSpecificINS2_8internal24intrusive_acquire_retireINS4_12hazptr_stackIPNS4_15block_allocator5blockEE4NodeENS_14default_deleteISB_EELm1EE10ThreadDataEEC1EvEUlmE_NS_9allocatorISH_EEFSF_jEEclEOj, symObjAddr: 0x1F704, symBinAddr: 0x10002271C, symSize: 0x14 }
  - { offset: 0x23ECC4, size: 0x8, addend: 0x0, symName: __ZNSt3__110__function6__funcIZN6parlay14ThreadSpecificINS2_8internal24intrusive_acquire_retireINS4_12hazptr_stackIPNS4_15block_allocator5blockEE4NodeENS_14default_deleteISB_EELm1EE10ThreadDataEEC1EvEUlmE_NS_9allocatorISH_EEFSF_jEEclEOj, symObjAddr: 0x1F704, symBinAddr: 0x10002271C, symSize: 0x14 }
  - { offset: 0x23ECE6, size: 0x8, addend: 0x0, symName: __ZNSt3__110__function6__funcIZN6parlay14ThreadSpecificINS2_8internal24intrusive_acquire_retireINS4_12hazptr_stackIPNS4_15block_allocator5blockEE4NodeENS_14default_deleteISB_EELm1EE10ThreadDataEEC1EvEUlmE_NS_9allocatorISH_EEFSF_jEEclEOj, symObjAddr: 0x1F704, symBinAddr: 0x10002271C, symSize: 0x14 }
  - { offset: 0x23ED6B, size: 0x8, addend: 0x0, symName: __ZNKSt3__110__function6__funcIZN6parlay14ThreadSpecificINS2_8internal24intrusive_acquire_retireINS4_12hazptr_stackIPNS4_15block_allocator5blockEE4NodeENS_14default_deleteISB_EELm1EE10ThreadDataEEC1EvEUlmE_NS_9allocatorISH_EEFSF_jEE6targetERKSt9type_info, symObjAddr: 0x1F718, symBinAddr: 0x100022730, symSize: 0x64 }
  - { offset: 0x23EE1C, size: 0x8, addend: 0x0, symName: __ZNKSt3__110__function6__funcIZN6parlay14ThreadSpecificINS2_8internal24intrusive_acquire_retireINS4_12hazptr_stackIPNS4_15block_allocator5blockEE4NodeENS_14default_deleteISB_EELm1EE10ThreadDataEEC1EvEUlmE_NS_9allocatorISH_EEFSF_jEE11target_typeEv, symObjAddr: 0x1F77C, symBinAddr: 0x100022794, symSize: 0xC }
  - { offset: 0x23EF6C, size: 0x8, addend: 0x0, symName: __ZN6parlay8internal12ThreadIdPool13ThreadIdOwnerD1Ev, symObjAddr: 0x1F8A0, symBinAddr: 0x1000228B8, symSize: 0x8C }
  - { offset: 0x2405BA, size: 0x8, addend: 0x0, symName: __ZN6parlay14ThreadSpecificINS_8internal24intrusive_acquire_retireINS1_12hazptr_stackIPSt4byteE4NodeENSt3__114default_deleteIS7_EELm1EE10ThreadDataEE3getEv, symObjAddr: 0x220B4, symBinAddr: 0x1000250CC, symSize: 0x17C }
  - { offset: 0x240848, size: 0x8, addend: 0x0, symName: __ZNK6parlay14ThreadSpecificINS_8internal24intrusive_acquire_retireINS1_12hazptr_stackIPSt4byteE4NodeENSt3__114default_deleteIS7_EELm1EE10ThreadDataEE19ensure_chunk_existsEm, symObjAddr: 0x22340, symBinAddr: 0x100025248, symSize: 0x144 }
  - { offset: 0x241A4D, size: 0x8, addend: 0x0, symName: __ZNKSt3__112__hash_tableIPN6parlay8internal12hazptr_stackIPNS2_15block_allocator5blockEE4NodeENS_4hashIS9_EENS_8equal_toIS9_EENS_9allocatorIS9_EEE4findIS9_EENS_21__hash_const_iteratorIPNS_11__hash_nodeIS9_PvEEEERKT_, symObjAddr: 0x21864, symBinAddr: 0x10002487C, symSize: 0x110 }
  - { offset: 0x241AA4, size: 0x8, addend: 0x0, symName: __ZNKSt3__112__hash_tableIPN6parlay8internal12hazptr_stackIPNS2_15block_allocator5blockEE4NodeENS_4hashIS9_EENS_8equal_toIS9_EENS_9allocatorIS9_EEE4findIS9_EENS_21__hash_const_iteratorIPNS_11__hash_nodeIS9_PvEEEERKT_, symObjAddr: 0x21864, symBinAddr: 0x10002487C, symSize: 0x110 }
  - { offset: 0x241AC0, size: 0x8, addend: 0x0, symName: __ZNKSt3__112__hash_tableIPN6parlay8internal12hazptr_stackIPNS2_15block_allocator5blockEE4NodeENS_4hashIS9_EENS_8equal_toIS9_EENS_9allocatorIS9_EEE4findIS9_EENS_21__hash_const_iteratorIPNS_11__hash_nodeIS9_PvEEEERKT_, symObjAddr: 0x21864, symBinAddr: 0x10002487C, symSize: 0x110 }
  - { offset: 0x241FED, size: 0x8, addend: 0x0, symName: __ZN6parlay8internal24intrusive_acquire_retireINS0_12hazptr_stackIPSt4byteE4NodeENSt3__114default_deleteIS6_EELm1EED1Ev, symObjAddr: 0x21BF8, symBinAddr: 0x100024C10, symSize: 0x4BC }
  - { offset: 0x2430B6, size: 0x8, addend: 0x0, symName: __ZNSt3__110__function6__funcIZN6parlay14ThreadSpecificINS2_8internal24intrusive_acquire_retireINS4_12hazptr_stackIPSt4byteE4NodeENS_14default_deleteISA_EELm1EE10ThreadDataEEC1EvEUlmE_NS_9allocatorISG_EEFSE_jEED1Ev, symObjAddr: 0x22484, symBinAddr: 0x10002538C, symSize: 0x4 }
  - { offset: 0x2430E2, size: 0x8, addend: 0x0, symName: __ZNSt3__110__function6__funcIZN6parlay14ThreadSpecificINS2_8internal24intrusive_acquire_retireINS4_12hazptr_stackIPSt4byteE4NodeENS_14default_deleteISA_EELm1EE10ThreadDataEEC1EvEUlmE_NS_9allocatorISG_EEFSE_jEED0Ev, symObjAddr: 0x22488, symBinAddr: 0x100025390, symSize: 0x4 }
  - { offset: 0x243199, size: 0x8, addend: 0x0, symName: __ZNKSt3__110__function6__funcIZN6parlay14ThreadSpecificINS2_8internal24intrusive_acquire_retireINS4_12hazptr_stackIPSt4byteE4NodeENS_14default_deleteISA_EELm1EE10ThreadDataEEC1EvEUlmE_NS_9allocatorISG_EEFSE_jEE7__cloneEv, symObjAddr: 0x2248C, symBinAddr: 0x100025394, symSize: 0x24 }
  - { offset: 0x2432DE, size: 0x8, addend: 0x0, symName: __ZNKSt3__110__function6__funcIZN6parlay14ThreadSpecificINS2_8internal24intrusive_acquire_retireINS4_12hazptr_stackIPSt4byteE4NodeENS_14default_deleteISA_EELm1EE10ThreadDataEEC1EvEUlmE_NS_9allocatorISG_EEFSE_jEE7__cloneEPNS0_6__baseISJ_EE, symObjAddr: 0x224B0, symBinAddr: 0x1000253B8, symSize: 0x10 }
  - { offset: 0x243313, size: 0x8, addend: 0x0, symName: __ZNKSt3__110__function6__funcIZN6parlay14ThreadSpecificINS2_8internal24intrusive_acquire_retireINS4_12hazptr_stackIPSt4byteE4NodeENS_14default_deleteISA_EELm1EE10ThreadDataEEC1EvEUlmE_NS_9allocatorISG_EEFSE_jEE7__cloneEPNS0_6__baseISJ_EE, symObjAddr: 0x224B0, symBinAddr: 0x1000253B8, symSize: 0x10 }
  - { offset: 0x24332F, size: 0x8, addend: 0x0, symName: __ZNKSt3__110__function6__funcIZN6parlay14ThreadSpecificINS2_8internal24intrusive_acquire_retireINS4_12hazptr_stackIPSt4byteE4NodeENS_14default_deleteISA_EELm1EE10ThreadDataEEC1EvEUlmE_NS_9allocatorISG_EEFSE_jEE7__cloneEPNS0_6__baseISJ_EE, symObjAddr: 0x224B0, symBinAddr: 0x1000253B8, symSize: 0x10 }
  - { offset: 0x24334B, size: 0x8, addend: 0x0, symName: __ZNSt3__110__function6__funcIZN6parlay14ThreadSpecificINS2_8internal24intrusive_acquire_retireINS4_12hazptr_stackIPSt4byteE4NodeENS_14default_deleteISA_EELm1EE10ThreadDataEEC1EvEUlmE_NS_9allocatorISG_EEFSE_jEE7destroyEv, symObjAddr: 0x224C0, symBinAddr: 0x1000253C8, symSize: 0x4 }
  - { offset: 0x24339C, size: 0x8, addend: 0x0, symName: __ZNSt3__110__function6__funcIZN6parlay14ThreadSpecificINS2_8internal24intrusive_acquire_retireINS4_12hazptr_stackIPSt4byteE4NodeENS_14default_deleteISA_EELm1EE10ThreadDataEEC1EvEUlmE_NS_9allocatorISG_EEFSE_jEE18destroy_deallocateEv, symObjAddr: 0x224C4, symBinAddr: 0x1000253CC, symSize: 0x4 }
  - { offset: 0x2433D1, size: 0x8, addend: 0x0, symName: __ZNSt3__110__function6__funcIZN6parlay14ThreadSpecificINS2_8internal24intrusive_acquire_retireINS4_12hazptr_stackIPSt4byteE4NodeENS_14default_deleteISA_EELm1EE10ThreadDataEEC1EvEUlmE_NS_9allocatorISG_EEFSE_jEE18destroy_deallocateEv, symObjAddr: 0x224C4, symBinAddr: 0x1000253CC, symSize: 0x4 }
  - { offset: 0x2433F3, size: 0x8, addend: 0x0, symName: __ZNSt3__110__function6__funcIZN6parlay14ThreadSpecificINS2_8internal24intrusive_acquire_retireINS4_12hazptr_stackIPSt4byteE4NodeENS_14default_deleteISA_EELm1EE10ThreadDataEEC1EvEUlmE_NS_9allocatorISG_EEFSE_jEE18destroy_deallocateEv, symObjAddr: 0x224C4, symBinAddr: 0x1000253CC, symSize: 0x4 }
  - { offset: 0x24341E, size: 0x8, addend: 0x0, symName: __ZNSt3__110__function6__funcIZN6parlay14ThreadSpecificINS2_8internal24intrusive_acquire_retireINS4_12hazptr_stackIPSt4byteE4NodeENS_14default_deleteISA_EELm1EE10ThreadDataEEC1EvEUlmE_NS_9allocatorISG_EEFSE_jEE18destroy_deallocateEv, symObjAddr: 0x224C4, symBinAddr: 0x1000253CC, symSize: 0x4 }
  - { offset: 0x243444, size: 0x8, addend: 0x0, symName: __ZNSt3__110__function6__funcIZN6parlay14ThreadSpecificINS2_8internal24intrusive_acquire_retireINS4_12hazptr_stackIPSt4byteE4NodeENS_14default_deleteISA_EELm1EE10ThreadDataEEC1EvEUlmE_NS_9allocatorISG_EEFSE_jEE18destroy_deallocateEv, symObjAddr: 0x224C4, symBinAddr: 0x1000253CC, symSize: 0x4 }
  - { offset: 0x2434EA, size: 0x8, addend: 0x0, symName: __ZNSt3__110__function6__funcIZN6parlay14ThreadSpecificINS2_8internal24intrusive_acquire_retireINS4_12hazptr_stackIPSt4byteE4NodeENS_14default_deleteISA_EELm1EE10ThreadDataEEC1EvEUlmE_NS_9allocatorISG_EEFSE_jEEclEOj, symObjAddr: 0x224C8, symBinAddr: 0x1000253D0, symSize: 0x14 }
  - { offset: 0x24351D, size: 0x8, addend: 0x0, symName: __ZNSt3__110__function6__funcIZN6parlay14ThreadSpecificINS2_8internal24intrusive_acquire_retireINS4_12hazptr_stackIPSt4byteE4NodeENS_14default_deleteISA_EELm1EE10ThreadDataEEC1EvEUlmE_NS_9allocatorISG_EEFSE_jEEclEOj, symObjAddr: 0x224C8, symBinAddr: 0x1000253D0, symSize: 0x14 }
  - { offset: 0x243532, size: 0x8, addend: 0x0, symName: __ZNSt3__110__function6__funcIZN6parlay14ThreadSpecificINS2_8internal24intrusive_acquire_retireINS4_12hazptr_stackIPSt4byteE4NodeENS_14default_deleteISA_EELm1EE10ThreadDataEEC1EvEUlmE_NS_9allocatorISG_EEFSE_jEEclEOj, symObjAddr: 0x224C8, symBinAddr: 0x1000253D0, symSize: 0x14 }
  - { offset: 0x243546, size: 0x8, addend: 0x0, symName: __ZNSt3__110__function6__funcIZN6parlay14ThreadSpecificINS2_8internal24intrusive_acquire_retireINS4_12hazptr_stackIPSt4byteE4NodeENS_14default_deleteISA_EELm1EE10ThreadDataEEC1EvEUlmE_NS_9allocatorISG_EEFSE_jEEclEOj, symObjAddr: 0x224C8, symBinAddr: 0x1000253D0, symSize: 0x14 }
  - { offset: 0x24355B, size: 0x8, addend: 0x0, symName: __ZNSt3__110__function6__funcIZN6parlay14ThreadSpecificINS2_8internal24intrusive_acquire_retireINS4_12hazptr_stackIPSt4byteE4NodeENS_14default_deleteISA_EELm1EE10ThreadDataEEC1EvEUlmE_NS_9allocatorISG_EEFSE_jEEclEOj, symObjAddr: 0x224C8, symBinAddr: 0x1000253D0, symSize: 0x14 }
  - { offset: 0x243570, size: 0x8, addend: 0x0, symName: __ZNSt3__110__function6__funcIZN6parlay14ThreadSpecificINS2_8internal24intrusive_acquire_retireINS4_12hazptr_stackIPSt4byteE4NodeENS_14default_deleteISA_EELm1EE10ThreadDataEEC1EvEUlmE_NS_9allocatorISG_EEFSE_jEEclEOj, symObjAddr: 0x224C8, symBinAddr: 0x1000253D0, symSize: 0x14 }
  - { offset: 0x243591, size: 0x8, addend: 0x0, symName: __ZNSt3__110__function6__funcIZN6parlay14ThreadSpecificINS2_8internal24intrusive_acquire_retireINS4_12hazptr_stackIPSt4byteE4NodeENS_14default_deleteISA_EELm1EE10ThreadDataEEC1EvEUlmE_NS_9allocatorISG_EEFSE_jEEclEOj, symObjAddr: 0x224C8, symBinAddr: 0x1000253D0, symSize: 0x14 }
  - { offset: 0x2435B2, size: 0x8, addend: 0x0, symName: __ZNSt3__110__function6__funcIZN6parlay14ThreadSpecificINS2_8internal24intrusive_acquire_retireINS4_12hazptr_stackIPSt4byteE4NodeENS_14default_deleteISA_EELm1EE10ThreadDataEEC1EvEUlmE_NS_9allocatorISG_EEFSE_jEEclEOj, symObjAddr: 0x224C8, symBinAddr: 0x1000253D0, symSize: 0x14 }
  - { offset: 0x2435D3, size: 0x8, addend: 0x0, symName: __ZNSt3__110__function6__funcIZN6parlay14ThreadSpecificINS2_8internal24intrusive_acquire_retireINS4_12hazptr_stackIPSt4byteE4NodeENS_14default_deleteISA_EELm1EE10ThreadDataEEC1EvEUlmE_NS_9allocatorISG_EEFSE_jEEclEOj, symObjAddr: 0x224C8, symBinAddr: 0x1000253D0, symSize: 0x14 }
  - { offset: 0x2435F4, size: 0x8, addend: 0x0, symName: __ZNSt3__110__function6__funcIZN6parlay14ThreadSpecificINS2_8internal24intrusive_acquire_retireINS4_12hazptr_stackIPSt4byteE4NodeENS_14default_deleteISA_EELm1EE10ThreadDataEEC1EvEUlmE_NS_9allocatorISG_EEFSE_jEEclEOj, symObjAddr: 0x224C8, symBinAddr: 0x1000253D0, symSize: 0x14 }
  - { offset: 0x243616, size: 0x8, addend: 0x0, symName: __ZNSt3__110__function6__funcIZN6parlay14ThreadSpecificINS2_8internal24intrusive_acquire_retireINS4_12hazptr_stackIPSt4byteE4NodeENS_14default_deleteISA_EELm1EE10ThreadDataEEC1EvEUlmE_NS_9allocatorISG_EEFSE_jEEclEOj, symObjAddr: 0x224C8, symBinAddr: 0x1000253D0, symSize: 0x14 }
  - { offset: 0x243640, size: 0x8, addend: 0x0, symName: __ZNKSt3__110__function6__funcIZN6parlay14ThreadSpecificINS2_8internal24intrusive_acquire_retireINS4_12hazptr_stackIPSt4byteE4NodeENS_14default_deleteISA_EELm1EE10ThreadDataEEC1EvEUlmE_NS_9allocatorISG_EEFSE_jEE6targetERKSt9type_info, symObjAddr: 0x224DC, symBinAddr: 0x1000253E4, symSize: 0x64 }
  - { offset: 0x2436DA, size: 0x8, addend: 0x0, symName: __ZNKSt3__110__function6__funcIZN6parlay14ThreadSpecificINS2_8internal24intrusive_acquire_retireINS4_12hazptr_stackIPSt4byteE4NodeENS_14default_deleteISA_EELm1EE10ThreadDataEEC1EvEUlmE_NS_9allocatorISG_EEFSE_jEE11target_typeEv, symObjAddr: 0x22540, symBinAddr: 0x100025448, symSize: 0xC }
  - { offset: 0x2436FF, size: 0x8, addend: 0x0, symName: __ZNSt3__110__function6__funcIZN6parlay14ThreadSpecificINS2_8internal15block_allocator10local_listEEC1EvEUlmE_NS_9allocatorIS8_EEFS6_jEED1Ev, symObjAddr: 0x2254C, symBinAddr: 0x100025454, symSize: 0x4 }
  - { offset: 0x24372B, size: 0x8, addend: 0x0, symName: __ZNSt3__110__function6__funcIZN6parlay14ThreadSpecificINS2_8internal15block_allocator10local_listEEC1EvEUlmE_NS_9allocatorIS8_EEFS6_jEED0Ev, symObjAddr: 0x22550, symBinAddr: 0x100025458, symSize: 0x4 }
  - { offset: 0x2437E2, size: 0x8, addend: 0x0, symName: __ZNKSt3__110__function6__funcIZN6parlay14ThreadSpecificINS2_8internal15block_allocator10local_listEEC1EvEUlmE_NS_9allocatorIS8_EEFS6_jEE7__cloneEv, symObjAddr: 0x22554, symBinAddr: 0x10002545C, symSize: 0x24 }
  - { offset: 0x243927, size: 0x8, addend: 0x0, symName: __ZNKSt3__110__function6__funcIZN6parlay14ThreadSpecificINS2_8internal15block_allocator10local_listEEC1EvEUlmE_NS_9allocatorIS8_EEFS6_jEE7__cloneEPNS0_6__baseISB_EE, symObjAddr: 0x22578, symBinAddr: 0x100025480, symSize: 0x10 }
  - { offset: 0x24395C, size: 0x8, addend: 0x0, symName: __ZNKSt3__110__function6__funcIZN6parlay14ThreadSpecificINS2_8internal15block_allocator10local_listEEC1EvEUlmE_NS_9allocatorIS8_EEFS6_jEE7__cloneEPNS0_6__baseISB_EE, symObjAddr: 0x22578, symBinAddr: 0x100025480, symSize: 0x10 }
  - { offset: 0x243978, size: 0x8, addend: 0x0, symName: __ZNKSt3__110__function6__funcIZN6parlay14ThreadSpecificINS2_8internal15block_allocator10local_listEEC1EvEUlmE_NS_9allocatorIS8_EEFS6_jEE7__cloneEPNS0_6__baseISB_EE, symObjAddr: 0x22578, symBinAddr: 0x100025480, symSize: 0x10 }
  - { offset: 0x243994, size: 0x8, addend: 0x0, symName: __ZNSt3__110__function6__funcIZN6parlay14ThreadSpecificINS2_8internal15block_allocator10local_listEEC1EvEUlmE_NS_9allocatorIS8_EEFS6_jEE7destroyEv, symObjAddr: 0x22588, symBinAddr: 0x100025490, symSize: 0x4 }
  - { offset: 0x2439E5, size: 0x8, addend: 0x0, symName: __ZNSt3__110__function6__funcIZN6parlay14ThreadSpecificINS2_8internal15block_allocator10local_listEEC1EvEUlmE_NS_9allocatorIS8_EEFS6_jEE18destroy_deallocateEv, symObjAddr: 0x2258C, symBinAddr: 0x100025494, symSize: 0x4 }
  - { offset: 0x243A1A, size: 0x8, addend: 0x0, symName: __ZNSt3__110__function6__funcIZN6parlay14ThreadSpecificINS2_8internal15block_allocator10local_listEEC1EvEUlmE_NS_9allocatorIS8_EEFS6_jEE18destroy_deallocateEv, symObjAddr: 0x2258C, symBinAddr: 0x100025494, symSize: 0x4 }
  - { offset: 0x243A3C, size: 0x8, addend: 0x0, symName: __ZNSt3__110__function6__funcIZN6parlay14ThreadSpecificINS2_8internal15block_allocator10local_listEEC1EvEUlmE_NS_9allocatorIS8_EEFS6_jEE18destroy_deallocateEv, symObjAddr: 0x2258C, symBinAddr: 0x100025494, symSize: 0x4 }
  - { offset: 0x243A67, size: 0x8, addend: 0x0, symName: __ZNSt3__110__function6__funcIZN6parlay14ThreadSpecificINS2_8internal15block_allocator10local_listEEC1EvEUlmE_NS_9allocatorIS8_EEFS6_jEE18destroy_deallocateEv, symObjAddr: 0x2258C, symBinAddr: 0x100025494, symSize: 0x4 }
  - { offset: 0x243A8D, size: 0x8, addend: 0x0, symName: __ZNSt3__110__function6__funcIZN6parlay14ThreadSpecificINS2_8internal15block_allocator10local_listEEC1EvEUlmE_NS_9allocatorIS8_EEFS6_jEE18destroy_deallocateEv, symObjAddr: 0x2258C, symBinAddr: 0x100025494, symSize: 0x4 }
  - { offset: 0x243B67, size: 0x8, addend: 0x0, symName: __ZNSt3__110__function6__funcIZN6parlay14ThreadSpecificINS2_8internal15block_allocator10local_listEEC1EvEUlmE_NS_9allocatorIS8_EEFS6_jEEclEOj, symObjAddr: 0x22590, symBinAddr: 0x100025498, symSize: 0xC }
  - { offset: 0x243B9A, size: 0x8, addend: 0x0, symName: __ZNSt3__110__function6__funcIZN6parlay14ThreadSpecificINS2_8internal15block_allocator10local_listEEC1EvEUlmE_NS_9allocatorIS8_EEFS6_jEEclEOj, symObjAddr: 0x22590, symBinAddr: 0x100025498, symSize: 0xC }
  - { offset: 0x243BAF, size: 0x8, addend: 0x0, symName: __ZNSt3__110__function6__funcIZN6parlay14ThreadSpecificINS2_8internal15block_allocator10local_listEEC1EvEUlmE_NS_9allocatorIS8_EEFS6_jEEclEOj, symObjAddr: 0x22590, symBinAddr: 0x100025498, symSize: 0xC }
  - { offset: 0x243BC3, size: 0x8, addend: 0x0, symName: __ZNSt3__110__function6__funcIZN6parlay14ThreadSpecificINS2_8internal15block_allocator10local_listEEC1EvEUlmE_NS_9allocatorIS8_EEFS6_jEEclEOj, symObjAddr: 0x22590, symBinAddr: 0x100025498, symSize: 0xC }
  - { offset: 0x243BD8, size: 0x8, addend: 0x0, symName: __ZNSt3__110__function6__funcIZN6parlay14ThreadSpecificINS2_8internal15block_allocator10local_listEEC1EvEUlmE_NS_9allocatorIS8_EEFS6_jEEclEOj, symObjAddr: 0x22590, symBinAddr: 0x100025498, symSize: 0xC }
  - { offset: 0x243BED, size: 0x8, addend: 0x0, symName: __ZNSt3__110__function6__funcIZN6parlay14ThreadSpecificINS2_8internal15block_allocator10local_listEEC1EvEUlmE_NS_9allocatorIS8_EEFS6_jEEclEOj, symObjAddr: 0x22590, symBinAddr: 0x100025498, symSize: 0xC }
  - { offset: 0x243C08, size: 0x8, addend: 0x0, symName: __ZNSt3__110__function6__funcIZN6parlay14ThreadSpecificINS2_8internal15block_allocator10local_listEEC1EvEUlmE_NS_9allocatorIS8_EEFS6_jEEclEOj, symObjAddr: 0x22590, symBinAddr: 0x100025498, symSize: 0xC }
  - { offset: 0x243C27, size: 0x8, addend: 0x0, symName: __ZNKSt3__110__function6__funcIZN6parlay14ThreadSpecificINS2_8internal15block_allocator10local_listEEC1EvEUlmE_NS_9allocatorIS8_EEFS6_jEE6targetERKSt9type_info, symObjAddr: 0x2259C, symBinAddr: 0x1000254A4, symSize: 0x64 }
  - { offset: 0x243CC1, size: 0x8, addend: 0x0, symName: __ZNKSt3__110__function6__funcIZN6parlay14ThreadSpecificINS2_8internal15block_allocator10local_listEEC1EvEUlmE_NS_9allocatorIS8_EEFS6_jEE11target_typeEv, symObjAddr: 0x22600, symBinAddr: 0x100025508, symSize: 0xC }
  - { offset: 0x243FC5, size: 0x8, addend: 0x0, symName: __ZN7clusterIldE22find_boundary_verticesERPS0_RdS2_S3_ds, symObjAddr: 0x2342C, symBinAddr: 0x100026334, symSize: 0x284 }
  - { offset: 0x244261, size: 0x8, addend: 0x0, symName: __ZNKSt3__16vectorIN6parlay8internal5DequeINS1_15WorkStealingJobEEENS_9allocatorIS5_EEE20__throw_length_errorB8ue170006Ev, symObjAddr: 0x236B0, symBinAddr: 0x1000265B8, symSize: 0x14 }
  - { offset: 0x24448B, size: 0x8, addend: 0x0, symName: __ZN6parlay7JobImplIZNS_19fork_join_scheduler7parfor_IZ18testPathQueryValidIldEvRNS_8sequenceI7clusterIT_T0_ENS_9allocatorIS8_EEXsr3std7is_sameIS8_cEE5valueEEERNS4_IS6_NS9_IS6_EEXsr3std7is_sameIS6_cEE5valueEEERNS4_IS7_NS9_IS7_EEXsr3std7is_sameIS7_cEE5valueEEEEUllE_EEvRNS_9schedulerINS_15WorkStealingJobEEEmmRS6_mbEUlvE0_ED1Ev, symObjAddr: 0x23360, symBinAddr: 0x100026268, symSize: 0x4 }
  - { offset: 0x2444B6, size: 0x8, addend: 0x0, symName: __ZN6parlay7JobImplIZNS_19fork_join_scheduler7parfor_IZ18testPathQueryValidIldEvRNS_8sequenceI7clusterIT_T0_ENS_9allocatorIS8_EEXsr3std7is_sameIS8_cEE5valueEEERNS4_IS6_NS9_IS6_EEXsr3std7is_sameIS6_cEE5valueEEERNS4_IS7_NS9_IS7_EEXsr3std7is_sameIS7_cEE5valueEEEEUllE_EEvRNS_9schedulerINS_15WorkStealingJobEEEmmRS6_mbEUlvE0_ED0Ev, symObjAddr: 0x23364, symBinAddr: 0x10002626C, symSize: 0x4 }
  - { offset: 0x2444E1, size: 0x8, addend: 0x0, symName: __ZN6parlay7JobImplIZNS_19fork_join_scheduler7parfor_IZ18testPathQueryValidIldEvRNS_8sequenceI7clusterIT_T0_ENS_9allocatorIS8_EEXsr3std7is_sameIS8_cEE5valueEEERNS4_IS6_NS9_IS6_EEXsr3std7is_sameIS6_cEE5valueEEERNS4_IS7_NS9_IS7_EEXsr3std7is_sameIS7_cEE5valueEEEEUllE_EEvRNS_9schedulerINS_15WorkStealingJobEEEmmRS6_mbEUlvE0_E7executeEv, symObjAddr: 0x23368, symBinAddr: 0x100026270, symSize: 0xC4 }
  - { offset: 0x244B63, size: 0x8, addend: 0x0, symName: __ZNSt3__110unique_ptrINS_5tupleIJNS0_INS_15__thread_structENS_14default_deleteIS2_EEEEZN6parlay9schedulerINS6_15WorkStealingJobEEC1EmEUlvE_EEENS3_ISB_EEED1B8ue170006Ev, symObjAddr: 0x23DCC, symBinAddr: 0x100026CC0, symSize: 0x48 }
  - { offset: 0x244D0C, size: 0x8, addend: 0x0, symName: __ZNSt3__110unique_ptrINS_15__thread_structENS_14default_deleteIS1_EEED1B8ue170006Ev, symObjAddr: 0x23E14, symBinAddr: 0x100026D08, symSize: 0x34 }
  - { offset: 0x244D9B, size: 0x8, addend: 0x0, symName: __ZNSt12length_errorC1B8ue170006EPKc, symObjAddr: 0x238CC, symBinAddr: 0x1000267C0, symSize: 0x24 }
  - { offset: 0x245307, size: 0x8, addend: 0x0, symName: __Z17__cxx_atomic_waitImEvPKT_S0_i, symObjAddr: 0x23E48, symBinAddr: 0x100026D3C, symSize: 0x160 }
  - { offset: 0x2453BA, size: 0x8, addend: 0x0, symName: __Z26__cxx_atomic_try_wait_slowImEvPVKT_S0_i, symObjAddr: 0x23FA8, symBinAddr: 0x100026E9C, symSize: 0x6C }
  - { offset: 0x245479, size: 0x8, addend: 0x0, symName: __ZN6parlay8internal15block_allocator5allocEv, symObjAddr: 0x3FC20, symBinAddr: 0x100042B00, symSize: 0x1C0 }
  - { offset: 0x24577B, size: 0x8, addend: 0x0, symName: __ZN6parlay8internal12hazptr_stackIPSt4byteE4pushES3_, symObjAddr: 0x3FDE0, symBinAddr: 0x100042CC0, symSize: 0x1E8 }
  - { offset: 0x24655E, size: 0x8, addend: 0x0, symName: __ZN6parlay19fork_join_scheduler5pardoIZNS0_7parfor_IZNS_8sequenceImNS_9allocatorImEELb0EEC1IZNS_7flattenIP4nodeIldEEEDaONS3_INS3_IT_NS4_ISD_EEXsr3std7is_sameISD_cEE5valueEEENS4_ISF_EEXsr3std7is_sameISF_cEE5valueEEEEUlmE_EEmOSD_NS6_18_from_function_tagEmEUlmE_EEvRNS_9schedulerINS_15WorkStealingJobEEEmmRSD_mbEUlvE_ZNS2_ISM_EEvSQ_mmSR_mbEUlvE0_EEvSQ_SK_OT0_b, symObjAddr: 0x4A530, symBinAddr: 0x10004D300, symSize: 0x830 }
  - { offset: 0x247824, size: 0x8, addend: 0x0, symName: __ZN6parlay19fork_join_scheduler5pardoIZNS0_7parfor_IZNS_24uninitialized_relocate_nIPP4nodeIldElS7_EENSt3__14pairIT_T1_EESA_T0_SB_EUlmE_EEvRNS_9schedulerINS_15WorkStealingJobEEEmmRSA_mbEUlvE_ZNS2_ISE_EEvSI_mmSJ_mbEUlvE0_EEvSI_OSA_OSD_b, symObjAddr: 0x49BB0, symBinAddr: 0x10004C980, symSize: 0x688 }
  - { offset: 0x248FDD, size: 0x8, addend: 0x0, symName: __ZN6parlay19fork_join_scheduler5pardoIZNS0_7parfor_IZNS_8sequenceImNS_9allocatorImEELb0EE18initialize_defaultEmEUlmE_EEvRNS_9schedulerINS_15WorkStealingJobEEEmmRT_mbEUlvE_ZNS2_IS7_EEvSB_mmSD_mbEUlvE0_EEvSB_OSC_OT0_b, symObjAddr: 0x48C30, symBinAddr: 0x10004BA00, symSize: 0x688 }
  - { offset: 0x24A649, size: 0x8, addend: 0x0, symName: __ZN6parlay19fork_join_scheduler5pardoIZNS0_7parfor_IZNS_8sequenceIbNS_9allocatorIbEELb0EE18initialize_defaultEmEUlmE_EEvRNS_9schedulerINS_15WorkStealingJobEEEmmRT_mbEUlvE_ZNS2_IS7_EEvSB_mmSD_mbEUlvE0_EEvSB_OSC_OT0_b, symObjAddr: 0x48554, symBinAddr: 0x10004B324, symSize: 0x610 }
  - { offset: 0x24BD8B, size: 0x8, addend: 0x0, symName: __ZN6parlay8sequenceImNS_9allocatorImEELb0EEC2EmNS3_18_uninitialized_tagE, symObjAddr: 0x3A168, symBinAddr: 0x10003D05C, symSize: 0x184 }
  - { offset: 0x24D154, size: 0x8, addend: 0x0, symName: __ZZ8get_3dp1IldEN6parlay8sequenceIP4nodeIT_T0_ENS0_9allocatorIS6_EEXsr3std7is_sameIS6_cEE5valueEEERS9_ENKUllE_clEl, symObjAddr: 0x46F50, symBinAddr: 0x100049D20, symSize: 0x19C }
  - { offset: 0x24D4CE, size: 0x8, addend: 0x0, symName: __ZZ8get_3dp1IldEN6parlay8sequenceIP4nodeIT_T0_ENS0_9allocatorIS6_EEXsr3std7is_sameIS6_cEE5valueEEERS9_ENKUllE0_clEl, symObjAddr: 0x44688, symBinAddr: 0x100047568, symSize: 0x1A0 }
  - { offset: 0x24D848, size: 0x8, addend: 0x0, symName: __ZN6parlay19fork_join_scheduler5pardoIZNS0_7parfor_IZ8tiebreakIldENS_8sequenceIP4nodeIT_T0_ENS_9allocatorIS9_EEXsr3std7is_sameIS9_cEE5valueEEERSC_EUllE_EEvRNS_9schedulerINS_15WorkStealingJobEEEmmRS6_mbEUlvE_ZNS2_ISE_EEvSI_mmSJ_mbEUlvE0_EEvSI_OS6_OS7_b, symObjAddr: 0x43E48, symBinAddr: 0x100046D28, symSize: 0x65C }
  - { offset: 0x24EA3C, size: 0x8, addend: 0x0, symName: __ZN6parlay19fork_join_scheduler5pardoIZNS0_7parfor_IZ8tiebreakIldENS_8sequenceIP4nodeIT_T0_ENS_9allocatorIS9_EEXsr3std7is_sameIS9_cEE5valueEEERSC_EUllE0_EEvRNS_9schedulerINS_15WorkStealingJobEEEmmRS6_mbEUlvE_ZNS2_ISE_EEvSI_mmSJ_mbEUlvE0_EEvSI_OS6_OS7_b, symObjAddr: 0x436E4, symBinAddr: 0x1000465C4, symSize: 0x670 }
  - { offset: 0x24FD6A, size: 0x8, addend: 0x0, symName: __ZN6parlay17sequence_internal13sequence_baseINS_8sequenceIP4nodeIldENS_9allocatorIS5_EELb0EEENS6_IS8_EELb0EE12storage_implD1Ev, symObjAddr: 0x44590, symBinAddr: 0x100047470, symSize: 0x7C }
  - { offset: 0x24FF0A, size: 0x8, addend: 0x0, symName: __ZN6parlay17sequence_internal13sequence_baseINS_8sequenceIP4nodeIldENS_9allocatorIS5_EELb0EEENS6_IS8_EELb0EED2Ev, symObjAddr: 0x4460C, symBinAddr: 0x1000474EC, symSize: 0x7C }
  - { offset: 0x2500D5, size: 0x8, addend: 0x0, symName: __ZN6parlay14type_allocatorI7clusterIldEE4freeEPS2_, symObjAddr: 0x4263C, symBinAddr: 0x10004551C, symSize: 0xC4 }
  - { offset: 0x250A50, size: 0x8, addend: 0x0, symName: __ZN6parlay14type_allocatorI7clusterIldEE5allocEv, symObjAddr: 0x41DD0, symBinAddr: 0x100044CB0, symSize: 0xC0 }
  - { offset: 0x254CF0, size: 0x8, addend: 0x0, symName: __ZN6parlay19fork_join_scheduler5pardoIZNS0_7parfor_IZNS_8sequenceIP7clusterIldENS_9allocatorIS6_EELb0EEC1IZ7set_MISIldEvRNS3_IP4nodeIT_T0_ENS7_ISG_EEXsr3std7is_sameISG_cEE5valueEEEbEUllE_EEmOSD_NS9_18_from_function_tagEmEUlmE_EEvRNS_9schedulerINS_15WorkStealingJobEEEmmRSD_mbEUlvE_ZNS2_ISN_EEvSR_mmSS_mbEUlvE0_EEvSR_SL_OSE_b, symObjAddr: 0x3D914, symBinAddr: 0x1000407F4, symSize: 0x660 }
  - { offset: 0x2560E6, size: 0x8, addend: 0x0, symName: __ZZ12colour_nodesIldEvN6parlay8sequenceIP4nodeIT_T0_ENS0_9allocatorIS6_EEXsr3std7is_sameIS6_cEE5valueEEEENKUllE_clEl, symObjAddr: 0x3D07C, symBinAddr: 0x10003FF5C, symSize: 0x190 }
  - { offset: 0x2562D4, size: 0x8, addend: 0x0, symName: __ZN6parlay19fork_join_scheduler5pardoIZNS0_7parfor_IZ12colour_nodesIldEvNS_8sequenceIP4nodeIT_T0_ENS_9allocatorIS9_EEXsr3std7is_sameIS9_cEE5valueEEEEUllE_EEvRNS_9schedulerINS_15WorkStealingJobEEEmmRS6_mbEUlvE_ZNS2_ISD_EEvSH_mmSI_mbEUlvE0_EEvSH_OS6_OS7_b, symObjAddr: 0x3D20C, symBinAddr: 0x1000400EC, symSize: 0x628 }
  - { offset: 0x25747E, size: 0x8, addend: 0x0, symName: __ZN7clusterIldE17set_neighbour_misEbP4nodeIldE, symObjAddr: 0x3C984, symBinAddr: 0x10003F864, symSize: 0x114 }
  - { offset: 0x25756A, size: 0x8, addend: 0x0, symName: __ZN6parlay19fork_join_scheduler5pardoIZNS0_7parfor_IZNS_8sequenceIlNS_9allocatorIlEELb0EEC1IZ7set_MISIldEvRNS3_IP4nodeIT_T0_ENS4_ISD_EEXsr3std7is_sameISD_cEE5valueEEEbEUllE1_EEmOSA_NS6_18_from_function_tagEmEUlmE_EEvRNS_9schedulerINS_15WorkStealingJobEEEmmRSA_mbEUlvE_ZNS2_ISK_EEvSO_mmSP_mbEUlvE0_EEvSO_SI_OSB_b, symObjAddr: 0x3C220, symBinAddr: 0x10003F100, symSize: 0x670 }
  - { offset: 0x2587B8, size: 0x8, addend: 0x0, symName: __ZN6parlay19fork_join_scheduler5pardoIZNS0_7parfor_IZNS_8sequenceIlNS_9allocatorIlEELb0EEC1IZ7set_MISIldEvRNS3_IP4nodeIT_T0_ENS4_ISD_EEXsr3std7is_sameISD_cEE5valueEEEbEUllE2_EEmOSA_NS6_18_from_function_tagEmEUlmE_EEvRNS_9schedulerINS_15WorkStealingJobEEEmmRSA_mbEUlvE_ZNS2_ISK_EEvSO_mmSP_mbEUlvE0_EEvSO_SI_OSB_b, symObjAddr: 0x3B9D8, symBinAddr: 0x10003E8B8, symSize: 0x708 }
  - { offset: 0x2599E0, size: 0x8, addend: 0x0, symName: __ZN6parlay19fork_join_scheduler5pardoIZNS0_7parfor_IZ13counting_sortIPlS4_S4_ENS_8sequenceImNS_9allocatorImEELb0EEERKT_SB_T0_RKT1_lEUllE_EEvRNS_9schedulerINS_15WorkStealingJobEEEmmRS9_mbEUlvE_ZNS2_ISG_EEvSK_mmSL_mbEUlvE0_EEvSK_OS9_OSC_b, symObjAddr: 0x3A448, symBinAddr: 0x10003D33C, symSize: 0x620 }
  - { offset: 0x25ABA6, size: 0x8, addend: 0x0, symName: __ZZ13counting_sortIPlS0_S0_EN6parlay8sequenceImNS1_9allocatorImEELb0EEERKT_S8_T0_RKT1_lENKUllE_clEl, symObjAddr: 0x3A2EC, symBinAddr: 0x10003D1E0, symSize: 0x15C }
  - { offset: 0x25AEC4, size: 0x8, addend: 0x0, symName: __ZN6parlay19fork_join_scheduler5pardoIZNS0_7parfor_IZ13counting_sortIPlS4_S4_ENS_8sequenceImNS_9allocatorImEELb0EEERKT_SB_T0_RKT1_lEUllE_EEvRNS_9schedulerINS_15WorkStealingJobEEEmmRS9_mbEUlvE_ZNS2_ISG_EEvSK_mmSL_mbEUlvE0_EEvSK_OS9_OSC_b, symObjAddr: 0x3A448, symBinAddr: 0x10003D33C, symSize: 0x620 }
  - { offset: 0x25AEDB, size: 0x8, addend: 0x0, symName: __ZZ13counting_sortIPlS0_S0_EN6parlay8sequenceImNS1_9allocatorImEELb0EEERKT_S8_T0_RKT1_lENKUllE0_clEl, symObjAddr: 0x3AA68, symBinAddr: 0x10003D95C, symSize: 0x1B0 }
  - { offset: 0x25B21C, size: 0x8, addend: 0x0, symName: __ZN6parlay19fork_join_scheduler5pardoIZNS0_7parfor_IZ13counting_sortIPlS4_S4_ENS_8sequenceImNS_9allocatorImEELb0EEERKT_SB_T0_RKT1_lEUllE0_EEvRNS_9schedulerINS_15WorkStealingJobEEEmmRS9_mbEUlvE_ZNS2_ISG_EEvSK_mmSL_mbEUlvE0_EEvSK_OS9_OSC_b, symObjAddr: 0x3AC18, symBinAddr: 0x10003DB0C, symSize: 0x620 }
  - { offset: 0x25B233, size: 0x8, addend: 0x0, symName: __ZN6parlay19fork_join_scheduler5pardoIZNS0_7parfor_IZ13counting_sortIPlS4_S4_ENS_8sequenceImNS_9allocatorImEELb0EEERKT_SB_T0_RKT1_lEUllE0_EEvRNS_9schedulerINS_15WorkStealingJobEEEmmRS9_mbEUlvE_ZNS2_ISG_EEvSK_mmSL_mbEUlvE0_EEvSK_OS9_OSC_b, symObjAddr: 0x3AC18, symBinAddr: 0x10003DB0C, symSize: 0x620 }
  - { offset: 0x25C3ED, size: 0x8, addend: 0x0, symName: __ZN7clusterIldE17get_neighbour_misEP4nodeIldE, symObjAddr: 0x39A30, symBinAddr: 0x10003C924, symSize: 0x120 }
  - { offset: 0x25D0F5, size: 0x8, addend: 0x0, symName: __ZN6parlay19fork_join_scheduler5pardoIZNS0_7parfor_IZNS_17sequence_internal13sequence_baseIP4nodeIldENS_9allocatorIS7_EELb0EE12storage_implC1ERKSB_EUlmE_EEvRNS_9schedulerINS_15WorkStealingJobEEEmmRT_mbEUlvE_ZNS2_ISE_EEvSI_mmSK_mbEUlvE0_EEvSI_OSJ_OT0_b, symObjAddr: 0x38A90, symBinAddr: 0x10003B984, symSize: 0x638 }
  - { offset: 0x25F768, size: 0x8, addend: 0x0, symName: __ZN6parlay7JobImplIZNS_19fork_join_scheduler7parfor_IZ22check_parents_childrenIldEvRNS_8sequenceI7clusterIT_T0_ENS_9allocatorIS8_EEXsr3std7is_sameIS8_cEE5valueEEEEUllE_EEvRNS_9schedulerINS_15WorkStealingJobEEEmmRS6_mbEUlvE0_ED1Ev, symObjAddr: 0x388A8, symBinAddr: 0x10003B79C, symSize: 0x4 }
  - { offset: 0x25F793, size: 0x8, addend: 0x0, symName: __ZN6parlay7JobImplIZNS_19fork_join_scheduler7parfor_IZ22check_parents_childrenIldEvRNS_8sequenceI7clusterIT_T0_ENS_9allocatorIS8_EEXsr3std7is_sameIS8_cEE5valueEEEEUllE_EEvRNS_9schedulerINS_15WorkStealingJobEEEmmRS6_mbEUlvE0_ED0Ev, symObjAddr: 0x388AC, symBinAddr: 0x10003B7A0, symSize: 0x4 }
  - { offset: 0x25F7BE, size: 0x8, addend: 0x0, symName: __ZN6parlay7JobImplIZNS_19fork_join_scheduler7parfor_IZ22check_parents_childrenIldEvRNS_8sequenceI7clusterIT_T0_ENS_9allocatorIS8_EEXsr3std7is_sameIS8_cEE5valueEEEEUllE_EEvRNS_9schedulerINS_15WorkStealingJobEEEmmRS6_mbEUlvE0_E7executeEv, symObjAddr: 0x388B0, symBinAddr: 0x10003B7A4, symSize: 0xD8 }
  - { offset: 0x25F871, size: 0x8, addend: 0x0, symName: '__ZN6parlay7JobImplIZNS_19fork_join_scheduler7parfor_IZ15batchInsertEdgeIldZ4mainE3$_0EvRKNS_8sequenceINSt3__14pairIT_S8_EENS_9allocatorIS9_EEXsr3std7is_sameIS9_cEE5valueEEERKNS5_INS6_5tupleIJS8_S8_T0_EEENSA_ISH_EEXsr3std7is_sameISH_cEE5valueEEERNS5_I7clusterIS8_SG_ENSA_ISN_EEXsr3std7is_sameISN_cEE5valueEEESG_T1_EUllE12_EEvRNS_9schedulerINS_15WorkStealingJobEEEmmRS8_mbEUlvE0_ED1Ev', symObjAddr: 0x38988, symBinAddr: 0x10003B87C, symSize: 0x4 }
  - { offset: 0x25F89C, size: 0x8, addend: 0x0, symName: '__ZN6parlay7JobImplIZNS_19fork_join_scheduler7parfor_IZ15batchInsertEdgeIldZ4mainE3$_0EvRKNS_8sequenceINSt3__14pairIT_S8_EENS_9allocatorIS9_EEXsr3std7is_sameIS9_cEE5valueEEERKNS5_INS6_5tupleIJS8_S8_T0_EEENSA_ISH_EEXsr3std7is_sameISH_cEE5valueEEERNS5_I7clusterIS8_SG_ENSA_ISN_EEXsr3std7is_sameISN_cEE5valueEEESG_T1_EUllE12_EEvRNS_9schedulerINS_15WorkStealingJobEEEmmRS8_mbEUlvE0_ED0Ev', symObjAddr: 0x3898C, symBinAddr: 0x10003B880, symSize: 0x4 }
  - { offset: 0x25F8C7, size: 0x8, addend: 0x0, symName: '__ZN6parlay7JobImplIZNS_19fork_join_scheduler7parfor_IZ15batchInsertEdgeIldZ4mainE3$_0EvRKNS_8sequenceINSt3__14pairIT_S8_EENS_9allocatorIS9_EEXsr3std7is_sameIS9_cEE5valueEEERKNS5_INS6_5tupleIJS8_S8_T0_EEENSA_ISH_EEXsr3std7is_sameISH_cEE5valueEEERNS5_I7clusterIS8_SG_ENSA_ISN_EEXsr3std7is_sameISN_cEE5valueEEESG_T1_EUllE12_EEvRNS_9schedulerINS_15WorkStealingJobEEEmmRS8_mbEUlvE0_E7executeEv', symObjAddr: 0x38990, symBinAddr: 0x10003B884, symSize: 0x24 }
  - { offset: 0x25F91A, size: 0x8, addend: 0x0, symName: '__ZN6parlay7JobImplIZNS_19fork_join_scheduler7parfor_IZNS_8internal10sliced_forIZNS3_10filter_mapINS_5sliceIPP4nodeIldESA_EEZ15batchInsertEdgeIldZ4mainE3$_0EvRKNS_8sequenceINSt3__14pairIT_SH_EENS_9allocatorISI_EEXsr3std7is_sameISI_cEE5valueEEERKNSE_INSF_5tupleIJSH_SH_T0_EEENSJ_ISQ_EEXsr3std7is_sameISQ_cEE5valueEEERNSE_I7clusterISH_SP_ENSJ_ISW_EEXsr3std7is_sameISW_cEE5valueEEESP_T1_EUlSH_E7_RZNS3_6filterISB_S11_EENSE_INSH_10value_typeENSJ_IS13_EEXsr3std7is_sameIS13_cEE5valueEEERKSH_OSP_EUlOSH_E_EEDaS17_S18_OS10_EUlmmmE0_EEvmmS17_jEUlmE_EEvRNS_9schedulerINS_15WorkStealingJobEEEmmRSH_mbEUlvE0_ED1Ev', symObjAddr: 0x389B4, symBinAddr: 0x10003B8A8, symSize: 0x4 }
  - { offset: 0x25F945, size: 0x8, addend: 0x0, symName: '__ZN6parlay7JobImplIZNS_19fork_join_scheduler7parfor_IZNS_8internal10sliced_forIZNS3_10filter_mapINS_5sliceIPP4nodeIldESA_EEZ15batchInsertEdgeIldZ4mainE3$_0EvRKNS_8sequenceINSt3__14pairIT_SH_EENS_9allocatorISI_EEXsr3std7is_sameISI_cEE5valueEEERKNSE_INSF_5tupleIJSH_SH_T0_EEENSJ_ISQ_EEXsr3std7is_sameISQ_cEE5valueEEERNSE_I7clusterISH_SP_ENSJ_ISW_EEXsr3std7is_sameISW_cEE5valueEEESP_T1_EUlSH_E7_RZNS3_6filterISB_S11_EENSE_INSH_10value_typeENSJ_IS13_EEXsr3std7is_sameIS13_cEE5valueEEERKSH_OSP_EUlOSH_E_EEDaS17_S18_OS10_EUlmmmE0_EEvmmS17_jEUlmE_EEvRNS_9schedulerINS_15WorkStealingJobEEEmmRSH_mbEUlvE0_ED0Ev', symObjAddr: 0x389B8, symBinAddr: 0x10003B8AC, symSize: 0x4 }
  - { offset: 0x25F970, size: 0x8, addend: 0x0, symName: '__ZN6parlay7JobImplIZNS_19fork_join_scheduler7parfor_IZNS_8internal10sliced_forIZNS3_10filter_mapINS_5sliceIPP4nodeIldESA_EEZ15batchInsertEdgeIldZ4mainE3$_0EvRKNS_8sequenceINSt3__14pairIT_SH_EENS_9allocatorISI_EEXsr3std7is_sameISI_cEE5valueEEERKNSE_INSF_5tupleIJSH_SH_T0_EEENSJ_ISQ_EEXsr3std7is_sameISQ_cEE5valueEEERNSE_I7clusterISH_SP_ENSJ_ISW_EEXsr3std7is_sameISW_cEE5valueEEESP_T1_EUlSH_E7_RZNS3_6filterISB_S11_EENSE_INSH_10value_typeENSJ_IS13_EEXsr3std7is_sameIS13_cEE5valueEEERKSH_OSP_EUlOSH_E_EEDaS17_S18_OS10_EUlmmmE0_EEvmmS17_jEUlmE_EEvRNS_9schedulerINS_15WorkStealingJobEEEmmRSH_mbEUlvE0_E7executeEv', symObjAddr: 0x389BC, symBinAddr: 0x10003B8B0, symSize: 0x24 }
  - { offset: 0x25F9C3, size: 0x8, addend: 0x0, symName: '__ZN6parlay7JobImplIZNS_19fork_join_scheduler7parfor_IZNS_8internal10sliced_forIZNS3_10filter_mapINS_5sliceIPP4nodeIldESA_EEZ15batchInsertEdgeIldZ4mainE3$_0EvRKNS_8sequenceINSt3__14pairIT_SH_EENS_9allocatorISI_EEXsr3std7is_sameISI_cEE5valueEEERKNSE_INSF_5tupleIJSH_SH_T0_EEENSJ_ISQ_EEXsr3std7is_sameISQ_cEE5valueEEERNSE_I7clusterISH_SP_ENSJ_ISW_EEXsr3std7is_sameISW_cEE5valueEEESP_T1_EUlSH_E7_RZNS3_6filterISB_S11_EENSE_INSH_10value_typeENSJ_IS13_EEXsr3std7is_sameIS13_cEE5valueEEERKSH_OSP_EUlOSH_E_EEDaS17_S18_OS10_EUlmmmE_EEvmmS17_jEUlmE_EEvRNS_9schedulerINS_15WorkStealingJobEEEmmRSH_mbEUlvE0_ED1Ev', symObjAddr: 0x389E0, symBinAddr: 0x10003B8D4, symSize: 0x4 }
  - { offset: 0x25F9EE, size: 0x8, addend: 0x0, symName: '__ZN6parlay7JobImplIZNS_19fork_join_scheduler7parfor_IZNS_8internal10sliced_forIZNS3_10filter_mapINS_5sliceIPP4nodeIldESA_EEZ15batchInsertEdgeIldZ4mainE3$_0EvRKNS_8sequenceINSt3__14pairIT_SH_EENS_9allocatorISI_EEXsr3std7is_sameISI_cEE5valueEEERKNSE_INSF_5tupleIJSH_SH_T0_EEENSJ_ISQ_EEXsr3std7is_sameISQ_cEE5valueEEERNSE_I7clusterISH_SP_ENSJ_ISW_EEXsr3std7is_sameISW_cEE5valueEEESP_T1_EUlSH_E7_RZNS3_6filterISB_S11_EENSE_INSH_10value_typeENSJ_IS13_EEXsr3std7is_sameIS13_cEE5valueEEERKSH_OSP_EUlOSH_E_EEDaS17_S18_OS10_EUlmmmE_EEvmmS17_jEUlmE_EEvRNS_9schedulerINS_15WorkStealingJobEEEmmRSH_mbEUlvE0_ED0Ev', symObjAddr: 0x389E4, symBinAddr: 0x10003B8D8, symSize: 0x4 }
  - { offset: 0x25FA19, size: 0x8, addend: 0x0, symName: '__ZN6parlay7JobImplIZNS_19fork_join_scheduler7parfor_IZNS_8internal10sliced_forIZNS3_10filter_mapINS_5sliceIPP4nodeIldESA_EEZ15batchInsertEdgeIldZ4mainE3$_0EvRKNS_8sequenceINSt3__14pairIT_SH_EENS_9allocatorISI_EEXsr3std7is_sameISI_cEE5valueEEERKNSE_INSF_5tupleIJSH_SH_T0_EEENSJ_ISQ_EEXsr3std7is_sameISQ_cEE5valueEEERNSE_I7clusterISH_SP_ENSJ_ISW_EEXsr3std7is_sameISW_cEE5valueEEESP_T1_EUlSH_E7_RZNS3_6filterISB_S11_EENSE_INSH_10value_typeENSJ_IS13_EEXsr3std7is_sameIS13_cEE5valueEEERKSH_OSP_EUlOSH_E_EEDaS17_S18_OS10_EUlmmmE_EEvmmS17_jEUlmE_EEvRNS_9schedulerINS_15WorkStealingJobEEEmmRSH_mbEUlvE0_E7executeEv', symObjAddr: 0x389E8, symBinAddr: 0x10003B8DC, symSize: 0x24 }
  - { offset: 0x25FA6C, size: 0x8, addend: 0x0, symName: '__ZN6parlay7JobImplIZNS_19fork_join_scheduler7parfor_IZNS_8internal10sliced_forIZNS3_10filter_mapINS_5sliceIPP4nodeIldESA_EEZ15batchInsertEdgeIldZ4mainE3$_0EvRKNS_8sequenceINSt3__14pairIT_SH_EENS_9allocatorISI_EEXsr3std7is_sameISI_cEE5valueEEERKNSE_INSF_5tupleIJSH_SH_T0_EEENSJ_ISQ_EEXsr3std7is_sameISQ_cEE5valueEEERNSE_I7clusterISH_SP_ENSJ_ISW_EEXsr3std7is_sameISW_cEE5valueEEESP_T1_EUlSH_E6_RZNS3_6filterISB_S11_EENSE_INSH_10value_typeENSJ_IS13_EEXsr3std7is_sameIS13_cEE5valueEEERKSH_OSP_EUlOSH_E_EEDaS17_S18_OS10_EUlmmmE0_EEvmmS17_jEUlmE_EEvRNS_9schedulerINS_15WorkStealingJobEEEmmRSH_mbEUlvE0_ED1Ev', symObjAddr: 0x38A0C, symBinAddr: 0x10003B900, symSize: 0x4 }
  - { offset: 0x25FA97, size: 0x8, addend: 0x0, symName: '__ZN6parlay7JobImplIZNS_19fork_join_scheduler7parfor_IZNS_8internal10sliced_forIZNS3_10filter_mapINS_5sliceIPP4nodeIldESA_EEZ15batchInsertEdgeIldZ4mainE3$_0EvRKNS_8sequenceINSt3__14pairIT_SH_EENS_9allocatorISI_EEXsr3std7is_sameISI_cEE5valueEEERKNSE_INSF_5tupleIJSH_SH_T0_EEENSJ_ISQ_EEXsr3std7is_sameISQ_cEE5valueEEERNSE_I7clusterISH_SP_ENSJ_ISW_EEXsr3std7is_sameISW_cEE5valueEEESP_T1_EUlSH_E6_RZNS3_6filterISB_S11_EENSE_INSH_10value_typeENSJ_IS13_EEXsr3std7is_sameIS13_cEE5valueEEERKSH_OSP_EUlOSH_E_EEDaS17_S18_OS10_EUlmmmE0_EEvmmS17_jEUlmE_EEvRNS_9schedulerINS_15WorkStealingJobEEEmmRSH_mbEUlvE0_ED0Ev', symObjAddr: 0x38A10, symBinAddr: 0x10003B904, symSize: 0x4 }
  - { offset: 0x25FAC2, size: 0x8, addend: 0x0, symName: '__ZN6parlay7JobImplIZNS_19fork_join_scheduler7parfor_IZNS_8internal10sliced_forIZNS3_10filter_mapINS_5sliceIPP4nodeIldESA_EEZ15batchInsertEdgeIldZ4mainE3$_0EvRKNS_8sequenceINSt3__14pairIT_SH_EENS_9allocatorISI_EEXsr3std7is_sameISI_cEE5valueEEERKNSE_INSF_5tupleIJSH_SH_T0_EEENSJ_ISQ_EEXsr3std7is_sameISQ_cEE5valueEEERNSE_I7clusterISH_SP_ENSJ_ISW_EEXsr3std7is_sameISW_cEE5valueEEESP_T1_EUlSH_E6_RZNS3_6filterISB_S11_EENSE_INSH_10value_typeENSJ_IS13_EEXsr3std7is_sameIS13_cEE5valueEEERKSH_OSP_EUlOSH_E_EEDaS17_S18_OS10_EUlmmmE0_EEvmmS17_jEUlmE_EEvRNS_9schedulerINS_15WorkStealingJobEEEmmRSH_mbEUlvE0_E7executeEv', symObjAddr: 0x38A14, symBinAddr: 0x10003B908, symSize: 0x24 }
  - { offset: 0x25FB15, size: 0x8, addend: 0x0, symName: '__ZN6parlay7JobImplIZNS_19fork_join_scheduler7parfor_IZNS_8internal10sliced_forIZNS3_10filter_mapINS_5sliceIPP4nodeIldESA_EEZ15batchInsertEdgeIldZ4mainE3$_0EvRKNS_8sequenceINSt3__14pairIT_SH_EENS_9allocatorISI_EEXsr3std7is_sameISI_cEE5valueEEERKNSE_INSF_5tupleIJSH_SH_T0_EEENSJ_ISQ_EEXsr3std7is_sameISQ_cEE5valueEEERNSE_I7clusterISH_SP_ENSJ_ISW_EEXsr3std7is_sameISW_cEE5valueEEESP_T1_EUlSH_E6_RZNS3_6filterISB_S11_EENSE_INSH_10value_typeENSJ_IS13_EEXsr3std7is_sameIS13_cEE5valueEEERKSH_OSP_EUlOSH_E_EEDaS17_S18_OS10_EUlmmmE_EEvmmS17_jEUlmE_EEvRNS_9schedulerINS_15WorkStealingJobEEEmmRSH_mbEUlvE0_ED1Ev', symObjAddr: 0x38A38, symBinAddr: 0x10003B92C, symSize: 0x4 }
  - { offset: 0x25FB40, size: 0x8, addend: 0x0, symName: '__ZN6parlay7JobImplIZNS_19fork_join_scheduler7parfor_IZNS_8internal10sliced_forIZNS3_10filter_mapINS_5sliceIPP4nodeIldESA_EEZ15batchInsertEdgeIldZ4mainE3$_0EvRKNS_8sequenceINSt3__14pairIT_SH_EENS_9allocatorISI_EEXsr3std7is_sameISI_cEE5valueEEERKNSE_INSF_5tupleIJSH_SH_T0_EEENSJ_ISQ_EEXsr3std7is_sameISQ_cEE5valueEEERNSE_I7clusterISH_SP_ENSJ_ISW_EEXsr3std7is_sameISW_cEE5valueEEESP_T1_EUlSH_E6_RZNS3_6filterISB_S11_EENSE_INSH_10value_typeENSJ_IS13_EEXsr3std7is_sameIS13_cEE5valueEEERKSH_OSP_EUlOSH_E_EEDaS17_S18_OS10_EUlmmmE_EEvmmS17_jEUlmE_EEvRNS_9schedulerINS_15WorkStealingJobEEEmmRSH_mbEUlvE0_ED0Ev', symObjAddr: 0x38A3C, symBinAddr: 0x10003B930, symSize: 0x4 }
  - { offset: 0x25FB6B, size: 0x8, addend: 0x0, symName: '__ZN6parlay7JobImplIZNS_19fork_join_scheduler7parfor_IZNS_8internal10sliced_forIZNS3_10filter_mapINS_5sliceIPP4nodeIldESA_EEZ15batchInsertEdgeIldZ4mainE3$_0EvRKNS_8sequenceINSt3__14pairIT_SH_EENS_9allocatorISI_EEXsr3std7is_sameISI_cEE5valueEEERKNSE_INSF_5tupleIJSH_SH_T0_EEENSJ_ISQ_EEXsr3std7is_sameISQ_cEE5valueEEERNSE_I7clusterISH_SP_ENSJ_ISW_EEXsr3std7is_sameISW_cEE5valueEEESP_T1_EUlSH_E6_RZNS3_6filterISB_S11_EENSE_INSH_10value_typeENSJ_IS13_EEXsr3std7is_sameIS13_cEE5valueEEERKSH_OSP_EUlOSH_E_EEDaS17_S18_OS10_EUlmmmE_EEvmmS17_jEUlmE_EEvRNS_9schedulerINS_15WorkStealingJobEEEmmRSH_mbEUlvE0_E7executeEv', symObjAddr: 0x38A40, symBinAddr: 0x10003B934, symSize: 0x24 }
  - { offset: 0x25FBBE, size: 0x8, addend: 0x0, symName: '__ZN6parlay7JobImplIZNS_19fork_join_scheduler7parfor_IZ15batchInsertEdgeIldZ4mainE3$_0EvRKNS_8sequenceINSt3__14pairIT_S8_EENS_9allocatorIS9_EEXsr3std7is_sameIS9_cEE5valueEEERKNS5_INS6_5tupleIJS8_S8_T0_EEENSA_ISH_EEXsr3std7is_sameISH_cEE5valueEEERNS5_I7clusterIS8_SG_ENSA_ISN_EEXsr3std7is_sameISN_cEE5valueEEESG_T1_EUllE11_EEvRNS_9schedulerINS_15WorkStealingJobEEEmmRS8_mbEUlvE0_ED1Ev', symObjAddr: 0x38A64, symBinAddr: 0x10003B958, symSize: 0x4 }
  - { offset: 0x25FBE9, size: 0x8, addend: 0x0, symName: '__ZN6parlay7JobImplIZNS_19fork_join_scheduler7parfor_IZ15batchInsertEdgeIldZ4mainE3$_0EvRKNS_8sequenceINSt3__14pairIT_S8_EENS_9allocatorIS9_EEXsr3std7is_sameIS9_cEE5valueEEERKNS5_INS6_5tupleIJS8_S8_T0_EEENSA_ISH_EEXsr3std7is_sameISH_cEE5valueEEERNS5_I7clusterIS8_SG_ENSA_ISN_EEXsr3std7is_sameISN_cEE5valueEEESG_T1_EUllE11_EEvRNS_9schedulerINS_15WorkStealingJobEEEmmRS8_mbEUlvE0_ED0Ev', symObjAddr: 0x38A68, symBinAddr: 0x10003B95C, symSize: 0x4 }
  - { offset: 0x25FC14, size: 0x8, addend: 0x0, symName: '__ZN6parlay7JobImplIZNS_19fork_join_scheduler7parfor_IZ15batchInsertEdgeIldZ4mainE3$_0EvRKNS_8sequenceINSt3__14pairIT_S8_EENS_9allocatorIS9_EEXsr3std7is_sameIS9_cEE5valueEEERKNS5_INS6_5tupleIJS8_S8_T0_EEENSA_ISH_EEXsr3std7is_sameISH_cEE5valueEEERNS5_I7clusterIS8_SG_ENSA_ISN_EEXsr3std7is_sameISN_cEE5valueEEESG_T1_EUllE11_EEvRNS_9schedulerINS_15WorkStealingJobEEEmmRS8_mbEUlvE0_E7executeEv', symObjAddr: 0x38A6C, symBinAddr: 0x10003B960, symSize: 0x24 }
  - { offset: 0x25FE86, size: 0x8, addend: 0x0, symName: __ZN6parlay7JobImplIZNS_19fork_join_scheduler7parfor_IZNS_17sequence_internal13sequence_baseIP4nodeIldENS_9allocatorIS7_EELb0EE12storage_implC1ERKSB_EUlmE_EEvRNS_9schedulerINS_15WorkStealingJobEEEmmRT_mbEUlvE0_ED1Ev, symObjAddr: 0x390C8, symBinAddr: 0x10003BFBC, symSize: 0x4 }
  - { offset: 0x25FEB1, size: 0x8, addend: 0x0, symName: __ZN6parlay7JobImplIZNS_19fork_join_scheduler7parfor_IZNS_17sequence_internal13sequence_baseIP4nodeIldENS_9allocatorIS7_EELb0EE12storage_implC1ERKSB_EUlmE_EEvRNS_9schedulerINS_15WorkStealingJobEEEmmRT_mbEUlvE0_ED0Ev, symObjAddr: 0x390CC, symBinAddr: 0x10003BFC0, symSize: 0x4 }
  - { offset: 0x25FEDC, size: 0x8, addend: 0x0, symName: __ZN6parlay7JobImplIZNS_19fork_join_scheduler7parfor_IZNS_17sequence_internal13sequence_baseIP4nodeIldENS_9allocatorIS7_EELb0EE12storage_implC1ERKSB_EUlmE_EEvRNS_9schedulerINS_15WorkStealingJobEEEmmRT_mbEUlvE0_E7executeEv, symObjAddr: 0x390D0, symBinAddr: 0x10003BFC4, symSize: 0xD0 }
  - { offset: 0x260001, size: 0x8, addend: 0x0, symName: '__ZN6parlay7JobImplIZNS_19fork_join_scheduler7parfor_IZ15batchInsertEdgeIldZ4mainE3$_0EvRKNS_8sequenceINSt3__14pairIT_S8_EENS_9allocatorIS9_EEXsr3std7is_sameIS9_cEE5valueEEERKNS5_INS6_5tupleIJS8_S8_T0_EEENSA_ISH_EEXsr3std7is_sameISH_cEE5valueEEERNS5_I7clusterIS8_SG_ENSA_ISN_EEXsr3std7is_sameISN_cEE5valueEEESG_T1_EUllE9_EEvRNS_9schedulerINS_15WorkStealingJobEEEmmRS8_mbEUlvE0_ED1Ev', symObjAddr: 0x391A0, symBinAddr: 0x10003C094, symSize: 0x4 }
  - { offset: 0x26002C, size: 0x8, addend: 0x0, symName: '__ZN6parlay7JobImplIZNS_19fork_join_scheduler7parfor_IZ15batchInsertEdgeIldZ4mainE3$_0EvRKNS_8sequenceINSt3__14pairIT_S8_EENS_9allocatorIS9_EEXsr3std7is_sameIS9_cEE5valueEEERKNS5_INS6_5tupleIJS8_S8_T0_EEENSA_ISH_EEXsr3std7is_sameISH_cEE5valueEEERNS5_I7clusterIS8_SG_ENSA_ISN_EEXsr3std7is_sameISN_cEE5valueEEESG_T1_EUllE9_EEvRNS_9schedulerINS_15WorkStealingJobEEEmmRS8_mbEUlvE0_ED0Ev', symObjAddr: 0x391A4, symBinAddr: 0x10003C098, symSize: 0x4 }
  - { offset: 0x260057, size: 0x8, addend: 0x0, symName: '__ZN6parlay7JobImplIZNS_19fork_join_scheduler7parfor_IZ15batchInsertEdgeIldZ4mainE3$_0EvRKNS_8sequenceINSt3__14pairIT_S8_EENS_9allocatorIS9_EEXsr3std7is_sameIS9_cEE5valueEEERKNS5_INS6_5tupleIJS8_S8_T0_EEENSA_ISH_EEXsr3std7is_sameISH_cEE5valueEEERNS5_I7clusterIS8_SG_ENSA_ISN_EEXsr3std7is_sameISN_cEE5valueEEESG_T1_EUllE9_EEvRNS_9schedulerINS_15WorkStealingJobEEEmmRS8_mbEUlvE0_E7executeEv', symObjAddr: 0x391A8, symBinAddr: 0x10003C09C, symSize: 0x24 }
  - { offset: 0x2600AA, size: 0x8, addend: 0x0, symName: '__ZN6parlay7JobImplIZNS_19fork_join_scheduler7parfor_IZNS_8internal10sliced_forIZNS3_10filter_mapINS_5sliceIPP4nodeIldESA_EEZ15batchInsertEdgeIldZ4mainE3$_0EvRKNS_8sequenceINSt3__14pairIT_SH_EENS_9allocatorISI_EEXsr3std7is_sameISI_cEE5valueEEERKNSE_INSF_5tupleIJSH_SH_T0_EEENSJ_ISQ_EEXsr3std7is_sameISQ_cEE5valueEEERNSE_I7clusterISH_SP_ENSJ_ISW_EEXsr3std7is_sameISW_cEE5valueEEESP_T1_EUlSH_E5_RZNS3_6filterISB_S11_EENSE_INSH_10value_typeENSJ_IS13_EEXsr3std7is_sameIS13_cEE5valueEEERKSH_OSP_EUlOSH_E_EEDaS17_S18_OS10_EUlmmmE0_EEvmmS17_jEUlmE_EEvRNS_9schedulerINS_15WorkStealingJobEEEmmRSH_mbEUlvE0_ED1Ev', symObjAddr: 0x399D8, symBinAddr: 0x10003C8CC, symSize: 0x4 }
  - { offset: 0x2600D5, size: 0x8, addend: 0x0, symName: '__ZN6parlay7JobImplIZNS_19fork_join_scheduler7parfor_IZNS_8internal10sliced_forIZNS3_10filter_mapINS_5sliceIPP4nodeIldESA_EEZ15batchInsertEdgeIldZ4mainE3$_0EvRKNS_8sequenceINSt3__14pairIT_SH_EENS_9allocatorISI_EEXsr3std7is_sameISI_cEE5valueEEERKNSE_INSF_5tupleIJSH_SH_T0_EEENSJ_ISQ_EEXsr3std7is_sameISQ_cEE5valueEEERNSE_I7clusterISH_SP_ENSJ_ISW_EEXsr3std7is_sameISW_cEE5valueEEESP_T1_EUlSH_E5_RZNS3_6filterISB_S11_EENSE_INSH_10value_typeENSJ_IS13_EEXsr3std7is_sameIS13_cEE5valueEEERKSH_OSP_EUlOSH_E_EEDaS17_S18_OS10_EUlmmmE0_EEvmmS17_jEUlmE_EEvRNS_9schedulerINS_15WorkStealingJobEEEmmRSH_mbEUlvE0_ED0Ev', symObjAddr: 0x399DC, symBinAddr: 0x10003C8D0, symSize: 0x4 }
  - { offset: 0x260100, size: 0x8, addend: 0x0, symName: '__ZN6parlay7JobImplIZNS_19fork_join_scheduler7parfor_IZNS_8internal10sliced_forIZNS3_10filter_mapINS_5sliceIPP4nodeIldESA_EEZ15batchInsertEdgeIldZ4mainE3$_0EvRKNS_8sequenceINSt3__14pairIT_SH_EENS_9allocatorISI_EEXsr3std7is_sameISI_cEE5valueEEERKNSE_INSF_5tupleIJSH_SH_T0_EEENSJ_ISQ_EEXsr3std7is_sameISQ_cEE5valueEEERNSE_I7clusterISH_SP_ENSJ_ISW_EEXsr3std7is_sameISW_cEE5valueEEESP_T1_EUlSH_E5_RZNS3_6filterISB_S11_EENSE_INSH_10value_typeENSJ_IS13_EEXsr3std7is_sameIS13_cEE5valueEEERKSH_OSP_EUlOSH_E_EEDaS17_S18_OS10_EUlmmmE0_EEvmmS17_jEUlmE_EEvRNS_9schedulerINS_15WorkStealingJobEEEmmRSH_mbEUlvE0_E7executeEv', symObjAddr: 0x399E0, symBinAddr: 0x10003C8D4, symSize: 0x24 }
  - { offset: 0x260153, size: 0x8, addend: 0x0, symName: '__ZN6parlay7JobImplIZNS_19fork_join_scheduler7parfor_IZNS_8internal10sliced_forIZNS3_10filter_mapINS_5sliceIPP4nodeIldESA_EEZ15batchInsertEdgeIldZ4mainE3$_0EvRKNS_8sequenceINSt3__14pairIT_SH_EENS_9allocatorISI_EEXsr3std7is_sameISI_cEE5valueEEERKNSE_INSF_5tupleIJSH_SH_T0_EEENSJ_ISQ_EEXsr3std7is_sameISQ_cEE5valueEEERNSE_I7clusterISH_SP_ENSJ_ISW_EEXsr3std7is_sameISW_cEE5valueEEESP_T1_EUlSH_E5_RZNS3_6filterISB_S11_EENSE_INSH_10value_typeENSJ_IS13_EEXsr3std7is_sameIS13_cEE5valueEEERKSH_OSP_EUlOSH_E_EEDaS17_S18_OS10_EUlmmmE_EEvmmS17_jEUlmE_EEvRNS_9schedulerINS_15WorkStealingJobEEEmmRSH_mbEUlvE0_ED1Ev', symObjAddr: 0x39A04, symBinAddr: 0x10003C8F8, symSize: 0x4 }
  - { offset: 0x26017E, size: 0x8, addend: 0x0, symName: '__ZN6parlay7JobImplIZNS_19fork_join_scheduler7parfor_IZNS_8internal10sliced_forIZNS3_10filter_mapINS_5sliceIPP4nodeIldESA_EEZ15batchInsertEdgeIldZ4mainE3$_0EvRKNS_8sequenceINSt3__14pairIT_SH_EENS_9allocatorISI_EEXsr3std7is_sameISI_cEE5valueEEERKNSE_INSF_5tupleIJSH_SH_T0_EEENSJ_ISQ_EEXsr3std7is_sameISQ_cEE5valueEEERNSE_I7clusterISH_SP_ENSJ_ISW_EEXsr3std7is_sameISW_cEE5valueEEESP_T1_EUlSH_E5_RZNS3_6filterISB_S11_EENSE_INSH_10value_typeENSJ_IS13_EEXsr3std7is_sameIS13_cEE5valueEEERKSH_OSP_EUlOSH_E_EEDaS17_S18_OS10_EUlmmmE_EEvmmS17_jEUlmE_EEvRNS_9schedulerINS_15WorkStealingJobEEEmmRSH_mbEUlvE0_ED0Ev', symObjAddr: 0x39A08, symBinAddr: 0x10003C8FC, symSize: 0x4 }
  - { offset: 0x2601A9, size: 0x8, addend: 0x0, symName: '__ZN6parlay7JobImplIZNS_19fork_join_scheduler7parfor_IZNS_8internal10sliced_forIZNS3_10filter_mapINS_5sliceIPP4nodeIldESA_EEZ15batchInsertEdgeIldZ4mainE3$_0EvRKNS_8sequenceINSt3__14pairIT_SH_EENS_9allocatorISI_EEXsr3std7is_sameISI_cEE5valueEEERKNSE_INSF_5tupleIJSH_SH_T0_EEENSJ_ISQ_EEXsr3std7is_sameISQ_cEE5valueEEERNSE_I7clusterISH_SP_ENSJ_ISW_EEXsr3std7is_sameISW_cEE5valueEEESP_T1_EUlSH_E5_RZNS3_6filterISB_S11_EENSE_INSH_10value_typeENSJ_IS13_EEXsr3std7is_sameIS13_cEE5valueEEERKSH_OSP_EUlOSH_E_EEDaS17_S18_OS10_EUlmmmE_EEvmmS17_jEUlmE_EEvRNS_9schedulerINS_15WorkStealingJobEEEmmRSH_mbEUlvE0_E7executeEv', symObjAddr: 0x39A0C, symBinAddr: 0x10003C900, symSize: 0x24 }
  - { offset: 0x2604EF, size: 0x8, addend: 0x0, symName: __ZN6parlay7JobImplIZNS_19fork_join_scheduler7parfor_IZ7set_MISIldEvRNS_8sequenceIP4nodeIT_T0_ENS_9allocatorIS9_EEXsr3std7is_sameIS9_cEE5valueEEEbEUllE3_EEvRNS_9schedulerINS_15WorkStealingJobEEEmmRS6_mbEUlvE0_ED1Ev, symObjAddr: 0x3A13C, symBinAddr: 0x10003D030, symSize: 0x4 }
  - { offset: 0x26051A, size: 0x8, addend: 0x0, symName: __ZN6parlay7JobImplIZNS_19fork_join_scheduler7parfor_IZ7set_MISIldEvRNS_8sequenceIP4nodeIT_T0_ENS_9allocatorIS9_EEXsr3std7is_sameIS9_cEE5valueEEEbEUllE3_EEvRNS_9schedulerINS_15WorkStealingJobEEEmmRS6_mbEUlvE0_ED0Ev, symObjAddr: 0x3A140, symBinAddr: 0x10003D034, symSize: 0x4 }
  - { offset: 0x260545, size: 0x8, addend: 0x0, symName: __ZN6parlay7JobImplIZNS_19fork_join_scheduler7parfor_IZ7set_MISIldEvRNS_8sequenceIP4nodeIT_T0_ENS_9allocatorIS9_EEXsr3std7is_sameIS9_cEE5valueEEEbEUllE3_EEvRNS_9schedulerINS_15WorkStealingJobEEEmmRS6_mbEUlvE0_E7executeEv, symObjAddr: 0x3A144, symBinAddr: 0x10003D038, symSize: 0x24 }
  - { offset: 0x260749, size: 0x8, addend: 0x0, symName: __ZN6parlay7JobImplIZNS_19fork_join_scheduler7parfor_IZ13counting_sortIPlS4_S4_ENS_8sequenceImNS_9allocatorImEELb0EEERKT_SB_T0_RKT1_lEUllE_EEvRNS_9schedulerINS_15WorkStealingJobEEEmmRS9_mbEUlvE0_ED1Ev, symObjAddr: 0x3B8FC, symBinAddr: 0x10003E7DC, symSize: 0x4 }
  - { offset: 0x260E9D, size: 0x8, addend: 0x0, symName: __ZN6parlay7JobImplIZNS_19fork_join_scheduler7parfor_IZNS_8sequenceImNS_9allocatorImEELb0EEC1IZ13counting_sortIPlS9_S9_ES6_RKT_SC_T0_RKT1_lEUllE1_EEmOSA_NS6_18_from_function_tagEmEUlmE_EEvRNS_9schedulerINS_15WorkStealingJobEEEmmRSA_mbEUlvE0_ED1Ev, symObjAddr: 0x3B7E0, symBinAddr: 0x10003E6D4, symSize: 0x4 }
  - { offset: 0x260EC8, size: 0x8, addend: 0x0, symName: __ZN6parlay7JobImplIZNS_19fork_join_scheduler7parfor_IZNS_8sequenceImNS_9allocatorImEELb0EEC1IZ13counting_sortIPlS9_S9_ES6_RKT_SC_T0_RKT1_lEUllE1_EEmOSA_NS6_18_from_function_tagEmEUlmE_EEvRNS_9schedulerINS_15WorkStealingJobEEEmmRSA_mbEUlvE0_ED0Ev, symObjAddr: 0x3B7E4, symBinAddr: 0x10003E6D8, symSize: 0x4 }
  - { offset: 0x260EF3, size: 0x8, addend: 0x0, symName: __ZN6parlay7JobImplIZNS_19fork_join_scheduler7parfor_IZNS_8sequenceImNS_9allocatorImEELb0EEC1IZ13counting_sortIPlS9_S9_ES6_RKT_SC_T0_RKT1_lEUllE1_EEmOSA_NS6_18_from_function_tagEmEUlmE_EEvRNS_9schedulerINS_15WorkStealingJobEEEmmRSA_mbEUlvE0_E7executeEv, symObjAddr: 0x3B7E8, symBinAddr: 0x10003E6DC, symSize: 0x24 }
  - { offset: 0x260F46, size: 0x8, addend: 0x0, symName: __ZN6parlay7JobImplIZNS_19fork_join_scheduler7parfor_IZ13counting_sortIPlS4_S4_ENS_8sequenceImNS_9allocatorImEELb0EEERKT_SB_T0_RKT1_lEUllE0_EEvRNS_9schedulerINS_15WorkStealingJobEEEmmRS9_mbEUlvE0_ED1Ev, symObjAddr: 0x3B80C, symBinAddr: 0x10003E700, symSize: 0x4 }
  - { offset: 0x260F71, size: 0x8, addend: 0x0, symName: __ZN6parlay7JobImplIZNS_19fork_join_scheduler7parfor_IZ13counting_sortIPlS4_S4_ENS_8sequenceImNS_9allocatorImEELb0EEERKT_SB_T0_RKT1_lEUllE0_EEvRNS_9schedulerINS_15WorkStealingJobEEEmmRS9_mbEUlvE0_ED0Ev, symObjAddr: 0x3B810, symBinAddr: 0x10003E704, symSize: 0x4 }
  - { offset: 0x260F9C, size: 0x8, addend: 0x0, symName: __ZN6parlay7JobImplIZNS_19fork_join_scheduler7parfor_IZ13counting_sortIPlS4_S4_ENS_8sequenceImNS_9allocatorImEELb0EEERKT_SB_T0_RKT1_lEUllE0_EEvRNS_9schedulerINS_15WorkStealingJobEEEmmRS9_mbEUlvE0_E7executeEv, symObjAddr: 0x3B814, symBinAddr: 0x10003E708, symSize: 0xD4 }
  - { offset: 0x261056, size: 0x8, addend: 0x0, symName: __ZN6parlay7JobImplIZNS_19fork_join_scheduler7parfor_IZ13counting_sortIPlS4_S4_ENS_8sequenceImNS_9allocatorImEELb0EEERKT_SB_T0_RKT1_lEUllE_EEvRNS_9schedulerINS_15WorkStealingJobEEEmmRS9_mbEUlvE0_ED1Ev, symObjAddr: 0x3B8FC, symBinAddr: 0x10003E7DC, symSize: 0x4 }
  - { offset: 0x261081, size: 0x8, addend: 0x0, symName: __ZN6parlay7JobImplIZNS_19fork_join_scheduler7parfor_IZ13counting_sortIPlS4_S4_ENS_8sequenceImNS_9allocatorImEELb0EEERKT_SB_T0_RKT1_lEUllE_EEvRNS_9schedulerINS_15WorkStealingJobEEEmmRS9_mbEUlvE0_ED0Ev, symObjAddr: 0x3B900, symBinAddr: 0x10003E7E0, symSize: 0x4 }
  - { offset: 0x2610AC, size: 0x8, addend: 0x0, symName: __ZN6parlay7JobImplIZNS_19fork_join_scheduler7parfor_IZ13counting_sortIPlS4_S4_ENS_8sequenceImNS_9allocatorImEELb0EEERKT_SB_T0_RKT1_lEUllE_EEvRNS_9schedulerINS_15WorkStealingJobEEEmmRS9_mbEUlvE0_E7executeEv, symObjAddr: 0x3B904, symBinAddr: 0x10003E7E4, symSize: 0xD4 }
  - { offset: 0x261385, size: 0x8, addend: 0x0, symName: __ZN6parlay7JobImplIZNS_19fork_join_scheduler7parfor_IZNS_8sequenceIlNS_9allocatorIlEELb0EEC1IZ7set_MISIldEvRNS3_IP4nodeIT_T0_ENS4_ISD_EEXsr3std7is_sameISD_cEE5valueEEEbEUllE2_EEmOSA_NS6_18_from_function_tagEmEUlmE_EEvRNS_9schedulerINS_15WorkStealingJobEEEmmRSA_mbEUlvE0_ED1Ev, symObjAddr: 0x3C0E0, symBinAddr: 0x10003EFC0, symSize: 0x4 }
  - { offset: 0x2613B0, size: 0x8, addend: 0x0, symName: __ZN6parlay7JobImplIZNS_19fork_join_scheduler7parfor_IZNS_8sequenceIlNS_9allocatorIlEELb0EEC1IZ7set_MISIldEvRNS3_IP4nodeIT_T0_ENS4_ISD_EEXsr3std7is_sameISD_cEE5valueEEEbEUllE2_EEmOSA_NS6_18_from_function_tagEmEUlmE_EEvRNS_9schedulerINS_15WorkStealingJobEEEmmRSA_mbEUlvE0_ED0Ev, symObjAddr: 0x3C0E4, symBinAddr: 0x10003EFC4, symSize: 0x4 }
  - { offset: 0x2613DB, size: 0x8, addend: 0x0, symName: __ZN6parlay7JobImplIZNS_19fork_join_scheduler7parfor_IZNS_8sequenceIlNS_9allocatorIlEELb0EEC1IZ7set_MISIldEvRNS3_IP4nodeIT_T0_ENS4_ISD_EEXsr3std7is_sameISD_cEE5valueEEEbEUllE2_EEmOSA_NS6_18_from_function_tagEmEUlmE_EEvRNS_9schedulerINS_15WorkStealingJobEEEmmRSA_mbEUlvE0_E7executeEv, symObjAddr: 0x3C0E8, symBinAddr: 0x10003EFC8, symSize: 0x138 }
  - { offset: 0x2616E7, size: 0x8, addend: 0x0, symName: __ZN6parlay7JobImplIZNS_19fork_join_scheduler7parfor_IZNS_8sequenceIlNS_9allocatorIlEELb0EEC1IZ7set_MISIldEvRNS3_IP4nodeIT_T0_ENS4_ISD_EEXsr3std7is_sameISD_cEE5valueEEEbEUllE1_EEmOSA_NS6_18_from_function_tagEmEUlmE_EEvRNS_9schedulerINS_15WorkStealingJobEEEmmRSA_mbEUlvE0_ED1Ev, symObjAddr: 0x3C890, symBinAddr: 0x10003F770, symSize: 0x4 }
  - { offset: 0x261712, size: 0x8, addend: 0x0, symName: __ZN6parlay7JobImplIZNS_19fork_join_scheduler7parfor_IZNS_8sequenceIlNS_9allocatorIlEELb0EEC1IZ7set_MISIldEvRNS3_IP4nodeIT_T0_ENS4_ISD_EEXsr3std7is_sameISD_cEE5valueEEEbEUllE1_EEmOSA_NS6_18_from_function_tagEmEUlmE_EEvRNS_9schedulerINS_15WorkStealingJobEEEmmRSA_mbEUlvE0_ED0Ev, symObjAddr: 0x3C894, symBinAddr: 0x10003F774, symSize: 0x4 }
  - { offset: 0x26173D, size: 0x8, addend: 0x0, symName: __ZN6parlay7JobImplIZNS_19fork_join_scheduler7parfor_IZNS_8sequenceIlNS_9allocatorIlEELb0EEC1IZ7set_MISIldEvRNS3_IP4nodeIT_T0_ENS4_ISD_EEXsr3std7is_sameISD_cEE5valueEEEbEUllE1_EEmOSA_NS6_18_from_function_tagEmEUlmE_EEvRNS_9schedulerINS_15WorkStealingJobEEEmmRSA_mbEUlvE0_E7executeEv, symObjAddr: 0x3C898, symBinAddr: 0x10003F778, symSize: 0xEC }
  - { offset: 0x261B30, size: 0x8, addend: 0x0, symName: __ZN6parlay7JobImplIZNS_19fork_join_scheduler7parfor_IZ7set_MISIldEvRNS_8sequenceIP4nodeIT_T0_ENS_9allocatorIS9_EEXsr3std7is_sameIS9_cEE5valueEEEbEUllE0_EEvRNS_9schedulerINS_15WorkStealingJobEEEmmRS6_mbEUlvE0_ED1Ev, symObjAddr: 0x3D050, symBinAddr: 0x10003FF30, symSize: 0x4 }
  - { offset: 0x261B5B, size: 0x8, addend: 0x0, symName: __ZN6parlay7JobImplIZNS_19fork_join_scheduler7parfor_IZ7set_MISIldEvRNS_8sequenceIP4nodeIT_T0_ENS_9allocatorIS9_EEXsr3std7is_sameIS9_cEE5valueEEEbEUllE0_EEvRNS_9schedulerINS_15WorkStealingJobEEEmmRS6_mbEUlvE0_ED0Ev, symObjAddr: 0x3D054, symBinAddr: 0x10003FF34, symSize: 0x4 }
  - { offset: 0x261B86, size: 0x8, addend: 0x0, symName: __ZN6parlay7JobImplIZNS_19fork_join_scheduler7parfor_IZ7set_MISIldEvRNS_8sequenceIP4nodeIT_T0_ENS_9allocatorIS9_EEXsr3std7is_sameIS9_cEE5valueEEEbEUllE0_EEvRNS_9schedulerINS_15WorkStealingJobEEEmmRS6_mbEUlvE0_E7executeEv, symObjAddr: 0x3D058, symBinAddr: 0x10003FF38, symSize: 0x24 }
  - { offset: 0x261DF8, size: 0x8, addend: 0x0, symName: __ZN6parlay7JobImplIZNS_19fork_join_scheduler7parfor_IZ12colour_nodesIldEvNS_8sequenceIP4nodeIT_T0_ENS_9allocatorIS9_EEXsr3std7is_sameIS9_cEE5valueEEEEUllE_EEvRNS_9schedulerINS_15WorkStealingJobEEEmmRS6_mbEUlvE0_ED1Ev, symObjAddr: 0x3D834, symBinAddr: 0x100040714, symSize: 0x4 }
  - { offset: 0x261E23, size: 0x8, addend: 0x0, symName: __ZN6parlay7JobImplIZNS_19fork_join_scheduler7parfor_IZ12colour_nodesIldEvNS_8sequenceIP4nodeIT_T0_ENS_9allocatorIS9_EEXsr3std7is_sameIS9_cEE5valueEEEEUllE_EEvRNS_9schedulerINS_15WorkStealingJobEEEmmRS6_mbEUlvE0_ED0Ev, symObjAddr: 0x3D838, symBinAddr: 0x100040718, symSize: 0x4 }
  - { offset: 0x261E4E, size: 0x8, addend: 0x0, symName: __ZN6parlay7JobImplIZNS_19fork_join_scheduler7parfor_IZ12colour_nodesIldEvNS_8sequenceIP4nodeIT_T0_ENS_9allocatorIS9_EEXsr3std7is_sameIS9_cEE5valueEEEEUllE_EEvRNS_9schedulerINS_15WorkStealingJobEEEmmRS6_mbEUlvE0_E7executeEv, symObjAddr: 0x3D83C, symBinAddr: 0x10004071C, symSize: 0xD8 }
  - { offset: 0x262120, size: 0x8, addend: 0x0, symName: __ZN6parlay7JobImplIZNS_19fork_join_scheduler7parfor_IZNS_8sequenceIP7clusterIldENS_9allocatorIS6_EELb0EEC1IZ7set_MISIldEvRNS3_IP4nodeIT_T0_ENS7_ISG_EEXsr3std7is_sameISG_cEE5valueEEEbEUllE_EEmOSD_NS9_18_from_function_tagEmEUlmE_EEvRNS_9schedulerINS_15WorkStealingJobEEEmmRSD_mbEUlvE0_ED1Ev, symObjAddr: 0x3DF74, symBinAddr: 0x100040E54, symSize: 0x4 }
  - { offset: 0x26214B, size: 0x8, addend: 0x0, symName: __ZN6parlay7JobImplIZNS_19fork_join_scheduler7parfor_IZNS_8sequenceIP7clusterIldENS_9allocatorIS6_EELb0EEC1IZ7set_MISIldEvRNS3_IP4nodeIT_T0_ENS7_ISG_EEXsr3std7is_sameISG_cEE5valueEEEbEUllE_EEmOSD_NS9_18_from_function_tagEmEUlmE_EEvRNS_9schedulerINS_15WorkStealingJobEEEmmRSD_mbEUlvE0_ED0Ev, symObjAddr: 0x3DF78, symBinAddr: 0x100040E58, symSize: 0x4 }
  - { offset: 0x262176, size: 0x8, addend: 0x0, symName: __ZN6parlay7JobImplIZNS_19fork_join_scheduler7parfor_IZNS_8sequenceIP7clusterIldENS_9allocatorIS6_EELb0EEC1IZ7set_MISIldEvRNS3_IP4nodeIT_T0_ENS7_ISG_EEXsr3std7is_sameISG_cEE5valueEEEbEUllE_EEmOSD_NS9_18_from_function_tagEmEUlmE_EEvRNS_9schedulerINS_15WorkStealingJobEEEmmRSD_mbEUlvE0_E7executeEv, symObjAddr: 0x3DF7C, symBinAddr: 0x100040E5C, symSize: 0xE4 }
  - { offset: 0x262350, size: 0x8, addend: 0x0, symName: '__ZN6parlay7JobImplIZNS_19fork_join_scheduler7parfor_IZNS_8internal10sliced_forIZNS3_10filter_mapINS_5sliceIPP4nodeIldESA_EEZ15batchInsertEdgeIldZ4mainE3$_0EvRKNS_8sequenceINSt3__14pairIT_SH_EENS_9allocatorISI_EEXsr3std7is_sameISI_cEE5valueEEERKNSE_INSF_5tupleIJSH_SH_T0_EEENSJ_ISQ_EEXsr3std7is_sameISQ_cEE5valueEEERNSE_I7clusterISH_SP_ENSJ_ISW_EEXsr3std7is_sameISW_cEE5valueEEESP_T1_EUlSH_E4_RZNS3_6filterISB_S11_EENSE_INSH_10value_typeENSJ_IS13_EEXsr3std7is_sameIS13_cEE5valueEEERKSH_OSP_EUlOSH_E_EEDaS17_S18_OS10_EUlmmmE0_EEvmmS17_jEUlmE_EEvRNS_9schedulerINS_15WorkStealingJobEEEmmRSH_mbEUlvE0_ED1Ev', symObjAddr: 0x3E060, symBinAddr: 0x100040F40, symSize: 0x4 }
  - { offset: 0x26237B, size: 0x8, addend: 0x0, symName: '__ZN6parlay7JobImplIZNS_19fork_join_scheduler7parfor_IZNS_8internal10sliced_forIZNS3_10filter_mapINS_5sliceIPP4nodeIldESA_EEZ15batchInsertEdgeIldZ4mainE3$_0EvRKNS_8sequenceINSt3__14pairIT_SH_EENS_9allocatorISI_EEXsr3std7is_sameISI_cEE5valueEEERKNSE_INSF_5tupleIJSH_SH_T0_EEENSJ_ISQ_EEXsr3std7is_sameISQ_cEE5valueEEERNSE_I7clusterISH_SP_ENSJ_ISW_EEXsr3std7is_sameISW_cEE5valueEEESP_T1_EUlSH_E4_RZNS3_6filterISB_S11_EENSE_INSH_10value_typeENSJ_IS13_EEXsr3std7is_sameIS13_cEE5valueEEERKSH_OSP_EUlOSH_E_EEDaS17_S18_OS10_EUlmmmE0_EEvmmS17_jEUlmE_EEvRNS_9schedulerINS_15WorkStealingJobEEEmmRSH_mbEUlvE0_ED0Ev', symObjAddr: 0x3E064, symBinAddr: 0x100040F44, symSize: 0x4 }
  - { offset: 0x2623A6, size: 0x8, addend: 0x0, symName: '__ZN6parlay7JobImplIZNS_19fork_join_scheduler7parfor_IZNS_8internal10sliced_forIZNS3_10filter_mapINS_5sliceIPP4nodeIldESA_EEZ15batchInsertEdgeIldZ4mainE3$_0EvRKNS_8sequenceINSt3__14pairIT_SH_EENS_9allocatorISI_EEXsr3std7is_sameISI_cEE5valueEEERKNSE_INSF_5tupleIJSH_SH_T0_EEENSJ_ISQ_EEXsr3std7is_sameISQ_cEE5valueEEERNSE_I7clusterISH_SP_ENSJ_ISW_EEXsr3std7is_sameISW_cEE5valueEEESP_T1_EUlSH_E4_RZNS3_6filterISB_S11_EENSE_INSH_10value_typeENSJ_IS13_EEXsr3std7is_sameIS13_cEE5valueEEERKSH_OSP_EUlOSH_E_EEDaS17_S18_OS10_EUlmmmE0_EEvmmS17_jEUlmE_EEvRNS_9schedulerINS_15WorkStealingJobEEEmmRSH_mbEUlvE0_E7executeEv', symObjAddr: 0x3E068, symBinAddr: 0x100040F48, symSize: 0x24 }
  - { offset: 0x2623F9, size: 0x8, addend: 0x0, symName: '__ZN6parlay7JobImplIZNS_19fork_join_scheduler7parfor_IZNS_8internal10sliced_forIZNS3_10filter_mapINS_5sliceIPP4nodeIldESA_EEZ15batchInsertEdgeIldZ4mainE3$_0EvRKNS_8sequenceINSt3__14pairIT_SH_EENS_9allocatorISI_EEXsr3std7is_sameISI_cEE5valueEEERKNSE_INSF_5tupleIJSH_SH_T0_EEENSJ_ISQ_EEXsr3std7is_sameISQ_cEE5valueEEERNSE_I7clusterISH_SP_ENSJ_ISW_EEXsr3std7is_sameISW_cEE5valueEEESP_T1_EUlSH_E4_RZNS3_6filterISB_S11_EENSE_INSH_10value_typeENSJ_IS13_EEXsr3std7is_sameIS13_cEE5valueEEERKSH_OSP_EUlOSH_E_EEDaS17_S18_OS10_EUlmmmE_EEvmmS17_jEUlmE_EEvRNS_9schedulerINS_15WorkStealingJobEEEmmRSH_mbEUlvE0_ED1Ev', symObjAddr: 0x3E08C, symBinAddr: 0x100040F6C, symSize: 0x4 }
  - { offset: 0x262424, size: 0x8, addend: 0x0, symName: '__ZN6parlay7JobImplIZNS_19fork_join_scheduler7parfor_IZNS_8internal10sliced_forIZNS3_10filter_mapINS_5sliceIPP4nodeIldESA_EEZ15batchInsertEdgeIldZ4mainE3$_0EvRKNS_8sequenceINSt3__14pairIT_SH_EENS_9allocatorISI_EEXsr3std7is_sameISI_cEE5valueEEERKNSE_INSF_5tupleIJSH_SH_T0_EEENSJ_ISQ_EEXsr3std7is_sameISQ_cEE5valueEEERNSE_I7clusterISH_SP_ENSJ_ISW_EEXsr3std7is_sameISW_cEE5valueEEESP_T1_EUlSH_E4_RZNS3_6filterISB_S11_EENSE_INSH_10value_typeENSJ_IS13_EEXsr3std7is_sameIS13_cEE5valueEEERKSH_OSP_EUlOSH_E_EEDaS17_S18_OS10_EUlmmmE_EEvmmS17_jEUlmE_EEvRNS_9schedulerINS_15WorkStealingJobEEEmmRSH_mbEUlvE0_ED0Ev', symObjAddr: 0x3E090, symBinAddr: 0x100040F70, symSize: 0x4 }
  - { offset: 0x26244F, size: 0x8, addend: 0x0, symName: '__ZN6parlay7JobImplIZNS_19fork_join_scheduler7parfor_IZNS_8internal10sliced_forIZNS3_10filter_mapINS_5sliceIPP4nodeIldESA_EEZ15batchInsertEdgeIldZ4mainE3$_0EvRKNS_8sequenceINSt3__14pairIT_SH_EENS_9allocatorISI_EEXsr3std7is_sameISI_cEE5valueEEERKNSE_INSF_5tupleIJSH_SH_T0_EEENSJ_ISQ_EEXsr3std7is_sameISQ_cEE5valueEEERNSE_I7clusterISH_SP_ENSJ_ISW_EEXsr3std7is_sameISW_cEE5valueEEESP_T1_EUlSH_E4_RZNS3_6filterISB_S11_EENSE_INSH_10value_typeENSJ_IS13_EEXsr3std7is_sameIS13_cEE5valueEEERKSH_OSP_EUlOSH_E_EEDaS17_S18_OS10_EUlmmmE_EEvmmS17_jEUlmE_EEvRNS_9schedulerINS_15WorkStealingJobEEEmmRSH_mbEUlvE0_E7executeEv', symObjAddr: 0x3E094, symBinAddr: 0x100040F74, symSize: 0x24 }
  - { offset: 0x2624A2, size: 0x8, addend: 0x0, symName: '__ZN6parlay7JobImplIZNS_19fork_join_scheduler7parfor_IZNS_8internal10sliced_forIZNS3_10filter_mapINS_5sliceIPP4nodeIldESA_EEZ15batchInsertEdgeIldZ4mainE3$_0EvRKNS_8sequenceINSt3__14pairIT_SH_EENS_9allocatorISI_EEXsr3std7is_sameISI_cEE5valueEEERKNSE_INSF_5tupleIJSH_SH_T0_EEENSJ_ISQ_EEXsr3std7is_sameISQ_cEE5valueEEERNSE_I7clusterISH_SP_ENSJ_ISW_EEXsr3std7is_sameISW_cEE5valueEEESP_T1_EUlSH_E3_RZNS3_6filterISB_S11_EENSE_INSH_10value_typeENSJ_IS13_EEXsr3std7is_sameIS13_cEE5valueEEERKSH_OSP_EUlOSH_E_EEDaS17_S18_OS10_EUlmmmE0_EEvmmS17_jEUlmE_EEvRNS_9schedulerINS_15WorkStealingJobEEEmmRSH_mbEUlvE0_ED1Ev', symObjAddr: 0x3E0B8, symBinAddr: 0x100040F98, symSize: 0x4 }
  - { offset: 0x2624CD, size: 0x8, addend: 0x0, symName: '__ZN6parlay7JobImplIZNS_19fork_join_scheduler7parfor_IZNS_8internal10sliced_forIZNS3_10filter_mapINS_5sliceIPP4nodeIldESA_EEZ15batchInsertEdgeIldZ4mainE3$_0EvRKNS_8sequenceINSt3__14pairIT_SH_EENS_9allocatorISI_EEXsr3std7is_sameISI_cEE5valueEEERKNSE_INSF_5tupleIJSH_SH_T0_EEENSJ_ISQ_EEXsr3std7is_sameISQ_cEE5valueEEERNSE_I7clusterISH_SP_ENSJ_ISW_EEXsr3std7is_sameISW_cEE5valueEEESP_T1_EUlSH_E3_RZNS3_6filterISB_S11_EENSE_INSH_10value_typeENSJ_IS13_EEXsr3std7is_sameIS13_cEE5valueEEERKSH_OSP_EUlOSH_E_EEDaS17_S18_OS10_EUlmmmE0_EEvmmS17_jEUlmE_EEvRNS_9schedulerINS_15WorkStealingJobEEEmmRSH_mbEUlvE0_ED0Ev', symObjAddr: 0x3E0BC, symBinAddr: 0x100040F9C, symSize: 0x4 }
  - { offset: 0x2624F8, size: 0x8, addend: 0x0, symName: '__ZN6parlay7JobImplIZNS_19fork_join_scheduler7parfor_IZNS_8internal10sliced_forIZNS3_10filter_mapINS_5sliceIPP4nodeIldESA_EEZ15batchInsertEdgeIldZ4mainE3$_0EvRKNS_8sequenceINSt3__14pairIT_SH_EENS_9allocatorISI_EEXsr3std7is_sameISI_cEE5valueEEERKNSE_INSF_5tupleIJSH_SH_T0_EEENSJ_ISQ_EEXsr3std7is_sameISQ_cEE5valueEEERNSE_I7clusterISH_SP_ENSJ_ISW_EEXsr3std7is_sameISW_cEE5valueEEESP_T1_EUlSH_E3_RZNS3_6filterISB_S11_EENSE_INSH_10value_typeENSJ_IS13_EEXsr3std7is_sameIS13_cEE5valueEEERKSH_OSP_EUlOSH_E_EEDaS17_S18_OS10_EUlmmmE0_EEvmmS17_jEUlmE_EEvRNS_9schedulerINS_15WorkStealingJobEEEmmRSH_mbEUlvE0_E7executeEv', symObjAddr: 0x3E0C0, symBinAddr: 0x100040FA0, symSize: 0x24 }
  - { offset: 0x26254B, size: 0x8, addend: 0x0, symName: '__ZN6parlay7JobImplIZNS_19fork_join_scheduler7parfor_IZNS_8internal10sliced_forIZNS3_10filter_mapINS_5sliceIPP4nodeIldESA_EEZ15batchInsertEdgeIldZ4mainE3$_0EvRKNS_8sequenceINSt3__14pairIT_SH_EENS_9allocatorISI_EEXsr3std7is_sameISI_cEE5valueEEERKNSE_INSF_5tupleIJSH_SH_T0_EEENSJ_ISQ_EEXsr3std7is_sameISQ_cEE5valueEEERNSE_I7clusterISH_SP_ENSJ_ISW_EEXsr3std7is_sameISW_cEE5valueEEESP_T1_EUlSH_E3_RZNS3_6filterISB_S11_EENSE_INSH_10value_typeENSJ_IS13_EEXsr3std7is_sameIS13_cEE5valueEEERKSH_OSP_EUlOSH_E_EEDaS17_S18_OS10_EUlmmmE_EEvmmS17_jEUlmE_EEvRNS_9schedulerINS_15WorkStealingJobEEEmmRSH_mbEUlvE0_ED1Ev', symObjAddr: 0x3E0E4, symBinAddr: 0x100040FC4, symSize: 0x4 }
  - { offset: 0x262576, size: 0x8, addend: 0x0, symName: '__ZN6parlay7JobImplIZNS_19fork_join_scheduler7parfor_IZNS_8internal10sliced_forIZNS3_10filter_mapINS_5sliceIPP4nodeIldESA_EEZ15batchInsertEdgeIldZ4mainE3$_0EvRKNS_8sequenceINSt3__14pairIT_SH_EENS_9allocatorISI_EEXsr3std7is_sameISI_cEE5valueEEERKNSE_INSF_5tupleIJSH_SH_T0_EEENSJ_ISQ_EEXsr3std7is_sameISQ_cEE5valueEEERNSE_I7clusterISH_SP_ENSJ_ISW_EEXsr3std7is_sameISW_cEE5valueEEESP_T1_EUlSH_E3_RZNS3_6filterISB_S11_EENSE_INSH_10value_typeENSJ_IS13_EEXsr3std7is_sameIS13_cEE5valueEEERKSH_OSP_EUlOSH_E_EEDaS17_S18_OS10_EUlmmmE_EEvmmS17_jEUlmE_EEvRNS_9schedulerINS_15WorkStealingJobEEEmmRSH_mbEUlvE0_ED0Ev', symObjAddr: 0x3E0E8, symBinAddr: 0x100040FC8, symSize: 0x4 }
  - { offset: 0x2625A1, size: 0x8, addend: 0x0, symName: '__ZN6parlay7JobImplIZNS_19fork_join_scheduler7parfor_IZNS_8internal10sliced_forIZNS3_10filter_mapINS_5sliceIPP4nodeIldESA_EEZ15batchInsertEdgeIldZ4mainE3$_0EvRKNS_8sequenceINSt3__14pairIT_SH_EENS_9allocatorISI_EEXsr3std7is_sameISI_cEE5valueEEERKNSE_INSF_5tupleIJSH_SH_T0_EEENSJ_ISQ_EEXsr3std7is_sameISQ_cEE5valueEEERNSE_I7clusterISH_SP_ENSJ_ISW_EEXsr3std7is_sameISW_cEE5valueEEESP_T1_EUlSH_E3_RZNS3_6filterISB_S11_EENSE_INSH_10value_typeENSJ_IS13_EEXsr3std7is_sameIS13_cEE5valueEEERKSH_OSP_EUlOSH_E_EEDaS17_S18_OS10_EUlmmmE_EEvmmS17_jEUlmE_EEvRNS_9schedulerINS_15WorkStealingJobEEEmmRSH_mbEUlvE0_E7executeEv', symObjAddr: 0x3E0EC, symBinAddr: 0x100040FCC, symSize: 0x24 }
  - { offset: 0x262615, size: 0x8, addend: 0x0, symName: __Z18is_update_eligibleIldEbP4nodeIT_T0_E, symObjAddr: 0x40D04, symBinAddr: 0x100043BE4, symSize: 0x130 }
  - { offset: 0x262631, size: 0x8, addend: 0x0, symName: __Z18is_update_eligibleIldEbP4nodeIT_T0_E, symObjAddr: 0x40D04, symBinAddr: 0x100043BE4, symSize: 0x130 }
  - { offset: 0x262657, size: 0x8, addend: 0x0, symName: __Z18is_update_eligibleIldEbP4nodeIT_T0_E, symObjAddr: 0x40D04, symBinAddr: 0x100043BE4, symSize: 0x130 }
  - { offset: 0x26266D, size: 0x8, addend: 0x0, symName: __Z18is_update_eligibleIldEbP4nodeIT_T0_E, symObjAddr: 0x40D04, symBinAddr: 0x100043BE4, symSize: 0x130 }
  - { offset: 0x2628E4, size: 0x8, addend: 0x0, symName: __ZN6parlay7JobImplIZNS_19fork_join_scheduler7parfor_IZ28create_decompressed_affectedIldEvRNS_8sequenceIP4nodeIT_T0_ENS_9allocatorIS9_EEXsr3std7is_sameIS9_cEE5valueEEEEUllE4_EEvRNS_9schedulerINS_15WorkStealingJobEEEmmRS6_mbEUlvE0_ED1Ev, symObjAddr: 0x3F378, symBinAddr: 0x100042258, symSize: 0x4 }
  - { offset: 0x26290F, size: 0x8, addend: 0x0, symName: __ZN6parlay7JobImplIZNS_19fork_join_scheduler7parfor_IZ28create_decompressed_affectedIldEvRNS_8sequenceIP4nodeIT_T0_ENS_9allocatorIS9_EEXsr3std7is_sameIS9_cEE5valueEEEEUllE4_EEvRNS_9schedulerINS_15WorkStealingJobEEEmmRS6_mbEUlvE0_ED0Ev, symObjAddr: 0x3F37C, symBinAddr: 0x10004225C, symSize: 0x4 }
  - { offset: 0x26293A, size: 0x8, addend: 0x0, symName: __ZN6parlay7JobImplIZNS_19fork_join_scheduler7parfor_IZ28create_decompressed_affectedIldEvRNS_8sequenceIP4nodeIT_T0_ENS_9allocatorIS9_EEXsr3std7is_sameIS9_cEE5valueEEEEUllE4_EEvRNS_9schedulerINS_15WorkStealingJobEEEmmRS6_mbEUlvE0_E7executeEv, symObjAddr: 0x3F380, symBinAddr: 0x100042260, symSize: 0xD8 }
  - { offset: 0x262C0C, size: 0x8, addend: 0x0, symName: __ZN6parlay7JobImplIZNS_19fork_join_scheduler7parfor_IZ28create_decompressed_affectedIldEvRNS_8sequenceIP4nodeIT_T0_ENS_9allocatorIS9_EEXsr3std7is_sameIS9_cEE5valueEEEEUllE3_EEvRNS_9schedulerINS_15WorkStealingJobEEEmmRS6_mbEUlvE0_ED1Ev, symObjAddr: 0x3FA80, symBinAddr: 0x100042960, symSize: 0x4 }
  - { offset: 0x262C37, size: 0x8, addend: 0x0, symName: __ZN6parlay7JobImplIZNS_19fork_join_scheduler7parfor_IZ28create_decompressed_affectedIldEvRNS_8sequenceIP4nodeIT_T0_ENS_9allocatorIS9_EEXsr3std7is_sameIS9_cEE5valueEEEEUllE3_EEvRNS_9schedulerINS_15WorkStealingJobEEEmmRS6_mbEUlvE0_ED0Ev, symObjAddr: 0x3FA84, symBinAddr: 0x100042964, symSize: 0x4 }
  - { offset: 0x262C62, size: 0x8, addend: 0x0, symName: __ZN6parlay7JobImplIZNS_19fork_join_scheduler7parfor_IZ28create_decompressed_affectedIldEvRNS_8sequenceIP4nodeIT_T0_ENS_9allocatorIS9_EEXsr3std7is_sameIS9_cEE5valueEEEEUllE3_EEvRNS_9schedulerINS_15WorkStealingJobEEEmmRS6_mbEUlvE0_E7executeEv, symObjAddr: 0x3FA88, symBinAddr: 0x100042968, symSize: 0xD8 }
  - { offset: 0x263052, size: 0x8, addend: 0x0, symName: __ZN6parlay7JobImplIZNS_19fork_join_scheduler7parfor_IZ28create_decompressed_affectedIldEvRNS_8sequenceIP4nodeIT_T0_ENS_9allocatorIS9_EEXsr3std7is_sameIS9_cEE5valueEEEEUllE2_EEvRNS_9schedulerINS_15WorkStealingJobEEEmmRS6_mbEUlvE0_ED1Ev, symObjAddr: 0x405D0, symBinAddr: 0x1000434B0, symSize: 0x4 }
  - { offset: 0x26307D, size: 0x8, addend: 0x0, symName: __ZN6parlay7JobImplIZNS_19fork_join_scheduler7parfor_IZ28create_decompressed_affectedIldEvRNS_8sequenceIP4nodeIT_T0_ENS_9allocatorIS9_EEXsr3std7is_sameIS9_cEE5valueEEEEUllE2_EEvRNS_9schedulerINS_15WorkStealingJobEEEmmRS6_mbEUlvE0_ED0Ev, symObjAddr: 0x405D4, symBinAddr: 0x1000434B4, symSize: 0x4 }
  - { offset: 0x2630A8, size: 0x8, addend: 0x0, symName: __ZN6parlay7JobImplIZNS_19fork_join_scheduler7parfor_IZ28create_decompressed_affectedIldEvRNS_8sequenceIP4nodeIT_T0_ENS_9allocatorIS9_EEXsr3std7is_sameIS9_cEE5valueEEEEUllE2_EEvRNS_9schedulerINS_15WorkStealingJobEEEmmRS6_mbEUlvE0_E7executeEv, symObjAddr: 0x405D8, symBinAddr: 0x1000434B8, symSize: 0x24 }
  - { offset: 0x26331A, size: 0x8, addend: 0x0, symName: __ZN6parlay7JobImplIZNS_19fork_join_scheduler7parfor_IZ28create_decompressed_affectedIldEvRNS_8sequenceIP4nodeIT_T0_ENS_9allocatorIS9_EEXsr3std7is_sameIS9_cEE5valueEEEEUllE1_EEvRNS_9schedulerINS_15WorkStealingJobEEEmmRS6_mbEUlvE0_ED1Ev, symObjAddr: 0x40C24, symBinAddr: 0x100043B04, symSize: 0x4 }
  - { offset: 0x263345, size: 0x8, addend: 0x0, symName: __ZN6parlay7JobImplIZNS_19fork_join_scheduler7parfor_IZ28create_decompressed_affectedIldEvRNS_8sequenceIP4nodeIT_T0_ENS_9allocatorIS9_EEXsr3std7is_sameIS9_cEE5valueEEEEUllE1_EEvRNS_9schedulerINS_15WorkStealingJobEEEmmRS6_mbEUlvE0_ED0Ev, symObjAddr: 0x40C28, symBinAddr: 0x100043B08, symSize: 0x4 }
  - { offset: 0x263370, size: 0x8, addend: 0x0, symName: __ZN6parlay7JobImplIZNS_19fork_join_scheduler7parfor_IZ28create_decompressed_affectedIldEvRNS_8sequenceIP4nodeIT_T0_ENS_9allocatorIS9_EEXsr3std7is_sameIS9_cEE5valueEEEEUllE1_EEvRNS_9schedulerINS_15WorkStealingJobEEEmmRS6_mbEUlvE0_E7executeEv, symObjAddr: 0x40C2C, symBinAddr: 0x100043B0C, symSize: 0xD8 }
  - { offset: 0x263642, size: 0x8, addend: 0x0, symName: __ZN6parlay7JobImplIZNS_19fork_join_scheduler7parfor_IZ28create_decompressed_affectedIldEvRNS_8sequenceIP4nodeIT_T0_ENS_9allocatorIS9_EEXsr3std7is_sameIS9_cEE5valueEEEEUllE0_EEvRNS_9schedulerINS_15WorkStealingJobEEEmmRS6_mbEUlvE0_ED1Ev, symObjAddr: 0x4145C, symBinAddr: 0x10004433C, symSize: 0x4 }
  - { offset: 0x26366D, size: 0x8, addend: 0x0, symName: __ZN6parlay7JobImplIZNS_19fork_join_scheduler7parfor_IZ28create_decompressed_affectedIldEvRNS_8sequenceIP4nodeIT_T0_ENS_9allocatorIS9_EEXsr3std7is_sameIS9_cEE5valueEEEEUllE0_EEvRNS_9schedulerINS_15WorkStealingJobEEEmmRS6_mbEUlvE0_ED0Ev, symObjAddr: 0x41460, symBinAddr: 0x100044340, symSize: 0x4 }
  - { offset: 0x263698, size: 0x8, addend: 0x0, symName: __ZN6parlay7JobImplIZNS_19fork_join_scheduler7parfor_IZ28create_decompressed_affectedIldEvRNS_8sequenceIP4nodeIT_T0_ENS_9allocatorIS9_EEXsr3std7is_sameIS9_cEE5valueEEEEUllE0_EEvRNS_9schedulerINS_15WorkStealingJobEEEmmRS6_mbEUlvE0_E7executeEv, symObjAddr: 0x41464, symBinAddr: 0x100044344, symSize: 0xD8 }
  - { offset: 0x26396A, size: 0x8, addend: 0x0, symName: __ZN6parlay7JobImplIZNS_19fork_join_scheduler7parfor_IZ28create_decompressed_affectedIldEvRNS_8sequenceIP4nodeIT_T0_ENS_9allocatorIS9_EEXsr3std7is_sameIS9_cEE5valueEEEEUllE_EEvRNS_9schedulerINS_15WorkStealingJobEEEmmRS6_mbEUlvE0_ED1Ev, symObjAddr: 0x41B64, symBinAddr: 0x100044A44, symSize: 0x4 }
  - { offset: 0x263995, size: 0x8, addend: 0x0, symName: __ZN6parlay7JobImplIZNS_19fork_join_scheduler7parfor_IZ28create_decompressed_affectedIldEvRNS_8sequenceIP4nodeIT_T0_ENS_9allocatorIS9_EEXsr3std7is_sameIS9_cEE5valueEEEEUllE_EEvRNS_9schedulerINS_15WorkStealingJobEEEmmRS6_mbEUlvE0_ED0Ev, symObjAddr: 0x41B68, symBinAddr: 0x100044A48, symSize: 0x4 }
  - { offset: 0x2639C0, size: 0x8, addend: 0x0, symName: __ZN6parlay7JobImplIZNS_19fork_join_scheduler7parfor_IZ28create_decompressed_affectedIldEvRNS_8sequenceIP4nodeIT_T0_ENS_9allocatorIS9_EEXsr3std7is_sameIS9_cEE5valueEEEEUllE_EEvRNS_9schedulerINS_15WorkStealingJobEEEmmRS6_mbEUlvE0_E7executeEv, symObjAddr: 0x41B6C, symBinAddr: 0x100044A4C, symSize: 0xD8 }
  - { offset: 0x263A73, size: 0x8, addend: 0x0, symName: '__ZN6parlay7JobImplIZNS_19fork_join_scheduler7parfor_IZNS_8internal10sliced_forIZNS3_10filter_mapINS_5sliceIPP4nodeIldESA_EEZ15batchInsertEdgeIldZ4mainE3$_0EvRKNS_8sequenceINSt3__14pairIT_SH_EENS_9allocatorISI_EEXsr3std7is_sameISI_cEE5valueEEERKNSE_INSF_5tupleIJSH_SH_T0_EEENSJ_ISQ_EEXsr3std7is_sameISQ_cEE5valueEEERNSE_I7clusterISH_SP_ENSJ_ISW_EEXsr3std7is_sameISW_cEE5valueEEESP_T1_EUlSH_E2_RZNS3_6filterISB_S11_EENSE_INSH_10value_typeENSJ_IS13_EEXsr3std7is_sameIS13_cEE5valueEEERKSH_OSP_EUlOSH_E_EEDaS17_S18_OS10_EUlmmmE0_EEvmmS17_jEUlmE_EEvRNS_9schedulerINS_15WorkStealingJobEEEmmRSH_mbEUlvE0_ED1Ev', symObjAddr: 0x41C44, symBinAddr: 0x100044B24, symSize: 0x4 }
  - { offset: 0x263A9E, size: 0x8, addend: 0x0, symName: '__ZN6parlay7JobImplIZNS_19fork_join_scheduler7parfor_IZNS_8internal10sliced_forIZNS3_10filter_mapINS_5sliceIPP4nodeIldESA_EEZ15batchInsertEdgeIldZ4mainE3$_0EvRKNS_8sequenceINSt3__14pairIT_SH_EENS_9allocatorISI_EEXsr3std7is_sameISI_cEE5valueEEERKNSE_INSF_5tupleIJSH_SH_T0_EEENSJ_ISQ_EEXsr3std7is_sameISQ_cEE5valueEEERNSE_I7clusterISH_SP_ENSJ_ISW_EEXsr3std7is_sameISW_cEE5valueEEESP_T1_EUlSH_E2_RZNS3_6filterISB_S11_EENSE_INSH_10value_typeENSJ_IS13_EEXsr3std7is_sameIS13_cEE5valueEEERKSH_OSP_EUlOSH_E_EEDaS17_S18_OS10_EUlmmmE0_EEvmmS17_jEUlmE_EEvRNS_9schedulerINS_15WorkStealingJobEEEmmRSH_mbEUlvE0_ED0Ev', symObjAddr: 0x41C48, symBinAddr: 0x100044B28, symSize: 0x4 }
  - { offset: 0x263AC9, size: 0x8, addend: 0x0, symName: '__ZN6parlay7JobImplIZNS_19fork_join_scheduler7parfor_IZNS_8internal10sliced_forIZNS3_10filter_mapINS_5sliceIPP4nodeIldESA_EEZ15batchInsertEdgeIldZ4mainE3$_0EvRKNS_8sequenceINSt3__14pairIT_SH_EENS_9allocatorISI_EEXsr3std7is_sameISI_cEE5valueEEERKNSE_INSF_5tupleIJSH_SH_T0_EEENSJ_ISQ_EEXsr3std7is_sameISQ_cEE5valueEEERNSE_I7clusterISH_SP_ENSJ_ISW_EEXsr3std7is_sameISW_cEE5valueEEESP_T1_EUlSH_E2_RZNS3_6filterISB_S11_EENSE_INSH_10value_typeENSJ_IS13_EEXsr3std7is_sameIS13_cEE5valueEEERKSH_OSP_EUlOSH_E_EEDaS17_S18_OS10_EUlmmmE0_EEvmmS17_jEUlmE_EEvRNS_9schedulerINS_15WorkStealingJobEEEmmRSH_mbEUlvE0_E7executeEv', symObjAddr: 0x41C4C, symBinAddr: 0x100044B2C, symSize: 0x24 }
  - { offset: 0x263B1C, size: 0x8, addend: 0x0, symName: '__ZN6parlay7JobImplIZNS_19fork_join_scheduler7parfor_IZNS_8internal10sliced_forIZNS3_10filter_mapINS_5sliceIPP4nodeIldESA_EEZ15batchInsertEdgeIldZ4mainE3$_0EvRKNS_8sequenceINSt3__14pairIT_SH_EENS_9allocatorISI_EEXsr3std7is_sameISI_cEE5valueEEERKNSE_INSF_5tupleIJSH_SH_T0_EEENSJ_ISQ_EEXsr3std7is_sameISQ_cEE5valueEEERNSE_I7clusterISH_SP_ENSJ_ISW_EEXsr3std7is_sameISW_cEE5valueEEESP_T1_EUlSH_E2_RZNS3_6filterISB_S11_EENSE_INSH_10value_typeENSJ_IS13_EEXsr3std7is_sameIS13_cEE5valueEEERKSH_OSP_EUlOSH_E_EEDaS17_S18_OS10_EUlmmmE_EEvmmS17_jEUlmE_EEvRNS_9schedulerINS_15WorkStealingJobEEEmmRSH_mbEUlvE0_ED1Ev', symObjAddr: 0x41C70, symBinAddr: 0x100044B50, symSize: 0x4 }
  - { offset: 0x263B47, size: 0x8, addend: 0x0, symName: '__ZN6parlay7JobImplIZNS_19fork_join_scheduler7parfor_IZNS_8internal10sliced_forIZNS3_10filter_mapINS_5sliceIPP4nodeIldESA_EEZ15batchInsertEdgeIldZ4mainE3$_0EvRKNS_8sequenceINSt3__14pairIT_SH_EENS_9allocatorISI_EEXsr3std7is_sameISI_cEE5valueEEERKNSE_INSF_5tupleIJSH_SH_T0_EEENSJ_ISQ_EEXsr3std7is_sameISQ_cEE5valueEEERNSE_I7clusterISH_SP_ENSJ_ISW_EEXsr3std7is_sameISW_cEE5valueEEESP_T1_EUlSH_E2_RZNS3_6filterISB_S11_EENSE_INSH_10value_typeENSJ_IS13_EEXsr3std7is_sameIS13_cEE5valueEEERKSH_OSP_EUlOSH_E_EEDaS17_S18_OS10_EUlmmmE_EEvmmS17_jEUlmE_EEvRNS_9schedulerINS_15WorkStealingJobEEEmmRSH_mbEUlvE0_ED0Ev', symObjAddr: 0x41C74, symBinAddr: 0x100044B54, symSize: 0x4 }
  - { offset: 0x263B72, size: 0x8, addend: 0x0, symName: '__ZN6parlay7JobImplIZNS_19fork_join_scheduler7parfor_IZNS_8internal10sliced_forIZNS3_10filter_mapINS_5sliceIPP4nodeIldESA_EEZ15batchInsertEdgeIldZ4mainE3$_0EvRKNS_8sequenceINSt3__14pairIT_SH_EENS_9allocatorISI_EEXsr3std7is_sameISI_cEE5valueEEERKNSE_INSF_5tupleIJSH_SH_T0_EEENSJ_ISQ_EEXsr3std7is_sameISQ_cEE5valueEEERNSE_I7clusterISH_SP_ENSJ_ISW_EEXsr3std7is_sameISW_cEE5valueEEESP_T1_EUlSH_E2_RZNS3_6filterISB_S11_EENSE_INSH_10value_typeENSJ_IS13_EEXsr3std7is_sameIS13_cEE5valueEEERKSH_OSP_EUlOSH_E_EEDaS17_S18_OS10_EUlmmmE_EEvmmS17_jEUlmE_EEvRNS_9schedulerINS_15WorkStealingJobEEEmmRSH_mbEUlvE0_E7executeEv', symObjAddr: 0x41C78, symBinAddr: 0x100044B58, symSize: 0x24 }
  - { offset: 0x263BC5, size: 0x8, addend: 0x0, symName: '__ZN6parlay7JobImplIZNS_19fork_join_scheduler7parfor_IZNS_8internal10sliced_forIZNS3_10filter_mapINS_5sliceIP14edge_with_flagINSt3__15tupleIJlldEEEESC_EEZ15batchInsertEdgeIldZ4mainE3$_0EvRKNS_8sequenceINS8_4pairIT_SI_EENS_9allocatorISJ_EEXsr3std7is_sameISJ_cEE5valueEEERKNSG_INS9_IJSI_SI_T0_EEENSK_ISQ_EEXsr3std7is_sameISQ_cEE5valueEEERNSG_I7clusterISI_SP_ENSK_ISW_EEXsr3std7is_sameISW_cEE5valueEEESP_T1_EUlSI_E1_RZNS3_6filterISD_S11_EENSG_INSI_10value_typeENSK_IS13_EEXsr3std7is_sameIS13_cEE5valueEEERKSI_OSP_EUlOSI_E_EEDaS17_S18_OS10_EUlmmmE0_EEvmmS17_jEUlmE_EEvRNS_9schedulerINS_15WorkStealingJobEEEmmRSI_mbEUlvE0_ED1Ev', symObjAddr: 0x41C9C, symBinAddr: 0x100044B7C, symSize: 0x4 }
  - { offset: 0x263BF0, size: 0x8, addend: 0x0, symName: '__ZN6parlay7JobImplIZNS_19fork_join_scheduler7parfor_IZNS_8internal10sliced_forIZNS3_10filter_mapINS_5sliceIP14edge_with_flagINSt3__15tupleIJlldEEEESC_EEZ15batchInsertEdgeIldZ4mainE3$_0EvRKNS_8sequenceINS8_4pairIT_SI_EENS_9allocatorISJ_EEXsr3std7is_sameISJ_cEE5valueEEERKNSG_INS9_IJSI_SI_T0_EEENSK_ISQ_EEXsr3std7is_sameISQ_cEE5valueEEERNSG_I7clusterISI_SP_ENSK_ISW_EEXsr3std7is_sameISW_cEE5valueEEESP_T1_EUlSI_E1_RZNS3_6filterISD_S11_EENSG_INSI_10value_typeENSK_IS13_EEXsr3std7is_sameIS13_cEE5valueEEERKSI_OSP_EUlOSI_E_EEDaS17_S18_OS10_EUlmmmE0_EEvmmS17_jEUlmE_EEvRNS_9schedulerINS_15WorkStealingJobEEEmmRSI_mbEUlvE0_ED0Ev', symObjAddr: 0x41CA0, symBinAddr: 0x100044B80, symSize: 0x4 }
  - { offset: 0x263C1B, size: 0x8, addend: 0x0, symName: '__ZN6parlay7JobImplIZNS_19fork_join_scheduler7parfor_IZNS_8internal10sliced_forIZNS3_10filter_mapINS_5sliceIP14edge_with_flagINSt3__15tupleIJlldEEEESC_EEZ15batchInsertEdgeIldZ4mainE3$_0EvRKNS_8sequenceINS8_4pairIT_SI_EENS_9allocatorISJ_EEXsr3std7is_sameISJ_cEE5valueEEERKNSG_INS9_IJSI_SI_T0_EEENSK_ISQ_EEXsr3std7is_sameISQ_cEE5valueEEERNSG_I7clusterISI_SP_ENSK_ISW_EEXsr3std7is_sameISW_cEE5valueEEESP_T1_EUlSI_E1_RZNS3_6filterISD_S11_EENSG_INSI_10value_typeENSK_IS13_EEXsr3std7is_sameIS13_cEE5valueEEERKSI_OSP_EUlOSI_E_EEDaS17_S18_OS10_EUlmmmE0_EEvmmS17_jEUlmE_EEvRNS_9schedulerINS_15WorkStealingJobEEEmmRSI_mbEUlvE0_E7executeEv', symObjAddr: 0x41CA4, symBinAddr: 0x100044B84, symSize: 0x24 }
  - { offset: 0x263C6E, size: 0x8, addend: 0x0, symName: '__ZN6parlay7JobImplIZNS_19fork_join_scheduler7parfor_IZNS_8internal10sliced_forIZNS3_10filter_mapINS_5sliceIP14edge_with_flagINSt3__15tupleIJlldEEEESC_EEZ15batchInsertEdgeIldZ4mainE3$_0EvRKNS_8sequenceINS8_4pairIT_SI_EENS_9allocatorISJ_EEXsr3std7is_sameISJ_cEE5valueEEERKNSG_INS9_IJSI_SI_T0_EEENSK_ISQ_EEXsr3std7is_sameISQ_cEE5valueEEERNSG_I7clusterISI_SP_ENSK_ISW_EEXsr3std7is_sameISW_cEE5valueEEESP_T1_EUlSI_E1_RZNS3_6filterISD_S11_EENSG_INSI_10value_typeENSK_IS13_EEXsr3std7is_sameIS13_cEE5valueEEERKSI_OSP_EUlOSI_E_EEDaS17_S18_OS10_EUlmmmE_EEvmmS17_jEUlmE_EEvRNS_9schedulerINS_15WorkStealingJobEEEmmRSI_mbEUlvE0_ED1Ev', symObjAddr: 0x41CC8, symBinAddr: 0x100044BA8, symSize: 0x4 }
  - { offset: 0x263C99, size: 0x8, addend: 0x0, symName: '__ZN6parlay7JobImplIZNS_19fork_join_scheduler7parfor_IZNS_8internal10sliced_forIZNS3_10filter_mapINS_5sliceIP14edge_with_flagINSt3__15tupleIJlldEEEESC_EEZ15batchInsertEdgeIldZ4mainE3$_0EvRKNS_8sequenceINS8_4pairIT_SI_EENS_9allocatorISJ_EEXsr3std7is_sameISJ_cEE5valueEEERKNSG_INS9_IJSI_SI_T0_EEENSK_ISQ_EEXsr3std7is_sameISQ_cEE5valueEEERNSG_I7clusterISI_SP_ENSK_ISW_EEXsr3std7is_sameISW_cEE5valueEEESP_T1_EUlSI_E1_RZNS3_6filterISD_S11_EENSG_INSI_10value_typeENSK_IS13_EEXsr3std7is_sameIS13_cEE5valueEEERKSI_OSP_EUlOSI_E_EEDaS17_S18_OS10_EUlmmmE_EEvmmS17_jEUlmE_EEvRNS_9schedulerINS_15WorkStealingJobEEEmmRSI_mbEUlvE0_ED0Ev', symObjAddr: 0x41CCC, symBinAddr: 0x100044BAC, symSize: 0x4 }
  - { offset: 0x263CC4, size: 0x8, addend: 0x0, symName: '__ZN6parlay7JobImplIZNS_19fork_join_scheduler7parfor_IZNS_8internal10sliced_forIZNS3_10filter_mapINS_5sliceIP14edge_with_flagINSt3__15tupleIJlldEEEESC_EEZ15batchInsertEdgeIldZ4mainE3$_0EvRKNS_8sequenceINS8_4pairIT_SI_EENS_9allocatorISJ_EEXsr3std7is_sameISJ_cEE5valueEEERKNSG_INS9_IJSI_SI_T0_EEENSK_ISQ_EEXsr3std7is_sameISQ_cEE5valueEEERNSG_I7clusterISI_SP_ENSK_ISW_EEXsr3std7is_sameISW_cEE5valueEEESP_T1_EUlSI_E1_RZNS3_6filterISD_S11_EENSG_INSI_10value_typeENSK_IS13_EEXsr3std7is_sameIS13_cEE5valueEEERKSI_OSP_EUlOSI_E_EEDaS17_S18_OS10_EUlmmmE_EEvmmS17_jEUlmE_EEvRNS_9schedulerINS_15WorkStealingJobEEEmmRSI_mbEUlvE0_E7executeEv', symObjAddr: 0x41CD0, symBinAddr: 0x100044BB0, symSize: 0x24 }
  - { offset: 0x263D17, size: 0x8, addend: 0x0, symName: '__ZN6parlay7JobImplIZNS_19fork_join_scheduler7parfor_IZ15batchInsertEdgeIldZ4mainE3$_0EvRKNS_8sequenceINSt3__14pairIT_S8_EENS_9allocatorIS9_EEXsr3std7is_sameIS9_cEE5valueEEERKNS5_INS6_5tupleIJS8_S8_T0_EEENSA_ISH_EEXsr3std7is_sameISH_cEE5valueEEERNS5_I7clusterIS8_SG_ENSA_ISN_EEXsr3std7is_sameISN_cEE5valueEEESG_T1_EUllE6_EEvRNS_9schedulerINS_15WorkStealingJobEEEmmRS8_mbEUlvE0_ED1Ev', symObjAddr: 0x41CF4, symBinAddr: 0x100044BD4, symSize: 0x4 }
  - { offset: 0x263D42, size: 0x8, addend: 0x0, symName: '__ZN6parlay7JobImplIZNS_19fork_join_scheduler7parfor_IZ15batchInsertEdgeIldZ4mainE3$_0EvRKNS_8sequenceINSt3__14pairIT_S8_EENS_9allocatorIS9_EEXsr3std7is_sameIS9_cEE5valueEEERKNS5_INS6_5tupleIJS8_S8_T0_EEENSA_ISH_EEXsr3std7is_sameISH_cEE5valueEEERNS5_I7clusterIS8_SG_ENSA_ISN_EEXsr3std7is_sameISN_cEE5valueEEESG_T1_EUllE6_EEvRNS_9schedulerINS_15WorkStealingJobEEEmmRS8_mbEUlvE0_ED0Ev', symObjAddr: 0x41CF8, symBinAddr: 0x100044BD8, symSize: 0x4 }
  - { offset: 0x263D6D, size: 0x8, addend: 0x0, symName: '__ZN6parlay7JobImplIZNS_19fork_join_scheduler7parfor_IZ15batchInsertEdgeIldZ4mainE3$_0EvRKNS_8sequenceINSt3__14pairIT_S8_EENS_9allocatorIS9_EEXsr3std7is_sameIS9_cEE5valueEEERKNS5_INS6_5tupleIJS8_S8_T0_EEENSA_ISH_EEXsr3std7is_sameISH_cEE5valueEEERNS5_I7clusterIS8_SG_ENSA_ISN_EEXsr3std7is_sameISN_cEE5valueEEESG_T1_EUllE6_EEvRNS_9schedulerINS_15WorkStealingJobEEEmmRS8_mbEUlvE0_E7executeEv', symObjAddr: 0x41CFC, symBinAddr: 0x100044BDC, symSize: 0x24 }
  - { offset: 0x263DC0, size: 0x8, addend: 0x0, symName: '__ZN6parlay7JobImplIZNS_19fork_join_scheduler7parfor_IZ15batchInsertEdgeIldZ4mainE3$_0EvRKNS_8sequenceINSt3__14pairIT_S8_EENS_9allocatorIS9_EEXsr3std7is_sameIS9_cEE5valueEEERKNS5_INS6_5tupleIJS8_S8_T0_EEENSA_ISH_EEXsr3std7is_sameISH_cEE5valueEEERNS5_I7clusterIS8_SG_ENSA_ISN_EEXsr3std7is_sameISN_cEE5valueEEESG_T1_EUllE5_EEvRNS_9schedulerINS_15WorkStealingJobEEEmmRS8_mbEUlvE0_ED1Ev', symObjAddr: 0x41D20, symBinAddr: 0x100044C00, symSize: 0x4 }
  - { offset: 0x263DEB, size: 0x8, addend: 0x0, symName: '__ZN6parlay7JobImplIZNS_19fork_join_scheduler7parfor_IZ15batchInsertEdgeIldZ4mainE3$_0EvRKNS_8sequenceINSt3__14pairIT_S8_EENS_9allocatorIS9_EEXsr3std7is_sameIS9_cEE5valueEEERKNS5_INS6_5tupleIJS8_S8_T0_EEENSA_ISH_EEXsr3std7is_sameISH_cEE5valueEEERNS5_I7clusterIS8_SG_ENSA_ISN_EEXsr3std7is_sameISN_cEE5valueEEESG_T1_EUllE5_EEvRNS_9schedulerINS_15WorkStealingJobEEEmmRS8_mbEUlvE0_ED0Ev', symObjAddr: 0x41D24, symBinAddr: 0x100044C04, symSize: 0x4 }
  - { offset: 0x263E16, size: 0x8, addend: 0x0, symName: '__ZN6parlay7JobImplIZNS_19fork_join_scheduler7parfor_IZ15batchInsertEdgeIldZ4mainE3$_0EvRKNS_8sequenceINSt3__14pairIT_S8_EENS_9allocatorIS9_EEXsr3std7is_sameIS9_cEE5valueEEERKNS5_INS6_5tupleIJS8_S8_T0_EEENSA_ISH_EEXsr3std7is_sameISH_cEE5valueEEERNS5_I7clusterIS8_SG_ENSA_ISN_EEXsr3std7is_sameISN_cEE5valueEEESG_T1_EUllE5_EEvRNS_9schedulerINS_15WorkStealingJobEEEmmRS8_mbEUlvE0_E7executeEv', symObjAddr: 0x41D28, symBinAddr: 0x100044C08, symSize: 0x24 }
  - { offset: 0x263E69, size: 0x8, addend: 0x0, symName: '__ZN6parlay7JobImplIZNS_19fork_join_scheduler7parfor_IZNS_8internal10sliced_forIZNS3_10filter_mapINS_5sliceIP14edge_with_flagINSt3__15tupleIJlldEEEESC_EEZ15batchInsertEdgeIldZ4mainE3$_0EvRKNS_8sequenceINS8_4pairIT_SI_EENS_9allocatorISJ_EEXsr3std7is_sameISJ_cEE5valueEEERKNSG_INS9_IJSI_SI_T0_EEENSK_ISQ_EEXsr3std7is_sameISQ_cEE5valueEEERNSG_I7clusterISI_SP_ENSK_ISW_EEXsr3std7is_sameISW_cEE5valueEEESP_T1_EUlSI_E0_RZNS3_6filterISD_S11_EENSG_INSI_10value_typeENSK_IS13_EEXsr3std7is_sameIS13_cEE5valueEEERKSI_OSP_EUlOSI_E_EEDaS17_S18_OS10_EUlmmmE0_EEvmmS17_jEUlmE_EEvRNS_9schedulerINS_15WorkStealingJobEEEmmRSI_mbEUlvE0_ED1Ev', symObjAddr: 0x41D4C, symBinAddr: 0x100044C2C, symSize: 0x4 }
  - { offset: 0x263E94, size: 0x8, addend: 0x0, symName: '__ZN6parlay7JobImplIZNS_19fork_join_scheduler7parfor_IZNS_8internal10sliced_forIZNS3_10filter_mapINS_5sliceIP14edge_with_flagINSt3__15tupleIJlldEEEESC_EEZ15batchInsertEdgeIldZ4mainE3$_0EvRKNS_8sequenceINS8_4pairIT_SI_EENS_9allocatorISJ_EEXsr3std7is_sameISJ_cEE5valueEEERKNSG_INS9_IJSI_SI_T0_EEENSK_ISQ_EEXsr3std7is_sameISQ_cEE5valueEEERNSG_I7clusterISI_SP_ENSK_ISW_EEXsr3std7is_sameISW_cEE5valueEEESP_T1_EUlSI_E0_RZNS3_6filterISD_S11_EENSG_INSI_10value_typeENSK_IS13_EEXsr3std7is_sameIS13_cEE5valueEEERKSI_OSP_EUlOSI_E_EEDaS17_S18_OS10_EUlmmmE0_EEvmmS17_jEUlmE_EEvRNS_9schedulerINS_15WorkStealingJobEEEmmRSI_mbEUlvE0_ED0Ev', symObjAddr: 0x41D50, symBinAddr: 0x100044C30, symSize: 0x4 }
  - { offset: 0x263EBF, size: 0x8, addend: 0x0, symName: '__ZN6parlay7JobImplIZNS_19fork_join_scheduler7parfor_IZNS_8internal10sliced_forIZNS3_10filter_mapINS_5sliceIP14edge_with_flagINSt3__15tupleIJlldEEEESC_EEZ15batchInsertEdgeIldZ4mainE3$_0EvRKNS_8sequenceINS8_4pairIT_SI_EENS_9allocatorISJ_EEXsr3std7is_sameISJ_cEE5valueEEERKNSG_INS9_IJSI_SI_T0_EEENSK_ISQ_EEXsr3std7is_sameISQ_cEE5valueEEERNSG_I7clusterISI_SP_ENSK_ISW_EEXsr3std7is_sameISW_cEE5valueEEESP_T1_EUlSI_E0_RZNS3_6filterISD_S11_EENSG_INSI_10value_typeENSK_IS13_EEXsr3std7is_sameIS13_cEE5valueEEERKSI_OSP_EUlOSI_E_EEDaS17_S18_OS10_EUlmmmE0_EEvmmS17_jEUlmE_EEvRNS_9schedulerINS_15WorkStealingJobEEEmmRSI_mbEUlvE0_E7executeEv', symObjAddr: 0x41D54, symBinAddr: 0x100044C34, symSize: 0x24 }
  - { offset: 0x263F12, size: 0x8, addend: 0x0, symName: '__ZN6parlay7JobImplIZNS_19fork_join_scheduler7parfor_IZNS_8internal10sliced_forIZNS3_10filter_mapINS_5sliceIP14edge_with_flagINSt3__15tupleIJlldEEEESC_EEZ15batchInsertEdgeIldZ4mainE3$_0EvRKNS_8sequenceINS8_4pairIT_SI_EENS_9allocatorISJ_EEXsr3std7is_sameISJ_cEE5valueEEERKNSG_INS9_IJSI_SI_T0_EEENSK_ISQ_EEXsr3std7is_sameISQ_cEE5valueEEERNSG_I7clusterISI_SP_ENSK_ISW_EEXsr3std7is_sameISW_cEE5valueEEESP_T1_EUlSI_E0_RZNS3_6filterISD_S11_EENSG_INSI_10value_typeENSK_IS13_EEXsr3std7is_sameIS13_cEE5valueEEERKSI_OSP_EUlOSI_E_EEDaS17_S18_OS10_EUlmmmE_EEvmmS17_jEUlmE_EEvRNS_9schedulerINS_15WorkStealingJobEEEmmRSI_mbEUlvE0_ED1Ev', symObjAddr: 0x41D78, symBinAddr: 0x100044C58, symSize: 0x4 }
  - { offset: 0x263F3D, size: 0x8, addend: 0x0, symName: '__ZN6parlay7JobImplIZNS_19fork_join_scheduler7parfor_IZNS_8internal10sliced_forIZNS3_10filter_mapINS_5sliceIP14edge_with_flagINSt3__15tupleIJlldEEEESC_EEZ15batchInsertEdgeIldZ4mainE3$_0EvRKNS_8sequenceINS8_4pairIT_SI_EENS_9allocatorISJ_EEXsr3std7is_sameISJ_cEE5valueEEERKNSG_INS9_IJSI_SI_T0_EEENSK_ISQ_EEXsr3std7is_sameISQ_cEE5valueEEERNSG_I7clusterISI_SP_ENSK_ISW_EEXsr3std7is_sameISW_cEE5valueEEESP_T1_EUlSI_E0_RZNS3_6filterISD_S11_EENSG_INSI_10value_typeENSK_IS13_EEXsr3std7is_sameIS13_cEE5valueEEERKSI_OSP_EUlOSI_E_EEDaS17_S18_OS10_EUlmmmE_EEvmmS17_jEUlmE_EEvRNS_9schedulerINS_15WorkStealingJobEEEmmRSI_mbEUlvE0_ED0Ev', symObjAddr: 0x41D7C, symBinAddr: 0x100044C5C, symSize: 0x4 }
  - { offset: 0x263F68, size: 0x8, addend: 0x0, symName: '__ZN6parlay7JobImplIZNS_19fork_join_scheduler7parfor_IZNS_8internal10sliced_forIZNS3_10filter_mapINS_5sliceIP14edge_with_flagINSt3__15tupleIJlldEEEESC_EEZ15batchInsertEdgeIldZ4mainE3$_0EvRKNS_8sequenceINS8_4pairIT_SI_EENS_9allocatorISJ_EEXsr3std7is_sameISJ_cEE5valueEEERKNSG_INS9_IJSI_SI_T0_EEENSK_ISQ_EEXsr3std7is_sameISQ_cEE5valueEEERNSG_I7clusterISI_SP_ENSK_ISW_EEXsr3std7is_sameISW_cEE5valueEEESP_T1_EUlSI_E0_RZNS3_6filterISD_S11_EENSG_INSI_10value_typeENSK_IS13_EEXsr3std7is_sameIS13_cEE5valueEEERKSI_OSP_EUlOSI_E_EEDaS17_S18_OS10_EUlmmmE_EEvmmS17_jEUlmE_EEvRNS_9schedulerINS_15WorkStealingJobEEEmmRSI_mbEUlvE0_E7executeEv', symObjAddr: 0x41D80, symBinAddr: 0x100044C60, symSize: 0x24 }
  - { offset: 0x263FBB, size: 0x8, addend: 0x0, symName: '__ZN6parlay7JobImplIZNS_19fork_join_scheduler7parfor_IZ15batchInsertEdgeIldZ4mainE3$_0EvRKNS_8sequenceINSt3__14pairIT_S8_EENS_9allocatorIS9_EEXsr3std7is_sameIS9_cEE5valueEEERKNS5_INS6_5tupleIJS8_S8_T0_EEENSA_ISH_EEXsr3std7is_sameISH_cEE5valueEEERNS5_I7clusterIS8_SG_ENSA_ISN_EEXsr3std7is_sameISN_cEE5valueEEESG_T1_EUllE4_EEvRNS_9schedulerINS_15WorkStealingJobEEEmmRS8_mbEUlvE0_ED1Ev', symObjAddr: 0x41DA4, symBinAddr: 0x100044C84, symSize: 0x4 }
  - { offset: 0x263FE6, size: 0x8, addend: 0x0, symName: '__ZN6parlay7JobImplIZNS_19fork_join_scheduler7parfor_IZ15batchInsertEdgeIldZ4mainE3$_0EvRKNS_8sequenceINSt3__14pairIT_S8_EENS_9allocatorIS9_EEXsr3std7is_sameIS9_cEE5valueEEERKNS5_INS6_5tupleIJS8_S8_T0_EEENSA_ISH_EEXsr3std7is_sameISH_cEE5valueEEERNS5_I7clusterIS8_SG_ENSA_ISN_EEXsr3std7is_sameISN_cEE5valueEEESG_T1_EUllE4_EEvRNS_9schedulerINS_15WorkStealingJobEEEmmRS8_mbEUlvE0_ED0Ev', symObjAddr: 0x41DA8, symBinAddr: 0x100044C88, symSize: 0x4 }
  - { offset: 0x264011, size: 0x8, addend: 0x0, symName: '__ZN6parlay7JobImplIZNS_19fork_join_scheduler7parfor_IZ15batchInsertEdgeIldZ4mainE3$_0EvRKNS_8sequenceINSt3__14pairIT_S8_EENS_9allocatorIS9_EEXsr3std7is_sameIS9_cEE5valueEEERKNS5_INS6_5tupleIJS8_S8_T0_EEENSA_ISH_EEXsr3std7is_sameISH_cEE5valueEEERNS5_I7clusterIS8_SG_ENSA_ISN_EEXsr3std7is_sameISN_cEE5valueEEESG_T1_EUllE4_EEvRNS_9schedulerINS_15WorkStealingJobEEEmmRS8_mbEUlvE0_E7executeEv', symObjAddr: 0x41DAC, symBinAddr: 0x100044C8C, symSize: 0x24 }
  - { offset: 0x26406B, size: 0x8, addend: 0x0, symName: '__ZN6parlay7JobImplIZNS_19fork_join_scheduler7parfor_IZ15batchInsertEdgeIldZ4mainE3$_0EvRKNS_8sequenceINSt3__14pairIT_S8_EENS_9allocatorIS9_EEXsr3std7is_sameIS9_cEE5valueEEERKNS5_INS6_5tupleIJS8_S8_T0_EEENSA_ISH_EEXsr3std7is_sameISH_cEE5valueEEERNS5_I7clusterIS8_SG_ENSA_ISN_EEXsr3std7is_sameISN_cEE5valueEEESG_T1_EUllE3_EEvRNS_9schedulerINS_15WorkStealingJobEEEmmRS8_mbEUlvE0_ED1Ev', symObjAddr: 0x41E90, symBinAddr: 0x100044D70, symSize: 0x4 }
  - { offset: 0x264096, size: 0x8, addend: 0x0, symName: '__ZN6parlay7JobImplIZNS_19fork_join_scheduler7parfor_IZ15batchInsertEdgeIldZ4mainE3$_0EvRKNS_8sequenceINSt3__14pairIT_S8_EENS_9allocatorIS9_EEXsr3std7is_sameIS9_cEE5valueEEERKNS5_INS6_5tupleIJS8_S8_T0_EEENSA_ISH_EEXsr3std7is_sameISH_cEE5valueEEERNS5_I7clusterIS8_SG_ENSA_ISN_EEXsr3std7is_sameISN_cEE5valueEEESG_T1_EUllE3_EEvRNS_9schedulerINS_15WorkStealingJobEEEmmRS8_mbEUlvE0_ED0Ev', symObjAddr: 0x41E94, symBinAddr: 0x100044D74, symSize: 0x4 }
  - { offset: 0x2640C1, size: 0x8, addend: 0x0, symName: '__ZN6parlay7JobImplIZNS_19fork_join_scheduler7parfor_IZ15batchInsertEdgeIldZ4mainE3$_0EvRKNS_8sequenceINSt3__14pairIT_S8_EENS_9allocatorIS9_EEXsr3std7is_sameIS9_cEE5valueEEERKNS5_INS6_5tupleIJS8_S8_T0_EEENSA_ISH_EEXsr3std7is_sameISH_cEE5valueEEERNS5_I7clusterIS8_SG_ENSA_ISN_EEXsr3std7is_sameISN_cEE5valueEEESG_T1_EUllE3_EEvRNS_9schedulerINS_15WorkStealingJobEEEmmRS8_mbEUlvE0_E7executeEv', symObjAddr: 0x41E98, symBinAddr: 0x100044D78, symSize: 0x24 }
  - { offset: 0x264333, size: 0x8, addend: 0x0, symName: __ZN6parlay7JobImplIZNS_19fork_join_scheduler7parfor_IZNS_17sequence_internal13sequence_baseI14edge_with_flagINSt3__15tupleIJlldEEEENS_9allocatorIS9_EELb0EE12storage_implC1ERKSD_EUlmE_EEvRNS_9schedulerINS_15WorkStealingJobEEEmmRT_mbEUlvE0_ED1Ev, symObjAddr: 0x42504, symBinAddr: 0x1000453E4, symSize: 0x4 }
  - { offset: 0x26435E, size: 0x8, addend: 0x0, symName: __ZN6parlay7JobImplIZNS_19fork_join_scheduler7parfor_IZNS_17sequence_internal13sequence_baseI14edge_with_flagINSt3__15tupleIJlldEEEENS_9allocatorIS9_EELb0EE12storage_implC1ERKSD_EUlmE_EEvRNS_9schedulerINS_15WorkStealingJobEEEmmRT_mbEUlvE0_ED0Ev, symObjAddr: 0x42508, symBinAddr: 0x1000453E8, symSize: 0x4 }
  - { offset: 0x264389, size: 0x8, addend: 0x0, symName: __ZN6parlay7JobImplIZNS_19fork_join_scheduler7parfor_IZNS_17sequence_internal13sequence_baseI14edge_with_flagINSt3__15tupleIJlldEEEENS_9allocatorIS9_EELb0EE12storage_implC1ERKSD_EUlmE_EEvRNS_9schedulerINS_15WorkStealingJobEEEmmRT_mbEUlvE0_E7executeEv, symObjAddr: 0x4250C, symBinAddr: 0x1000453EC, symSize: 0xD8 }
  - { offset: 0x26447A, size: 0x8, addend: 0x0, symName: '__ZN6parlay7JobImplIZNS_19fork_join_scheduler7parfor_IZNS_8sequenceI14edge_with_flagINSt3__15tupleIJlldEEEENS_9allocatorIS8_EELb0EEC1IZ15batchInsertEdgeIldZ4mainE3$_0EvRKNS3_INS5_4pairIT_SG_EENS9_ISH_EEXsr3std7is_sameISH_cEE5valueEEERKNS3_INS6_IJSG_SG_T0_EEENS9_ISN_EEXsr3std7is_sameISN_cEE5valueEEERNS3_I7clusterISG_SM_ENS9_IST_EEXsr3std7is_sameIST_cEE5valueEEESM_T1_EUllE2_EEmOSG_NSB_18_from_function_tagEmEUlmE_EEvRNS_9schedulerINS_15WorkStealingJobEEEmmRSG_mbEUlvE0_ED1Ev', symObjAddr: 0x425E4, symBinAddr: 0x1000454C4, symSize: 0x4 }
  - { offset: 0x2644A5, size: 0x8, addend: 0x0, symName: '__ZN6parlay7JobImplIZNS_19fork_join_scheduler7parfor_IZNS_8sequenceI14edge_with_flagINSt3__15tupleIJlldEEEENS_9allocatorIS8_EELb0EEC1IZ15batchInsertEdgeIldZ4mainE3$_0EvRKNS3_INS5_4pairIT_SG_EENS9_ISH_EEXsr3std7is_sameISH_cEE5valueEEERKNS3_INS6_IJSG_SG_T0_EEENS9_ISN_EEXsr3std7is_sameISN_cEE5valueEEERNS3_I7clusterISG_SM_ENS9_IST_EEXsr3std7is_sameIST_cEE5valueEEESM_T1_EUllE2_EEmOSG_NSB_18_from_function_tagEmEUlmE_EEvRNS_9schedulerINS_15WorkStealingJobEEEmmRSG_mbEUlvE0_ED0Ev', symObjAddr: 0x425E8, symBinAddr: 0x1000454C8, symSize: 0x4 }
  - { offset: 0x2644D0, size: 0x8, addend: 0x0, symName: '__ZN6parlay7JobImplIZNS_19fork_join_scheduler7parfor_IZNS_8sequenceI14edge_with_flagINSt3__15tupleIJlldEEEENS_9allocatorIS8_EELb0EEC1IZ15batchInsertEdgeIldZ4mainE3$_0EvRKNS3_INS5_4pairIT_SG_EENS9_ISH_EEXsr3std7is_sameISH_cEE5valueEEERKNS3_INS6_IJSG_SG_T0_EEENS9_ISN_EEXsr3std7is_sameISN_cEE5valueEEERNS3_I7clusterISG_SM_ENS9_IST_EEXsr3std7is_sameIST_cEE5valueEEESM_T1_EUllE2_EEmOSG_NSB_18_from_function_tagEmEUlmE_EEvRNS_9schedulerINS_15WorkStealingJobEEEmmRSG_mbEUlvE0_E7executeEv', symObjAddr: 0x425EC, symBinAddr: 0x1000454CC, symSize: 0x24 }
  - { offset: 0x264523, size: 0x8, addend: 0x0, symName: '__ZN6parlay7JobImplIZNS_19fork_join_scheduler7parfor_IZ15batchInsertEdgeIldZ4mainE3$_0EvRKNS_8sequenceINSt3__14pairIT_S8_EENS_9allocatorIS9_EEXsr3std7is_sameIS9_cEE5valueEEERKNS5_INS6_5tupleIJS8_S8_T0_EEENSA_ISH_EEXsr3std7is_sameISH_cEE5valueEEERNS5_I7clusterIS8_SG_ENSA_ISN_EEXsr3std7is_sameISN_cEE5valueEEESG_T1_EUllE1_EEvRNS_9schedulerINS_15WorkStealingJobEEEmmRS8_mbEUlvE0_ED1Ev', symObjAddr: 0x42610, symBinAddr: 0x1000454F0, symSize: 0x4 }
  - { offset: 0x26454E, size: 0x8, addend: 0x0, symName: '__ZN6parlay7JobImplIZNS_19fork_join_scheduler7parfor_IZ15batchInsertEdgeIldZ4mainE3$_0EvRKNS_8sequenceINSt3__14pairIT_S8_EENS_9allocatorIS9_EEXsr3std7is_sameIS9_cEE5valueEEERKNS5_INS6_5tupleIJS8_S8_T0_EEENSA_ISH_EEXsr3std7is_sameISH_cEE5valueEEERNS5_I7clusterIS8_SG_ENSA_ISN_EEXsr3std7is_sameISN_cEE5valueEEESG_T1_EUllE1_EEvRNS_9schedulerINS_15WorkStealingJobEEEmmRS8_mbEUlvE0_ED0Ev', symObjAddr: 0x42614, symBinAddr: 0x1000454F4, symSize: 0x4 }
  - { offset: 0x264579, size: 0x8, addend: 0x0, symName: '__ZN6parlay7JobImplIZNS_19fork_join_scheduler7parfor_IZ15batchInsertEdgeIldZ4mainE3$_0EvRKNS_8sequenceINSt3__14pairIT_S8_EENS_9allocatorIS9_EEXsr3std7is_sameIS9_cEE5valueEEERKNS5_INS6_5tupleIJS8_S8_T0_EEENSA_ISH_EEXsr3std7is_sameISH_cEE5valueEEERNS5_I7clusterIS8_SG_ENSA_ISN_EEXsr3std7is_sameISN_cEE5valueEEESG_T1_EUllE1_EEvRNS_9schedulerINS_15WorkStealingJobEEEmmRS8_mbEUlvE0_E7executeEv', symObjAddr: 0x42618, symBinAddr: 0x1000454F8, symSize: 0x24 }
  - { offset: 0x2648BF, size: 0x8, addend: 0x0, symName: __ZN6parlay7JobImplIZNS_19fork_join_scheduler7parfor_IZNS_8internal10sliced_forIZNS3_10filter_mapINS_5sliceIPP4nodeIldESA_EEZ8tiebreakIldENS_8sequenceIPS7_IT_T0_ENS_9allocatorISH_EEXsr3std7is_sameISH_cEE5valueEEERSK_EUlSE_E_RZNS3_6filterISB_SM_EENSD_INSE_10value_typeENSI_ISO_EEXsr3std7is_sameISO_cEE5valueEEERKSE_OSF_EUlOSE_E_EEDaSS_ST_OT1_EUlmmmE0_EEvmmSS_jEUlmE_EEvRNS_9schedulerINS_15WorkStealingJobEEEmmRSE_mbEUlvE0_ED1Ev, symObjAddr: 0x42D68, symBinAddr: 0x100045C48, symSize: 0x4 }
  - { offset: 0x2648EA, size: 0x8, addend: 0x0, symName: __ZN6parlay7JobImplIZNS_19fork_join_scheduler7parfor_IZNS_8internal10sliced_forIZNS3_10filter_mapINS_5sliceIPP4nodeIldESA_EEZ8tiebreakIldENS_8sequenceIPS7_IT_T0_ENS_9allocatorISH_EEXsr3std7is_sameISH_cEE5valueEEERSK_EUlSE_E_RZNS3_6filterISB_SM_EENSD_INSE_10value_typeENSI_ISO_EEXsr3std7is_sameISO_cEE5valueEEERKSE_OSF_EUlOSE_E_EEDaSS_ST_OT1_EUlmmmE0_EEvmmSS_jEUlmE_EEvRNS_9schedulerINS_15WorkStealingJobEEEmmRSE_mbEUlvE0_ED0Ev, symObjAddr: 0x42D6C, symBinAddr: 0x100045C4C, symSize: 0x4 }
  - { offset: 0x264915, size: 0x8, addend: 0x0, symName: __ZN6parlay7JobImplIZNS_19fork_join_scheduler7parfor_IZNS_8internal10sliced_forIZNS3_10filter_mapINS_5sliceIPP4nodeIldESA_EEZ8tiebreakIldENS_8sequenceIPS7_IT_T0_ENS_9allocatorISH_EEXsr3std7is_sameISH_cEE5valueEEERSK_EUlSE_E_RZNS3_6filterISB_SM_EENSD_INSE_10value_typeENSI_ISO_EEXsr3std7is_sameISO_cEE5valueEEERKSE_OSF_EUlOSE_E_EEDaSS_ST_OT1_EUlmmmE0_EEvmmSS_jEUlmE_EEvRNS_9schedulerINS_15WorkStealingJobEEEmmRSE_mbEUlvE0_E7executeEv, symObjAddr: 0x42D70, symBinAddr: 0x100045C50, symSize: 0x24 }
  - { offset: 0x264C5B, size: 0x8, addend: 0x0, symName: __ZN6parlay7JobImplIZNS_19fork_join_scheduler7parfor_IZNS_8internal10sliced_forIZNS3_10filter_mapINS_5sliceIPP4nodeIldESA_EEZ8tiebreakIldENS_8sequenceIPS7_IT_T0_ENS_9allocatorISH_EEXsr3std7is_sameISH_cEE5valueEEERSK_EUlSE_E_RZNS3_6filterISB_SM_EENSD_INSE_10value_typeENSI_ISO_EEXsr3std7is_sameISO_cEE5valueEEERKSE_OSF_EUlOSE_E_EEDaSS_ST_OT1_EUlmmmE_EEvmmSS_jEUlmE_EEvRNS_9schedulerINS_15WorkStealingJobEEEmmRSE_mbEUlvE0_ED1Ev, symObjAddr: 0x436B8, symBinAddr: 0x100046598, symSize: 0x4 }
  - { offset: 0x264C86, size: 0x8, addend: 0x0, symName: __ZN6parlay7JobImplIZNS_19fork_join_scheduler7parfor_IZNS_8internal10sliced_forIZNS3_10filter_mapINS_5sliceIPP4nodeIldESA_EEZ8tiebreakIldENS_8sequenceIPS7_IT_T0_ENS_9allocatorISH_EEXsr3std7is_sameISH_cEE5valueEEERSK_EUlSE_E_RZNS3_6filterISB_SM_EENSD_INSE_10value_typeENSI_ISO_EEXsr3std7is_sameISO_cEE5valueEEERKSE_OSF_EUlOSE_E_EEDaSS_ST_OT1_EUlmmmE_EEvmmSS_jEUlmE_EEvRNS_9schedulerINS_15WorkStealingJobEEEmmRSE_mbEUlvE0_ED0Ev, symObjAddr: 0x436BC, symBinAddr: 0x10004659C, symSize: 0x4 }
  - { offset: 0x264CB1, size: 0x8, addend: 0x0, symName: __ZN6parlay7JobImplIZNS_19fork_join_scheduler7parfor_IZNS_8internal10sliced_forIZNS3_10filter_mapINS_5sliceIPP4nodeIldESA_EEZ8tiebreakIldENS_8sequenceIPS7_IT_T0_ENS_9allocatorISH_EEXsr3std7is_sameISH_cEE5valueEEERSK_EUlSE_E_RZNS3_6filterISB_SM_EENSD_INSE_10value_typeENSI_ISO_EEXsr3std7is_sameISO_cEE5valueEEERKSE_OSF_EUlOSE_E_EEDaSS_ST_OT1_EUlmmmE_EEvmmSS_jEUlmE_EEvRNS_9schedulerINS_15WorkStealingJobEEEmmRSE_mbEUlvE0_E7executeEv, symObjAddr: 0x436C0, symBinAddr: 0x1000465A0, symSize: 0x24 }
  - { offset: 0x264F23, size: 0x8, addend: 0x0, symName: __ZN6parlay7JobImplIZNS_19fork_join_scheduler7parfor_IZ8tiebreakIldENS_8sequenceIP4nodeIT_T0_ENS_9allocatorIS9_EEXsr3std7is_sameIS9_cEE5valueEEERSC_EUllE0_EEvRNS_9schedulerINS_15WorkStealingJobEEEmmRS6_mbEUlvE0_ED1Ev, symObjAddr: 0x43D54, symBinAddr: 0x100046C34, symSize: 0x4 }
  - { offset: 0x264F4E, size: 0x8, addend: 0x0, symName: __ZN6parlay7JobImplIZNS_19fork_join_scheduler7parfor_IZ8tiebreakIldENS_8sequenceIP4nodeIT_T0_ENS_9allocatorIS9_EEXsr3std7is_sameIS9_cEE5valueEEERSC_EUllE0_EEvRNS_9schedulerINS_15WorkStealingJobEEEmmRS6_mbEUlvE0_ED0Ev, symObjAddr: 0x43D58, symBinAddr: 0x100046C38, symSize: 0x4 }
  - { offset: 0x264F79, size: 0x8, addend: 0x0, symName: __ZN6parlay7JobImplIZNS_19fork_join_scheduler7parfor_IZ8tiebreakIldENS_8sequenceIP4nodeIT_T0_ENS_9allocatorIS9_EEXsr3std7is_sameIS9_cEE5valueEEERSC_EUllE0_EEvRNS_9schedulerINS_15WorkStealingJobEEEmmRS6_mbEUlvE0_E7executeEv, symObjAddr: 0x43D5C, symBinAddr: 0x100046C3C, symSize: 0xEC }
  - { offset: 0x265306, size: 0x8, addend: 0x0, symName: __ZN6parlay7JobImplIZNS_19fork_join_scheduler7parfor_IZ8tiebreakIldENS_8sequenceIP4nodeIT_T0_ENS_9allocatorIS9_EEXsr3std7is_sameIS9_cEE5valueEEERSC_EUllE_EEvRNS_9schedulerINS_15WorkStealingJobEEEmmRS6_mbEUlvE0_ED1Ev, symObjAddr: 0x444A4, symBinAddr: 0x100047384, symSize: 0x4 }
  - { offset: 0x265331, size: 0x8, addend: 0x0, symName: __ZN6parlay7JobImplIZNS_19fork_join_scheduler7parfor_IZ8tiebreakIldENS_8sequenceIP4nodeIT_T0_ENS_9allocatorIS9_EEXsr3std7is_sameIS9_cEE5valueEEERSC_EUllE_EEvRNS_9schedulerINS_15WorkStealingJobEEEmmRS6_mbEUlvE0_ED0Ev, symObjAddr: 0x444A8, symBinAddr: 0x100047388, symSize: 0x4 }
  - { offset: 0x26535C, size: 0x8, addend: 0x0, symName: __ZN6parlay7JobImplIZNS_19fork_join_scheduler7parfor_IZ8tiebreakIldENS_8sequenceIP4nodeIT_T0_ENS_9allocatorIS9_EEXsr3std7is_sameIS9_cEE5valueEEERSC_EUllE_EEvRNS_9schedulerINS_15WorkStealingJobEEEmmRS6_mbEUlvE0_E7executeEv, symObjAddr: 0x444AC, symBinAddr: 0x10004738C, symSize: 0xE4 }
  - { offset: 0x26545F, size: 0x8, addend: 0x0, symName: __ZN6parlay8sequenceIP4nodeIldENS_9allocatorIS3_EELb0EEC2EmRKS3_, symObjAddr: 0x46D80, symBinAddr: 0x100049B50, symSize: 0x1D0 }
  - { offset: 0x265C1F, size: 0x8, addend: 0x0, symName: __ZN6parlay7JobImplIZNS_19fork_join_scheduler7parfor_IZNS_8sequenceINS3_IP4nodeIldENS_9allocatorIS6_EELb0EEENS7_IS9_EELb0EEC1IZ8get_3dp1IldENS3_IPS4_IT_T0_ENS7_ISH_EEXsr3std7is_sameISH_cEE5valueEEERSJ_EUllE0_EEmOSE_NSB_18_from_function_tagEmEUlmE_EEvRNS_9schedulerINS_15WorkStealingJobEEEmmRSE_mbEUlvE0_ED1Ev, symObjAddr: 0x44DCC, symBinAddr: 0x100047CAC, symSize: 0x4 }
  - { offset: 0x265C4A, size: 0x8, addend: 0x0, symName: __ZN6parlay7JobImplIZNS_19fork_join_scheduler7parfor_IZNS_8sequenceINS3_IP4nodeIldENS_9allocatorIS6_EELb0EEENS7_IS9_EELb0EEC1IZ8get_3dp1IldENS3_IPS4_IT_T0_ENS7_ISH_EEXsr3std7is_sameISH_cEE5valueEEERSJ_EUllE0_EEmOSE_NSB_18_from_function_tagEmEUlmE_EEvRNS_9schedulerINS_15WorkStealingJobEEEmmRSE_mbEUlvE0_ED0Ev, symObjAddr: 0x44DD0, symBinAddr: 0x100047CB0, symSize: 0x4 }
  - { offset: 0x265C75, size: 0x8, addend: 0x0, symName: __ZN6parlay7JobImplIZNS_19fork_join_scheduler7parfor_IZNS_8sequenceINS3_IP4nodeIldENS_9allocatorIS6_EELb0EEENS7_IS9_EELb0EEC1IZ8get_3dp1IldENS3_IPS4_IT_T0_ENS7_ISH_EEXsr3std7is_sameISH_cEE5valueEEERSJ_EUllE0_EEmOSE_NSB_18_from_function_tagEmEUlmE_EEvRNS_9schedulerINS_15WorkStealingJobEEEmmRSE_mbEUlvE0_E7executeEv, symObjAddr: 0x44DD4, symBinAddr: 0x100047CB4, symSize: 0x24 }
  - { offset: 0x266ABB, size: 0x8, addend: 0x0, symName: __ZN6parlay14ThreadSpecificINS_8internal24intrusive_acquire_retireINS1_12hazptr_stackIPvE4NodeENSt3__114default_deleteIS6_EELm1EE10ThreadDataEE10initializeEv, symObjAddr: 0x461D0, symBinAddr: 0x1000490B0, symSize: 0x25C }
  - { offset: 0x266DC6, size: 0x8, addend: 0x0, symName: __ZN6parlay8internal14pool_allocatorD1Ev, symObjAddr: 0x45560, symBinAddr: 0x100048440, symSize: 0x140 }
  - { offset: 0x268273, size: 0x8, addend: 0x0, symName: __ZN6parlay14ThreadSpecificINS_8internal24intrusive_acquire_retireINS1_12hazptr_stackIPvE4NodeENSt3__114default_deleteIS6_EELm1EE10ThreadDataEE3getEv, symObjAddr: 0x468E8, symBinAddr: 0x1000497C8, symSize: 0x17C }
  - { offset: 0x268501, size: 0x8, addend: 0x0, symName: __ZNK6parlay14ThreadSpecificINS_8internal24intrusive_acquire_retireINS1_12hazptr_stackIPvE4NodeENSt3__114default_deleteIS6_EELm1EE10ThreadDataEE19ensure_chunk_existsEm, symObjAddr: 0x46B74, symBinAddr: 0x100049944, symSize: 0x144 }
  - { offset: 0x268C21, size: 0x8, addend: 0x0, symName: __ZN6parlay8internal24intrusive_acquire_retireINS0_12hazptr_stackIPvE4NodeENSt3__114default_deleteIS5_EELm1EED1Ev, symObjAddr: 0x4642C, symBinAddr: 0x10004930C, symSize: 0x4BC }
  - { offset: 0x269CEA, size: 0x8, addend: 0x0, symName: __ZNSt3__110__function6__funcIZN6parlay14ThreadSpecificINS2_8internal24intrusive_acquire_retireINS4_12hazptr_stackIPvE4NodeENS_14default_deleteIS9_EELm1EE10ThreadDataEEC1EvEUlmE_NS_9allocatorISF_EEFSD_jEED1Ev, symObjAddr: 0x46CB8, symBinAddr: 0x100049A88, symSize: 0x4 }
  - { offset: 0x269D16, size: 0x8, addend: 0x0, symName: __ZNSt3__110__function6__funcIZN6parlay14ThreadSpecificINS2_8internal24intrusive_acquire_retireINS4_12hazptr_stackIPvE4NodeENS_14default_deleteIS9_EELm1EE10ThreadDataEEC1EvEUlmE_NS_9allocatorISF_EEFSD_jEED0Ev, symObjAddr: 0x46CBC, symBinAddr: 0x100049A8C, symSize: 0x4 }
  - { offset: 0x269DCD, size: 0x8, addend: 0x0, symName: __ZNKSt3__110__function6__funcIZN6parlay14ThreadSpecificINS2_8internal24intrusive_acquire_retireINS4_12hazptr_stackIPvE4NodeENS_14default_deleteIS9_EELm1EE10ThreadDataEEC1EvEUlmE_NS_9allocatorISF_EEFSD_jEE7__cloneEv, symObjAddr: 0x46CC0, symBinAddr: 0x100049A90, symSize: 0x24 }
  - { offset: 0x269F12, size: 0x8, addend: 0x0, symName: __ZNKSt3__110__function6__funcIZN6parlay14ThreadSpecificINS2_8internal24intrusive_acquire_retireINS4_12hazptr_stackIPvE4NodeENS_14default_deleteIS9_EELm1EE10ThreadDataEEC1EvEUlmE_NS_9allocatorISF_EEFSD_jEE7__cloneEPNS0_6__baseISI_EE, symObjAddr: 0x46CE4, symBinAddr: 0x100049AB4, symSize: 0x10 }
  - { offset: 0x269F47, size: 0x8, addend: 0x0, symName: __ZNKSt3__110__function6__funcIZN6parlay14ThreadSpecificINS2_8internal24intrusive_acquire_retireINS4_12hazptr_stackIPvE4NodeENS_14default_deleteIS9_EELm1EE10ThreadDataEEC1EvEUlmE_NS_9allocatorISF_EEFSD_jEE7__cloneEPNS0_6__baseISI_EE, symObjAddr: 0x46CE4, symBinAddr: 0x100049AB4, symSize: 0x10 }
  - { offset: 0x269F63, size: 0x8, addend: 0x0, symName: __ZNKSt3__110__function6__funcIZN6parlay14ThreadSpecificINS2_8internal24intrusive_acquire_retireINS4_12hazptr_stackIPvE4NodeENS_14default_deleteIS9_EELm1EE10ThreadDataEEC1EvEUlmE_NS_9allocatorISF_EEFSD_jEE7__cloneEPNS0_6__baseISI_EE, symObjAddr: 0x46CE4, symBinAddr: 0x100049AB4, symSize: 0x10 }
  - { offset: 0x269F7F, size: 0x8, addend: 0x0, symName: __ZNSt3__110__function6__funcIZN6parlay14ThreadSpecificINS2_8internal24intrusive_acquire_retireINS4_12hazptr_stackIPvE4NodeENS_14default_deleteIS9_EELm1EE10ThreadDataEEC1EvEUlmE_NS_9allocatorISF_EEFSD_jEE7destroyEv, symObjAddr: 0x46CF4, symBinAddr: 0x100049AC4, symSize: 0x4 }
  - { offset: 0x269FD0, size: 0x8, addend: 0x0, symName: __ZNSt3__110__function6__funcIZN6parlay14ThreadSpecificINS2_8internal24intrusive_acquire_retireINS4_12hazptr_stackIPvE4NodeENS_14default_deleteIS9_EELm1EE10ThreadDataEEC1EvEUlmE_NS_9allocatorISF_EEFSD_jEE18destroy_deallocateEv, symObjAddr: 0x46CF8, symBinAddr: 0x100049AC8, symSize: 0x4 }
  - { offset: 0x26A005, size: 0x8, addend: 0x0, symName: __ZNSt3__110__function6__funcIZN6parlay14ThreadSpecificINS2_8internal24intrusive_acquire_retireINS4_12hazptr_stackIPvE4NodeENS_14default_deleteIS9_EELm1EE10ThreadDataEEC1EvEUlmE_NS_9allocatorISF_EEFSD_jEE18destroy_deallocateEv, symObjAddr: 0x46CF8, symBinAddr: 0x100049AC8, symSize: 0x4 }
  - { offset: 0x26A027, size: 0x8, addend: 0x0, symName: __ZNSt3__110__function6__funcIZN6parlay14ThreadSpecificINS2_8internal24intrusive_acquire_retireINS4_12hazptr_stackIPvE4NodeENS_14default_deleteIS9_EELm1EE10ThreadDataEEC1EvEUlmE_NS_9allocatorISF_EEFSD_jEE18destroy_deallocateEv, symObjAddr: 0x46CF8, symBinAddr: 0x100049AC8, symSize: 0x4 }
  - { offset: 0x26A052, size: 0x8, addend: 0x0, symName: __ZNSt3__110__function6__funcIZN6parlay14ThreadSpecificINS2_8internal24intrusive_acquire_retireINS4_12hazptr_stackIPvE4NodeENS_14default_deleteIS9_EELm1EE10ThreadDataEEC1EvEUlmE_NS_9allocatorISF_EEFSD_jEE18destroy_deallocateEv, symObjAddr: 0x46CF8, symBinAddr: 0x100049AC8, symSize: 0x4 }
  - { offset: 0x26A078, size: 0x8, addend: 0x0, symName: __ZNSt3__110__function6__funcIZN6parlay14ThreadSpecificINS2_8internal24intrusive_acquire_retireINS4_12hazptr_stackIPvE4NodeENS_14default_deleteIS9_EELm1EE10ThreadDataEEC1EvEUlmE_NS_9allocatorISF_EEFSD_jEE18destroy_deallocateEv, symObjAddr: 0x46CF8, symBinAddr: 0x100049AC8, symSize: 0x4 }
  - { offset: 0x26A11E, size: 0x8, addend: 0x0, symName: __ZNSt3__110__function6__funcIZN6parlay14ThreadSpecificINS2_8internal24intrusive_acquire_retireINS4_12hazptr_stackIPvE4NodeENS_14default_deleteIS9_EELm1EE10ThreadDataEEC1EvEUlmE_NS_9allocatorISF_EEFSD_jEEclEOj, symObjAddr: 0x46CFC, symBinAddr: 0x100049ACC, symSize: 0x14 }
  - { offset: 0x26A151, size: 0x8, addend: 0x0, symName: __ZNSt3__110__function6__funcIZN6parlay14ThreadSpecificINS2_8internal24intrusive_acquire_retireINS4_12hazptr_stackIPvE4NodeENS_14default_deleteIS9_EELm1EE10ThreadDataEEC1EvEUlmE_NS_9allocatorISF_EEFSD_jEEclEOj, symObjAddr: 0x46CFC, symBinAddr: 0x100049ACC, symSize: 0x14 }
  - { offset: 0x26A166, size: 0x8, addend: 0x0, symName: __ZNSt3__110__function6__funcIZN6parlay14ThreadSpecificINS2_8internal24intrusive_acquire_retireINS4_12hazptr_stackIPvE4NodeENS_14default_deleteIS9_EELm1EE10ThreadDataEEC1EvEUlmE_NS_9allocatorISF_EEFSD_jEEclEOj, symObjAddr: 0x46CFC, symBinAddr: 0x100049ACC, symSize: 0x14 }
  - { offset: 0x26A17A, size: 0x8, addend: 0x0, symName: __ZNSt3__110__function6__funcIZN6parlay14ThreadSpecificINS2_8internal24intrusive_acquire_retireINS4_12hazptr_stackIPvE4NodeENS_14default_deleteIS9_EELm1EE10ThreadDataEEC1EvEUlmE_NS_9allocatorISF_EEFSD_jEEclEOj, symObjAddr: 0x46CFC, symBinAddr: 0x100049ACC, symSize: 0x14 }
  - { offset: 0x26A18F, size: 0x8, addend: 0x0, symName: __ZNSt3__110__function6__funcIZN6parlay14ThreadSpecificINS2_8internal24intrusive_acquire_retireINS4_12hazptr_stackIPvE4NodeENS_14default_deleteIS9_EELm1EE10ThreadDataEEC1EvEUlmE_NS_9allocatorISF_EEFSD_jEEclEOj, symObjAddr: 0x46CFC, symBinAddr: 0x100049ACC, symSize: 0x14 }
  - { offset: 0x26A1A4, size: 0x8, addend: 0x0, symName: __ZNSt3__110__function6__funcIZN6parlay14ThreadSpecificINS2_8internal24intrusive_acquire_retireINS4_12hazptr_stackIPvE4NodeENS_14default_deleteIS9_EELm1EE10ThreadDataEEC1EvEUlmE_NS_9allocatorISF_EEFSD_jEEclEOj, symObjAddr: 0x46CFC, symBinAddr: 0x100049ACC, symSize: 0x14 }
  - { offset: 0x26A1C5, size: 0x8, addend: 0x0, symName: __ZNSt3__110__function6__funcIZN6parlay14ThreadSpecificINS2_8internal24intrusive_acquire_retireINS4_12hazptr_stackIPvE4NodeENS_14default_deleteIS9_EELm1EE10ThreadDataEEC1EvEUlmE_NS_9allocatorISF_EEFSD_jEEclEOj, symObjAddr: 0x46CFC, symBinAddr: 0x100049ACC, symSize: 0x14 }
  - { offset: 0x26A1E6, size: 0x8, addend: 0x0, symName: __ZNSt3__110__function6__funcIZN6parlay14ThreadSpecificINS2_8internal24intrusive_acquire_retireINS4_12hazptr_stackIPvE4NodeENS_14default_deleteIS9_EELm1EE10ThreadDataEEC1EvEUlmE_NS_9allocatorISF_EEFSD_jEEclEOj, symObjAddr: 0x46CFC, symBinAddr: 0x100049ACC, symSize: 0x14 }
  - { offset: 0x26A207, size: 0x8, addend: 0x0, symName: __ZNSt3__110__function6__funcIZN6parlay14ThreadSpecificINS2_8internal24intrusive_acquire_retireINS4_12hazptr_stackIPvE4NodeENS_14default_deleteIS9_EELm1EE10ThreadDataEEC1EvEUlmE_NS_9allocatorISF_EEFSD_jEEclEOj, symObjAddr: 0x46CFC, symBinAddr: 0x100049ACC, symSize: 0x14 }
  - { offset: 0x26A228, size: 0x8, addend: 0x0, symName: __ZNSt3__110__function6__funcIZN6parlay14ThreadSpecificINS2_8internal24intrusive_acquire_retireINS4_12hazptr_stackIPvE4NodeENS_14default_deleteIS9_EELm1EE10ThreadDataEEC1EvEUlmE_NS_9allocatorISF_EEFSD_jEEclEOj, symObjAddr: 0x46CFC, symBinAddr: 0x100049ACC, symSize: 0x14 }
  - { offset: 0x26A24A, size: 0x8, addend: 0x0, symName: __ZNSt3__110__function6__funcIZN6parlay14ThreadSpecificINS2_8internal24intrusive_acquire_retireINS4_12hazptr_stackIPvE4NodeENS_14default_deleteIS9_EELm1EE10ThreadDataEEC1EvEUlmE_NS_9allocatorISF_EEFSD_jEEclEOj, symObjAddr: 0x46CFC, symBinAddr: 0x100049ACC, symSize: 0x14 }
  - { offset: 0x26A274, size: 0x8, addend: 0x0, symName: __ZNKSt3__110__function6__funcIZN6parlay14ThreadSpecificINS2_8internal24intrusive_acquire_retireINS4_12hazptr_stackIPvE4NodeENS_14default_deleteIS9_EELm1EE10ThreadDataEEC1EvEUlmE_NS_9allocatorISF_EEFSD_jEE6targetERKSt9type_info, symObjAddr: 0x46D10, symBinAddr: 0x100049AE0, symSize: 0x64 }
  - { offset: 0x26A30E, size: 0x8, addend: 0x0, symName: __ZNKSt3__110__function6__funcIZN6parlay14ThreadSpecificINS2_8internal24intrusive_acquire_retireINS4_12hazptr_stackIPvE4NodeENS_14default_deleteIS9_EELm1EE10ThreadDataEEC1EvEUlmE_NS_9allocatorISF_EEFSD_jEE11target_typeEv, symObjAddr: 0x46D74, symBinAddr: 0x100049B44, symSize: 0xC }
  - { offset: 0x26A69E, size: 0x8, addend: 0x0, symName: __ZN6parlay7JobImplIZNS_19fork_join_scheduler7parfor_IZNS_8sequenceINS3_IP4nodeIldENS_9allocatorIS6_EELb0EEENS7_IS9_EELb0EEC1IZ8get_3dp1IldENS3_IPS4_IT_T0_ENS7_ISH_EEXsr3std7is_sameISH_cEE5valueEEERSJ_EUllE_EEmOSE_NSB_18_from_function_tagEmEUlmE_EEvRNS_9schedulerINS_15WorkStealingJobEEEmmRSE_mbEUlvE0_ED1Ev, symObjAddr: 0x47690, symBinAddr: 0x10004A460, symSize: 0x4 }
  - { offset: 0x26A6C9, size: 0x8, addend: 0x0, symName: __ZN6parlay7JobImplIZNS_19fork_join_scheduler7parfor_IZNS_8sequenceINS3_IP4nodeIldENS_9allocatorIS6_EELb0EEENS7_IS9_EELb0EEC1IZ8get_3dp1IldENS3_IPS4_IT_T0_ENS7_ISH_EEXsr3std7is_sameISH_cEE5valueEEERSJ_EUllE_EEmOSE_NSB_18_from_function_tagEmEUlmE_EEvRNS_9schedulerINS_15WorkStealingJobEEEmmRSE_mbEUlvE0_ED0Ev, symObjAddr: 0x47694, symBinAddr: 0x10004A464, symSize: 0x4 }
  - { offset: 0x26A6F4, size: 0x8, addend: 0x0, symName: __ZN6parlay7JobImplIZNS_19fork_join_scheduler7parfor_IZNS_8sequenceINS3_IP4nodeIldENS_9allocatorIS6_EELb0EEENS7_IS9_EELb0EEC1IZ8get_3dp1IldENS3_IPS4_IT_T0_ENS7_ISH_EEXsr3std7is_sameISH_cEE5valueEEERSJ_EUllE_EEmOSE_NSB_18_from_function_tagEmEUlmE_EEvRNS_9schedulerINS_15WorkStealingJobEEEmmRSE_mbEUlvE0_E7executeEv, symObjAddr: 0x47698, symBinAddr: 0x10004A468, symSize: 0x24 }
  - { offset: 0x26A747, size: 0x8, addend: 0x0, symName: '__ZN6parlay7JobImplIZNS_19fork_join_scheduler7parfor_IZNS_8internal10sliced_forIZNS3_10filter_mapINS_5sliceIPP4nodeIldESA_EEZ15batchInsertEdgeIldZ4mainE3$_0EvRKNS_8sequenceINSt3__14pairIT_SH_EENS_9allocatorISI_EEXsr3std7is_sameISI_cEE5valueEEERKNSE_INSF_5tupleIJSH_SH_T0_EEENSJ_ISQ_EEXsr3std7is_sameISQ_cEE5valueEEERNSE_I7clusterISH_SP_ENSJ_ISW_EEXsr3std7is_sameISW_cEE5valueEEESP_T1_EUlSH_E_RZNS3_6filterISB_S11_EENSE_INSH_10value_typeENSJ_IS13_EEXsr3std7is_sameIS13_cEE5valueEEERKSH_OSP_EUlOSH_E_EEDaS17_S18_OS10_EUlmmmE0_EEvmmS17_jEUlmE_EEvRNS_9schedulerINS_15WorkStealingJobEEEmmRSH_mbEUlvE0_ED1Ev', symObjAddr: 0x476BC, symBinAddr: 0x10004A48C, symSize: 0x4 }
  - { offset: 0x26A772, size: 0x8, addend: 0x0, symName: '__ZN6parlay7JobImplIZNS_19fork_join_scheduler7parfor_IZNS_8internal10sliced_forIZNS3_10filter_mapINS_5sliceIPP4nodeIldESA_EEZ15batchInsertEdgeIldZ4mainE3$_0EvRKNS_8sequenceINSt3__14pairIT_SH_EENS_9allocatorISI_EEXsr3std7is_sameISI_cEE5valueEEERKNSE_INSF_5tupleIJSH_SH_T0_EEENSJ_ISQ_EEXsr3std7is_sameISQ_cEE5valueEEERNSE_I7clusterISH_SP_ENSJ_ISW_EEXsr3std7is_sameISW_cEE5valueEEESP_T1_EUlSH_E_RZNS3_6filterISB_S11_EENSE_INSH_10value_typeENSJ_IS13_EEXsr3std7is_sameIS13_cEE5valueEEERKSH_OSP_EUlOSH_E_EEDaS17_S18_OS10_EUlmmmE0_EEvmmS17_jEUlmE_EEvRNS_9schedulerINS_15WorkStealingJobEEEmmRSH_mbEUlvE0_ED0Ev', symObjAddr: 0x476C0, symBinAddr: 0x10004A490, symSize: 0x4 }
  - { offset: 0x26A79D, size: 0x8, addend: 0x0, symName: '__ZN6parlay7JobImplIZNS_19fork_join_scheduler7parfor_IZNS_8internal10sliced_forIZNS3_10filter_mapINS_5sliceIPP4nodeIldESA_EEZ15batchInsertEdgeIldZ4mainE3$_0EvRKNS_8sequenceINSt3__14pairIT_SH_EENS_9allocatorISI_EEXsr3std7is_sameISI_cEE5valueEEERKNSE_INSF_5tupleIJSH_SH_T0_EEENSJ_ISQ_EEXsr3std7is_sameISQ_cEE5valueEEERNSE_I7clusterISH_SP_ENSJ_ISW_EEXsr3std7is_sameISW_cEE5valueEEESP_T1_EUlSH_E_RZNS3_6filterISB_S11_EENSE_INSH_10value_typeENSJ_IS13_EEXsr3std7is_sameIS13_cEE5valueEEERKSH_OSP_EUlOSH_E_EEDaS17_S18_OS10_EUlmmmE0_EEvmmS17_jEUlmE_EEvRNS_9schedulerINS_15WorkStealingJobEEEmmRSH_mbEUlvE0_E7executeEv', symObjAddr: 0x476C4, symBinAddr: 0x10004A494, symSize: 0x24 }
  - { offset: 0x26AB0F, size: 0x8, addend: 0x0, symName: __ZN6parlay7JobImplIZNS_19fork_join_scheduler7parfor_IZNS_8internal10sliced_forIZNS3_5scan_INS_5sliceIPmS7_EES8_NS_4plusImEEEEDaRKT_T0_OT1_jbEUlmmmE0_EEvmmSE_jEUlmE_EEvRNS_9schedulerINS_15WorkStealingJobEEEmmRSC_mbEUlvE0_ED1Ev, symObjAddr: 0x47E58, symBinAddr: 0x10004AC28, symSize: 0x4 }
  - { offset: 0x26AB3A, size: 0x8, addend: 0x0, symName: __ZN6parlay7JobImplIZNS_19fork_join_scheduler7parfor_IZNS_8internal10sliced_forIZNS3_5scan_INS_5sliceIPmS7_EES8_NS_4plusImEEEEDaRKT_T0_OT1_jbEUlmmmE0_EEvmmSE_jEUlmE_EEvRNS_9schedulerINS_15WorkStealingJobEEEmmRSC_mbEUlvE0_ED0Ev, symObjAddr: 0x47E5C, symBinAddr: 0x10004AC2C, symSize: 0x4 }
  - { offset: 0x26AB65, size: 0x8, addend: 0x0, symName: __ZN6parlay7JobImplIZNS_19fork_join_scheduler7parfor_IZNS_8internal10sliced_forIZNS3_5scan_INS_5sliceIPmS7_EES8_NS_4plusImEEEEDaRKT_T0_OT1_jbEUlmmmE0_EEvmmSE_jEUlmE_EEvRNS_9schedulerINS_15WorkStealingJobEEEmmRSC_mbEUlvE0_E7executeEv, symObjAddr: 0x47E60, symBinAddr: 0x10004AC30, symSize: 0x24 }
  - { offset: 0x26AF45, size: 0x8, addend: 0x0, symName: __ZN6parlay7JobImplIZNS_19fork_join_scheduler7parfor_IZNS_8internal10sliced_forIZNS3_5scan_INS_5sliceIPmS7_EES8_NS_4plusImEEEEDaRKT_T0_OT1_jbEUlmmmE_EEvmmSE_jEUlmE_EEvRNS_9schedulerINS_15WorkStealingJobEEEmmRSC_mbEUlvE0_ED1Ev, symObjAddr: 0x484FC, symBinAddr: 0x10004B2CC, symSize: 0x4 }
  - { offset: 0x26AF70, size: 0x8, addend: 0x0, symName: __ZN6parlay7JobImplIZNS_19fork_join_scheduler7parfor_IZNS_8internal10sliced_forIZNS3_5scan_INS_5sliceIPmS7_EES8_NS_4plusImEEEEDaRKT_T0_OT1_jbEUlmmmE_EEvmmSE_jEUlmE_EEvRNS_9schedulerINS_15WorkStealingJobEEEmmRSC_mbEUlvE0_ED0Ev, symObjAddr: 0x48500, symBinAddr: 0x10004B2D0, symSize: 0x4 }
  - { offset: 0x26AF9B, size: 0x8, addend: 0x0, symName: __ZN6parlay7JobImplIZNS_19fork_join_scheduler7parfor_IZNS_8internal10sliced_forIZNS3_5scan_INS_5sliceIPmS7_EES8_NS_4plusImEEEEDaRKT_T0_OT1_jbEUlmmmE_EEvmmSE_jEUlmE_EEvRNS_9schedulerINS_15WorkStealingJobEEEmmRSC_mbEUlvE0_E7executeEv, symObjAddr: 0x48504, symBinAddr: 0x10004B2D4, symSize: 0x24 }
  - { offset: 0x26AFEE, size: 0x8, addend: 0x0, symName: '__ZN6parlay7JobImplIZNS_19fork_join_scheduler7parfor_IZNS_8internal10sliced_forIZNS3_10filter_mapINS_5sliceIPP4nodeIldESA_EEZ15batchInsertEdgeIldZ4mainE3$_0EvRKNS_8sequenceINSt3__14pairIT_SH_EENS_9allocatorISI_EEXsr3std7is_sameISI_cEE5valueEEERKNSE_INSF_5tupleIJSH_SH_T0_EEENSJ_ISQ_EEXsr3std7is_sameISQ_cEE5valueEEERNSE_I7clusterISH_SP_ENSJ_ISW_EEXsr3std7is_sameISW_cEE5valueEEESP_T1_EUlSH_E_RZNS3_6filterISB_S11_EENSE_INSH_10value_typeENSJ_IS13_EEXsr3std7is_sameIS13_cEE5valueEEERKSH_OSP_EUlOSH_E_EEDaS17_S18_OS10_EUlmmmE_EEvmmS17_jEUlmE_EEvRNS_9schedulerINS_15WorkStealingJobEEEmmRSH_mbEUlvE0_ED1Ev', symObjAddr: 0x48528, symBinAddr: 0x10004B2F8, symSize: 0x4 }
  - { offset: 0x26B019, size: 0x8, addend: 0x0, symName: '__ZN6parlay7JobImplIZNS_19fork_join_scheduler7parfor_IZNS_8internal10sliced_forIZNS3_10filter_mapINS_5sliceIPP4nodeIldESA_EEZ15batchInsertEdgeIldZ4mainE3$_0EvRKNS_8sequenceINSt3__14pairIT_SH_EENS_9allocatorISI_EEXsr3std7is_sameISI_cEE5valueEEERKNSE_INSF_5tupleIJSH_SH_T0_EEENSJ_ISQ_EEXsr3std7is_sameISQ_cEE5valueEEERNSE_I7clusterISH_SP_ENSJ_ISW_EEXsr3std7is_sameISW_cEE5valueEEESP_T1_EUlSH_E_RZNS3_6filterISB_S11_EENSE_INSH_10value_typeENSJ_IS13_EEXsr3std7is_sameIS13_cEE5valueEEERKSH_OSP_EUlOSH_E_EEDaS17_S18_OS10_EUlmmmE_EEvmmS17_jEUlmE_EEvRNS_9schedulerINS_15WorkStealingJobEEEmmRSH_mbEUlvE0_ED0Ev', symObjAddr: 0x4852C, symBinAddr: 0x10004B2FC, symSize: 0x4 }
  - { offset: 0x26B044, size: 0x8, addend: 0x0, symName: '__ZN6parlay7JobImplIZNS_19fork_join_scheduler7parfor_IZNS_8internal10sliced_forIZNS3_10filter_mapINS_5sliceIPP4nodeIldESA_EEZ15batchInsertEdgeIldZ4mainE3$_0EvRKNS_8sequenceINSt3__14pairIT_SH_EENS_9allocatorISI_EEXsr3std7is_sameISI_cEE5valueEEERKNSE_INSF_5tupleIJSH_SH_T0_EEENSJ_ISQ_EEXsr3std7is_sameISQ_cEE5valueEEERNSE_I7clusterISH_SP_ENSJ_ISW_EEXsr3std7is_sameISW_cEE5valueEEESP_T1_EUlSH_E_RZNS3_6filterISB_S11_EENSE_INSH_10value_typeENSJ_IS13_EEXsr3std7is_sameIS13_cEE5valueEEERKSH_OSP_EUlOSH_E_EEDaS17_S18_OS10_EUlmmmE_EEvmmS17_jEUlmE_EEvRNS_9schedulerINS_15WorkStealingJobEEEmmRSH_mbEUlvE0_E7executeEv', symObjAddr: 0x48530, symBinAddr: 0x10004B300, symSize: 0x24 }
  - { offset: 0x26B2B6, size: 0x8, addend: 0x0, symName: __ZN6parlay7JobImplIZNS_19fork_join_scheduler7parfor_IZNS_8sequenceIbNS_9allocatorIbEELb0EE18initialize_defaultEmEUlmE_EEvRNS_9schedulerINS_15WorkStealingJobEEEmmRT_mbEUlvE0_ED1Ev, symObjAddr: 0x48B64, symBinAddr: 0x10004B934, symSize: 0x4 }
  - { offset: 0x26B2E1, size: 0x8, addend: 0x0, symName: __ZN6parlay7JobImplIZNS_19fork_join_scheduler7parfor_IZNS_8sequenceIbNS_9allocatorIbEELb0EE18initialize_defaultEmEUlmE_EEvRNS_9schedulerINS_15WorkStealingJobEEEmmRT_mbEUlvE0_ED0Ev, symObjAddr: 0x48B68, symBinAddr: 0x10004B938, symSize: 0x4 }
  - { offset: 0x26B30C, size: 0x8, addend: 0x0, symName: __ZN6parlay7JobImplIZNS_19fork_join_scheduler7parfor_IZNS_8sequenceIbNS_9allocatorIbEELb0EE18initialize_defaultEmEUlmE_EEvRNS_9schedulerINS_15WorkStealingJobEEEmmRT_mbEUlvE0_E7executeEv, symObjAddr: 0x48B6C, symBinAddr: 0x10004B93C, symSize: 0xC4 }
  - { offset: 0x26B614, size: 0x8, addend: 0x0, symName: __ZN6parlay7JobImplIZNS_19fork_join_scheduler7parfor_IZNS_8sequenceImNS_9allocatorImEELb0EE18initialize_defaultEmEUlmE_EEvRNS_9schedulerINS_15WorkStealingJobEEEmmRT_mbEUlvE0_ED1Ev, symObjAddr: 0x492B8, symBinAddr: 0x10004C088, symSize: 0x4 }
  - { offset: 0x26B63F, size: 0x8, addend: 0x0, symName: __ZN6parlay7JobImplIZNS_19fork_join_scheduler7parfor_IZNS_8sequenceImNS_9allocatorImEELb0EE18initialize_defaultEmEUlmE_EEvRNS_9schedulerINS_15WorkStealingJobEEEmmRT_mbEUlvE0_ED0Ev, symObjAddr: 0x492BC, symBinAddr: 0x10004C08C, symSize: 0x4 }
  - { offset: 0x26B66A, size: 0x8, addend: 0x0, symName: __ZN6parlay7JobImplIZNS_19fork_join_scheduler7parfor_IZNS_8sequenceImNS_9allocatorImEELb0EE18initialize_defaultEmEUlmE_EEvRNS_9schedulerINS_15WorkStealingJobEEEmmRT_mbEUlvE0_E7executeEv, symObjAddr: 0x492C0, symBinAddr: 0x10004C090, symSize: 0xC8 }
  - { offset: 0x26B753, size: 0x8, addend: 0x0, symName: '__ZN6parlay7JobImplIZNS_19fork_join_scheduler7parfor_IZ15batchInsertEdgeIldZ4mainE3$_0EvRKNS_8sequenceINSt3__14pairIT_S8_EENS_9allocatorIS9_EEXsr3std7is_sameIS9_cEE5valueEEERKNS5_INS6_5tupleIJS8_S8_T0_EEENSA_ISH_EEXsr3std7is_sameISH_cEE5valueEEERNS5_I7clusterIS8_SG_ENSA_ISN_EEXsr3std7is_sameISN_cEE5valueEEESG_T1_EUllE0_EEvRNS_9schedulerINS_15WorkStealingJobEEEmmRS8_mbEUlvE0_ED1Ev', symObjAddr: 0x49388, symBinAddr: 0x10004C158, symSize: 0x4 }
  - { offset: 0x26B77E, size: 0x8, addend: 0x0, symName: '__ZN6parlay7JobImplIZNS_19fork_join_scheduler7parfor_IZ15batchInsertEdgeIldZ4mainE3$_0EvRKNS_8sequenceINSt3__14pairIT_S8_EENS_9allocatorIS9_EEXsr3std7is_sameIS9_cEE5valueEEERKNS5_INS6_5tupleIJS8_S8_T0_EEENSA_ISH_EEXsr3std7is_sameISH_cEE5valueEEERNS5_I7clusterIS8_SG_ENSA_ISN_EEXsr3std7is_sameISN_cEE5valueEEESG_T1_EUllE0_EEvRNS_9schedulerINS_15WorkStealingJobEEEmmRS8_mbEUlvE0_ED0Ev', symObjAddr: 0x4938C, symBinAddr: 0x10004C15C, symSize: 0x4 }
  - { offset: 0x26B7A9, size: 0x8, addend: 0x0, symName: '__ZN6parlay7JobImplIZNS_19fork_join_scheduler7parfor_IZ15batchInsertEdgeIldZ4mainE3$_0EvRKNS_8sequenceINSt3__14pairIT_S8_EENS_9allocatorIS9_EEXsr3std7is_sameIS9_cEE5valueEEERKNS5_INS6_5tupleIJS8_S8_T0_EEENSA_ISH_EEXsr3std7is_sameISH_cEE5valueEEERNS5_I7clusterIS8_SG_ENSA_ISN_EEXsr3std7is_sameISN_cEE5valueEEESG_T1_EUllE0_EEvRNS_9schedulerINS_15WorkStealingJobEEEmmRS8_mbEUlvE0_E7executeEv', symObjAddr: 0x49390, symBinAddr: 0x10004C160, symSize: 0x24 }
  - { offset: 0x26BAEF, size: 0x8, addend: 0x0, symName: __ZN6parlay7JobImplIZNS_19fork_join_scheduler7parfor_IZNS_7flattenIP4nodeIldEEEDaONS_8sequenceINS8_IT_NS_9allocatorIS9_EEXsr3std7is_sameIS9_cEE5valueEEENSA_ISC_EEXsr3std7is_sameISC_cEE5valueEEEEUlmE0_EEvRNS_9schedulerINS_15WorkStealingJobEEEmmRS9_mbEUlvE0_ED1Ev, symObjAddr: 0x49B84, symBinAddr: 0x10004C954, symSize: 0x4 }
  - { offset: 0x26BB1A, size: 0x8, addend: 0x0, symName: __ZN6parlay7JobImplIZNS_19fork_join_scheduler7parfor_IZNS_7flattenIP4nodeIldEEEDaONS_8sequenceINS8_IT_NS_9allocatorIS9_EEXsr3std7is_sameIS9_cEE5valueEEENSA_ISC_EEXsr3std7is_sameISC_cEE5valueEEEEUlmE0_EEvRNS_9schedulerINS_15WorkStealingJobEEEmmRS9_mbEUlvE0_ED0Ev, symObjAddr: 0x49B88, symBinAddr: 0x10004C958, symSize: 0x4 }
  - { offset: 0x26BB45, size: 0x8, addend: 0x0, symName: __ZN6parlay7JobImplIZNS_19fork_join_scheduler7parfor_IZNS_7flattenIP4nodeIldEEEDaONS_8sequenceINS8_IT_NS_9allocatorIS9_EEXsr3std7is_sameIS9_cEE5valueEEENSA_ISC_EEXsr3std7is_sameISC_cEE5valueEEEEUlmE0_EEvRNS_9schedulerINS_15WorkStealingJobEEEmmRS9_mbEUlvE0_E7executeEv, symObjAddr: 0x49B8C, symBinAddr: 0x10004C95C, symSize: 0x24 }
  - { offset: 0x26BE01, size: 0x8, addend: 0x0, symName: __ZN6parlay7JobImplIZNS_19fork_join_scheduler7parfor_IZNS_24uninitialized_relocate_nIPP4nodeIldElS7_EENSt3__14pairIT_T1_EESA_T0_SB_EUlmE_EEvRNS_9schedulerINS_15WorkStealingJobEEEmmRSA_mbEUlvE0_ED1Ev, symObjAddr: 0x4A420, symBinAddr: 0x10004D1F0, symSize: 0x4 }
  - { offset: 0x26BE2C, size: 0x8, addend: 0x0, symName: __ZN6parlay7JobImplIZNS_19fork_join_scheduler7parfor_IZNS_24uninitialized_relocate_nIPP4nodeIldElS7_EENSt3__14pairIT_T1_EESA_T0_SB_EUlmE_EEvRNS_9schedulerINS_15WorkStealingJobEEEmmRSA_mbEUlvE0_ED0Ev, symObjAddr: 0x4A424, symBinAddr: 0x10004D1F4, symSize: 0x4 }
  - { offset: 0x26BE57, size: 0x8, addend: 0x0, symName: __ZN6parlay7JobImplIZNS_19fork_join_scheduler7parfor_IZNS_24uninitialized_relocate_nIPP4nodeIldElS7_EENSt3__14pairIT_T1_EESA_T0_SB_EUlmE_EEvRNS_9schedulerINS_15WorkStealingJobEEEmmRSA_mbEUlvE0_E7executeEv, symObjAddr: 0x4A428, symBinAddr: 0x10004D1F8, symSize: 0x108 }
  - { offset: 0x26C1A9, size: 0x8, addend: 0x0, symName: __ZN6parlay7JobImplIZNS_19fork_join_scheduler7parfor_IZNS_8sequenceImNS_9allocatorImEELb0EEC1IZNS_7flattenIP4nodeIldEEEDaONS3_INS3_IT_NS4_ISD_EEXsr3std7is_sameISD_cEE5valueEEENS4_ISF_EEXsr3std7is_sameISF_cEE5valueEEEEUlmE_EEmOSD_NS6_18_from_function_tagEmEUlmE_EEvRNS_9schedulerINS_15WorkStealingJobEEEmmRSD_mbEUlvE0_ED1Ev, symObjAddr: 0x4AD60, symBinAddr: 0x10004DB30, symSize: 0x4 }
  - { offset: 0x26C1D4, size: 0x8, addend: 0x0, symName: __ZN6parlay7JobImplIZNS_19fork_join_scheduler7parfor_IZNS_8sequenceImNS_9allocatorImEELb0EEC1IZNS_7flattenIP4nodeIldEEEDaONS3_INS3_IT_NS4_ISD_EEXsr3std7is_sameISD_cEE5valueEEENS4_ISF_EEXsr3std7is_sameISF_cEE5valueEEEEUlmE_EEmOSD_NS6_18_from_function_tagEmEUlmE_EEvRNS_9schedulerINS_15WorkStealingJobEEEmmRSD_mbEUlvE0_ED0Ev, symObjAddr: 0x4AD64, symBinAddr: 0x10004DB34, symSize: 0x4 }
  - { offset: 0x26C1FF, size: 0x8, addend: 0x0, symName: __ZN6parlay7JobImplIZNS_19fork_join_scheduler7parfor_IZNS_8sequenceImNS_9allocatorImEELb0EEC1IZNS_7flattenIP4nodeIldEEEDaONS3_INS3_IT_NS4_ISD_EEXsr3std7is_sameISD_cEE5valueEEENS4_ISF_EEXsr3std7is_sameISF_cEE5valueEEEEUlmE_EEmOSD_NS6_18_from_function_tagEmEUlmE_EEvRNS_9schedulerINS_15WorkStealingJobEEEmmRSD_mbEUlvE0_E7executeEv, symObjAddr: 0x4AD68, symBinAddr: 0x10004DB38, symSize: 0x1D0 }
  - { offset: 0x26C609, size: 0x8, addend: 0x0, symName: __ZN6parlay7JobImplIZNS_19fork_join_scheduler7parfor_IZNS_17sequence_internal13sequence_baseINS_8sequenceIP4nodeIldENS_9allocatorIS8_EELb0EEENS9_ISB_EELb0EE12storage_impl11destroy_allEvEUlmE_EEvRNS_9schedulerINS_15WorkStealingJobEEEmmRT_mbEUlvE0_ED1Ev, symObjAddr: 0x4B4CC, symBinAddr: 0x10004E29C, symSize: 0x4 }
  - { offset: 0x26C634, size: 0x8, addend: 0x0, symName: __ZN6parlay7JobImplIZNS_19fork_join_scheduler7parfor_IZNS_17sequence_internal13sequence_baseINS_8sequenceIP4nodeIldENS_9allocatorIS8_EELb0EEENS9_ISB_EELb0EE12storage_impl11destroy_allEvEUlmE_EEvRNS_9schedulerINS_15WorkStealingJobEEEmmRT_mbEUlvE0_ED0Ev, symObjAddr: 0x4B4D0, symBinAddr: 0x10004E2A0, symSize: 0x4 }
  - { offset: 0x26C65F, size: 0x8, addend: 0x0, symName: __ZN6parlay7JobImplIZNS_19fork_join_scheduler7parfor_IZNS_17sequence_internal13sequence_baseINS_8sequenceIP4nodeIldENS_9allocatorIS8_EELb0EEENS9_ISB_EELb0EE12storage_impl11destroy_allEvEUlmE_EEvRNS_9schedulerINS_15WorkStealingJobEEEmmRT_mbEUlvE0_E7executeEv, symObjAddr: 0x4B4D4, symBinAddr: 0x10004E2A4, symSize: 0x24 }
  - { offset: 0x26C6B2, size: 0x8, addend: 0x0, symName: '__ZN6parlay7JobImplIZNS_19fork_join_scheduler7parfor_IZNS_8sequenceINS3_IP4nodeIldENS_9allocatorIS6_EELb0EEENS7_IS9_EELb0EEC1IZ15batchInsertEdgeIldZ4mainE3$_0EvRKNS3_INSt3__14pairIT_SH_EENS7_ISI_EEXsr3std7is_sameISI_cEE5valueEEERKNS3_INSF_5tupleIJSH_SH_T0_EEENS7_ISP_EEXsr3std7is_sameISP_cEE5valueEEERNS3_I7clusterISH_SO_ENS7_ISV_EEXsr3std7is_sameISV_cEE5valueEEESO_T1_EUllE_EEmOSH_NSB_18_from_function_tagEmEUlmE_EEvRNS_9schedulerINS_15WorkStealingJobEEEmmRSH_mbEUlvE0_ED1Ev', symObjAddr: 0x4B4F8, symBinAddr: 0x10004E2C8, symSize: 0x4 }
  - { offset: 0x26C6DD, size: 0x8, addend: 0x0, symName: '__ZN6parlay7JobImplIZNS_19fork_join_scheduler7parfor_IZNS_8sequenceINS3_IP4nodeIldENS_9allocatorIS6_EELb0EEENS7_IS9_EELb0EEC1IZ15batchInsertEdgeIldZ4mainE3$_0EvRKNS3_INSt3__14pairIT_SH_EENS7_ISI_EEXsr3std7is_sameISI_cEE5valueEEERKNS3_INSF_5tupleIJSH_SH_T0_EEENS7_ISP_EEXsr3std7is_sameISP_cEE5valueEEERNS3_I7clusterISH_SO_ENS7_ISV_EEXsr3std7is_sameISV_cEE5valueEEESO_T1_EUllE_EEmOSH_NSB_18_from_function_tagEmEUlmE_EEvRNS_9schedulerINS_15WorkStealingJobEEEmmRSH_mbEUlvE0_ED0Ev', symObjAddr: 0x4B4FC, symBinAddr: 0x10004E2CC, symSize: 0x4 }
  - { offset: 0x26C708, size: 0x8, addend: 0x0, symName: '__ZN6parlay7JobImplIZNS_19fork_join_scheduler7parfor_IZNS_8sequenceINS3_IP4nodeIldENS_9allocatorIS6_EELb0EEENS7_IS9_EELb0EEC1IZ15batchInsertEdgeIldZ4mainE3$_0EvRKNS3_INSt3__14pairIT_SH_EENS7_ISI_EEXsr3std7is_sameISI_cEE5valueEEERKNS3_INSF_5tupleIJSH_SH_T0_EEENS7_ISP_EEXsr3std7is_sameISP_cEE5valueEEERNS3_I7clusterISH_SO_ENS7_ISV_EEXsr3std7is_sameISV_cEE5valueEEESO_T1_EUllE_EEmOSH_NSB_18_from_function_tagEmEUlmE_EEvRNS_9schedulerINS_15WorkStealingJobEEEmmRSH_mbEUlvE0_E7executeEv', symObjAddr: 0x4B500, symBinAddr: 0x10004E2D0, symSize: 0x24 }
  - { offset: 0x26CA4E, size: 0x8, addend: 0x0, symName: __ZN6parlay7JobImplIZNS_19fork_join_scheduler7parfor_IZNS_8internal10sliced_forIZNS3_10filter_mapINS_5sliceIPNSt3__15tupleIJlldEEESA_EEZN7TreeGenIldE16generateAddEdgesEdEUlS9_E_RZNS3_6filterISB_SE_EENS_8sequenceINT_10value_typeENS_9allocatorISI_EEXsr3std7is_sameISI_cEE5valueEEERKSH_OT0_EUlOSH_E_EEDaSN_SP_OT1_EUlmmmE0_EEvmmSN_jEUlmE_EEvRNS_9schedulerINS_15WorkStealingJobEEEmmRSH_mbEUlvE0_ED1Ev, symObjAddr: 0x4BD38, symBinAddr: 0x10004EB08, symSize: 0x4 }
  - { offset: 0x26CA79, size: 0x8, addend: 0x0, symName: __ZN6parlay7JobImplIZNS_19fork_join_scheduler7parfor_IZNS_8internal10sliced_forIZNS3_10filter_mapINS_5sliceIPNSt3__15tupleIJlldEEESA_EEZN7TreeGenIldE16generateAddEdgesEdEUlS9_E_RZNS3_6filterISB_SE_EENS_8sequenceINT_10value_typeENS_9allocatorISI_EEXsr3std7is_sameISI_cEE5valueEEERKSH_OT0_EUlOSH_E_EEDaSN_SP_OT1_EUlmmmE0_EEvmmSN_jEUlmE_EEvRNS_9schedulerINS_15WorkStealingJobEEEmmRSH_mbEUlvE0_ED0Ev, symObjAddr: 0x4BD3C, symBinAddr: 0x10004EB0C, symSize: 0x4 }
  - { offset: 0x26CAA4, size: 0x8, addend: 0x0, symName: __ZN6parlay7JobImplIZNS_19fork_join_scheduler7parfor_IZNS_8internal10sliced_forIZNS3_10filter_mapINS_5sliceIPNSt3__15tupleIJlldEEESA_EEZN7TreeGenIldE16generateAddEdgesEdEUlS9_E_RZNS3_6filterISB_SE_EENS_8sequenceINT_10value_typeENS_9allocatorISI_EEXsr3std7is_sameISI_cEE5valueEEERKSH_OT0_EUlOSH_E_EEDaSN_SP_OT1_EUlmmmE0_EEvmmSN_jEUlmE_EEvRNS_9schedulerINS_15WorkStealingJobEEEmmRSH_mbEUlvE0_E7executeEv, symObjAddr: 0x4BD40, symBinAddr: 0x10004EB10, symSize: 0x24 }
  - { offset: 0x26CDEA, size: 0x8, addend: 0x0, symName: __ZN6parlay7JobImplIZNS_19fork_join_scheduler7parfor_IZNS_8internal10sliced_forIZNS3_10filter_mapINS_5sliceIPNSt3__15tupleIJlldEEESA_EEZN7TreeGenIldE16generateAddEdgesEdEUlS9_E_RZNS3_6filterISB_SE_EENS_8sequenceINT_10value_typeENS_9allocatorISI_EEXsr3std7is_sameISI_cEE5valueEEERKSH_OT0_EUlOSH_E_EEDaSN_SP_OT1_EUlmmmE_EEvmmSN_jEUlmE_EEvRNS_9schedulerINS_15WorkStealingJobEEEmmRSH_mbEUlvE0_ED1Ev, symObjAddr: 0x4C6F8, symBinAddr: 0x10004F4C8, symSize: 0x4 }
  - { offset: 0x26CE15, size: 0x8, addend: 0x0, symName: __ZN6parlay7JobImplIZNS_19fork_join_scheduler7parfor_IZNS_8internal10sliced_forIZNS3_10filter_mapINS_5sliceIPNSt3__15tupleIJlldEEESA_EEZN7TreeGenIldE16generateAddEdgesEdEUlS9_E_RZNS3_6filterISB_SE_EENS_8sequenceINT_10value_typeENS_9allocatorISI_EEXsr3std7is_sameISI_cEE5valueEEERKSH_OT0_EUlOSH_E_EEDaSN_SP_OT1_EUlmmmE_EEvmmSN_jEUlmE_EEvRNS_9schedulerINS_15WorkStealingJobEEEmmRSH_mbEUlvE0_ED0Ev, symObjAddr: 0x4C6FC, symBinAddr: 0x10004F4CC, symSize: 0x4 }
  - { offset: 0x26CE40, size: 0x8, addend: 0x0, symName: __ZN6parlay7JobImplIZNS_19fork_join_scheduler7parfor_IZNS_8internal10sliced_forIZNS3_10filter_mapINS_5sliceIPNSt3__15tupleIJlldEEESA_EEZN7TreeGenIldE16generateAddEdgesEdEUlS9_E_RZNS3_6filterISB_SE_EENS_8sequenceINT_10value_typeENS_9allocatorISI_EEXsr3std7is_sameISI_cEE5valueEEERKSH_OT0_EUlOSH_E_EEDaSN_SP_OT1_EUlmmmE_EEvmmSN_jEUlmE_EEvRNS_9schedulerINS_15WorkStealingJobEEEmmRSH_mbEUlvE0_E7executeEv, symObjAddr: 0x4C700, symBinAddr: 0x10004F4D0, symSize: 0x24 }
  - { offset: 0x26D426, size: 0x8, addend: 0x0, symName: __ZN6parlay7JobImplIZNS_19fork_join_scheduler7parfor_IZNS_8sequenceINSt3__15tupleIJlldEEENS_9allocatorIS6_EELb0EEC1IZN7TreeGenIldE16generateAddEdgesEdEUllE_EEmOT_NS9_18_from_function_tagEmEUlmE_EEvRNS_9schedulerINS_15WorkStealingJobEEEmmRSE_mbEUlvE0_ED1Ev, symObjAddr: 0x4D028, symBinAddr: 0x10004FDF8, symSize: 0x4 }
  - { offset: 0x26D451, size: 0x8, addend: 0x0, symName: __ZN6parlay7JobImplIZNS_19fork_join_scheduler7parfor_IZNS_8sequenceINSt3__15tupleIJlldEEENS_9allocatorIS6_EELb0EEC1IZN7TreeGenIldE16generateAddEdgesEdEUllE_EEmOT_NS9_18_from_function_tagEmEUlmE_EEvRNS_9schedulerINS_15WorkStealingJobEEEmmRSE_mbEUlvE0_ED0Ev, symObjAddr: 0x4D02C, symBinAddr: 0x10004FDFC, symSize: 0x4 }
  - { offset: 0x26D47C, size: 0x8, addend: 0x0, symName: __ZN6parlay7JobImplIZNS_19fork_join_scheduler7parfor_IZNS_8sequenceINSt3__15tupleIJlldEEENS_9allocatorIS6_EELb0EEC1IZN7TreeGenIldE16generateAddEdgesEdEUllE_EEmOT_NS9_18_from_function_tagEmEUlmE_EEvRNS_9schedulerINS_15WorkStealingJobEEEmmRSE_mbEUlvE0_E7executeEv, symObjAddr: 0x4D030, symBinAddr: 0x10004FE00, symSize: 0x24 }
  - { offset: 0x26D7C2, size: 0x8, addend: 0x0, symName: __ZN6parlay7JobImplIZNS_19fork_join_scheduler7parfor_IZNS_8internal10sliced_forIZNS3_10filter_mapINS_5sliceIPNSt3__14pairIllEESA_EEZN7TreeGenIldE19generateDeleteEdgesEdEUlS9_E_RZNS3_6filterISB_SE_EENS_8sequenceINT_10value_typeENS_9allocatorISI_EEXsr3std7is_sameISI_cEE5valueEEERKSH_OT0_EUlOSH_E_EEDaSN_SP_OT1_EUlmmmE0_EEvmmSN_jEUlmE_EEvRNS_9schedulerINS_15WorkStealingJobEEEmmRSH_mbEUlvE0_ED1Ev, symObjAddr: 0x4D964, symBinAddr: 0x100050734, symSize: 0x4 }
  - { offset: 0x26D7ED, size: 0x8, addend: 0x0, symName: __ZN6parlay7JobImplIZNS_19fork_join_scheduler7parfor_IZNS_8internal10sliced_forIZNS3_10filter_mapINS_5sliceIPNSt3__14pairIllEESA_EEZN7TreeGenIldE19generateDeleteEdgesEdEUlS9_E_RZNS3_6filterISB_SE_EENS_8sequenceINT_10value_typeENS_9allocatorISI_EEXsr3std7is_sameISI_cEE5valueEEERKSH_OT0_EUlOSH_E_EEDaSN_SP_OT1_EUlmmmE0_EEvmmSN_jEUlmE_EEvRNS_9schedulerINS_15WorkStealingJobEEEmmRSH_mbEUlvE0_ED0Ev, symObjAddr: 0x4D968, symBinAddr: 0x100050738, symSize: 0x4 }
  - { offset: 0x26D818, size: 0x8, addend: 0x0, symName: __ZN6parlay7JobImplIZNS_19fork_join_scheduler7parfor_IZNS_8internal10sliced_forIZNS3_10filter_mapINS_5sliceIPNSt3__14pairIllEESA_EEZN7TreeGenIldE19generateDeleteEdgesEdEUlS9_E_RZNS3_6filterISB_SE_EENS_8sequenceINT_10value_typeENS_9allocatorISI_EEXsr3std7is_sameISI_cEE5valueEEERKSH_OT0_EUlOSH_E_EEDaSN_SP_OT1_EUlmmmE0_EEvmmSN_jEUlmE_EEvRNS_9schedulerINS_15WorkStealingJobEEEmmRSH_mbEUlvE0_E7executeEv, symObjAddr: 0x4D96C, symBinAddr: 0x10005073C, symSize: 0x24 }
  - { offset: 0x26DB5E, size: 0x8, addend: 0x0, symName: __ZN6parlay7JobImplIZNS_19fork_join_scheduler7parfor_IZNS_8internal10sliced_forIZNS3_10filter_mapINS_5sliceIPNSt3__14pairIllEESA_EEZN7TreeGenIldE19generateDeleteEdgesEdEUlS9_E_RZNS3_6filterISB_SE_EENS_8sequenceINT_10value_typeENS_9allocatorISI_EEXsr3std7is_sameISI_cEE5valueEEERKSH_OT0_EUlOSH_E_EEDaSN_SP_OT1_EUlmmmE_EEvmmSN_jEUlmE_EEvRNS_9schedulerINS_15WorkStealingJobEEEmmRSH_mbEUlvE0_ED1Ev, symObjAddr: 0x4E1FC, symBinAddr: 0x100050FCC, symSize: 0x4 }
  - { offset: 0x26DB89, size: 0x8, addend: 0x0, symName: __ZN6parlay7JobImplIZNS_19fork_join_scheduler7parfor_IZNS_8internal10sliced_forIZNS3_10filter_mapINS_5sliceIPNSt3__14pairIllEESA_EEZN7TreeGenIldE19generateDeleteEdgesEdEUlS9_E_RZNS3_6filterISB_SE_EENS_8sequenceINT_10value_typeENS_9allocatorISI_EEXsr3std7is_sameISI_cEE5valueEEERKSH_OT0_EUlOSH_E_EEDaSN_SP_OT1_EUlmmmE_EEvmmSN_jEUlmE_EEvRNS_9schedulerINS_15WorkStealingJobEEEmmRSH_mbEUlvE0_ED0Ev, symObjAddr: 0x4E200, symBinAddr: 0x100050FD0, symSize: 0x4 }
  - { offset: 0x26DBB4, size: 0x8, addend: 0x0, symName: __ZN6parlay7JobImplIZNS_19fork_join_scheduler7parfor_IZNS_8internal10sliced_forIZNS3_10filter_mapINS_5sliceIPNSt3__14pairIllEESA_EEZN7TreeGenIldE19generateDeleteEdgesEdEUlS9_E_RZNS3_6filterISB_SE_EENS_8sequenceINT_10value_typeENS_9allocatorISI_EEXsr3std7is_sameISI_cEE5valueEEERKSH_OT0_EUlOSH_E_EEDaSN_SP_OT1_EUlmmmE_EEvmmSN_jEUlmE_EEvRNS_9schedulerINS_15WorkStealingJobEEEmmRSH_mbEUlvE0_E7executeEv, symObjAddr: 0x4E204, symBinAddr: 0x100050FD4, symSize: 0x24 }
  - { offset: 0x26DE26, size: 0x8, addend: 0x0, symName: __ZN6parlay7JobImplIZNS_19fork_join_scheduler7parfor_IZNS_8sequenceINSt3__14pairIllEENS_9allocatorIS6_EELb0EEC1IZN7TreeGenIldE19generateDeleteEdgesEdEUllE_EEmOT_NS9_18_from_function_tagEmEUlmE_EEvRNS_9schedulerINS_15WorkStealingJobEEEmmRSE_mbEUlvE0_ED1Ev, symObjAddr: 0x4E9D4, symBinAddr: 0x1000517A4, symSize: 0x4 }
  - { offset: 0x26DE51, size: 0x8, addend: 0x0, symName: __ZN6parlay7JobImplIZNS_19fork_join_scheduler7parfor_IZNS_8sequenceINSt3__14pairIllEENS_9allocatorIS6_EELb0EEC1IZN7TreeGenIldE19generateDeleteEdgesEdEUllE_EEmOT_NS9_18_from_function_tagEmEUlmE_EEvRNS_9schedulerINS_15WorkStealingJobEEEmmRSE_mbEUlvE0_ED0Ev, symObjAddr: 0x4E9D8, symBinAddr: 0x1000517A8, symSize: 0x4 }
  - { offset: 0x26DE7C, size: 0x8, addend: 0x0, symName: __ZN6parlay7JobImplIZNS_19fork_join_scheduler7parfor_IZNS_8sequenceINSt3__14pairIllEENS_9allocatorIS6_EELb0EEC1IZN7TreeGenIldE19generateDeleteEdgesEdEUllE_EEmOT_NS9_18_from_function_tagEmEUlmE_EEvRNS_9schedulerINS_15WorkStealingJobEEEmmRSE_mbEUlvE0_E7executeEv, symObjAddr: 0x4E9DC, symBinAddr: 0x1000517AC, symSize: 0xF0 }
  - { offset: 0x26E19D, size: 0x8, addend: 0x0, symName: __ZN6parlay7JobImplIZNS_19fork_join_scheduler7parfor_IZ12deleteRCtreeIldEvRNS_8sequenceI7clusterIT_T0_ENS_9allocatorIS8_EEXsr3std7is_sameIS8_cEE5valueEEEEUllE_EEvRNS_9schedulerINS_15WorkStealingJobEEEmmRS6_mbEUlvE0_ED1Ev, symObjAddr: 0x4FAD8, symBinAddr: 0x1000528A8, symSize: 0x4 }
  - { offset: 0x26E1C8, size: 0x8, addend: 0x0, symName: __ZN6parlay7JobImplIZNS_19fork_join_scheduler7parfor_IZ12deleteRCtreeIldEvRNS_8sequenceI7clusterIT_T0_ENS_9allocatorIS8_EEXsr3std7is_sameIS8_cEE5valueEEEEUllE_EEvRNS_9schedulerINS_15WorkStealingJobEEEmmRS6_mbEUlvE0_ED0Ev, symObjAddr: 0x4FADC, symBinAddr: 0x1000528AC, symSize: 0x4 }
  - { offset: 0x26E1F3, size: 0x8, addend: 0x0, symName: __ZN6parlay7JobImplIZNS_19fork_join_scheduler7parfor_IZ12deleteRCtreeIldEvRNS_8sequenceI7clusterIT_T0_ENS_9allocatorIS8_EEXsr3std7is_sameIS8_cEE5valueEEEEUllE_EEvRNS_9schedulerINS_15WorkStealingJobEEEmmRS6_mbEUlvE0_E7executeEv, symObjAddr: 0x4FAE0, symBinAddr: 0x1000528B0, symSize: 0xD8 }
  - { offset: 0x26E4C5, size: 0x8, addend: 0x0, symName: __ZN6parlay7JobImplIZNS_19fork_join_scheduler7parfor_IZN7TreeGenIldE12clearWeightsEdEUllE_EEvRNS_9schedulerINS_15WorkStealingJobEEEmmRT_mbEUlvE0_ED1Ev, symObjAddr: 0x50298, symBinAddr: 0x100053068, symSize: 0x4 }
  - { offset: 0x26E4F0, size: 0x8, addend: 0x0, symName: __ZN6parlay7JobImplIZNS_19fork_join_scheduler7parfor_IZN7TreeGenIldE12clearWeightsEdEUllE_EEvRNS_9schedulerINS_15WorkStealingJobEEEmmRT_mbEUlvE0_ED0Ev, symObjAddr: 0x5029C, symBinAddr: 0x10005306C, symSize: 0x4 }
  - { offset: 0x26E51B, size: 0x8, addend: 0x0, symName: __ZN6parlay7JobImplIZNS_19fork_join_scheduler7parfor_IZN7TreeGenIldE12clearWeightsEdEUllE_EEvRNS_9schedulerINS_15WorkStealingJobEEEmmRT_mbEUlvE0_E7executeEv, symObjAddr: 0x502A0, symBinAddr: 0x100053070, symSize: 0x124 }
  - { offset: 0x26EBCB, size: 0x8, addend: 0x0, symName: __ZZ20recreate_last_levelsIldEvRN6parlay8sequenceIP4nodeIT_T0_ENS0_9allocatorIS6_EEXsr3std7is_sameIS6_cEE5valueEEEENKUllE_clEl, symObjAddr: 0x549B8, symBinAddr: 0x100057788, symSize: 0x460 }
  - { offset: 0x26F13C, size: 0x8, addend: 0x0, symName: __ZN6parlay19fork_join_scheduler5pardoIZNS0_7parfor_IZ20recreate_last_levelsIldEvRNS_8sequenceIP4nodeIT_T0_ENS_9allocatorIS9_EEXsr3std7is_sameIS9_cEE5valueEEEEUllE_EEvRNS_9schedulerINS_15WorkStealingJobEEEmmRS6_mbEUlvE_ZNS2_ISE_EEvSI_mmSJ_mbEUlvE0_EEvSI_OS6_OS7_b, symObjAddr: 0x55EAC, symBinAddr: 0x100058C7C, symSize: 0x628 }
  - { offset: 0x2702F2, size: 0x8, addend: 0x0, symName: __ZZ20recreate_last_levelsIldEvRN6parlay8sequenceIP4nodeIT_T0_ENS0_9allocatorIS6_EEXsr3std7is_sameIS6_cEE5valueEEEENKUllE0_clEl, symObjAddr: 0x54E18, symBinAddr: 0x100057BE8, symSize: 0x258 }
  - { offset: 0x270479, size: 0x8, addend: 0x0, symName: __ZN6parlay19fork_join_scheduler5pardoIZNS0_7parfor_IZ20recreate_last_levelsIldEvRNS_8sequenceIP4nodeIT_T0_ENS_9allocatorIS9_EEXsr3std7is_sameIS9_cEE5valueEEEEUllE0_EEvRNS_9schedulerINS_15WorkStealingJobEEEmmRS6_mbEUlvE_ZNS2_ISE_EEvSI_mmSJ_mbEUlvE0_EEvSI_OS6_OS7_b, symObjAddr: 0x557A4, symBinAddr: 0x100058574, symSize: 0x628 }
  - { offset: 0x27162F, size: 0x8, addend: 0x0, symName: __ZN6parlay19fork_join_scheduler5pardoIZNS0_7parfor_IZ20recreate_last_levelsIldEvRNS_8sequenceIP4nodeIT_T0_ENS_9allocatorIS9_EEXsr3std7is_sameIS9_cEE5valueEEEEUllE1_EEvRNS_9schedulerINS_15WorkStealingJobEEEmmRS6_mbEUlvE_ZNS2_ISE_EEvSI_mmSJ_mbEUlvE0_EEvSI_OS6_OS7_b, symObjAddr: 0x55070, symBinAddr: 0x100057E40, symSize: 0x650 }
  - { offset: 0x272C5E, size: 0x8, addend: 0x0, symName: __ZN6parlay7JobImplIZNS_19fork_join_scheduler7parfor_IZNS_8internal10sliced_forIZNS3_10filter_mapINS_5sliceIPP4nodeIldESA_EEZ14create_RC_treeIldEvRNS_8sequenceI7clusterIT_T0_ENS_9allocatorISH_EEXsr3std7is_sameISH_cEE5valueEEESF_bSG_EUlSF_E1_RZNS3_6filterISB_SM_EENSD_INSF_10value_typeENSI_ISO_EEXsr3std7is_sameISO_cEE5valueEEERKSF_OSG_EUlOSF_E_EEDaSS_ST_OT1_EUlmmmE0_EEvmmSS_jEUlmE_EEvRNS_9schedulerINS_15WorkStealingJobEEEmmRSF_mbEUlvE0_ED1Ev, symObjAddr: 0x510B4, symBinAddr: 0x100053E84, symSize: 0x4 }
  - { offset: 0x272C89, size: 0x8, addend: 0x0, symName: __ZN6parlay7JobImplIZNS_19fork_join_scheduler7parfor_IZNS_8internal10sliced_forIZNS3_10filter_mapINS_5sliceIPP4nodeIldESA_EEZ14create_RC_treeIldEvRNS_8sequenceI7clusterIT_T0_ENS_9allocatorISH_EEXsr3std7is_sameISH_cEE5valueEEESF_bSG_EUlSF_E1_RZNS3_6filterISB_SM_EENSD_INSF_10value_typeENSI_ISO_EEXsr3std7is_sameISO_cEE5valueEEERKSF_OSG_EUlOSF_E_EEDaSS_ST_OT1_EUlmmmE0_EEvmmSS_jEUlmE_EEvRNS_9schedulerINS_15WorkStealingJobEEEmmRSF_mbEUlvE0_ED0Ev, symObjAddr: 0x510B8, symBinAddr: 0x100053E88, symSize: 0x4 }
  - { offset: 0x272CB4, size: 0x8, addend: 0x0, symName: __ZN6parlay7JobImplIZNS_19fork_join_scheduler7parfor_IZNS_8internal10sliced_forIZNS3_10filter_mapINS_5sliceIPP4nodeIldESA_EEZ14create_RC_treeIldEvRNS_8sequenceI7clusterIT_T0_ENS_9allocatorISH_EEXsr3std7is_sameISH_cEE5valueEEESF_bSG_EUlSF_E1_RZNS3_6filterISB_SM_EENSD_INSF_10value_typeENSI_ISO_EEXsr3std7is_sameISO_cEE5valueEEERKSF_OSG_EUlOSF_E_EEDaSS_ST_OT1_EUlmmmE0_EEvmmSS_jEUlmE_EEvRNS_9schedulerINS_15WorkStealingJobEEEmmRSF_mbEUlvE0_E7executeEv, symObjAddr: 0x510BC, symBinAddr: 0x100053E8C, symSize: 0x24 }
  - { offset: 0x272FFA, size: 0x8, addend: 0x0, symName: __ZN6parlay7JobImplIZNS_19fork_join_scheduler7parfor_IZNS_8internal10sliced_forIZNS3_10filter_mapINS_5sliceIPP4nodeIldESA_EEZ14create_RC_treeIldEvRNS_8sequenceI7clusterIT_T0_ENS_9allocatorISH_EEXsr3std7is_sameISH_cEE5valueEEESF_bSG_EUlSF_E1_RZNS3_6filterISB_SM_EENSD_INSF_10value_typeENSI_ISO_EEXsr3std7is_sameISO_cEE5valueEEERKSF_OSG_EUlOSF_E_EEDaSS_ST_OT1_EUlmmmE_EEvmmSS_jEUlmE_EEvRNS_9schedulerINS_15WorkStealingJobEEEmmRSF_mbEUlvE0_ED1Ev, symObjAddr: 0x51784, symBinAddr: 0x100054554, symSize: 0x4 }
  - { offset: 0x273025, size: 0x8, addend: 0x0, symName: __ZN6parlay7JobImplIZNS_19fork_join_scheduler7parfor_IZNS_8internal10sliced_forIZNS3_10filter_mapINS_5sliceIPP4nodeIldESA_EEZ14create_RC_treeIldEvRNS_8sequenceI7clusterIT_T0_ENS_9allocatorISH_EEXsr3std7is_sameISH_cEE5valueEEESF_bSG_EUlSF_E1_RZNS3_6filterISB_SM_EENSD_INSF_10value_typeENSI_ISO_EEXsr3std7is_sameISO_cEE5valueEEERKSF_OSG_EUlOSF_E_EEDaSS_ST_OT1_EUlmmmE_EEvmmSS_jEUlmE_EEvRNS_9schedulerINS_15WorkStealingJobEEEmmRSF_mbEUlvE0_ED0Ev, symObjAddr: 0x51788, symBinAddr: 0x100054558, symSize: 0x4 }
  - { offset: 0x273050, size: 0x8, addend: 0x0, symName: __ZN6parlay7JobImplIZNS_19fork_join_scheduler7parfor_IZNS_8internal10sliced_forIZNS3_10filter_mapINS_5sliceIPP4nodeIldESA_EEZ14create_RC_treeIldEvRNS_8sequenceI7clusterIT_T0_ENS_9allocatorISH_EEXsr3std7is_sameISH_cEE5valueEEESF_bSG_EUlSF_E1_RZNS3_6filterISB_SM_EENSD_INSF_10value_typeENSI_ISO_EEXsr3std7is_sameISO_cEE5valueEEERKSF_OSG_EUlOSF_E_EEDaSS_ST_OT1_EUlmmmE_EEvmmSS_jEUlmE_EEvRNS_9schedulerINS_15WorkStealingJobEEEmmRSF_mbEUlvE0_E7executeEv, symObjAddr: 0x5178C, symBinAddr: 0x10005455C, symSize: 0x24 }
  - { offset: 0x273396, size: 0x8, addend: 0x0, symName: __ZN6parlay7JobImplIZNS_19fork_join_scheduler7parfor_IZ14create_RC_treeIldEvRNS_8sequenceI7clusterIT_T0_ENS_9allocatorIS8_EEXsr3std7is_sameIS8_cEE5valueEEES6_bS7_EUllE0_EEvRNS_9schedulerINS_15WorkStealingJobEEEmmRS6_mbEUlvE0_ED1Ev, symObjAddr: 0x51D44, symBinAddr: 0x100054B14, symSize: 0x4 }
  - { offset: 0x2733C1, size: 0x8, addend: 0x0, symName: __ZN6parlay7JobImplIZNS_19fork_join_scheduler7parfor_IZ14create_RC_treeIldEvRNS_8sequenceI7clusterIT_T0_ENS_9allocatorIS8_EEXsr3std7is_sameIS8_cEE5valueEEES6_bS7_EUllE0_EEvRNS_9schedulerINS_15WorkStealingJobEEEmmRS6_mbEUlvE0_ED0Ev, symObjAddr: 0x51D48, symBinAddr: 0x100054B18, symSize: 0x4 }
  - { offset: 0x2733EC, size: 0x8, addend: 0x0, symName: __ZN6parlay7JobImplIZNS_19fork_join_scheduler7parfor_IZ14create_RC_treeIldEvRNS_8sequenceI7clusterIT_T0_ENS_9allocatorIS8_EEXsr3std7is_sameIS8_cEE5valueEEES6_bS7_EUllE0_EEvRNS_9schedulerINS_15WorkStealingJobEEEmmRS6_mbEUlvE0_E7executeEv, symObjAddr: 0x51D4C, symBinAddr: 0x100054B1C, symSize: 0x24 }
  - { offset: 0x27365E, size: 0x8, addend: 0x0, symName: __ZN6parlay7JobImplIZNS_19fork_join_scheduler7parfor_IZ9check_misIldEvRNS_8sequenceIP4nodeIT_T0_ENS_9allocatorIS9_EEXsr3std7is_sameIS9_cEE5valueEEEEUllE_EEvRNS_9schedulerINS_15WorkStealingJobEEEmmRS6_mbEUlvE0_ED1Ev, symObjAddr: 0x52510, symBinAddr: 0x1000552E0, symSize: 0x4 }
  - { offset: 0x273689, size: 0x8, addend: 0x0, symName: __ZN6parlay7JobImplIZNS_19fork_join_scheduler7parfor_IZ9check_misIldEvRNS_8sequenceIP4nodeIT_T0_ENS_9allocatorIS9_EEXsr3std7is_sameIS9_cEE5valueEEEEUllE_EEvRNS_9schedulerINS_15WorkStealingJobEEEmmRS6_mbEUlvE0_ED0Ev, symObjAddr: 0x52514, symBinAddr: 0x1000552E4, symSize: 0x4 }
  - { offset: 0x2736B4, size: 0x8, addend: 0x0, symName: __ZN6parlay7JobImplIZNS_19fork_join_scheduler7parfor_IZ9check_misIldEvRNS_8sequenceIP4nodeIT_T0_ENS_9allocatorIS9_EEXsr3std7is_sameIS9_cEE5valueEEEEUllE_EEvRNS_9schedulerINS_15WorkStealingJobEEEmmRS6_mbEUlvE0_E7executeEv, symObjAddr: 0x52518, symBinAddr: 0x1000552E8, symSize: 0xD8 }
  - { offset: 0x273A5A, size: 0x8, addend: 0x0, symName: __ZN6parlay7JobImplIZNS_19fork_join_scheduler7parfor_IZNS_8internal10sliced_forIZNS3_10filter_mapINS_5sliceIPP4nodeIldESA_EEZ14create_RC_treeIldEvRNS_8sequenceI7clusterIT_T0_ENS_9allocatorISH_EEXsr3std7is_sameISH_cEE5valueEEESF_bSG_EUlSF_E0_RZNS3_6filterISB_SM_EENSD_INSF_10value_typeENSI_ISO_EEXsr3std7is_sameISO_cEE5valueEEERKSF_OSG_EUlOSF_E_EEDaSS_ST_OT1_EUlmmmE0_EEvmmSS_jEUlmE_EEvRNS_9schedulerINS_15WorkStealingJobEEEmmRSF_mbEUlvE0_ED1Ev, symObjAddr: 0x52C58, symBinAddr: 0x100055A28, symSize: 0x4 }
  - { offset: 0x273A85, size: 0x8, addend: 0x0, symName: __ZN6parlay7JobImplIZNS_19fork_join_scheduler7parfor_IZNS_8internal10sliced_forIZNS3_10filter_mapINS_5sliceIPP4nodeIldESA_EEZ14create_RC_treeIldEvRNS_8sequenceI7clusterIT_T0_ENS_9allocatorISH_EEXsr3std7is_sameISH_cEE5valueEEESF_bSG_EUlSF_E0_RZNS3_6filterISB_SM_EENSD_INSF_10value_typeENSI_ISO_EEXsr3std7is_sameISO_cEE5valueEEERKSF_OSG_EUlOSF_E_EEDaSS_ST_OT1_EUlmmmE0_EEvmmSS_jEUlmE_EEvRNS_9schedulerINS_15WorkStealingJobEEEmmRSF_mbEUlvE0_ED0Ev, symObjAddr: 0x52C5C, symBinAddr: 0x100055A2C, symSize: 0x4 }
  - { offset: 0x273AB0, size: 0x8, addend: 0x0, symName: __ZN6parlay7JobImplIZNS_19fork_join_scheduler7parfor_IZNS_8internal10sliced_forIZNS3_10filter_mapINS_5sliceIPP4nodeIldESA_EEZ14create_RC_treeIldEvRNS_8sequenceI7clusterIT_T0_ENS_9allocatorISH_EEXsr3std7is_sameISH_cEE5valueEEESF_bSG_EUlSF_E0_RZNS3_6filterISB_SM_EENSD_INSF_10value_typeENSI_ISO_EEXsr3std7is_sameISO_cEE5valueEEERKSF_OSG_EUlOSF_E_EEDaSS_ST_OT1_EUlmmmE0_EEvmmSS_jEUlmE_EEvRNS_9schedulerINS_15WorkStealingJobEEEmmRSF_mbEUlvE0_E7executeEv, symObjAddr: 0x52C60, symBinAddr: 0x100055A30, symSize: 0x24 }
  - { offset: 0x273DF6, size: 0x8, addend: 0x0, symName: __ZN6parlay7JobImplIZNS_19fork_join_scheduler7parfor_IZNS_8internal10sliced_forIZNS3_10filter_mapINS_5sliceIPP4nodeIldESA_EEZ14create_RC_treeIldEvRNS_8sequenceI7clusterIT_T0_ENS_9allocatorISH_EEXsr3std7is_sameISH_cEE5valueEEESF_bSG_EUlSF_E0_RZNS3_6filterISB_SM_EENSD_INSF_10value_typeENSI_ISO_EEXsr3std7is_sameISO_cEE5valueEEERKSF_OSG_EUlOSF_E_EEDaSS_ST_OT1_EUlmmmE_EEvmmSS_jEUlmE_EEvRNS_9schedulerINS_15WorkStealingJobEEEmmRSF_mbEUlvE0_ED1Ev, symObjAddr: 0x53334, symBinAddr: 0x100056104, symSize: 0x4 }
  - { offset: 0x273E21, size: 0x8, addend: 0x0, symName: __ZN6parlay7JobImplIZNS_19fork_join_scheduler7parfor_IZNS_8internal10sliced_forIZNS3_10filter_mapINS_5sliceIPP4nodeIldESA_EEZ14create_RC_treeIldEvRNS_8sequenceI7clusterIT_T0_ENS_9allocatorISH_EEXsr3std7is_sameISH_cEE5valueEEESF_bSG_EUlSF_E0_RZNS3_6filterISB_SM_EENSD_INSF_10value_typeENSI_ISO_EEXsr3std7is_sameISO_cEE5valueEEERKSF_OSG_EUlOSF_E_EEDaSS_ST_OT1_EUlmmmE_EEvmmSS_jEUlmE_EEvRNS_9schedulerINS_15WorkStealingJobEEEmmRSF_mbEUlvE0_ED0Ev, symObjAddr: 0x53338, symBinAddr: 0x100056108, symSize: 0x4 }
  - { offset: 0x273E4C, size: 0x8, addend: 0x0, symName: __ZN6parlay7JobImplIZNS_19fork_join_scheduler7parfor_IZNS_8internal10sliced_forIZNS3_10filter_mapINS_5sliceIPP4nodeIldESA_EEZ14create_RC_treeIldEvRNS_8sequenceI7clusterIT_T0_ENS_9allocatorISH_EEXsr3std7is_sameISH_cEE5valueEEESF_bSG_EUlSF_E0_RZNS3_6filterISB_SM_EENSD_INSF_10value_typeENSI_ISO_EEXsr3std7is_sameISO_cEE5valueEEERKSF_OSG_EUlOSF_E_EEDaSS_ST_OT1_EUlmmmE_EEvmmSS_jEUlmE_EEvRNS_9schedulerINS_15WorkStealingJobEEEmmRSF_mbEUlvE0_E7executeEv, symObjAddr: 0x5333C, symBinAddr: 0x10005610C, symSize: 0x24 }
  - { offset: 0x274192, size: 0x8, addend: 0x0, symName: __ZN6parlay7JobImplIZNS_19fork_join_scheduler7parfor_IZNS_8internal10sliced_forIZNS3_10filter_mapINS_5sliceIPP4nodeIldESA_EEZ14create_RC_treeIldEvRNS_8sequenceI7clusterIT_T0_ENS_9allocatorISH_EEXsr3std7is_sameISH_cEE5valueEEESF_bSG_EUlSF_E_RZNS3_6filterISB_SM_EENSD_INSF_10value_typeENSI_ISO_EEXsr3std7is_sameISO_cEE5valueEEERKSF_OSG_EUlOSF_E_EEDaSS_ST_OT1_EUlmmmE0_EEvmmSS_jEUlmE_EEvRNS_9schedulerINS_15WorkStealingJobEEEmmRSF_mbEUlvE0_ED1Ev, symObjAddr: 0x539C8, symBinAddr: 0x100056798, symSize: 0x4 }
  - { offset: 0x2741BD, size: 0x8, addend: 0x0, symName: __ZN6parlay7JobImplIZNS_19fork_join_scheduler7parfor_IZNS_8internal10sliced_forIZNS3_10filter_mapINS_5sliceIPP4nodeIldESA_EEZ14create_RC_treeIldEvRNS_8sequenceI7clusterIT_T0_ENS_9allocatorISH_EEXsr3std7is_sameISH_cEE5valueEEESF_bSG_EUlSF_E_RZNS3_6filterISB_SM_EENSD_INSF_10value_typeENSI_ISO_EEXsr3std7is_sameISO_cEE5valueEEERKSF_OSG_EUlOSF_E_EEDaSS_ST_OT1_EUlmmmE0_EEvmmSS_jEUlmE_EEvRNS_9schedulerINS_15WorkStealingJobEEEmmRSF_mbEUlvE0_ED0Ev, symObjAddr: 0x539CC, symBinAddr: 0x10005679C, symSize: 0x4 }
  - { offset: 0x2741E8, size: 0x8, addend: 0x0, symName: __ZN6parlay7JobImplIZNS_19fork_join_scheduler7parfor_IZNS_8internal10sliced_forIZNS3_10filter_mapINS_5sliceIPP4nodeIldESA_EEZ14create_RC_treeIldEvRNS_8sequenceI7clusterIT_T0_ENS_9allocatorISH_EEXsr3std7is_sameISH_cEE5valueEEESF_bSG_EUlSF_E_RZNS3_6filterISB_SM_EENSD_INSF_10value_typeENSI_ISO_EEXsr3std7is_sameISO_cEE5valueEEERKSF_OSG_EUlOSF_E_EEDaSS_ST_OT1_EUlmmmE0_EEvmmSS_jEUlmE_EEvRNS_9schedulerINS_15WorkStealingJobEEEmmRSF_mbEUlvE0_E7executeEv, symObjAddr: 0x539D0, symBinAddr: 0x1000567A0, symSize: 0x24 }
  - { offset: 0x27452E, size: 0x8, addend: 0x0, symName: __ZN6parlay7JobImplIZNS_19fork_join_scheduler7parfor_IZNS_8internal10sliced_forIZNS3_10filter_mapINS_5sliceIPP4nodeIldESA_EEZ14create_RC_treeIldEvRNS_8sequenceI7clusterIT_T0_ENS_9allocatorISH_EEXsr3std7is_sameISH_cEE5valueEEESF_bSG_EUlSF_E_RZNS3_6filterISB_SM_EENSD_INSF_10value_typeENSI_ISO_EEXsr3std7is_sameISO_cEE5valueEEERKSF_OSG_EUlOSF_E_EEDaSS_ST_OT1_EUlmmmE_EEvmmSS_jEUlmE_EEvRNS_9schedulerINS_15WorkStealingJobEEEmmRSF_mbEUlvE0_ED1Ev, symObjAddr: 0x54054, symBinAddr: 0x100056E24, symSize: 0x4 }
  - { offset: 0x274559, size: 0x8, addend: 0x0, symName: __ZN6parlay7JobImplIZNS_19fork_join_scheduler7parfor_IZNS_8internal10sliced_forIZNS3_10filter_mapINS_5sliceIPP4nodeIldESA_EEZ14create_RC_treeIldEvRNS_8sequenceI7clusterIT_T0_ENS_9allocatorISH_EEXsr3std7is_sameISH_cEE5valueEEESF_bSG_EUlSF_E_RZNS3_6filterISB_SM_EENSD_INSF_10value_typeENSI_ISO_EEXsr3std7is_sameISO_cEE5valueEEERKSF_OSG_EUlOSF_E_EEDaSS_ST_OT1_EUlmmmE_EEvmmSS_jEUlmE_EEvRNS_9schedulerINS_15WorkStealingJobEEEmmRSF_mbEUlvE0_ED0Ev, symObjAddr: 0x54058, symBinAddr: 0x100056E28, symSize: 0x4 }
  - { offset: 0x274584, size: 0x8, addend: 0x0, symName: __ZN6parlay7JobImplIZNS_19fork_join_scheduler7parfor_IZNS_8internal10sliced_forIZNS3_10filter_mapINS_5sliceIPP4nodeIldESA_EEZ14create_RC_treeIldEvRNS_8sequenceI7clusterIT_T0_ENS_9allocatorISH_EEXsr3std7is_sameISH_cEE5valueEEESF_bSG_EUlSF_E_RZNS3_6filterISB_SM_EENSD_INSF_10value_typeENSI_ISO_EEXsr3std7is_sameISO_cEE5valueEEERKSF_OSG_EUlOSF_E_EEDaSS_ST_OT1_EUlmmmE_EEvmmSS_jEUlmE_EEvRNS_9schedulerINS_15WorkStealingJobEEEmmRSF_mbEUlvE0_E7executeEv, symObjAddr: 0x5405C, symBinAddr: 0x100056E2C, symSize: 0x24 }
  - { offset: 0x2747F6, size: 0x8, addend: 0x0, symName: __ZN6parlay7JobImplIZNS_19fork_join_scheduler7parfor_IZ17check_consistencyIldEvRNS_8sequenceIP4nodeIT_T0_ENS_9allocatorIS9_EEXsr3std7is_sameIS9_cEE5valueEEEEUllE_EEvRNS_9schedulerINS_15WorkStealingJobEEEmmRS6_mbEUlvE0_ED1Ev, symObjAddr: 0x548D8, symBinAddr: 0x1000576A8, symSize: 0x4 }
  - { offset: 0x274821, size: 0x8, addend: 0x0, symName: __ZN6parlay7JobImplIZNS_19fork_join_scheduler7parfor_IZ17check_consistencyIldEvRNS_8sequenceIP4nodeIT_T0_ENS_9allocatorIS9_EEXsr3std7is_sameIS9_cEE5valueEEEEUllE_EEvRNS_9schedulerINS_15WorkStealingJobEEEmmRS6_mbEUlvE0_ED0Ev, symObjAddr: 0x548DC, symBinAddr: 0x1000576AC, symSize: 0x4 }
  - { offset: 0x27484C, size: 0x8, addend: 0x0, symName: __ZN6parlay7JobImplIZNS_19fork_join_scheduler7parfor_IZ17check_consistencyIldEvRNS_8sequenceIP4nodeIT_T0_ENS_9allocatorIS9_EEXsr3std7is_sameIS9_cEE5valueEEEEUllE_EEvRNS_9schedulerINS_15WorkStealingJobEEEmmRS6_mbEUlvE0_E7executeEv, symObjAddr: 0x548E0, symBinAddr: 0x1000576B0, symSize: 0xD8 }
  - { offset: 0x274B1E, size: 0x8, addend: 0x0, symName: __ZN6parlay7JobImplIZNS_19fork_join_scheduler7parfor_IZ20recreate_last_levelsIldEvRNS_8sequenceIP4nodeIT_T0_ENS_9allocatorIS9_EEXsr3std7is_sameIS9_cEE5valueEEEEUllE1_EEvRNS_9schedulerINS_15WorkStealingJobEEEmmRS6_mbEUlvE0_ED1Ev, symObjAddr: 0x556C0, symBinAddr: 0x100058490, symSize: 0x4 }
  - { offset: 0x274B49, size: 0x8, addend: 0x0, symName: __ZN6parlay7JobImplIZNS_19fork_join_scheduler7parfor_IZ20recreate_last_levelsIldEvRNS_8sequenceIP4nodeIT_T0_ENS_9allocatorIS9_EEXsr3std7is_sameIS9_cEE5valueEEEEUllE1_EEvRNS_9schedulerINS_15WorkStealingJobEEEmmRS6_mbEUlvE0_ED0Ev, symObjAddr: 0x556C4, symBinAddr: 0x100058494, symSize: 0x4 }
  - { offset: 0x274B74, size: 0x8, addend: 0x0, symName: __ZN6parlay7JobImplIZNS_19fork_join_scheduler7parfor_IZ20recreate_last_levelsIldEvRNS_8sequenceIP4nodeIT_T0_ENS_9allocatorIS9_EEXsr3std7is_sameIS9_cEE5valueEEEEUllE1_EEvRNS_9schedulerINS_15WorkStealingJobEEEmmRS6_mbEUlvE0_E7executeEv, symObjAddr: 0x556C8, symBinAddr: 0x100058498, symSize: 0xDC }
  - { offset: 0x274F10, size: 0x8, addend: 0x0, symName: __ZN6parlay7JobImplIZNS_19fork_join_scheduler7parfor_IZ20recreate_last_levelsIldEvRNS_8sequenceIP4nodeIT_T0_ENS_9allocatorIS9_EEXsr3std7is_sameIS9_cEE5valueEEEEUllE0_EEvRNS_9schedulerINS_15WorkStealingJobEEEmmRS6_mbEUlvE0_ED1Ev, symObjAddr: 0x55DCC, symBinAddr: 0x100058B9C, symSize: 0x4 }
  - { offset: 0x274F3B, size: 0x8, addend: 0x0, symName: __ZN6parlay7JobImplIZNS_19fork_join_scheduler7parfor_IZ20recreate_last_levelsIldEvRNS_8sequenceIP4nodeIT_T0_ENS_9allocatorIS9_EEXsr3std7is_sameIS9_cEE5valueEEEEUllE0_EEvRNS_9schedulerINS_15WorkStealingJobEEEmmRS6_mbEUlvE0_ED0Ev, symObjAddr: 0x55DD0, symBinAddr: 0x100058BA0, symSize: 0x4 }
  - { offset: 0x274F66, size: 0x8, addend: 0x0, symName: __ZN6parlay7JobImplIZNS_19fork_join_scheduler7parfor_IZ20recreate_last_levelsIldEvRNS_8sequenceIP4nodeIT_T0_ENS_9allocatorIS9_EEXsr3std7is_sameIS9_cEE5valueEEEEUllE0_EEvRNS_9schedulerINS_15WorkStealingJobEEEmmRS6_mbEUlvE0_E7executeEv, symObjAddr: 0x55DD4, symBinAddr: 0x100058BA4, symSize: 0xD8 }
  - { offset: 0x275238, size: 0x8, addend: 0x0, symName: __ZN6parlay7JobImplIZNS_19fork_join_scheduler7parfor_IZ20recreate_last_levelsIldEvRNS_8sequenceIP4nodeIT_T0_ENS_9allocatorIS9_EEXsr3std7is_sameIS9_cEE5valueEEEEUllE_EEvRNS_9schedulerINS_15WorkStealingJobEEEmmRS6_mbEUlvE0_ED1Ev, symObjAddr: 0x564D4, symBinAddr: 0x1000592A4, symSize: 0x4 }
  - { offset: 0x275263, size: 0x8, addend: 0x0, symName: __ZN6parlay7JobImplIZNS_19fork_join_scheduler7parfor_IZ20recreate_last_levelsIldEvRNS_8sequenceIP4nodeIT_T0_ENS_9allocatorIS9_EEXsr3std7is_sameIS9_cEE5valueEEEEUllE_EEvRNS_9schedulerINS_15WorkStealingJobEEEmmRS6_mbEUlvE0_ED0Ev, symObjAddr: 0x564D8, symBinAddr: 0x1000592A8, symSize: 0x4 }
  - { offset: 0x27528E, size: 0x8, addend: 0x0, symName: __ZN6parlay7JobImplIZNS_19fork_join_scheduler7parfor_IZ20recreate_last_levelsIldEvRNS_8sequenceIP4nodeIT_T0_ENS_9allocatorIS9_EEXsr3std7is_sameIS9_cEE5valueEEEEUllE_EEvRNS_9schedulerINS_15WorkStealingJobEEEmmRS6_mbEUlvE0_E7executeEv, symObjAddr: 0x564DC, symBinAddr: 0x1000592AC, symSize: 0xD8 }
  - { offset: 0x275560, size: 0x8, addend: 0x0, symName: __ZN6parlay7JobImplIZNS_19fork_join_scheduler7parfor_IZNS_8sequenceIP4nodeIldENS_9allocatorIS6_EELb0EEC1IZ14create_RC_treeIldEvRNS3_I7clusterIT_T0_ENS7_ISF_EEXsr3std7is_sameISF_cEE5valueEEESD_bSE_EUllE_EEmOSD_NS9_18_from_function_tagEmEUlmE_EEvRNS_9schedulerINS_15WorkStealingJobEEEmmRSD_mbEUlvE0_ED1Ev, symObjAddr: 0x56C24, symBinAddr: 0x1000599F4, symSize: 0x4 }
  - { offset: 0x27558B, size: 0x8, addend: 0x0, symName: __ZN6parlay7JobImplIZNS_19fork_join_scheduler7parfor_IZNS_8sequenceIP4nodeIldENS_9allocatorIS6_EELb0EEC1IZ14create_RC_treeIldEvRNS3_I7clusterIT_T0_ENS7_ISF_EEXsr3std7is_sameISF_cEE5valueEEESD_bSE_EUllE_EEmOSD_NS9_18_from_function_tagEmEUlmE_EEvRNS_9schedulerINS_15WorkStealingJobEEEmmRSD_mbEUlvE0_ED0Ev, symObjAddr: 0x56C28, symBinAddr: 0x1000599F8, symSize: 0x4 }
  - { offset: 0x2755B6, size: 0x8, addend: 0x0, symName: __ZN6parlay7JobImplIZNS_19fork_join_scheduler7parfor_IZNS_8sequenceIP4nodeIldENS_9allocatorIS6_EELb0EEC1IZ14create_RC_treeIldEvRNS3_I7clusterIT_T0_ENS7_ISF_EEXsr3std7is_sameISF_cEE5valueEEESD_bSE_EUllE_EEmOSD_NS9_18_from_function_tagEmEUlmE_EEvRNS_9schedulerINS_15WorkStealingJobEEEmmRSD_mbEUlvE0_E7executeEv, symObjAddr: 0x56C2C, symBinAddr: 0x1000599FC, symSize: 0xEC }
  - { offset: 0x2759C2, size: 0x8, addend: 0x0, symName: __ZN6parlay7JobImplIZNS_19fork_join_scheduler7parfor_IZ20create_base_clustersIldEvRNS_8sequenceINS4_IT_NS_9allocatorIS5_EEXsr3std7is_sameIS5_cEE5valueEEENS6_IS8_EEXsr3std7is_sameIS8_cEE5valueEEERNS4_I7clusterIS5_T0_ENS6_ISE_EEXsr3std7is_sameISE_cEE5valueEEES5_SD_EUllE2_EEvRNS_9schedulerINS_15WorkStealingJobEEEmmRS5_mbEUlvE0_ED1Ev, symObjAddr: 0x576C8, symBinAddr: 0x10005A498, symSize: 0x4 }
  - { offset: 0x2759ED, size: 0x8, addend: 0x0, symName: __ZN6parlay7JobImplIZNS_19fork_join_scheduler7parfor_IZ20create_base_clustersIldEvRNS_8sequenceINS4_IT_NS_9allocatorIS5_EEXsr3std7is_sameIS5_cEE5valueEEENS6_IS8_EEXsr3std7is_sameIS8_cEE5valueEEERNS4_I7clusterIS5_T0_ENS6_ISE_EEXsr3std7is_sameISE_cEE5valueEEES5_SD_EUllE2_EEvRNS_9schedulerINS_15WorkStealingJobEEEmmRS5_mbEUlvE0_ED0Ev, symObjAddr: 0x576CC, symBinAddr: 0x10005A49C, symSize: 0x4 }
  - { offset: 0x275A18, size: 0x8, addend: 0x0, symName: __ZN6parlay7JobImplIZNS_19fork_join_scheduler7parfor_IZ20create_base_clustersIldEvRNS_8sequenceINS4_IT_NS_9allocatorIS5_EEXsr3std7is_sameIS5_cEE5valueEEENS6_IS8_EEXsr3std7is_sameIS8_cEE5valueEEERNS4_I7clusterIS5_T0_ENS6_ISE_EEXsr3std7is_sameISE_cEE5valueEEES5_SD_EUllE2_EEvRNS_9schedulerINS_15WorkStealingJobEEEmmRS5_mbEUlvE0_E7executeEv, symObjAddr: 0x576D0, symBinAddr: 0x10005A4A0, symSize: 0xD4 }
  - { offset: 0x275D84, size: 0x8, addend: 0x0, symName: __ZN6parlay7JobImplIZNS_19fork_join_scheduler7parfor_IZ20create_base_clustersIldEvRNS_8sequenceINS4_IT_NS_9allocatorIS5_EEXsr3std7is_sameIS5_cEE5valueEEENS6_IS8_EEXsr3std7is_sameIS8_cEE5valueEEERNS4_I7clusterIS5_T0_ENS6_ISE_EEXsr3std7is_sameISE_cEE5valueEEES5_SD_EUllE1_EEvRNS_9schedulerINS_15WorkStealingJobEEEmmRS5_mbEUlvE0_ED1Ev, symObjAddr: 0x5BBB4, symBinAddr: 0x10005E984, symSize: 0x4 }
  - { offset: 0x275DAF, size: 0x8, addend: 0x0, symName: __ZN6parlay7JobImplIZNS_19fork_join_scheduler7parfor_IZ20create_base_clustersIldEvRNS_8sequenceINS4_IT_NS_9allocatorIS5_EEXsr3std7is_sameIS5_cEE5valueEEENS6_IS8_EEXsr3std7is_sameIS8_cEE5valueEEERNS4_I7clusterIS5_T0_ENS6_ISE_EEXsr3std7is_sameISE_cEE5valueEEES5_SD_EUllE1_EEvRNS_9schedulerINS_15WorkStealingJobEEEmmRS5_mbEUlvE0_ED0Ev, symObjAddr: 0x5BBB8, symBinAddr: 0x10005E988, symSize: 0x4 }
  - { offset: 0x275DDA, size: 0x8, addend: 0x0, symName: __ZN6parlay7JobImplIZNS_19fork_join_scheduler7parfor_IZ20create_base_clustersIldEvRNS_8sequenceINS4_IT_NS_9allocatorIS5_EEXsr3std7is_sameIS5_cEE5valueEEENS6_IS8_EEXsr3std7is_sameIS8_cEE5valueEEERNS4_I7clusterIS5_T0_ENS6_ISE_EEXsr3std7is_sameISE_cEE5valueEEES5_SD_EUllE1_EEvRNS_9schedulerINS_15WorkStealingJobEEEmmRS5_mbEUlvE0_E7executeEv, symObjAddr: 0x5BBBC, symBinAddr: 0x10005E98C, symSize: 0xD4 }
  - { offset: 0x276187, size: 0x8, addend: 0x0, symName: __ZN6parlay7JobImplIZNS_19fork_join_scheduler7parfor_IZ20create_base_clustersIldEvRNS_8sequenceINS4_IT_NS_9allocatorIS5_EEXsr3std7is_sameIS5_cEE5valueEEENS6_IS8_EEXsr3std7is_sameIS8_cEE5valueEEERNS4_I7clusterIS5_T0_ENS6_ISE_EEXsr3std7is_sameISE_cEE5valueEEES5_SD_EUllE0_EEvRNS_9schedulerINS_15WorkStealingJobEEEmmRS5_mbEUlvE0_ED1Ev, symObjAddr: 0x5C288, symBinAddr: 0x10005F058, symSize: 0x4 }
  - { offset: 0x2761B2, size: 0x8, addend: 0x0, symName: __ZN6parlay7JobImplIZNS_19fork_join_scheduler7parfor_IZ20create_base_clustersIldEvRNS_8sequenceINS4_IT_NS_9allocatorIS5_EEXsr3std7is_sameIS5_cEE5valueEEENS6_IS8_EEXsr3std7is_sameIS8_cEE5valueEEERNS4_I7clusterIS5_T0_ENS6_ISE_EEXsr3std7is_sameISE_cEE5valueEEES5_SD_EUllE0_EEvRNS_9schedulerINS_15WorkStealingJobEEEmmRS5_mbEUlvE0_ED0Ev, symObjAddr: 0x5C28C, symBinAddr: 0x10005F05C, symSize: 0x4 }
  - { offset: 0x2761DD, size: 0x8, addend: 0x0, symName: __ZN6parlay7JobImplIZNS_19fork_join_scheduler7parfor_IZ20create_base_clustersIldEvRNS_8sequenceINS4_IT_NS_9allocatorIS5_EEXsr3std7is_sameIS5_cEE5valueEEENS6_IS8_EEXsr3std7is_sameIS8_cEE5valueEEERNS4_I7clusterIS5_T0_ENS6_ISE_EEXsr3std7is_sameISE_cEE5valueEEES5_SD_EUllE0_EEvRNS_9schedulerINS_15WorkStealingJobEEEmmRS5_mbEUlvE0_E7executeEv, symObjAddr: 0x5C290, symBinAddr: 0x10005F060, symSize: 0x24 }
  - { offset: 0x27644F, size: 0x8, addend: 0x0, symName: __ZN6parlay7JobImplIZNS_19fork_join_scheduler7parfor_IZNS_8sequenceI7clusterIldENS_9allocatorIS5_EELb0EEC1IZ20create_base_clustersIldEvRNS3_INS3_IT_NS6_ISB_EEXsr3std7is_sameISB_cEE5valueEEENS6_ISD_EEXsr3std7is_sameISD_cEE5valueEEERNS3_IS4_ISB_T0_ENS6_ISI_EEXsr3std7is_sameISI_cEE5valueEEESB_SH_EUllE_EEmOSB_NS8_18_from_function_tagEmEUlmE_EEvRNS_9schedulerINS_15WorkStealingJobEEEmmRSB_mbEUlvE0_ED1Ev, symObjAddr: 0x5CB84, symBinAddr: 0x10005F954, symSize: 0x4 }
  - { offset: 0x27647A, size: 0x8, addend: 0x0, symName: __ZN6parlay7JobImplIZNS_19fork_join_scheduler7parfor_IZNS_8sequenceI7clusterIldENS_9allocatorIS5_EELb0EEC1IZ20create_base_clustersIldEvRNS3_INS3_IT_NS6_ISB_EEXsr3std7is_sameISB_cEE5valueEEENS6_ISD_EEXsr3std7is_sameISD_cEE5valueEEERNS3_IS4_ISB_T0_ENS6_ISI_EEXsr3std7is_sameISI_cEE5valueEEESB_SH_EUllE_EEmOSB_NS8_18_from_function_tagEmEUlmE_EEvRNS_9schedulerINS_15WorkStealingJobEEEmmRSB_mbEUlvE0_ED0Ev, symObjAddr: 0x5CB88, symBinAddr: 0x10005F958, symSize: 0x4 }
  - { offset: 0x2764A5, size: 0x8, addend: 0x0, symName: __ZN6parlay7JobImplIZNS_19fork_join_scheduler7parfor_IZNS_8sequenceI7clusterIldENS_9allocatorIS5_EELb0EEC1IZ20create_base_clustersIldEvRNS3_INS3_IT_NS6_ISB_EEXsr3std7is_sameISB_cEE5valueEEENS6_ISD_EEXsr3std7is_sameISD_cEE5valueEEERNS3_IS4_ISB_T0_ENS6_ISI_EEXsr3std7is_sameISI_cEE5valueEEESB_SH_EUllE_EEmOSB_NS8_18_from_function_tagEmEUlmE_EEvRNS_9schedulerINS_15WorkStealingJobEEEmmRSB_mbEUlvE0_E7executeEv, symObjAddr: 0x5CB8C, symBinAddr: 0x10005F95C, symSize: 0xD4 }
  - { offset: 0x276852, size: 0x8, addend: 0x0, symName: __ZN6parlay7JobImplIZNS_19fork_join_scheduler7parfor_IZNS_17sequence_internal13sequence_baseINS_8sequenceIlNS_9allocatorIlEELb0EEENS6_IS8_EELb0EE12storage_impl11destroy_allEvEUlmE_EEvRNS_9schedulerINS_15WorkStealingJobEEEmmRT_mbEUlvE0_ED1Ev, symObjAddr: 0x5D1F4, symBinAddr: 0x10005FFC4, symSize: 0x4 }
  - { offset: 0x27687D, size: 0x8, addend: 0x0, symName: __ZN6parlay7JobImplIZNS_19fork_join_scheduler7parfor_IZNS_17sequence_internal13sequence_baseINS_8sequenceIlNS_9allocatorIlEELb0EEENS6_IS8_EELb0EE12storage_impl11destroy_allEvEUlmE_EEvRNS_9schedulerINS_15WorkStealingJobEEEmmRT_mbEUlvE0_ED0Ev, symObjAddr: 0x5D1F8, symBinAddr: 0x10005FFC8, symSize: 0x4 }
  - { offset: 0x2768A8, size: 0x8, addend: 0x0, symName: __ZN6parlay7JobImplIZNS_19fork_join_scheduler7parfor_IZNS_17sequence_internal13sequence_baseINS_8sequenceIlNS_9allocatorIlEELb0EEENS6_IS8_EELb0EE12storage_impl11destroy_allEvEUlmE_EEvRNS_9schedulerINS_15WorkStealingJobEEEmmRT_mbEUlvE0_E7executeEv, symObjAddr: 0x5D1FC, symBinAddr: 0x10005FFCC, symSize: 0x24 }
  - { offset: 0x279856, size: 0x8, addend: 0x0, symName: __ZZN6parlay8internal18group_by_small_intINS_16delayed_sequenceIllZNS0_11delayed_mapIRNS_8sequenceINSt3__14pairIllEENS_9allocatorIS7_EELb0EEEZNS_14group_by_indexImSB_EEDaOT0_T_EUlRKSG_E0_Li0EEESD_OSG_SE_EUlmE_E8iteratorENS2_IllZNS3_ISB_ZNSC_ImSB_EESD_SF_SG_EUlSI_E_Li0EEESD_SK_SE_EUlmE_E8iteratorEEESD_NS_5sliceISG_SG_EENSS_ISE_SE_EEmENKUlmE_clEm, symObjAddr: 0x9AA04, symBinAddr: 0x10009CCB8, symSize: 0x22C }
  - { offset: 0x279DFD, size: 0x8, addend: 0x0, symName: __ZN6parlay19fork_join_scheduler5pardoIZNS0_7parfor_IZNS_8internal18group_by_small_intINS_16delayed_sequenceIllZNS3_11delayed_mapIRNS_8sequenceINSt3__14pairIllEENS_9allocatorISA_EELb0EEEZNS_14group_by_indexImSE_EEDaOT0_T_EUlRKSJ_E0_Li0EEESG_OSJ_SH_EUlmE_E8iteratorENS5_IllZNS6_ISE_ZNSF_ImSE_EESG_SI_SJ_EUlSL_E_Li0EEESG_SN_SH_EUlmE_E8iteratorEEESG_NS_5sliceISJ_SJ_EENSV_ISH_SH_EEmEUlmE_EEvRNS_9schedulerINS_15WorkStealingJobEEEmmRSJ_mbEUlvE_ZNS2_ISY_EEvS12_mmS13_mbEUlvE0_EEvS12_SN_SI_b, symObjAddr: 0x9AC30, symBinAddr: 0x10009CEE4, symSize: 0x620 }
  - { offset: 0x27AFB7, size: 0x8, addend: 0x0, symName: __ZN6parlay8sequenceIPlNS_9allocatorIS1_EELb0EEC2EmNS4_18_uninitialized_tagE, symObjAddr: 0x6A2C8, symBinAddr: 0x10006D098, symSize: 0x184 }
  - { offset: 0x27B35D, size: 0x8, addend: 0x0, symName: __ZZN6parlay8internal18group_by_small_intINS_16delayed_sequenceIllZNS0_11delayed_mapIRNS_8sequenceINSt3__14pairIllEENS_9allocatorIS7_EELb0EEEZNS_14group_by_indexImSB_EEDaOT0_T_EUlRKSG_E0_Li0EEESD_OSG_SE_EUlmE_E8iteratorENS2_IllZNS3_ISB_ZNSC_ImSB_EESD_SF_SG_EUlSI_E_Li0EEESD_SK_SE_EUlmE_E8iteratorEEESD_NS_5sliceISG_SG_EENSS_ISE_SE_EEmENKUlmE3_clEm, symObjAddr: 0x9B250, symBinAddr: 0x10009D504, symSize: 0x1A4 }
  - { offset: 0x27BA22, size: 0x8, addend: 0x0, symName: __ZN6parlay19fork_join_scheduler5pardoIZNS0_7parfor_IZNS_8internal18group_by_small_intINS_16delayed_sequenceIllZNS3_11delayed_mapIRNS_8sequenceINSt3__14pairIllEENS_9allocatorISA_EELb0EEEZNS_14group_by_indexImSE_EEDaOT0_T_EUlRKSJ_E0_Li0EEESG_OSJ_SH_EUlmE_E8iteratorENS5_IllZNS6_ISE_ZNSF_ImSE_EESG_SI_SJ_EUlSL_E_Li0EEESG_SN_SH_EUlmE_E8iteratorEEESG_NS_5sliceISJ_SJ_EENSV_ISH_SH_EEmEUlmE3_EEvRNS_9schedulerINS_15WorkStealingJobEEEmmRSJ_mbEUlvE_ZNS2_ISY_EEvS12_mmS13_mbEUlvE0_EEvS12_SN_SI_b, symObjAddr: 0x9B3F4, symBinAddr: 0x10009D6A8, symSize: 0x620 }
  - { offset: 0x27BA39, size: 0x8, addend: 0x0, symName: __ZN6parlay19fork_join_scheduler5pardoIZNS0_7parfor_IZNS_8internal18group_by_small_intINS_16delayed_sequenceIllZNS3_11delayed_mapIRNS_8sequenceINSt3__14pairIllEENS_9allocatorISA_EELb0EEEZNS_14group_by_indexImSE_EEDaOT0_T_EUlRKSJ_E0_Li0EEESG_OSJ_SH_EUlmE_E8iteratorENS5_IllZNS6_ISE_ZNSF_ImSE_EESG_SI_SJ_EUlSL_E_Li0EEESG_SN_SH_EUlmE_E8iteratorEEESG_NS_5sliceISJ_SJ_EENSV_ISH_SH_EEmEUlmE3_EEvRNS_9schedulerINS_15WorkStealingJobEEEmmRSJ_mbEUlvE_ZNS2_ISY_EEvS12_mmS13_mbEUlvE0_EEvS12_SN_SI_b, symObjAddr: 0x9B3F4, symBinAddr: 0x10009D6A8, symSize: 0x620 }
  - { offset: 0x27CBFF, size: 0x8, addend: 0x0, symName: __ZN6parlay19fork_join_scheduler5pardoIZNS0_7parfor_IZNS_8sequenceINS3_IlNS_9allocatorIlEELb0EEENS4_IS6_EELb0EE16initialize_rangeIPKS6_EEvT_SC_EUlmE_EEvRNS_9schedulerINS_15WorkStealingJobEEEmmRSC_mbEUlvE_ZNS2_ISD_EEvSH_mmSI_mbEUlvE0_EEvSH_OSC_OT0_b, symObjAddr: 0x9CE2C, symBinAddr: 0x10009F0E0, symSize: 0x640 }
  - { offset: 0x27DEED, size: 0x8, addend: 0x0, symName: __ZN6parlay9allocatorINSt3__14pairIllEEE10deallocateEPS3_m, symObjAddr: 0x75DFC, symBinAddr: 0x100078AA8, symSize: 0x124 }
  - { offset: 0x27E100, size: 0x8, addend: 0x0, symName: __ZN6parlay8internal22uninitialized_sequenceINSt3__14pairIllEENS_9allocatorIS4_EEED1Ev, symObjAddr: 0x75F20, symBinAddr: 0x100078BCC, symSize: 0x30 }
  - { offset: 0x27E10B, size: 0x8, addend: 0x0, symName: __ZN6parlay8internal5timer4nextENSt3__112basic_stringIcNS2_11char_traitsIcEENS2_9allocatorIcEEEE, symObjAddr: 0x67C8C, symBinAddr: 0x10006AA5C, symSize: 0x238 }
  - { offset: 0x27EB14, size: 0x8, addend: 0x0, symName: __ZN6parlay19fork_join_scheduler5pardoIZNS0_7parfor_IZNS_8sequenceImNS_9allocatorImEELb0EEC1IZNS_8internal3mapIRNS3_IS6_NS4_IS6_EELb0EEEZNS_13block_delayed10filter_mapINS_16delayed_sequenceImmZNS_14group_by_indexImRNS3_INSt3__14pairIllEENS4_ISJ_EELb0EEEEEDaOT0_T_EUlmE_EEZNSG_ImSM_EESN_SP_SQ_EUlmE0_ZNSD_6filterISS_ST_EESN_RKSQ_RKSO_EUlSQ_E_EESN_SQ_SY_RKT1_EUlRKS6_E_EESN_OSQ_SP_mEUlmE_EEmS16_NS6_18_from_function_tagEmEUlmE_EEvRNS_9schedulerINS_15WorkStealingJobEEEmmRSQ_mbEUlvE_ZNS2_IS19_EEvS1D_mmS1E_mbEUlvE0_EEvS1D_S16_SP_b, symObjAddr: 0x745B8, symBinAddr: 0x100077388, symSize: 0x830 }
  - { offset: 0x27FDD8, size: 0x8, addend: 0x0, symName: __ZN6parlay19fork_join_scheduler5pardoIZNS0_7parfor_IZNS_8sequenceINS3_IlNS_9allocatorIlEELb0EEENS4_IS6_EELb0EE18initialize_defaultEmEUlmE_EEvRNS_9schedulerINS_15WorkStealingJobEEEmmRT_mbEUlvE_ZNS2_IS9_EEvSD_mmSF_mbEUlvE0_EEvSD_OSE_OT0_b, symObjAddr: 0x715F8, symBinAddr: 0x1000743C8, symSize: 0x630 }
  - { offset: 0x281046, size: 0x8, addend: 0x0, symName: __ZN6parlay17sequence_internal13sequence_baseINS_8sequenceImNS_9allocatorImEELb0EEENS3_IS5_EELb0EE12storage_implD1Ev, symObjAddr: 0x74FC0, symBinAddr: 0x100077D90, symSize: 0x7C }
  - { offset: 0x2811E6, size: 0x8, addend: 0x0, symName: __ZN6parlay8internal22uninitialized_sequenceINSt3__14pairIllEENS_9allocatorIS4_EEED1Ev, symObjAddr: 0x75F20, symBinAddr: 0x100078BCC, symSize: 0x30 }
  - { offset: 0x28127F, size: 0x8, addend: 0x0, symName: __ZN6parlay8sequenceINS0_ImNS_9allocatorImEELb0EEENS1_IS3_EELb0EED1Ev, symObjAddr: 0x72B28, symBinAddr: 0x1000758F8, symSize: 0x7C }
  - { offset: 0x281462, size: 0x8, addend: 0x0, symName: __ZN6parlay17sequence_internal13sequence_baseINS_8sequenceImNS_9allocatorImEELb0EEENS3_IS5_EELb0EED2Ev, symObjAddr: 0x7503C, symBinAddr: 0x100077E0C, symSize: 0x7C }
  - { offset: 0x28200F, size: 0x8, addend: 0x0, symName: __ZN6parlay7JobImplIZNS_19fork_join_scheduler7parfor_IZNS_8sequenceINS3_IlNS_9allocatorIlEELb0EEENS4_IS6_EELb0EEC1IZN11graph_utilsIlE10symmetrizeERKS8_EUllE_EEmOT_NS8_18_from_function_tagEmEUlmE_EEvRNS_9schedulerINS_15WorkStealingJobEEEmmRSF_mbEUlvE0_ED1Ev, symObjAddr: 0x62F54, symBinAddr: 0x100065D24, symSize: 0x4 }
  - { offset: 0x28203A, size: 0x8, addend: 0x0, symName: __ZN6parlay7JobImplIZNS_19fork_join_scheduler7parfor_IZNS_8sequenceINS3_IlNS_9allocatorIlEELb0EEENS4_IS6_EELb0EEC1IZN11graph_utilsIlE10symmetrizeERKS8_EUllE_EEmOT_NS8_18_from_function_tagEmEUlmE_EEvRNS_9schedulerINS_15WorkStealingJobEEEmmRSF_mbEUlvE0_ED0Ev, symObjAddr: 0x62F58, symBinAddr: 0x100065D28, symSize: 0x4 }
  - { offset: 0x282065, size: 0x8, addend: 0x0, symName: __ZN6parlay7JobImplIZNS_19fork_join_scheduler7parfor_IZNS_8sequenceINS3_IlNS_9allocatorIlEELb0EEENS4_IS6_EELb0EEC1IZN11graph_utilsIlE10symmetrizeERKS8_EUllE_EEmOT_NS8_18_from_function_tagEmEUlmE_EEvRNS_9schedulerINS_15WorkStealingJobEEEmmRSF_mbEUlvE0_E7executeEv, symObjAddr: 0x62F5C, symBinAddr: 0x100065D2C, symSize: 0x24 }
  - { offset: 0x283B4D, size: 0x8, addend: 0x0, symName: __ZN6parlay8sequenceINSt3__14pairIliEENS_9allocatorIS3_EELb0EEC2EmRKS3_, symObjAddr: 0x6E804, symBinAddr: 0x1000715D4, symSize: 0x3B4 }
  - { offset: 0x284324, size: 0x8, addend: 0x0, symName: __ZN6parlay9allocatorIlE8allocateEm, symObjAddr: 0x67B70, symBinAddr: 0x10006A940, symSize: 0x11C }
  - { offset: 0x284590, size: 0x8, addend: 0x0, symName: __ZN6parlay8internal5timer4nextENSt3__112basic_stringIcNS2_11char_traitsIcEENS2_9allocatorIcEEEE, symObjAddr: 0x67C8C, symBinAddr: 0x10006AA5C, symSize: 0x238 }
  - { offset: 0x28459B, size: 0x8, addend: 0x0, symName: __ZN6parlay8sequenceIjNS_9allocatorIjEELb0EEC2EmNS3_18_uninitialized_tagE, symObjAddr: 0x6C0E4, symBinAddr: 0x10006EEB4, symSize: 0x184 }
  - { offset: 0x284935, size: 0x8, addend: 0x0, symName: __ZN6parlay8sequenceIlNS_9allocatorIlEELb0EEC2EmRKl, symObjAddr: 0x699B4, symBinAddr: 0x10006C784, symSize: 0x188 }
  - { offset: 0x284D97, size: 0x8, addend: 0x0, symName: __ZN6parlay19fork_join_scheduler5pardoIZNS0_7parfor_IZNS_8sequenceImNS_9allocatorImEELb0EEC1IZNS_7flattenIlEEDaONS3_INS3_IT_NS4_ISA_EEXsr3std7is_sameISA_cEE5valueEEENS4_ISC_EEXsr3std7is_sameISC_cEE5valueEEEEUlmE_EEmOSA_NS6_18_from_function_tagEmEUlmE_EEvRNS_9schedulerINS_15WorkStealingJobEEEmmRSA_mbEUlvE_ZNS2_ISJ_EEvSN_mmSO_mbEUlvE0_EEvSN_SH_OT0_b, symObjAddr: 0x68FAC, symBinAddr: 0x10006BD7C, symSize: 0x830 }
  - { offset: 0x28605D, size: 0x8, addend: 0x0, symName: __ZN6parlay19fork_join_scheduler5pardoIZNS0_7parfor_IZNS_24uninitialized_relocate_nIPllS4_EENSt3__14pairIT_T1_EES7_T0_S8_EUlmE_EEvRNS_9schedulerINS_15WorkStealingJobEEEmmRS7_mbEUlvE_ZNS2_ISB_EEvSF_mmSG_mbEUlvE0_EEvSF_OS7_OSA_b, symObjAddr: 0x68814, symBinAddr: 0x10006B5E4, symSize: 0x688 }
  - { offset: 0x287307, size: 0x8, addend: 0x0, symName: __ZN6parlay9allocatorIlE10deallocateEPlm, symObjAddr: 0x67EC4, symBinAddr: 0x10006AC94, symSize: 0x124 }
  - { offset: 0x28751A, size: 0x8, addend: 0x0, symName: __ZN6parlay8internal22uninitialized_sequenceIlNS_9allocatorIlEEED1Ev, symObjAddr: 0x67FE8, symBinAddr: 0x10006ADB8, symSize: 0x30 }
  - { offset: 0x287525, size: 0x8, addend: 0x0, symName: __ZN6parlay8internal22uninitialized_sequenceIlNS_9allocatorIlEEED1Ev, symObjAddr: 0x67FE8, symBinAddr: 0x10006ADB8, symSize: 0x30 }
  - { offset: 0x2878B1, size: 0x8, addend: 0x0, symName: __ZN6parlay7JobImplIZNS_19fork_join_scheduler7parfor_IZNS_8internal10sliced_forIZNS3_10filter_mapINS_5sliceIPlS7_EEZZN11graph_utilsIlE10symmetrizeERKNS_8sequenceINSB_IlNS_9allocatorIlEELb0EEENSC_ISE_EELb0EEEENKUllE_clElEUlT_E_RZNS3_6filterIS8_SL_EENSB_INSK_10value_typeENSC_ISN_EEXsr3std7is_sameISN_cEE5valueEEERKSK_OT0_EUlOSK_E_EEDaSR_ST_OT1_EUlmmmE0_EEvmmSR_jEUlmE_EEvRNS_9schedulerINS_15WorkStealingJobEEEmmRSK_mbEUlvE0_ED1Ev, symObjAddr: 0x66D50, symBinAddr: 0x100069B20, symSize: 0x4 }
  - { offset: 0x2878DC, size: 0x8, addend: 0x0, symName: __ZN6parlay7JobImplIZNS_19fork_join_scheduler7parfor_IZNS_8internal10sliced_forIZNS3_10filter_mapINS_5sliceIPlS7_EEZZN11graph_utilsIlE10symmetrizeERKNS_8sequenceINSB_IlNS_9allocatorIlEELb0EEENSC_ISE_EELb0EEEENKUllE_clElEUlT_E_RZNS3_6filterIS8_SL_EENSB_INSK_10value_typeENSC_ISN_EEXsr3std7is_sameISN_cEE5valueEEERKSK_OT0_EUlOSK_E_EEDaSR_ST_OT1_EUlmmmE0_EEvmmSR_jEUlmE_EEvRNS_9schedulerINS_15WorkStealingJobEEEmmRSK_mbEUlvE0_ED0Ev, symObjAddr: 0x66D54, symBinAddr: 0x100069B24, symSize: 0x4 }
  - { offset: 0x287907, size: 0x8, addend: 0x0, symName: __ZN6parlay7JobImplIZNS_19fork_join_scheduler7parfor_IZNS_8internal10sliced_forIZNS3_10filter_mapINS_5sliceIPlS7_EEZZN11graph_utilsIlE10symmetrizeERKNS_8sequenceINSB_IlNS_9allocatorIlEELb0EEENSC_ISE_EELb0EEEENKUllE_clElEUlT_E_RZNS3_6filterIS8_SL_EENSB_INSK_10value_typeENSC_ISN_EEXsr3std7is_sameISN_cEE5valueEEERKSK_OT0_EUlOSK_E_EEDaSR_ST_OT1_EUlmmmE0_EEvmmSR_jEUlmE_EEvRNS_9schedulerINS_15WorkStealingJobEEEmmRSK_mbEUlvE0_E7executeEv, symObjAddr: 0x66D58, symBinAddr: 0x100069B28, symSize: 0x24 }
  - { offset: 0x287C4D, size: 0x8, addend: 0x0, symName: __ZN6parlay7JobImplIZNS_19fork_join_scheduler7parfor_IZNS_8internal10sliced_forIZNS3_10filter_mapINS_5sliceIPlS7_EEZZN11graph_utilsIlE10symmetrizeERKNS_8sequenceINSB_IlNS_9allocatorIlEELb0EEENSC_ISE_EELb0EEEENKUllE_clElEUlT_E_RZNS3_6filterIS8_SL_EENSB_INSK_10value_typeENSC_ISN_EEXsr3std7is_sameISN_cEE5valueEEERKSK_OT0_EUlOSK_E_EEDaSR_ST_OT1_EUlmmmE_EEvmmSR_jEUlmE_EEvRNS_9schedulerINS_15WorkStealingJobEEEmmRSK_mbEUlvE0_ED1Ev, symObjAddr: 0x6759C, symBinAddr: 0x10006A36C, symSize: 0x4 }
  - { offset: 0x287C78, size: 0x8, addend: 0x0, symName: __ZN6parlay7JobImplIZNS_19fork_join_scheduler7parfor_IZNS_8internal10sliced_forIZNS3_10filter_mapINS_5sliceIPlS7_EEZZN11graph_utilsIlE10symmetrizeERKNS_8sequenceINSB_IlNS_9allocatorIlEELb0EEENSC_ISE_EELb0EEEENKUllE_clElEUlT_E_RZNS3_6filterIS8_SL_EENSB_INSK_10value_typeENSC_ISN_EEXsr3std7is_sameISN_cEE5valueEEERKSK_OT0_EUlOSK_E_EEDaSR_ST_OT1_EUlmmmE_EEvmmSR_jEUlmE_EEvRNS_9schedulerINS_15WorkStealingJobEEEmmRSK_mbEUlvE0_ED0Ev, symObjAddr: 0x675A0, symBinAddr: 0x10006A370, symSize: 0x4 }
  - { offset: 0x287CA3, size: 0x8, addend: 0x0, symName: __ZN6parlay7JobImplIZNS_19fork_join_scheduler7parfor_IZNS_8internal10sliced_forIZNS3_10filter_mapINS_5sliceIPlS7_EEZZN11graph_utilsIlE10symmetrizeERKNS_8sequenceINSB_IlNS_9allocatorIlEELb0EEENSC_ISE_EELb0EEEENKUllE_clElEUlT_E_RZNS3_6filterIS8_SL_EENSB_INSK_10value_typeENSC_ISN_EEXsr3std7is_sameISN_cEE5valueEEERKSK_OT0_EUlOSK_E_EEDaSR_ST_OT1_EUlmmmE_EEvmmSR_jEUlmE_EEvRNS_9schedulerINS_15WorkStealingJobEEEmmRSK_mbEUlvE0_E7executeEv, symObjAddr: 0x675A4, symBinAddr: 0x10006A374, symSize: 0x24 }
  - { offset: 0x287F97, size: 0x8, addend: 0x0, symName: __ZN6parlay19fork_join_scheduler5pardoIZNS0_7parfor_IZNS_8sequenceIbNS_9allocatorIbEELb0EE15initialize_fillEmRKbEUlmE_EEvRNS_9schedulerINS_15WorkStealingJobEEEmmRT_mbEUlvE_ZNS2_IS9_EEvSD_mmSF_mbEUlvE0_EEvSD_OSE_OT0_b, symObjAddr: 0x6F2BC, symBinAddr: 0x10007208C, symSize: 0x760 }
  - { offset: 0x289704, size: 0x8, addend: 0x0, symName: __ZN6parlay7JobImplIZNS_19fork_join_scheduler7parfor_IZNS_7flattenIlEEDaONS_8sequenceINS5_IT_NS_9allocatorIS6_EEXsr3std7is_sameIS6_cEE5valueEEENS7_IS9_EEXsr3std7is_sameIS9_cEE5valueEEEEUlmE0_EEvRNS_9schedulerINS_15WorkStealingJobEEEmmRS6_mbEUlvE0_ED1Ev, symObjAddr: 0x687E8, symBinAddr: 0x10006B5B8, symSize: 0x4 }
  - { offset: 0x28972F, size: 0x8, addend: 0x0, symName: __ZN6parlay7JobImplIZNS_19fork_join_scheduler7parfor_IZNS_7flattenIlEEDaONS_8sequenceINS5_IT_NS_9allocatorIS6_EEXsr3std7is_sameIS6_cEE5valueEEENS7_IS9_EEXsr3std7is_sameIS9_cEE5valueEEEEUlmE0_EEvRNS_9schedulerINS_15WorkStealingJobEEEmmRS6_mbEUlvE0_ED0Ev, symObjAddr: 0x687EC, symBinAddr: 0x10006B5BC, symSize: 0x4 }
  - { offset: 0x28975A, size: 0x8, addend: 0x0, symName: __ZN6parlay7JobImplIZNS_19fork_join_scheduler7parfor_IZNS_7flattenIlEEDaONS_8sequenceINS5_IT_NS_9allocatorIS6_EEXsr3std7is_sameIS6_cEE5valueEEENS7_IS9_EEXsr3std7is_sameIS9_cEE5valueEEEEUlmE0_EEvRNS_9schedulerINS_15WorkStealingJobEEEmmRS6_mbEUlvE0_E7executeEv, symObjAddr: 0x687F0, symBinAddr: 0x10006B5C0, symSize: 0x24 }
  - { offset: 0x2899CC, size: 0x8, addend: 0x0, symName: __ZN6parlay7JobImplIZNS_19fork_join_scheduler7parfor_IZNS_24uninitialized_relocate_nIPllS4_EENSt3__14pairIT_T1_EES7_T0_S8_EUlmE_EEvRNS_9schedulerINS_15WorkStealingJobEEEmmRS7_mbEUlvE0_ED1Ev, symObjAddr: 0x68E9C, symBinAddr: 0x10006BC6C, symSize: 0x4 }
  - { offset: 0x2899F7, size: 0x8, addend: 0x0, symName: __ZN6parlay7JobImplIZNS_19fork_join_scheduler7parfor_IZNS_24uninitialized_relocate_nIPllS4_EENSt3__14pairIT_T1_EES7_T0_S8_EUlmE_EEvRNS_9schedulerINS_15WorkStealingJobEEEmmRS7_mbEUlvE0_ED0Ev, symObjAddr: 0x68EA0, symBinAddr: 0x10006BC70, symSize: 0x4 }
  - { offset: 0x289A22, size: 0x8, addend: 0x0, symName: __ZN6parlay7JobImplIZNS_19fork_join_scheduler7parfor_IZNS_24uninitialized_relocate_nIPllS4_EENSt3__14pairIT_T1_EES7_T0_S8_EUlmE_EEvRNS_9schedulerINS_15WorkStealingJobEEEmmRS7_mbEUlvE0_E7executeEv, symObjAddr: 0x68EA4, symBinAddr: 0x10006BC74, symSize: 0x108 }
  - { offset: 0x289D74, size: 0x8, addend: 0x0, symName: __ZN6parlay7JobImplIZNS_19fork_join_scheduler7parfor_IZNS_8sequenceImNS_9allocatorImEELb0EEC1IZNS_7flattenIlEEDaONS3_INS3_IT_NS4_ISA_EEXsr3std7is_sameISA_cEE5valueEEENS4_ISC_EEXsr3std7is_sameISC_cEE5valueEEEEUlmE_EEmOSA_NS6_18_from_function_tagEmEUlmE_EEvRNS_9schedulerINS_15WorkStealingJobEEEmmRSA_mbEUlvE0_ED1Ev, symObjAddr: 0x697DC, symBinAddr: 0x10006C5AC, symSize: 0x4 }
  - { offset: 0x289D9F, size: 0x8, addend: 0x0, symName: __ZN6parlay7JobImplIZNS_19fork_join_scheduler7parfor_IZNS_8sequenceImNS_9allocatorImEELb0EEC1IZNS_7flattenIlEEDaONS3_INS3_IT_NS4_ISA_EEXsr3std7is_sameISA_cEE5valueEEENS4_ISC_EEXsr3std7is_sameISC_cEE5valueEEEEUlmE_EEmOSA_NS6_18_from_function_tagEmEUlmE_EEvRNS_9schedulerINS_15WorkStealingJobEEEmmRSA_mbEUlvE0_ED0Ev, symObjAddr: 0x697E0, symBinAddr: 0x10006C5B0, symSize: 0x4 }
  - { offset: 0x289DCA, size: 0x8, addend: 0x0, symName: __ZN6parlay7JobImplIZNS_19fork_join_scheduler7parfor_IZNS_8sequenceImNS_9allocatorImEELb0EEC1IZNS_7flattenIlEEDaONS3_INS3_IT_NS4_ISA_EEXsr3std7is_sameISA_cEE5valueEEENS4_ISC_EEXsr3std7is_sameISC_cEE5valueEEEEUlmE_EEmOSA_NS6_18_from_function_tagEmEUlmE_EEvRNS_9schedulerINS_15WorkStealingJobEEEmmRSA_mbEUlvE0_E7executeEv, symObjAddr: 0x697E4, symBinAddr: 0x10006C5B4, symSize: 0x1D0 }
  - { offset: 0x28A24C, size: 0x8, addend: 0x0, symName: __ZN6parlay7JobImplIZNS_19fork_join_scheduler7parfor_IZNS_8sequenceINS3_IlNS_9allocatorIlEELb0EEENS4_IS6_EELb0EEC1IZNS_8internal22collect_reduce_sparse_INS_26uninitialized_relocate_tagENS_5sliceIPlSE_EENS_24remove_duplicates_helperIlNS_4hashIlvEENSt3__18equal_toIvEEEEEEDaT0_RKT1_EUlmE0_EEmOT_NS8_18_from_function_tagEmEUlmE_EEvRNS_9schedulerINS_15WorkStealingJobEEEmmRST_mbEUlvE0_ED1Ev, symObjAddr: 0x6A140, symBinAddr: 0x10006CF10, symSize: 0x4 }
  - { offset: 0x28A277, size: 0x8, addend: 0x0, symName: __ZN6parlay7JobImplIZNS_19fork_join_scheduler7parfor_IZNS_8sequenceINS3_IlNS_9allocatorIlEELb0EEENS4_IS6_EELb0EEC1IZNS_8internal22collect_reduce_sparse_INS_26uninitialized_relocate_tagENS_5sliceIPlSE_EENS_24remove_duplicates_helperIlNS_4hashIlvEENSt3__18equal_toIvEEEEEEDaT0_RKT1_EUlmE0_EEmOT_NS8_18_from_function_tagEmEUlmE_EEvRNS_9schedulerINS_15WorkStealingJobEEEmmRST_mbEUlvE0_ED0Ev, symObjAddr: 0x6A144, symBinAddr: 0x10006CF14, symSize: 0x4 }
  - { offset: 0x28A2A2, size: 0x8, addend: 0x0, symName: __ZN6parlay7JobImplIZNS_19fork_join_scheduler7parfor_IZNS_8sequenceINS3_IlNS_9allocatorIlEELb0EEENS4_IS6_EELb0EEC1IZNS_8internal22collect_reduce_sparse_INS_26uninitialized_relocate_tagENS_5sliceIPlSE_EENS_24remove_duplicates_helperIlNS_4hashIlvEENSt3__18equal_toIvEEEEEEDaT0_RKT1_EUlmE0_EEmOT_NS8_18_from_function_tagEmEUlmE_EEvRNS_9schedulerINS_15WorkStealingJobEEEmmRST_mbEUlvE0_E7executeEv, symObjAddr: 0x6A148, symBinAddr: 0x10006CF18, symSize: 0x24 }
  - { offset: 0x28A9D4, size: 0x8, addend: 0x0, symName: __ZN6parlay7JobImplIZNS_19fork_join_scheduler7parfor_IZNS_8internal11count_sort_INS_26uninitialized_relocate_tagEmPlS6_NS_16delayed_sequenceImmZNS3_22collect_reduce_sparse_IS5_NS_5sliceIS6_S6_EENS_24remove_duplicates_helperIlNS_4hashIlvEENSt3__18equal_toIvEEEEEEDaT0_RKT1_EUlmE_E8iteratorEEENSE_4pairINS_8sequenceImNS_9allocatorImEELb0EEEbEENS9_ISK_SK_EENS9_IT2_SX_EENS9_IT3_SZ_EEmfbEUlmE2_EEvRNS_9schedulerINS_15WorkStealingJobEEEmmRT_mbEUlvE0_ED1Ev, symObjAddr: 0x6ABDC, symBinAddr: 0x10006D9AC, symSize: 0x4 }
  - { offset: 0x28A9FF, size: 0x8, addend: 0x0, symName: __ZN6parlay7JobImplIZNS_19fork_join_scheduler7parfor_IZNS_8internal11count_sort_INS_26uninitialized_relocate_tagEmPlS6_NS_16delayed_sequenceImmZNS3_22collect_reduce_sparse_IS5_NS_5sliceIS6_S6_EENS_24remove_duplicates_helperIlNS_4hashIlvEENSt3__18equal_toIvEEEEEEDaT0_RKT1_EUlmE_E8iteratorEEENSE_4pairINS_8sequenceImNS_9allocatorImEELb0EEEbEENS9_ISK_SK_EENS9_IT2_SX_EENS9_IT3_SZ_EEmfbEUlmE2_EEvRNS_9schedulerINS_15WorkStealingJobEEEmmRT_mbEUlvE0_ED0Ev, symObjAddr: 0x6ABE0, symBinAddr: 0x10006D9B0, symSize: 0x4 }
  - { offset: 0x28AA2A, size: 0x8, addend: 0x0, symName: __ZN6parlay7JobImplIZNS_19fork_join_scheduler7parfor_IZNS_8internal11count_sort_INS_26uninitialized_relocate_tagEmPlS6_NS_16delayed_sequenceImmZNS3_22collect_reduce_sparse_IS5_NS_5sliceIS6_S6_EENS_24remove_duplicates_helperIlNS_4hashIlvEENSt3__18equal_toIvEEEEEEDaT0_RKT1_EUlmE_E8iteratorEEENSE_4pairINS_8sequenceImNS_9allocatorImEELb0EEEbEENS9_ISK_SK_EENS9_IT2_SX_EENS9_IT3_SZ_EEmfbEUlmE2_EEvRNS_9schedulerINS_15WorkStealingJobEEEmmRT_mbEUlvE0_E7executeEv, symObjAddr: 0x6ABE4, symBinAddr: 0x10006D9B4, symSize: 0x24 }
  - { offset: 0x28AD70, size: 0x8, addend: 0x0, symName: __ZN6parlay7JobImplIZNS_19fork_join_scheduler7parfor_IZNS_8internal11count_sort_INS_26uninitialized_relocate_tagEmPlS6_NS_16delayed_sequenceImmZNS3_22collect_reduce_sparse_IS5_NS_5sliceIS6_S6_EENS_24remove_duplicates_helperIlNS_4hashIlvEENSt3__18equal_toIvEEEEEEDaT0_RKT1_EUlmE_E8iteratorEEENSE_4pairINS_8sequenceImNS_9allocatorImEELb0EEEbEENS9_ISK_SK_EENS9_IT2_SX_EENS9_IT3_SZ_EEmfbEUlmE1_EEvRNS_9schedulerINS_15WorkStealingJobEEEmmRT_mbEUlvE0_ED1Ev, symObjAddr: 0x6B200, symBinAddr: 0x10006DFD0, symSize: 0x4 }
  - { offset: 0x28AD9B, size: 0x8, addend: 0x0, symName: __ZN6parlay7JobImplIZNS_19fork_join_scheduler7parfor_IZNS_8internal11count_sort_INS_26uninitialized_relocate_tagEmPlS6_NS_16delayed_sequenceImmZNS3_22collect_reduce_sparse_IS5_NS_5sliceIS6_S6_EENS_24remove_duplicates_helperIlNS_4hashIlvEENSt3__18equal_toIvEEEEEEDaT0_RKT1_EUlmE_E8iteratorEEENSE_4pairINS_8sequenceImNS_9allocatorImEELb0EEEbEENS9_ISK_SK_EENS9_IT2_SX_EENS9_IT3_SZ_EEmfbEUlmE1_EEvRNS_9schedulerINS_15WorkStealingJobEEEmmRT_mbEUlvE0_ED0Ev, symObjAddr: 0x6B204, symBinAddr: 0x10006DFD4, symSize: 0x4 }
  - { offset: 0x28ADC6, size: 0x8, addend: 0x0, symName: __ZN6parlay7JobImplIZNS_19fork_join_scheduler7parfor_IZNS_8internal11count_sort_INS_26uninitialized_relocate_tagEmPlS6_NS_16delayed_sequenceImmZNS3_22collect_reduce_sparse_IS5_NS_5sliceIS6_S6_EENS_24remove_duplicates_helperIlNS_4hashIlvEENSt3__18equal_toIvEEEEEEDaT0_RKT1_EUlmE_E8iteratorEEENSE_4pairINS_8sequenceImNS_9allocatorImEELb0EEEbEENS9_ISK_SK_EENS9_IT2_SX_EENS9_IT3_SZ_EEmfbEUlmE1_EEvRNS_9schedulerINS_15WorkStealingJobEEEmmRT_mbEUlvE0_E7executeEv, symObjAddr: 0x6B208, symBinAddr: 0x10006DFD8, symSize: 0x24 }
  - { offset: 0x28B10C, size: 0x8, addend: 0x0, symName: __ZN6parlay7JobImplIZNS_19fork_join_scheduler7parfor_IZNS_8internal11count_sort_INS_26uninitialized_relocate_tagEmPlS6_NS_16delayed_sequenceImmZNS3_22collect_reduce_sparse_IS5_NS_5sliceIS6_S6_EENS_24remove_duplicates_helperIlNS_4hashIlvEENSt3__18equal_toIvEEEEEEDaT0_RKT1_EUlmE_E8iteratorEEENSE_4pairINS_8sequenceImNS_9allocatorImEELb0EEEbEENS9_ISK_SK_EENS9_IT2_SX_EENS9_IT3_SZ_EEmfbEUlmE0_EEvRNS_9schedulerINS_15WorkStealingJobEEEmmRT_mbEUlvE0_ED1Ev, symObjAddr: 0x6B868, symBinAddr: 0x10006E638, symSize: 0x4 }
  - { offset: 0x28B137, size: 0x8, addend: 0x0, symName: __ZN6parlay7JobImplIZNS_19fork_join_scheduler7parfor_IZNS_8internal11count_sort_INS_26uninitialized_relocate_tagEmPlS6_NS_16delayed_sequenceImmZNS3_22collect_reduce_sparse_IS5_NS_5sliceIS6_S6_EENS_24remove_duplicates_helperIlNS_4hashIlvEENSt3__18equal_toIvEEEEEEDaT0_RKT1_EUlmE_E8iteratorEEENSE_4pairINS_8sequenceImNS_9allocatorImEELb0EEEbEENS9_ISK_SK_EENS9_IT2_SX_EENS9_IT3_SZ_EEmfbEUlmE0_EEvRNS_9schedulerINS_15WorkStealingJobEEEmmRT_mbEUlvE0_ED0Ev, symObjAddr: 0x6B86C, symBinAddr: 0x10006E63C, symSize: 0x4 }
  - { offset: 0x28B162, size: 0x8, addend: 0x0, symName: __ZN6parlay7JobImplIZNS_19fork_join_scheduler7parfor_IZNS_8internal11count_sort_INS_26uninitialized_relocate_tagEmPlS6_NS_16delayed_sequenceImmZNS3_22collect_reduce_sparse_IS5_NS_5sliceIS6_S6_EENS_24remove_duplicates_helperIlNS_4hashIlvEENSt3__18equal_toIvEEEEEEDaT0_RKT1_EUlmE_E8iteratorEEENSE_4pairINS_8sequenceImNS_9allocatorImEELb0EEEbEENS9_ISK_SK_EENS9_IT2_SX_EENS9_IT3_SZ_EEmfbEUlmE0_EEvRNS_9schedulerINS_15WorkStealingJobEEEmmRT_mbEUlvE0_E7executeEv, symObjAddr: 0x6B870, symBinAddr: 0x10006E640, symSize: 0x24 }
  - { offset: 0x28B4A8, size: 0x8, addend: 0x0, symName: __ZN6parlay7JobImplIZNS_19fork_join_scheduler7parfor_IZNS_8internal11count_sort_INS_26uninitialized_relocate_tagEmPlS6_NS_16delayed_sequenceImmZNS3_22collect_reduce_sparse_IS5_NS_5sliceIS6_S6_EENS_24remove_duplicates_helperIlNS_4hashIlvEENSt3__18equal_toIvEEEEEEDaT0_RKT1_EUlmE_E8iteratorEEENSE_4pairINS_8sequenceImNS_9allocatorImEELb0EEEbEENS9_ISK_SK_EENS9_IT2_SX_EENS9_IT3_SZ_EEmfbEUlmE_EEvRNS_9schedulerINS_15WorkStealingJobEEEmmRT_mbEUlvE0_ED1Ev, symObjAddr: 0x6C0B8, symBinAddr: 0x10006EE88, symSize: 0x4 }
  - { offset: 0x28B4D3, size: 0x8, addend: 0x0, symName: __ZN6parlay7JobImplIZNS_19fork_join_scheduler7parfor_IZNS_8internal11count_sort_INS_26uninitialized_relocate_tagEmPlS6_NS_16delayed_sequenceImmZNS3_22collect_reduce_sparse_IS5_NS_5sliceIS6_S6_EENS_24remove_duplicates_helperIlNS_4hashIlvEENSt3__18equal_toIvEEEEEEDaT0_RKT1_EUlmE_E8iteratorEEENSE_4pairINS_8sequenceImNS_9allocatorImEELb0EEEbEENS9_ISK_SK_EENS9_IT2_SX_EENS9_IT3_SZ_EEmfbEUlmE_EEvRNS_9schedulerINS_15WorkStealingJobEEEmmRT_mbEUlvE0_ED0Ev, symObjAddr: 0x6C0BC, symBinAddr: 0x10006EE8C, symSize: 0x4 }
  - { offset: 0x28B4FE, size: 0x8, addend: 0x0, symName: __ZN6parlay7JobImplIZNS_19fork_join_scheduler7parfor_IZNS_8internal11count_sort_INS_26uninitialized_relocate_tagEmPlS6_NS_16delayed_sequenceImmZNS3_22collect_reduce_sparse_IS5_NS_5sliceIS6_S6_EENS_24remove_duplicates_helperIlNS_4hashIlvEENSt3__18equal_toIvEEEEEEDaT0_RKT1_EUlmE_E8iteratorEEENSE_4pairINS_8sequenceImNS_9allocatorImEELb0EEEbEENS9_ISK_SK_EENS9_IT2_SX_EENS9_IT3_SZ_EEmfbEUlmE_EEvRNS_9schedulerINS_15WorkStealingJobEEEmmRT_mbEUlvE0_E7executeEv, symObjAddr: 0x6C0C0, symBinAddr: 0x10006EE90, symSize: 0x24 }
  - { offset: 0x28BA78, size: 0x8, addend: 0x0, symName: __ZN6parlay7JobImplIZNS_19fork_join_scheduler7parfor_IZNS_8internal11count_sort_INS_26uninitialized_relocate_tagEjPlS6_NS_16delayed_sequenceImmZNS3_22collect_reduce_sparse_IS5_NS_5sliceIS6_S6_EENS_24remove_duplicates_helperIlNS_4hashIlvEENSt3__18equal_toIvEEEEEEDaT0_RKT1_EUlmE_E8iteratorEEENSE_4pairINS_8sequenceImNS_9allocatorImEELb0EEEbEENS9_ISK_SK_EENS9_IT2_SX_EENS9_IT3_SZ_EEmfbEUlmE2_EEvRNS_9schedulerINS_15WorkStealingJobEEEmmRT_mbEUlvE0_ED1Ev, symObjAddr: 0x6C874, symBinAddr: 0x10006F644, symSize: 0x4 }
  - { offset: 0x28BAA3, size: 0x8, addend: 0x0, symName: __ZN6parlay7JobImplIZNS_19fork_join_scheduler7parfor_IZNS_8internal11count_sort_INS_26uninitialized_relocate_tagEjPlS6_NS_16delayed_sequenceImmZNS3_22collect_reduce_sparse_IS5_NS_5sliceIS6_S6_EENS_24remove_duplicates_helperIlNS_4hashIlvEENSt3__18equal_toIvEEEEEEDaT0_RKT1_EUlmE_E8iteratorEEENSE_4pairINS_8sequenceImNS_9allocatorImEELb0EEEbEENS9_ISK_SK_EENS9_IT2_SX_EENS9_IT3_SZ_EEmfbEUlmE2_EEvRNS_9schedulerINS_15WorkStealingJobEEEmmRT_mbEUlvE0_ED0Ev, symObjAddr: 0x6C878, symBinAddr: 0x10006F648, symSize: 0x4 }
  - { offset: 0x28BACE, size: 0x8, addend: 0x0, symName: __ZN6parlay7JobImplIZNS_19fork_join_scheduler7parfor_IZNS_8internal11count_sort_INS_26uninitialized_relocate_tagEjPlS6_NS_16delayed_sequenceImmZNS3_22collect_reduce_sparse_IS5_NS_5sliceIS6_S6_EENS_24remove_duplicates_helperIlNS_4hashIlvEENSt3__18equal_toIvEEEEEEDaT0_RKT1_EUlmE_E8iteratorEEENSE_4pairINS_8sequenceImNS_9allocatorImEELb0EEEbEENS9_ISK_SK_EENS9_IT2_SX_EENS9_IT3_SZ_EEmfbEUlmE2_EEvRNS_9schedulerINS_15WorkStealingJobEEEmmRT_mbEUlvE0_E7executeEv, symObjAddr: 0x6C87C, symBinAddr: 0x10006F64C, symSize: 0x24 }
  - { offset: 0x28BE14, size: 0x8, addend: 0x0, symName: __ZN6parlay7JobImplIZNS_19fork_join_scheduler7parfor_IZNS_8internal11count_sort_INS_26uninitialized_relocate_tagEjPlS6_NS_16delayed_sequenceImmZNS3_22collect_reduce_sparse_IS5_NS_5sliceIS6_S6_EENS_24remove_duplicates_helperIlNS_4hashIlvEENSt3__18equal_toIvEEEEEEDaT0_RKT1_EUlmE_E8iteratorEEENSE_4pairINS_8sequenceImNS_9allocatorImEELb0EEEbEENS9_ISK_SK_EENS9_IT2_SX_EENS9_IT3_SZ_EEmfbEUlmE1_EEvRNS_9schedulerINS_15WorkStealingJobEEEmmRT_mbEUlvE0_ED1Ev, symObjAddr: 0x6CE98, symBinAddr: 0x10006FC68, symSize: 0x4 }
  - { offset: 0x28BE3F, size: 0x8, addend: 0x0, symName: __ZN6parlay7JobImplIZNS_19fork_join_scheduler7parfor_IZNS_8internal11count_sort_INS_26uninitialized_relocate_tagEjPlS6_NS_16delayed_sequenceImmZNS3_22collect_reduce_sparse_IS5_NS_5sliceIS6_S6_EENS_24remove_duplicates_helperIlNS_4hashIlvEENSt3__18equal_toIvEEEEEEDaT0_RKT1_EUlmE_E8iteratorEEENSE_4pairINS_8sequenceImNS_9allocatorImEELb0EEEbEENS9_ISK_SK_EENS9_IT2_SX_EENS9_IT3_SZ_EEmfbEUlmE1_EEvRNS_9schedulerINS_15WorkStealingJobEEEmmRT_mbEUlvE0_ED0Ev, symObjAddr: 0x6CE9C, symBinAddr: 0x10006FC6C, symSize: 0x4 }
  - { offset: 0x28BE6A, size: 0x8, addend: 0x0, symName: __ZN6parlay7JobImplIZNS_19fork_join_scheduler7parfor_IZNS_8internal11count_sort_INS_26uninitialized_relocate_tagEjPlS6_NS_16delayed_sequenceImmZNS3_22collect_reduce_sparse_IS5_NS_5sliceIS6_S6_EENS_24remove_duplicates_helperIlNS_4hashIlvEENSt3__18equal_toIvEEEEEEDaT0_RKT1_EUlmE_E8iteratorEEENSE_4pairINS_8sequenceImNS_9allocatorImEELb0EEEbEENS9_ISK_SK_EENS9_IT2_SX_EENS9_IT3_SZ_EEmfbEUlmE1_EEvRNS_9schedulerINS_15WorkStealingJobEEEmmRT_mbEUlvE0_E7executeEv, symObjAddr: 0x6CEA0, symBinAddr: 0x10006FC70, symSize: 0x24 }
  - { offset: 0x28C1B0, size: 0x8, addend: 0x0, symName: __ZN6parlay7JobImplIZNS_19fork_join_scheduler7parfor_IZNS_8internal11count_sort_INS_26uninitialized_relocate_tagEjPlS6_NS_16delayed_sequenceImmZNS3_22collect_reduce_sparse_IS5_NS_5sliceIS6_S6_EENS_24remove_duplicates_helperIlNS_4hashIlvEENSt3__18equal_toIvEEEEEEDaT0_RKT1_EUlmE_E8iteratorEEENSE_4pairINS_8sequenceImNS_9allocatorImEELb0EEEbEENS9_ISK_SK_EENS9_IT2_SX_EENS9_IT3_SZ_EEmfbEUlmE0_EEvRNS_9schedulerINS_15WorkStealingJobEEEmmRT_mbEUlvE0_ED1Ev, symObjAddr: 0x6D530, symBinAddr: 0x100070300, symSize: 0x4 }
  - { offset: 0x28C1DB, size: 0x8, addend: 0x0, symName: __ZN6parlay7JobImplIZNS_19fork_join_scheduler7parfor_IZNS_8internal11count_sort_INS_26uninitialized_relocate_tagEjPlS6_NS_16delayed_sequenceImmZNS3_22collect_reduce_sparse_IS5_NS_5sliceIS6_S6_EENS_24remove_duplicates_helperIlNS_4hashIlvEENSt3__18equal_toIvEEEEEEDaT0_RKT1_EUlmE_E8iteratorEEENSE_4pairINS_8sequenceImNS_9allocatorImEELb0EEEbEENS9_ISK_SK_EENS9_IT2_SX_EENS9_IT3_SZ_EEmfbEUlmE0_EEvRNS_9schedulerINS_15WorkStealingJobEEEmmRT_mbEUlvE0_ED0Ev, symObjAddr: 0x6D534, symBinAddr: 0x100070304, symSize: 0x4 }
  - { offset: 0x28C206, size: 0x8, addend: 0x0, symName: __ZN6parlay7JobImplIZNS_19fork_join_scheduler7parfor_IZNS_8internal11count_sort_INS_26uninitialized_relocate_tagEjPlS6_NS_16delayed_sequenceImmZNS3_22collect_reduce_sparse_IS5_NS_5sliceIS6_S6_EENS_24remove_duplicates_helperIlNS_4hashIlvEENSt3__18equal_toIvEEEEEEDaT0_RKT1_EUlmE_E8iteratorEEENSE_4pairINS_8sequenceImNS_9allocatorImEELb0EEEbEENS9_ISK_SK_EENS9_IT2_SX_EENS9_IT3_SZ_EEmfbEUlmE0_EEvRNS_9schedulerINS_15WorkStealingJobEEEmmRT_mbEUlvE0_E7executeEv, symObjAddr: 0x6D538, symBinAddr: 0x100070308, symSize: 0x24 }
  - { offset: 0x28C27E, size: 0x8, addend: 0x0, symName: __ZN6parlay8sequenceIjNS_9allocatorIjEELb0EEC2Em, symObjAddr: 0x6E4CC, symBinAddr: 0x10007129C, symSize: 0x338 }
  - { offset: 0x28CC1F, size: 0x8, addend: 0x0, symName: __ZN6parlay7JobImplIZNS_19fork_join_scheduler7parfor_IZNS_8internal11count_sort_INS_26uninitialized_relocate_tagEjPlS6_NS_16delayed_sequenceImmZNS3_22collect_reduce_sparse_IS5_NS_5sliceIS6_S6_EENS_24remove_duplicates_helperIlNS_4hashIlvEENSt3__18equal_toIvEEEEEEDaT0_RKT1_EUlmE_E8iteratorEEENSE_4pairINS_8sequenceImNS_9allocatorImEELb0EEEbEENS9_ISK_SK_EENS9_IT2_SX_EENS9_IT3_SZ_EEmfbEUlmE_EEvRNS_9schedulerINS_15WorkStealingJobEEEmmRT_mbEUlvE0_ED1Ev, symObjAddr: 0x6DDB8, symBinAddr: 0x100070B88, symSize: 0x4 }
  - { offset: 0x28CC4A, size: 0x8, addend: 0x0, symName: __ZN6parlay7JobImplIZNS_19fork_join_scheduler7parfor_IZNS_8internal11count_sort_INS_26uninitialized_relocate_tagEjPlS6_NS_16delayed_sequenceImmZNS3_22collect_reduce_sparse_IS5_NS_5sliceIS6_S6_EENS_24remove_duplicates_helperIlNS_4hashIlvEENSt3__18equal_toIvEEEEEEDaT0_RKT1_EUlmE_E8iteratorEEENSE_4pairINS_8sequenceImNS_9allocatorImEELb0EEEbEENS9_ISK_SK_EENS9_IT2_SX_EENS9_IT3_SZ_EEmfbEUlmE_EEvRNS_9schedulerINS_15WorkStealingJobEEEmmRT_mbEUlvE0_ED0Ev, symObjAddr: 0x6DDBC, symBinAddr: 0x100070B8C, symSize: 0x4 }
  - { offset: 0x28CC75, size: 0x8, addend: 0x0, symName: __ZN6parlay7JobImplIZNS_19fork_join_scheduler7parfor_IZNS_8internal11count_sort_INS_26uninitialized_relocate_tagEjPlS6_NS_16delayed_sequenceImmZNS3_22collect_reduce_sparse_IS5_NS_5sliceIS6_S6_EENS_24remove_duplicates_helperIlNS_4hashIlvEENSt3__18equal_toIvEEEEEEDaT0_RKT1_EUlmE_E8iteratorEEENSE_4pairINS_8sequenceImNS_9allocatorImEELb0EEEbEENS9_ISK_SK_EENS9_IT2_SX_EENS9_IT3_SZ_EEmfbEUlmE_EEvRNS_9schedulerINS_15WorkStealingJobEEEmmRT_mbEUlvE0_E7executeEv, symObjAddr: 0x6DDC0, symBinAddr: 0x100070B90, symSize: 0x24 }
  - { offset: 0x28CE8D, size: 0x8, addend: 0x0, symName: __ZN6parlay19fork_join_scheduler5pardoIZNS0_7parfor_IZNS_8sequenceIjNS_9allocatorIjEELb0EE18initialize_defaultEmEUlmE_EEvRNS_9schedulerINS_15WorkStealingJobEEEmmRT_mbEUlvE_ZNS2_IS7_EEvSB_mmSD_mbEUlvE0_EEvSB_OSC_OT0_b, symObjAddr: 0x6DDE4, symBinAddr: 0x100070BB4, symSize: 0x618 }
  - { offset: 0x28E21C, size: 0x8, addend: 0x0, symName: __ZN6parlay7JobImplIZNS_19fork_join_scheduler7parfor_IZNS_8sequenceIjNS_9allocatorIjEELb0EE18initialize_defaultEmEUlmE_EEvRNS_9schedulerINS_15WorkStealingJobEEEmmRT_mbEUlvE0_ED1Ev, symObjAddr: 0x6E3FC, symBinAddr: 0x1000711CC, symSize: 0x4 }
  - { offset: 0x28E247, size: 0x8, addend: 0x0, symName: __ZN6parlay7JobImplIZNS_19fork_join_scheduler7parfor_IZNS_8sequenceIjNS_9allocatorIjEELb0EE18initialize_defaultEmEUlmE_EEvRNS_9schedulerINS_15WorkStealingJobEEEmmRT_mbEUlvE0_ED0Ev, symObjAddr: 0x6E400, symBinAddr: 0x1000711D0, symSize: 0x4 }
  - { offset: 0x28E272, size: 0x8, addend: 0x0, symName: __ZN6parlay7JobImplIZNS_19fork_join_scheduler7parfor_IZNS_8sequenceIjNS_9allocatorIjEELb0EE18initialize_defaultEmEUlmE_EEvRNS_9schedulerINS_15WorkStealingJobEEEmmRT_mbEUlvE0_E7executeEv, symObjAddr: 0x6E404, symBinAddr: 0x1000711D4, symSize: 0xC8 }
  - { offset: 0x28E85C, size: 0x8, addend: 0x0, symName: __ZN6parlay19fork_join_scheduler5pardoIZNS0_7parfor_IZNS_8sequenceINSt3__14pairIliEENS_9allocatorIS6_EELb0EE15initialize_fillEmRKS6_EUlmE_EEvRNS_9schedulerINS_15WorkStealingJobEEEmmRT_mbEUlvE_ZNS2_ISC_EEvSG_mmSI_mbEUlvE0_EEvSG_OSH_OT0_b, symObjAddr: 0x6EBB8, symBinAddr: 0x100071988, symSize: 0x630 }
  - { offset: 0x28FCBF, size: 0x8, addend: 0x0, symName: __ZN6parlay7JobImplIZNS_19fork_join_scheduler7parfor_IZNS_8sequenceINSt3__14pairIliEENS_9allocatorIS6_EELb0EE15initialize_fillEmRKS6_EUlmE_EEvRNS_9schedulerINS_15WorkStealingJobEEEmmRT_mbEUlvE0_ED1Ev, symObjAddr: 0x6F1E8, symBinAddr: 0x100071FB8, symSize: 0x4 }
  - { offset: 0x28FCEA, size: 0x8, addend: 0x0, symName: __ZN6parlay7JobImplIZNS_19fork_join_scheduler7parfor_IZNS_8sequenceINSt3__14pairIliEENS_9allocatorIS6_EELb0EE15initialize_fillEmRKS6_EUlmE_EEvRNS_9schedulerINS_15WorkStealingJobEEEmmRT_mbEUlvE0_ED0Ev, symObjAddr: 0x6F1EC, symBinAddr: 0x100071FBC, symSize: 0x4 }
  - { offset: 0x28FD15, size: 0x8, addend: 0x0, symName: __ZN6parlay7JobImplIZNS_19fork_join_scheduler7parfor_IZNS_8sequenceINSt3__14pairIliEENS_9allocatorIS6_EELb0EE15initialize_fillEmRKS6_EUlmE_EEvRNS_9schedulerINS_15WorkStealingJobEEEmmRT_mbEUlvE0_E7executeEv, symObjAddr: 0x6F1F0, symBinAddr: 0x100071FC0, symSize: 0xCC }
  - { offset: 0x290035, size: 0x8, addend: 0x0, symName: __ZN6parlay7JobImplIZNS_19fork_join_scheduler7parfor_IZNS_8sequenceIbNS_9allocatorIbEELb0EE15initialize_fillEmRKbEUlmE_EEvRNS_9schedulerINS_15WorkStealingJobEEEmmRT_mbEUlvE0_ED1Ev, symObjAddr: 0x6FA1C, symBinAddr: 0x1000727EC, symSize: 0x4 }
  - { offset: 0x290060, size: 0x8, addend: 0x0, symName: __ZN6parlay7JobImplIZNS_19fork_join_scheduler7parfor_IZNS_8sequenceIbNS_9allocatorIbEELb0EE15initialize_fillEmRKbEUlmE_EEvRNS_9schedulerINS_15WorkStealingJobEEEmmRT_mbEUlvE0_ED0Ev, symObjAddr: 0x6FA20, symBinAddr: 0x1000727F0, symSize: 0x4 }
  - { offset: 0x29008B, size: 0x8, addend: 0x0, symName: __ZN6parlay7JobImplIZNS_19fork_join_scheduler7parfor_IZNS_8sequenceIbNS_9allocatorIbEELb0EE15initialize_fillEmRKbEUlmE_EEvRNS_9schedulerINS_15WorkStealingJobEEEmmRT_mbEUlvE0_E7executeEv, symObjAddr: 0x6FA24, symBinAddr: 0x1000727F4, symSize: 0x164 }
  - { offset: 0x290478, size: 0x8, addend: 0x0, symName: __ZN6parlay7JobImplIZNS_19fork_join_scheduler7parfor_IZNS_8sequenceIlNS_9allocatorIlEELb0EEC1IZNS_6appendIRS6_RKS6_EEDaOT_OT0_EUlmE_EEmSE_NS6_18_from_function_tagEmEUlmE_EEvRNS_9schedulerINS_15WorkStealingJobEEEmmRSD_mbEUlvE0_ED1Ev, symObjAddr: 0x70130, symBinAddr: 0x100072F00, symSize: 0x4 }
  - { offset: 0x2904A3, size: 0x8, addend: 0x0, symName: __ZN6parlay7JobImplIZNS_19fork_join_scheduler7parfor_IZNS_8sequenceIlNS_9allocatorIlEELb0EEC1IZNS_6appendIRS6_RKS6_EEDaOT_OT0_EUlmE_EEmSE_NS6_18_from_function_tagEmEUlmE_EEvRNS_9schedulerINS_15WorkStealingJobEEEmmRSD_mbEUlvE0_ED0Ev, symObjAddr: 0x70134, symBinAddr: 0x100072F04, symSize: 0x4 }
  - { offset: 0x2904CE, size: 0x8, addend: 0x0, symName: __ZN6parlay7JobImplIZNS_19fork_join_scheduler7parfor_IZNS_8sequenceIlNS_9allocatorIlEELb0EEC1IZNS_6appendIRS6_RKS6_EEDaOT_OT0_EUlmE_EEmSE_NS6_18_from_function_tagEmEUlmE_EEvRNS_9schedulerINS_15WorkStealingJobEEEmmRSD_mbEUlvE0_E7executeEv, symObjAddr: 0x70138, symBinAddr: 0x100072F08, symSize: 0x24 }
  - { offset: 0x2906EE, size: 0x8, addend: 0x0, symName: __ZN6parlay19fork_join_scheduler5pardoIZNS0_7parfor_IZNS_8sequenceIlNS_9allocatorIlEELb0EEC1IZNS_8internal3mapINS_5sliceIPNSt3__14pairIllEESE_EEZZNS_14group_by_indexImRNS3_ISD_NS4_ISD_EELb0EEEEEDaOT0_T_ENKUlmE1_clEmEUlSN_E_EESK_OSN_SM_mEUlmE_EEmSQ_NS6_18_from_function_tagEmEUlmE_EEvRNS_9schedulerINS_15WorkStealingJobEEEmmRSN_mbEUlvE_ZNS2_IST_EEvSX_mmSY_mbEUlvE0_EEvSX_SQ_SM_b, symObjAddr: 0x70C04, symBinAddr: 0x1000739D4, symSize: 0x760 }
  - { offset: 0x291C63, size: 0x8, addend: 0x0, symName: __ZN6parlay7JobImplIZNS_19fork_join_scheduler7parfor_IZNS_14group_by_indexImRNS_8sequenceINSt3__14pairIllEENS_9allocatorIS7_EELb0EEEEEDaOT0_T_EUlmE1_EEvRNS_9schedulerINS_15WorkStealingJobEEEmmRSF_mbEUlvE0_ED1Ev, symObjAddr: 0x70BD8, symBinAddr: 0x1000739A8, symSize: 0x4 }
  - { offset: 0x291C8E, size: 0x8, addend: 0x0, symName: __ZN6parlay7JobImplIZNS_19fork_join_scheduler7parfor_IZNS_14group_by_indexImRNS_8sequenceINSt3__14pairIllEENS_9allocatorIS7_EELb0EEEEEDaOT0_T_EUlmE1_EEvRNS_9schedulerINS_15WorkStealingJobEEEmmRSF_mbEUlvE0_ED0Ev, symObjAddr: 0x70BDC, symBinAddr: 0x1000739AC, symSize: 0x4 }
  - { offset: 0x291CB9, size: 0x8, addend: 0x0, symName: __ZN6parlay7JobImplIZNS_19fork_join_scheduler7parfor_IZNS_14group_by_indexImRNS_8sequenceINSt3__14pairIllEENS_9allocatorIS7_EELb0EEEEEDaOT0_T_EUlmE1_EEvRNS_9schedulerINS_15WorkStealingJobEEEmmRSF_mbEUlvE0_E7executeEv, symObjAddr: 0x70BE0, symBinAddr: 0x1000739B0, symSize: 0x24 }
  - { offset: 0x291F2B, size: 0x8, addend: 0x0, symName: __ZN6parlay7JobImplIZNS_19fork_join_scheduler7parfor_IZNS_8sequenceIlNS_9allocatorIlEELb0EEC1IZNS_8internal3mapINS_5sliceIPNSt3__14pairIllEESE_EEZZNS_14group_by_indexImRNS3_ISD_NS4_ISD_EELb0EEEEEDaOT0_T_ENKUlmE1_clEmEUlSN_E_EESK_OSN_SM_mEUlmE_EEmSQ_NS6_18_from_function_tagEmEUlmE_EEvRNS_9schedulerINS_15WorkStealingJobEEEmmRSN_mbEUlvE0_ED1Ev, symObjAddr: 0x71364, symBinAddr: 0x100074134, symSize: 0x4 }
  - { offset: 0x291F56, size: 0x8, addend: 0x0, symName: __ZN6parlay7JobImplIZNS_19fork_join_scheduler7parfor_IZNS_8sequenceIlNS_9allocatorIlEELb0EEC1IZNS_8internal3mapINS_5sliceIPNSt3__14pairIllEESE_EEZZNS_14group_by_indexImRNS3_ISD_NS4_ISD_EELb0EEEEEDaOT0_T_ENKUlmE1_clEmEUlSN_E_EESK_OSN_SM_mEUlmE_EEmSQ_NS6_18_from_function_tagEmEUlmE_EEvRNS_9schedulerINS_15WorkStealingJobEEEmmRSN_mbEUlvE0_ED0Ev, symObjAddr: 0x71368, symBinAddr: 0x100074138, symSize: 0x4 }
  - { offset: 0x291F81, size: 0x8, addend: 0x0, symName: __ZN6parlay7JobImplIZNS_19fork_join_scheduler7parfor_IZNS_8sequenceIlNS_9allocatorIlEELb0EEC1IZNS_8internal3mapINS_5sliceIPNSt3__14pairIllEESE_EEZZNS_14group_by_indexImRNS3_ISD_NS4_ISD_EELb0EEEEEDaOT0_T_ENKUlmE1_clEmEUlSN_E_EESK_OSN_SM_mEUlmE_EEmSQ_NS6_18_from_function_tagEmEUlmE_EEvRNS_9schedulerINS_15WorkStealingJobEEEmmRSN_mbEUlvE0_E7executeEv, symObjAddr: 0x7136C, symBinAddr: 0x10007413C, symSize: 0x168 }
  - { offset: 0x292290, size: 0x8, addend: 0x0, symName: __ZN6parlay7JobImplIZNS_19fork_join_scheduler7parfor_IZNS_8sequenceINS3_IlNS_9allocatorIlEELb0EEENS4_IS6_EELb0EE18initialize_defaultEmEUlmE_EEvRNS_9schedulerINS_15WorkStealingJobEEEmmRT_mbEUlvE0_ED1Ev, symObjAddr: 0x71C28, symBinAddr: 0x1000749F8, symSize: 0x4 }
  - { offset: 0x2922BB, size: 0x8, addend: 0x0, symName: __ZN6parlay7JobImplIZNS_19fork_join_scheduler7parfor_IZNS_8sequenceINS3_IlNS_9allocatorIlEELb0EEENS4_IS6_EELb0EE18initialize_defaultEmEUlmE_EEvRNS_9schedulerINS_15WorkStealingJobEEEmmRT_mbEUlvE0_ED0Ev, symObjAddr: 0x71C2C, symBinAddr: 0x1000749FC, symSize: 0x4 }
  - { offset: 0x2922E6, size: 0x8, addend: 0x0, symName: __ZN6parlay7JobImplIZNS_19fork_join_scheduler7parfor_IZNS_8sequenceINS3_IlNS_9allocatorIlEELb0EEENS4_IS6_EELb0EE18initialize_defaultEmEUlmE_EEvRNS_9schedulerINS_15WorkStealingJobEEEmmRT_mbEUlvE0_E7executeEv, symObjAddr: 0x71C30, symBinAddr: 0x100074A00, symSize: 0xDC }
  - { offset: 0x2927D2, size: 0x8, addend: 0x0, symName: __ZN6parlay8internal22uninitialized_sequenceImNS_9allocatorImEEED1Ev, symObjAddr: 0x757C4, symBinAddr: 0x100078470, symSize: 0x30 }
  - { offset: 0x2927DD, size: 0x8, addend: 0x0, symName: __ZN6parlay8internal22uninitialized_sequenceImNS_9allocatorImEEED1Ev, symObjAddr: 0x757C4, symBinAddr: 0x100078470, symSize: 0x30 }
  - { offset: 0x292CDA, size: 0x8, addend: 0x0, symName: __ZN6parlay7JobImplIZNS_19fork_join_scheduler7parfor_IZNS_17sequence_internal13sequence_baseINS_8sequenceImNS_9allocatorImEELb0EEENS6_IS8_EELb0EE12storage_impl11destroy_allEvEUlmE_EEvRNS_9schedulerINS_15WorkStealingJobEEEmmRT_mbEUlvE0_ED1Ev, symObjAddr: 0x73138, symBinAddr: 0x100075F08, symSize: 0x4 }
  - { offset: 0x292D05, size: 0x8, addend: 0x0, symName: __ZN6parlay7JobImplIZNS_19fork_join_scheduler7parfor_IZNS_17sequence_internal13sequence_baseINS_8sequenceImNS_9allocatorImEELb0EEENS6_IS8_EELb0EE12storage_impl11destroy_allEvEUlmE_EEvRNS_9schedulerINS_15WorkStealingJobEEEmmRT_mbEUlvE0_ED0Ev, symObjAddr: 0x7313C, symBinAddr: 0x100075F0C, symSize: 0x4 }
  - { offset: 0x292D30, size: 0x8, addend: 0x0, symName: __ZN6parlay7JobImplIZNS_19fork_join_scheduler7parfor_IZNS_17sequence_internal13sequence_baseINS_8sequenceImNS_9allocatorImEELb0EEENS6_IS8_EELb0EE12storage_impl11destroy_allEvEUlmE_EEvRNS_9schedulerINS_15WorkStealingJobEEEmmRT_mbEUlvE0_E7executeEv, symObjAddr: 0x73140, symBinAddr: 0x100075F10, symSize: 0x24 }
  - { offset: 0x2930BC, size: 0x8, addend: 0x0, symName: __ZN6parlay7JobImplIZNS_19fork_join_scheduler7parfor_IZNS_13block_delayed10filter_mapINS_16delayed_sequenceImmZNS_14group_by_indexImRNS_8sequenceINSt3__14pairIllEENS_9allocatorISA_EELb0EEEEEDaOT0_T_EUlmE_EEZNS6_ImSE_EESF_SH_SI_EUlmE0_ZNS3_6filterISK_SL_EESF_RKSI_RKSG_EUlSI_E_EESF_SI_SQ_RKT1_EUlmE0_EEvRNS_9schedulerINS_15WorkStealingJobEEEmmRSI_mbEUlvE0_ED1Ev, symObjAddr: 0x73734, symBinAddr: 0x100076504, symSize: 0x4 }
  - { offset: 0x2930E7, size: 0x8, addend: 0x0, symName: __ZN6parlay7JobImplIZNS_19fork_join_scheduler7parfor_IZNS_13block_delayed10filter_mapINS_16delayed_sequenceImmZNS_14group_by_indexImRNS_8sequenceINSt3__14pairIllEENS_9allocatorISA_EELb0EEEEEDaOT0_T_EUlmE_EEZNS6_ImSE_EESF_SH_SI_EUlmE0_ZNS3_6filterISK_SL_EESF_RKSI_RKSG_EUlSI_E_EESF_SI_SQ_RKT1_EUlmE0_EEvRNS_9schedulerINS_15WorkStealingJobEEEmmRSI_mbEUlvE0_ED0Ev, symObjAddr: 0x73738, symBinAddr: 0x100076508, symSize: 0x4 }
  - { offset: 0x293112, size: 0x8, addend: 0x0, symName: __ZN6parlay7JobImplIZNS_19fork_join_scheduler7parfor_IZNS_13block_delayed10filter_mapINS_16delayed_sequenceImmZNS_14group_by_indexImRNS_8sequenceINSt3__14pairIllEENS_9allocatorISA_EELb0EEEEEDaOT0_T_EUlmE_EEZNS6_ImSE_EESF_SH_SI_EUlmE0_ZNS3_6filterISK_SL_EESF_RKSI_RKSG_EUlSI_E_EESF_SI_SQ_RKT1_EUlmE0_EEvRNS_9schedulerINS_15WorkStealingJobEEEmmRSI_mbEUlvE0_E7executeEv, symObjAddr: 0x7373C, symBinAddr: 0x10007650C, symSize: 0x24 }
  - { offset: 0x2934A0, size: 0x8, addend: 0x0, symName: __ZN6parlay7JobImplIZNS_19fork_join_scheduler7parfor_IZNS_8internal10sliced_forIZNS3_5scan_INS_8sequenceImNS_9allocatorImEELb0EEENS_5sliceIPmSB_EENS_4plusImEEEEDaRKT_T0_OT1_jbEUlmmmE0_EEvmmSI_jEUlmE_EEvRNS_9schedulerINS_15WorkStealingJobEEEmmRSG_mbEUlvE0_ED1Ev, symObjAddr: 0x73EDC, symBinAddr: 0x100076CAC, symSize: 0x4 }
  - { offset: 0x2934CB, size: 0x8, addend: 0x0, symName: __ZN6parlay7JobImplIZNS_19fork_join_scheduler7parfor_IZNS_8internal10sliced_forIZNS3_5scan_INS_8sequenceImNS_9allocatorImEELb0EEENS_5sliceIPmSB_EENS_4plusImEEEEDaRKT_T0_OT1_jbEUlmmmE0_EEvmmSI_jEUlmE_EEvRNS_9schedulerINS_15WorkStealingJobEEEmmRSG_mbEUlvE0_ED0Ev, symObjAddr: 0x73EE0, symBinAddr: 0x100076CB0, symSize: 0x4 }
  - { offset: 0x2934F6, size: 0x8, addend: 0x0, symName: __ZN6parlay7JobImplIZNS_19fork_join_scheduler7parfor_IZNS_8internal10sliced_forIZNS3_5scan_INS_8sequenceImNS_9allocatorImEELb0EEENS_5sliceIPmSB_EENS_4plusImEEEEDaRKT_T0_OT1_jbEUlmmmE0_EEvmmSI_jEUlmE_EEvRNS_9schedulerINS_15WorkStealingJobEEEmmRSG_mbEUlvE0_E7executeEv, symObjAddr: 0x73EE4, symBinAddr: 0x100076CB4, symSize: 0x24 }
  - { offset: 0x29383C, size: 0x8, addend: 0x0, symName: __ZN6parlay7JobImplIZNS_19fork_join_scheduler7parfor_IZNS_8internal10sliced_forIZNS3_5scan_INS_8sequenceImNS_9allocatorImEELb0EEENS_5sliceIPmSB_EENS_4plusImEEEEDaRKT_T0_OT1_jbEUlmmmE_EEvmmSI_jEUlmE_EEvRNS_9schedulerINS_15WorkStealingJobEEEmmRSG_mbEUlvE0_ED1Ev, symObjAddr: 0x7458C, symBinAddr: 0x10007735C, symSize: 0x4 }
  - { offset: 0x293867, size: 0x8, addend: 0x0, symName: __ZN6parlay7JobImplIZNS_19fork_join_scheduler7parfor_IZNS_8internal10sliced_forIZNS3_5scan_INS_8sequenceImNS_9allocatorImEELb0EEENS_5sliceIPmSB_EENS_4plusImEEEEDaRKT_T0_OT1_jbEUlmmmE_EEvmmSI_jEUlmE_EEvRNS_9schedulerINS_15WorkStealingJobEEEmmRSG_mbEUlvE0_ED0Ev, symObjAddr: 0x74590, symBinAddr: 0x100077360, symSize: 0x4 }
  - { offset: 0x293892, size: 0x8, addend: 0x0, symName: __ZN6parlay7JobImplIZNS_19fork_join_scheduler7parfor_IZNS_8internal10sliced_forIZNS3_5scan_INS_8sequenceImNS_9allocatorImEELb0EEENS_5sliceIPmSB_EENS_4plusImEEEEDaRKT_T0_OT1_jbEUlmmmE_EEvmmSI_jEUlmE_EEvRNS_9schedulerINS_15WorkStealingJobEEEmmRSG_mbEUlvE0_E7executeEv, symObjAddr: 0x74594, symBinAddr: 0x100077364, symSize: 0x24 }
  - { offset: 0x293B04, size: 0x8, addend: 0x0, symName: __ZN6parlay7JobImplIZNS_19fork_join_scheduler7parfor_IZNS_8sequenceImNS_9allocatorImEELb0EEC1IZNS_8internal3mapIRNS3_IS6_NS4_IS6_EELb0EEEZNS_13block_delayed10filter_mapINS_16delayed_sequenceImmZNS_14group_by_indexImRNS3_INSt3__14pairIllEENS4_ISJ_EELb0EEEEEDaOT0_T_EUlmE_EEZNSG_ImSM_EESN_SP_SQ_EUlmE0_ZNSD_6filterISS_ST_EESN_RKSQ_RKSO_EUlSQ_E_EESN_SQ_SY_RKT1_EUlRKS6_E_EESN_OSQ_SP_mEUlmE_EEmS16_NS6_18_from_function_tagEmEUlmE_EEvRNS_9schedulerINS_15WorkStealingJobEEEmmRSQ_mbEUlvE0_ED1Ev, symObjAddr: 0x74DE8, symBinAddr: 0x100077BB8, symSize: 0x4 }
  - { offset: 0x293B2F, size: 0x8, addend: 0x0, symName: __ZN6parlay7JobImplIZNS_19fork_join_scheduler7parfor_IZNS_8sequenceImNS_9allocatorImEELb0EEC1IZNS_8internal3mapIRNS3_IS6_NS4_IS6_EELb0EEEZNS_13block_delayed10filter_mapINS_16delayed_sequenceImmZNS_14group_by_indexImRNS3_INSt3__14pairIllEENS4_ISJ_EELb0EEEEEDaOT0_T_EUlmE_EEZNSG_ImSM_EESN_SP_SQ_EUlmE0_ZNSD_6filterISS_ST_EESN_RKSQ_RKSO_EUlSQ_E_EESN_SQ_SY_RKT1_EUlRKS6_E_EESN_OSQ_SP_mEUlmE_EEmS16_NS6_18_from_function_tagEmEUlmE_EEvRNS_9schedulerINS_15WorkStealingJobEEEmmRSQ_mbEUlvE0_ED0Ev, symObjAddr: 0x74DEC, symBinAddr: 0x100077BBC, symSize: 0x4 }
  - { offset: 0x293B5A, size: 0x8, addend: 0x0, symName: __ZN6parlay7JobImplIZNS_19fork_join_scheduler7parfor_IZNS_8sequenceImNS_9allocatorImEELb0EEC1IZNS_8internal3mapIRNS3_IS6_NS4_IS6_EELb0EEEZNS_13block_delayed10filter_mapINS_16delayed_sequenceImmZNS_14group_by_indexImRNS3_INSt3__14pairIllEENS4_ISJ_EELb0EEEEEDaOT0_T_EUlmE_EEZNSG_ImSM_EESN_SP_SQ_EUlmE0_ZNSD_6filterISS_ST_EESN_RKSQ_RKSO_EUlSQ_E_EESN_SQ_SY_RKT1_EUlRKS6_E_EESN_OSQ_SP_mEUlmE_EEmS16_NS6_18_from_function_tagEmEUlmE_EEvRNS_9schedulerINS_15WorkStealingJobEEEmmRSQ_mbEUlvE0_E7executeEv, symObjAddr: 0x74DF0, symBinAddr: 0x100077BC0, symSize: 0x1D0 }
  - { offset: 0x294045, size: 0x8, addend: 0x0, symName: __ZN6parlay7JobImplIZNS_19fork_join_scheduler7parfor_IZNS_8sequenceINS3_ImNS_9allocatorImEELb0EEENS4_IS6_EELb0EEC1IZNS_13block_delayed10filter_mapINS_16delayed_sequenceImmZNS_14group_by_indexImRNS3_INSt3__14pairIllEENS4_ISG_EELb0EEEEEDaOT0_T_EUlmE_EEZNSD_ImSJ_EESK_SM_SN_EUlmE0_ZNSA_6filterISP_SQ_EESK_RKSN_RKSL_EUlSN_E_EESK_SN_SV_RKT1_EUlmE_EEmOSN_NS8_18_from_function_tagEmEUlmE_EEvRNS_9schedulerINS_15WorkStealingJobEEEmmRSN_mbEUlvE0_ED1Ev, symObjAddr: 0x75674, symBinAddr: 0x100078444, symSize: 0x4 }
  - { offset: 0x294070, size: 0x8, addend: 0x0, symName: __ZN6parlay7JobImplIZNS_19fork_join_scheduler7parfor_IZNS_8sequenceINS3_ImNS_9allocatorImEELb0EEENS4_IS6_EELb0EEC1IZNS_13block_delayed10filter_mapINS_16delayed_sequenceImmZNS_14group_by_indexImRNS3_INSt3__14pairIllEENS4_ISG_EELb0EEEEEDaOT0_T_EUlmE_EEZNSD_ImSJ_EESK_SM_SN_EUlmE0_ZNSA_6filterISP_SQ_EESK_RKSN_RKSL_EUlSN_E_EESK_SN_SV_RKT1_EUlmE_EEmOSN_NS8_18_from_function_tagEmEUlmE_EEvRNS_9schedulerINS_15WorkStealingJobEEEmmRSN_mbEUlvE0_ED0Ev, symObjAddr: 0x75678, symBinAddr: 0x100078448, symSize: 0x4 }
  - { offset: 0x29409B, size: 0x8, addend: 0x0, symName: __ZN6parlay7JobImplIZNS_19fork_join_scheduler7parfor_IZNS_8sequenceINS3_ImNS_9allocatorImEELb0EEENS4_IS6_EELb0EEC1IZNS_13block_delayed10filter_mapINS_16delayed_sequenceImmZNS_14group_by_indexImRNS3_INSt3__14pairIllEENS4_ISG_EELb0EEEEEDaOT0_T_EUlmE_EEZNSD_ImSJ_EESK_SM_SN_EUlmE0_ZNSA_6filterISP_SQ_EESK_RKSN_RKSL_EUlSN_E_EESK_SN_SV_RKT1_EUlmE_EEmOSN_NS8_18_from_function_tagEmEUlmE_EEvRNS_9schedulerINS_15WorkStealingJobEEEmmRSN_mbEUlvE0_E7executeEv, symObjAddr: 0x7567C, symBinAddr: 0x10007844C, symSize: 0x24 }
  - { offset: 0x2943E1, size: 0x8, addend: 0x0, symName: __ZN6parlay7JobImplIZNS_19fork_join_scheduler7parfor_IZNS_8sequenceINS_5sliceINS_16delayed_sequenceImmZNS_14group_by_indexImRNS3_INSt3__14pairIllEENS_9allocatorIS9_EELb0EEEEEDaOT0_T_EUlmE_E8iteratorESK_EENSA_ISL_EELb0EEC1IZNS_13block_delayed14make_iteratorsISJ_EESE_RKSH_EUlmE_EEmOSH_NSN_18_from_function_tagEmEUlmE_EEvRNS_9schedulerINS_15WorkStealingJobEEEmmRSH_mbEUlvE0_ED1Ev, symObjAddr: 0x75DD0, symBinAddr: 0x100078A7C, symSize: 0x4 }
  - { offset: 0x29440C, size: 0x8, addend: 0x0, symName: __ZN6parlay7JobImplIZNS_19fork_join_scheduler7parfor_IZNS_8sequenceINS_5sliceINS_16delayed_sequenceImmZNS_14group_by_indexImRNS3_INSt3__14pairIllEENS_9allocatorIS9_EELb0EEEEEDaOT0_T_EUlmE_E8iteratorESK_EENSA_ISL_EELb0EEC1IZNS_13block_delayed14make_iteratorsISJ_EESE_RKSH_EUlmE_EEmOSH_NSN_18_from_function_tagEmEUlmE_EEvRNS_9schedulerINS_15WorkStealingJobEEEmmRSH_mbEUlvE0_ED0Ev, symObjAddr: 0x75DD4, symBinAddr: 0x100078A80, symSize: 0x4 }
  - { offset: 0x294437, size: 0x8, addend: 0x0, symName: __ZN6parlay7JobImplIZNS_19fork_join_scheduler7parfor_IZNS_8sequenceINS_5sliceINS_16delayed_sequenceImmZNS_14group_by_indexImRNS3_INSt3__14pairIllEENS_9allocatorIS9_EELb0EEEEEDaOT0_T_EUlmE_E8iteratorESK_EENSA_ISL_EELb0EEC1IZNS_13block_delayed14make_iteratorsISJ_EESE_RKSH_EUlmE_EEmOSH_NSN_18_from_function_tagEmEUlmE_EEvRNS_9schedulerINS_15WorkStealingJobEEEmmRSH_mbEUlvE0_E7executeEv, symObjAddr: 0x75DD8, symBinAddr: 0x100078A84, symSize: 0x24 }
  - { offset: 0x295364, size: 0x8, addend: 0x0, symName: __ZN6parlay8sequenceImNS_9allocatorImEELb0EEC2Ev, symObjAddr: 0x780B4, symBinAddr: 0x10007AD60, symSize: 0x124 }
  - { offset: 0x295605, size: 0x8, addend: 0x0, symName: __ZN6parlay19fork_join_scheduler5pardoIZNS0_7parfor_IZNS_8internal14integer_sort_rINSt3__117integral_constantIbLb0EEENS_22uninitialized_copy_tagEPNS5_4pairIllEESB_SB_NS3_7get_keyMUlOT_E_EEENS_8sequenceImNS_9allocatorImEELb0EEENS_5sliceIT1_SK_EENSJ_IT2_SM_EENSJ_IT3_SO_EERKT4_mmfEUlmE_EEvRNS_9schedulerINS_15WorkStealingJobEEEmmRSC_mbEUlvE_ZNS2_IST_EEvSX_mmSY_mbEUlvE0_EEvSX_SD_OT0_b, symObjAddr: 0x99260, symBinAddr: 0x10009B514, symSize: 0x638 }
  - { offset: 0x29686D, size: 0x8, addend: 0x0, symName: __ZN6parlay8sequenceIPNSt3__14pairIllEENS_9allocatorIS4_EELb0EEC2EmNS7_18_uninitialized_tagE, symObjAddr: 0x82F2C, symBinAddr: 0x100085BD8, symSize: 0x184 }
  - { offset: 0x296C13, size: 0x8, addend: 0x0, symName: __ZN6parlay19fork_join_scheduler5pardoIZNS0_7parfor_IZNS_8internal14integer_sort_rINSt3__117integral_constantIbLb0EEENS_22uninitialized_copy_tagEPNS5_4pairIllEESB_SB_NS3_7get_keyMUlOT_E_EEENS_8sequenceImNS_9allocatorImEELb0EEENS_5sliceIT1_SK_EENSJ_IT2_SM_EENSJ_IT3_SO_EERKT4_mmfEUlmE2_EEvRNS_9schedulerINS_15WorkStealingJobEEEmmRSC_mbEUlvE_ZNS2_IST_EEvSX_mmSY_mbEUlvE0_EEvSX_SD_OT0_b, symObjAddr: 0x79DB0, symBinAddr: 0x10007CA5C, symSize: 0x620 }
  - { offset: 0x298A25, size: 0x8, addend: 0x0, symName: __ZN6parlay19fork_join_scheduler5pardoIZNS0_7parfor_IZNS_8internal11count_sort_INS_22uninitialized_copy_tagEmPNSt3__14pairIllEES9_NS_16delayed_sequenceImmZNS3_14integer_sort_rINS6_17integral_constantIbLb0EEES5_S9_S9_S9_NS3_7get_keyMUlOT_E_EEENS_8sequenceImNS_9allocatorImEELb0EEENS_5sliceIT1_SM_EENSL_IT2_SO_EENSL_IT3_SQ_EERKT4_mmfEUlmE0_E8iteratorEEENS7_ISK_bEESN_SP_SR_mfbEUlmE2_EEvRNS_9schedulerINS_15WorkStealingJobEEEmmRSE_mbEUlvE_ZNS2_ISZ_EEvS13_mmS14_mbEUlvE0_EEvS13_SF_OT0_b, symObjAddr: 0x959F0, symBinAddr: 0x100097E34, symSize: 0x620 }
  - { offset: 0x298A3C, size: 0x8, addend: 0x0, symName: __ZN6parlay19fork_join_scheduler5pardoIZNS0_7parfor_IZNS_8internal11count_sort_INS_22uninitialized_copy_tagEmPNSt3__14pairIllEES9_NS_16delayed_sequenceImmZNS3_14integer_sort_rINS6_17integral_constantIbLb0EEES5_S9_S9_S9_NS3_7get_keyMUlOT_E_EEENS_8sequenceImNS_9allocatorImEELb0EEENS_5sliceIT1_SM_EENSL_IT2_SO_EENSL_IT3_SQ_EERKT4_mmfEUlmE0_E8iteratorEEENS7_ISK_bEESN_SP_SR_mfbEUlmE2_EEvRNS_9schedulerINS_15WorkStealingJobEEEmmRSE_mbEUlvE_ZNS2_ISZ_EEvS13_mmS14_mbEUlvE0_EEvS13_SF_OT0_b, symObjAddr: 0x959F0, symBinAddr: 0x100097E34, symSize: 0x620 }
  - { offset: 0x299EEA, size: 0x8, addend: 0x0, symName: __ZN6parlay19fork_join_scheduler5pardoIZNS0_7parfor_IZNS_8internal11count_sort_INS_22uninitialized_copy_tagEjPNSt3__14pairIllEES9_NS_16delayed_sequenceImmZNS3_14integer_sort_rINS6_17integral_constantIbLb0EEES5_S9_S9_S9_NS3_7get_keyMUlOT_E_EEENS_8sequenceImNS_9allocatorImEELb0EEENS_5sliceIT1_SM_EENSL_IT2_SO_EENSL_IT3_SQ_EERKT4_mmfEUlmE0_E8iteratorEEENS7_ISK_bEESN_SP_SR_mfbEUlmE2_EEvRNS_9schedulerINS_15WorkStealingJobEEEmmRSE_mbEUlvE_ZNS2_ISZ_EEvS13_mmS14_mbEUlvE0_EEvS13_SF_OT0_b, symObjAddr: 0x976E0, symBinAddr: 0x100099994, symSize: 0x620 }
  - { offset: 0x299F01, size: 0x8, addend: 0x0, symName: __ZN6parlay19fork_join_scheduler5pardoIZNS0_7parfor_IZNS_8internal11count_sort_INS_22uninitialized_copy_tagEjPNSt3__14pairIllEES9_NS_16delayed_sequenceImmZNS3_14integer_sort_rINS6_17integral_constantIbLb0EEES5_S9_S9_S9_NS3_7get_keyMUlOT_E_EEENS_8sequenceImNS_9allocatorImEELb0EEENS_5sliceIT1_SM_EENSL_IT2_SO_EENSL_IT3_SQ_EERKT4_mmfEUlmE0_E8iteratorEEENS7_ISK_bEESN_SP_SR_mfbEUlmE2_EEvRNS_9schedulerINS_15WorkStealingJobEEEmmRSE_mbEUlvE_ZNS2_ISZ_EEvS13_mmS14_mbEUlvE0_EEvS13_SF_OT0_b, symObjAddr: 0x976E0, symBinAddr: 0x100099994, symSize: 0x620 }
  - { offset: 0x29B2E6, size: 0x8, addend: 0x0, symName: __ZZN6parlay8internal14integer_sort_rINSt3__117integral_constantIbLb0EEENS_22uninitialized_copy_tagEPNS2_4pairIllEES8_S8_NS0_7get_keyMUlOT_E_EEENS_8sequenceImNS_9allocatorImEELb0EEENS_5sliceIT1_SH_EENSG_IT2_SJ_EENSG_IT3_SL_EERKT4_mmfENKUlmE2_clEm, symObjAddr: 0x7A3D0, symBinAddr: 0x10007D07C, symSize: 0x2D0 }
  - { offset: 0x29C21C, size: 0x8, addend: 0x0, symName: __ZN6parlay19fork_join_scheduler5pardoIZNS0_7parfor_IZNS_8internal14integer_sort_rINSt3__117integral_constantIbLb1EEENS_26uninitialized_relocate_tagEPNS5_4pairIllEESB_SB_NS3_7get_keyMUlOT_E_EEENS_8sequenceImNS_9allocatorImEELb0EEENS_5sliceIT1_SK_EENSJ_IT2_SM_EENSJ_IT3_SO_EERKT4_mmfEUlmE1_EEvRNS_9schedulerINS_15WorkStealingJobEEEmmRSC_mbEUlvE_ZNS2_IST_EEvSX_mmSY_mbEUlvE0_EEvSX_SD_OT0_b, symObjAddr: 0x7E264, symBinAddr: 0x100080F10, symSize: 0x620 }
  - { offset: 0x29DE78, size: 0x8, addend: 0x0, symName: __ZN6parlay19fork_join_scheduler5pardoIZNS0_7parfor_IZNS_8internal11count_sort_INS_26uninitialized_relocate_tagEmPNSt3__14pairIllEES9_NS_16delayed_sequenceImmZNS3_14integer_sort_rINS6_17integral_constantIbLb1EEES5_S9_S9_S9_NS3_7get_keyMUlOT_E_EEENS_8sequenceImNS_9allocatorImEELb0EEENS_5sliceIT1_SM_EENSL_IT2_SO_EENSL_IT3_SQ_EERKT4_mmfEUlmE_E8iteratorEEENS7_ISK_bEESN_SP_SR_mfbEUlmE2_EEvRNS_9schedulerINS_15WorkStealingJobEEEmmRSE_mbEUlvE_ZNS2_ISZ_EEvS13_mmS14_mbEUlvE0_EEvS13_SF_OT0_b, symObjAddr: 0x8E5D4, symBinAddr: 0x100090E4C, symSize: 0x620 }
  - { offset: 0x29DE8F, size: 0x8, addend: 0x0, symName: __ZN6parlay19fork_join_scheduler5pardoIZNS0_7parfor_IZNS_8internal11count_sort_INS_26uninitialized_relocate_tagEmPNSt3__14pairIllEES9_NS_16delayed_sequenceImmZNS3_14integer_sort_rINS6_17integral_constantIbLb1EEES5_S9_S9_S9_NS3_7get_keyMUlOT_E_EEENS_8sequenceImNS_9allocatorImEELb0EEENS_5sliceIT1_SM_EENSL_IT2_SO_EENSL_IT3_SQ_EERKT4_mmfEUlmE_E8iteratorEEENS7_ISK_bEESN_SP_SR_mfbEUlmE2_EEvRNS_9schedulerINS_15WorkStealingJobEEEmmRSE_mbEUlvE_ZNS2_ISZ_EEvS13_mmS14_mbEUlvE0_EEvS13_SF_OT0_b, symObjAddr: 0x8E5D4, symBinAddr: 0x100090E4C, symSize: 0x620 }
  - { offset: 0x29F33D, size: 0x8, addend: 0x0, symName: __ZN6parlay19fork_join_scheduler5pardoIZNS0_7parfor_IZNS_8internal11count_sort_INS_26uninitialized_relocate_tagEjPNSt3__14pairIllEES9_NS_16delayed_sequenceImmZNS3_14integer_sort_rINS6_17integral_constantIbLb1EEES5_S9_S9_S9_NS3_7get_keyMUlOT_E_EEENS_8sequenceImNS_9allocatorImEELb0EEENS_5sliceIT1_SM_EENSL_IT2_SO_EENSL_IT3_SQ_EERKT4_mmfEUlmE_E8iteratorEEENS7_ISK_bEESN_SP_SR_mfbEUlmE2_EEvRNS_9schedulerINS_15WorkStealingJobEEEmmRSE_mbEUlvE_ZNS2_ISZ_EEvS13_mmS14_mbEUlvE0_EEvS13_SF_OT0_b, symObjAddr: 0x902C4, symBinAddr: 0x1000929AC, symSize: 0x620 }
  - { offset: 0x29F354, size: 0x8, addend: 0x0, symName: __ZN6parlay19fork_join_scheduler5pardoIZNS0_7parfor_IZNS_8internal11count_sort_INS_26uninitialized_relocate_tagEjPNSt3__14pairIllEES9_NS_16delayed_sequenceImmZNS3_14integer_sort_rINS6_17integral_constantIbLb1EEES5_S9_S9_S9_NS3_7get_keyMUlOT_E_EEENS_8sequenceImNS_9allocatorImEELb0EEENS_5sliceIT1_SM_EENSL_IT2_SO_EENSL_IT3_SQ_EERKT4_mmfEUlmE_E8iteratorEEENS7_ISK_bEESN_SP_SR_mfbEUlmE2_EEvRNS_9schedulerINS_15WorkStealingJobEEEmmRSE_mbEUlvE_ZNS2_ISZ_EEvS13_mmS14_mbEUlvE0_EEvS13_SF_OT0_b, symObjAddr: 0x902C4, symBinAddr: 0x1000929AC, symSize: 0x620 }
  - { offset: 0x2A0739, size: 0x8, addend: 0x0, symName: __ZZN6parlay8internal14integer_sort_rINSt3__117integral_constantIbLb1EEENS_26uninitialized_relocate_tagEPNS2_4pairIllEES8_S8_NS0_7get_keyMUlOT_E_EEENS_8sequenceImNS_9allocatorImEELb0EEENS_5sliceIT1_SH_EENSG_IT2_SJ_EENSG_IT3_SL_EERKT4_mmfENKUlmE1_clEm, symObjAddr: 0x7E884, symBinAddr: 0x100081530, symSize: 0x2D0 }
  - { offset: 0x2A166F, size: 0x8, addend: 0x0, symName: __ZN6parlay19fork_join_scheduler5pardoIZNS0_7parfor_IZNS_8internal14integer_sort_rINSt3__117integral_constantIbLb0EEENS_26uninitialized_relocate_tagEPNS5_4pairIllEESB_SB_NS3_7get_keyMUlOT_E_EEENS_8sequenceImNS_9allocatorImEELb0EEENS_5sliceIT1_SK_EENSJ_IT2_SM_EENSJ_IT3_SO_EERKT4_mmfEUlmE1_EEvRNS_9schedulerINS_15WorkStealingJobEEEmmRSC_mbEUlvE_ZNS2_IST_EEvSX_mmSY_mbEUlvE0_EEvSX_SD_OT0_b, symObjAddr: 0x82400, symBinAddr: 0x1000850AC, symSize: 0x620 }
  - { offset: 0x2A2FE3, size: 0x8, addend: 0x0, symName: __ZZN6parlay8internal11count_sort_INS_26uninitialized_relocate_tagEmPNSt3__14pairIllEES6_NS_16delayed_sequenceImmZNS0_14integer_sort_rINS3_17integral_constantIbLb0EEES2_S6_S6_S6_NS0_7get_keyMUlOT_E_EEENS_8sequenceImNS_9allocatorImEELb0EEENS_5sliceIT1_SJ_EENSI_IT2_SL_EENSI_IT3_SN_EERKT4_mmfEUlmE_E8iteratorEEENS4_ISH_bEESK_SM_SO_mfbENKUlmE2_clEm, symObjAddr: 0x86890, symBinAddr: 0x10008953C, symSize: 0x190 }
  - { offset: 0x2A3583, size: 0x8, addend: 0x0, symName: __ZN6parlay19fork_join_scheduler5pardoIZNS0_7parfor_IZNS_8internal11count_sort_INS_26uninitialized_relocate_tagEmPNSt3__14pairIllEES9_NS_16delayed_sequenceImmZNS3_14integer_sort_rINS6_17integral_constantIbLb0EEES5_S9_S9_S9_NS3_7get_keyMUlOT_E_EEENS_8sequenceImNS_9allocatorImEELb0EEENS_5sliceIT1_SM_EENSL_IT2_SO_EENSL_IT3_SQ_EERKT4_mmfEUlmE_E8iteratorEEENS7_ISK_bEESN_SP_SR_mfbEUlmE2_EEvRNS_9schedulerINS_15WorkStealingJobEEEmmRSE_mbEUlvE_ZNS2_ISZ_EEvS13_mmS14_mbEUlvE0_EEvS13_SF_OT0_b, symObjAddr: 0x86A20, symBinAddr: 0x1000896CC, symSize: 0x620 }
  - { offset: 0x2A359A, size: 0x8, addend: 0x0, symName: __ZN6parlay19fork_join_scheduler5pardoIZNS0_7parfor_IZNS_8internal11count_sort_INS_26uninitialized_relocate_tagEmPNSt3__14pairIllEES9_NS_16delayed_sequenceImmZNS3_14integer_sort_rINS6_17integral_constantIbLb0EEES5_S9_S9_S9_NS3_7get_keyMUlOT_E_EEENS_8sequenceImNS_9allocatorImEELb0EEENS_5sliceIT1_SM_EENSL_IT2_SO_EENSL_IT3_SQ_EERKT4_mmfEUlmE_E8iteratorEEENS7_ISK_bEESN_SP_SR_mfbEUlmE2_EEvRNS_9schedulerINS_15WorkStealingJobEEEmmRSE_mbEUlvE_ZNS2_ISZ_EEvS13_mmS14_mbEUlvE0_EEvS13_SF_OT0_b, symObjAddr: 0x86A20, symBinAddr: 0x1000896CC, symSize: 0x620 }
  - { offset: 0x2A4A48, size: 0x8, addend: 0x0, symName: __ZN6parlay19fork_join_scheduler5pardoIZNS0_7parfor_IZNS_8internal11count_sort_INS_26uninitialized_relocate_tagEjPNSt3__14pairIllEES9_NS_16delayed_sequenceImmZNS3_14integer_sort_rINS6_17integral_constantIbLb0EEES5_S9_S9_S9_NS3_7get_keyMUlOT_E_EEENS_8sequenceImNS_9allocatorImEELb0EEENS_5sliceIT1_SM_EENSL_IT2_SO_EENSL_IT3_SQ_EERKT4_mmfEUlmE_E8iteratorEEENS7_ISK_bEESN_SP_SR_mfbEUlmE2_EEvRNS_9schedulerINS_15WorkStealingJobEEEmmRSE_mbEUlvE_ZNS2_ISZ_EEvS13_mmS14_mbEUlvE0_EEvS13_SF_OT0_b, symObjAddr: 0x88710, symBinAddr: 0x10008B22C, symSize: 0x620 }
  - { offset: 0x2A4A5F, size: 0x8, addend: 0x0, symName: __ZN6parlay19fork_join_scheduler5pardoIZNS0_7parfor_IZNS_8internal11count_sort_INS_26uninitialized_relocate_tagEjPNSt3__14pairIllEES9_NS_16delayed_sequenceImmZNS3_14integer_sort_rINS6_17integral_constantIbLb0EEES5_S9_S9_S9_NS3_7get_keyMUlOT_E_EEENS_8sequenceImNS_9allocatorImEELb0EEENS_5sliceIT1_SM_EENSL_IT2_SO_EENSL_IT3_SQ_EERKT4_mmfEUlmE_E8iteratorEEENS7_ISK_bEESN_SP_SR_mfbEUlmE2_EEvRNS_9schedulerINS_15WorkStealingJobEEEmmRSE_mbEUlvE_ZNS2_ISZ_EEvS13_mmS14_mbEUlvE0_EEvS13_SF_OT0_b, symObjAddr: 0x88710, symBinAddr: 0x10008B22C, symSize: 0x620 }
  - { offset: 0x2A5E44, size: 0x8, addend: 0x0, symName: __ZZN6parlay8internal14integer_sort_rINSt3__117integral_constantIbLb0EEENS_26uninitialized_relocate_tagEPNS2_4pairIllEES8_S8_NS0_7get_keyMUlOT_E_EEENS_8sequenceImNS_9allocatorImEELb0EEENS_5sliceIT1_SH_EENSG_IT2_SJ_EENSG_IT3_SL_EERKT4_mmfENKUlmE1_clEm, symObjAddr: 0x82A20, symBinAddr: 0x1000856CC, symSize: 0x2D0 }
  - { offset: 0x2A643D, size: 0x8, addend: 0x0, symName: __ZN6parlay7JobImplIZNS_19fork_join_scheduler7parfor_IZNS_8internal14integer_sort_rINSt3__117integral_constantIbLb0EEENS_26uninitialized_relocate_tagEPNS5_4pairIllEESB_SB_NS3_7get_keyMUlOT_E_EEENS_8sequenceImNS_9allocatorImEELb0EEENS_5sliceIT1_SK_EENSJ_IT2_SM_EENSJ_IT3_SO_EERKT4_mmfEUlmE1_EEvRNS_9schedulerINS_15WorkStealingJobEEEmmRSC_mbEUlvE0_ED1Ev, symObjAddr: 0x82CF0, symBinAddr: 0x10008599C, symSize: 0x4 }
  - { offset: 0x2A6468, size: 0x8, addend: 0x0, symName: __ZN6parlay7JobImplIZNS_19fork_join_scheduler7parfor_IZNS_8internal14integer_sort_rINSt3__117integral_constantIbLb0EEENS_26uninitialized_relocate_tagEPNS5_4pairIllEESB_SB_NS3_7get_keyMUlOT_E_EEENS_8sequenceImNS_9allocatorImEELb0EEENS_5sliceIT1_SK_EENSJ_IT2_SM_EENSJ_IT3_SO_EERKT4_mmfEUlmE1_EEvRNS_9schedulerINS_15WorkStealingJobEEEmmRSC_mbEUlvE0_ED0Ev, symObjAddr: 0x82CF4, symBinAddr: 0x1000859A0, symSize: 0x4 }
  - { offset: 0x2A6493, size: 0x8, addend: 0x0, symName: __ZN6parlay7JobImplIZNS_19fork_join_scheduler7parfor_IZNS_8internal14integer_sort_rINSt3__117integral_constantIbLb0EEENS_26uninitialized_relocate_tagEPNS5_4pairIllEESB_SB_NS3_7get_keyMUlOT_E_EEENS_8sequenceImNS_9allocatorImEELb0EEENS_5sliceIT1_SK_EENSJ_IT2_SM_EENSJ_IT3_SO_EERKT4_mmfEUlmE1_EEvRNS_9schedulerINS_15WorkStealingJobEEEmmRSC_mbEUlvE0_E7executeEv, symObjAddr: 0x82CF8, symBinAddr: 0x1000859A4, symSize: 0xD4 }
  - { offset: 0x2A6B10, size: 0x8, addend: 0x0, symName: __ZN6parlay7JobImplIZNS_19fork_join_scheduler7parfor_IZNS_8internal11count_sort_INS_26uninitialized_relocate_tagEmPNSt3__14pairIllEES9_NS_16delayed_sequenceImmZNS3_14integer_sort_rINS6_17integral_constantIbLb0EEES5_S9_S9_S9_NS3_7get_keyMUlOT_E_EEENS_8sequenceImNS_9allocatorImEELb0EEENS_5sliceIT1_SM_EENSL_IT2_SO_EENSL_IT3_SQ_EERKT4_mmfEUlmE0_E8iteratorEEENS7_ISK_bEESN_SP_SR_mfbEUlmE2_EEvRNS_9schedulerINS_15WorkStealingJobEEEmmRSE_mbEUlvE0_ED1Ev, symObjAddr: 0x837D0, symBinAddr: 0x10008647C, symSize: 0x4 }
  - { offset: 0x2A6B3B, size: 0x8, addend: 0x0, symName: __ZN6parlay7JobImplIZNS_19fork_join_scheduler7parfor_IZNS_8internal11count_sort_INS_26uninitialized_relocate_tagEmPNSt3__14pairIllEES9_NS_16delayed_sequenceImmZNS3_14integer_sort_rINS6_17integral_constantIbLb0EEES5_S9_S9_S9_NS3_7get_keyMUlOT_E_EEENS_8sequenceImNS_9allocatorImEELb0EEENS_5sliceIT1_SM_EENSL_IT2_SO_EENSL_IT3_SQ_EERKT4_mmfEUlmE0_E8iteratorEEENS7_ISK_bEESN_SP_SR_mfbEUlmE2_EEvRNS_9schedulerINS_15WorkStealingJobEEEmmRSE_mbEUlvE0_ED0Ev, symObjAddr: 0x837D4, symBinAddr: 0x100086480, symSize: 0x4 }
  - { offset: 0x2A6B66, size: 0x8, addend: 0x0, symName: __ZN6parlay7JobImplIZNS_19fork_join_scheduler7parfor_IZNS_8internal11count_sort_INS_26uninitialized_relocate_tagEmPNSt3__14pairIllEES9_NS_16delayed_sequenceImmZNS3_14integer_sort_rINS6_17integral_constantIbLb0EEES5_S9_S9_S9_NS3_7get_keyMUlOT_E_EEENS_8sequenceImNS_9allocatorImEELb0EEENS_5sliceIT1_SM_EENSL_IT2_SO_EENSL_IT3_SQ_EERKT4_mmfEUlmE0_E8iteratorEEENS7_ISK_bEESN_SP_SR_mfbEUlmE2_EEvRNS_9schedulerINS_15WorkStealingJobEEEmmRSE_mbEUlvE0_E7executeEv, symObjAddr: 0x837D8, symBinAddr: 0x100086484, symSize: 0x24 }
  - { offset: 0x2A6EAC, size: 0x8, addend: 0x0, symName: __ZN6parlay7JobImplIZNS_19fork_join_scheduler7parfor_IZNS_8internal11count_sort_INS_26uninitialized_relocate_tagEmPNSt3__14pairIllEES9_NS_16delayed_sequenceImmZNS3_14integer_sort_rINS6_17integral_constantIbLb0EEES5_S9_S9_S9_NS3_7get_keyMUlOT_E_EEENS_8sequenceImNS_9allocatorImEELb0EEENS_5sliceIT1_SM_EENSL_IT2_SO_EENSL_IT3_SQ_EERKT4_mmfEUlmE0_E8iteratorEEENS7_ISK_bEESN_SP_SR_mfbEUlmE1_EEvRNS_9schedulerINS_15WorkStealingJobEEEmmRSE_mbEUlvE0_ED1Ev, symObjAddr: 0x83DF4, symBinAddr: 0x100086AA0, symSize: 0x4 }
  - { offset: 0x2A6ED7, size: 0x8, addend: 0x0, symName: __ZN6parlay7JobImplIZNS_19fork_join_scheduler7parfor_IZNS_8internal11count_sort_INS_26uninitialized_relocate_tagEmPNSt3__14pairIllEES9_NS_16delayed_sequenceImmZNS3_14integer_sort_rINS6_17integral_constantIbLb0EEES5_S9_S9_S9_NS3_7get_keyMUlOT_E_EEENS_8sequenceImNS_9allocatorImEELb0EEENS_5sliceIT1_SM_EENSL_IT2_SO_EENSL_IT3_SQ_EERKT4_mmfEUlmE0_E8iteratorEEENS7_ISK_bEESN_SP_SR_mfbEUlmE1_EEvRNS_9schedulerINS_15WorkStealingJobEEEmmRSE_mbEUlvE0_ED0Ev, symObjAddr: 0x83DF8, symBinAddr: 0x100086AA4, symSize: 0x4 }
  - { offset: 0x2A6F02, size: 0x8, addend: 0x0, symName: __ZN6parlay7JobImplIZNS_19fork_join_scheduler7parfor_IZNS_8internal11count_sort_INS_26uninitialized_relocate_tagEmPNSt3__14pairIllEES9_NS_16delayed_sequenceImmZNS3_14integer_sort_rINS6_17integral_constantIbLb0EEES5_S9_S9_S9_NS3_7get_keyMUlOT_E_EEENS_8sequenceImNS_9allocatorImEELb0EEENS_5sliceIT1_SM_EENSL_IT2_SO_EENSL_IT3_SQ_EERKT4_mmfEUlmE0_E8iteratorEEENS7_ISK_bEESN_SP_SR_mfbEUlmE1_EEvRNS_9schedulerINS_15WorkStealingJobEEEmmRSE_mbEUlvE0_E7executeEv, symObjAddr: 0x83DFC, symBinAddr: 0x100086AA8, symSize: 0x24 }
  - { offset: 0x2A7248, size: 0x8, addend: 0x0, symName: __ZN6parlay7JobImplIZNS_19fork_join_scheduler7parfor_IZNS_8internal11count_sort_INS_26uninitialized_relocate_tagEmPNSt3__14pairIllEES9_NS_16delayed_sequenceImmZNS3_14integer_sort_rINS6_17integral_constantIbLb0EEES5_S9_S9_S9_NS3_7get_keyMUlOT_E_EEENS_8sequenceImNS_9allocatorImEELb0EEENS_5sliceIT1_SM_EENSL_IT2_SO_EENSL_IT3_SQ_EERKT4_mmfEUlmE0_E8iteratorEEENS7_ISK_bEESN_SP_SR_mfbEUlmE0_EEvRNS_9schedulerINS_15WorkStealingJobEEEmmRSE_mbEUlvE0_ED1Ev, symObjAddr: 0x8445C, symBinAddr: 0x100087108, symSize: 0x4 }
  - { offset: 0x2A7273, size: 0x8, addend: 0x0, symName: __ZN6parlay7JobImplIZNS_19fork_join_scheduler7parfor_IZNS_8internal11count_sort_INS_26uninitialized_relocate_tagEmPNSt3__14pairIllEES9_NS_16delayed_sequenceImmZNS3_14integer_sort_rINS6_17integral_constantIbLb0EEES5_S9_S9_S9_NS3_7get_keyMUlOT_E_EEENS_8sequenceImNS_9allocatorImEELb0EEENS_5sliceIT1_SM_EENSL_IT2_SO_EENSL_IT3_SQ_EERKT4_mmfEUlmE0_E8iteratorEEENS7_ISK_bEESN_SP_SR_mfbEUlmE0_EEvRNS_9schedulerINS_15WorkStealingJobEEEmmRSE_mbEUlvE0_ED0Ev, symObjAddr: 0x84460, symBinAddr: 0x10008710C, symSize: 0x4 }
  - { offset: 0x2A729E, size: 0x8, addend: 0x0, symName: __ZN6parlay7JobImplIZNS_19fork_join_scheduler7parfor_IZNS_8internal11count_sort_INS_26uninitialized_relocate_tagEmPNSt3__14pairIllEES9_NS_16delayed_sequenceImmZNS3_14integer_sort_rINS6_17integral_constantIbLb0EEES5_S9_S9_S9_NS3_7get_keyMUlOT_E_EEENS_8sequenceImNS_9allocatorImEELb0EEENS_5sliceIT1_SM_EENSL_IT2_SO_EENSL_IT3_SQ_EERKT4_mmfEUlmE0_E8iteratorEEENS7_ISK_bEESN_SP_SR_mfbEUlmE0_EEvRNS_9schedulerINS_15WorkStealingJobEEEmmRSE_mbEUlvE0_E7executeEv, symObjAddr: 0x84464, symBinAddr: 0x100087110, symSize: 0x24 }
  - { offset: 0x2A75E4, size: 0x8, addend: 0x0, symName: __ZN6parlay7JobImplIZNS_19fork_join_scheduler7parfor_IZNS_8internal11count_sort_INS_26uninitialized_relocate_tagEmPNSt3__14pairIllEES9_NS_16delayed_sequenceImmZNS3_14integer_sort_rINS6_17integral_constantIbLb0EEES5_S9_S9_S9_NS3_7get_keyMUlOT_E_EEENS_8sequenceImNS_9allocatorImEELb0EEENS_5sliceIT1_SM_EENSL_IT2_SO_EENSL_IT3_SQ_EERKT4_mmfEUlmE0_E8iteratorEEENS7_ISK_bEESN_SP_SR_mfbEUlmE_EEvRNS_9schedulerINS_15WorkStealingJobEEEmmRSE_mbEUlvE0_ED1Ev, symObjAddr: 0x84C40, symBinAddr: 0x1000878EC, symSize: 0x4 }
  - { offset: 0x2A760F, size: 0x8, addend: 0x0, symName: __ZN6parlay7JobImplIZNS_19fork_join_scheduler7parfor_IZNS_8internal11count_sort_INS_26uninitialized_relocate_tagEmPNSt3__14pairIllEES9_NS_16delayed_sequenceImmZNS3_14integer_sort_rINS6_17integral_constantIbLb0EEES5_S9_S9_S9_NS3_7get_keyMUlOT_E_EEENS_8sequenceImNS_9allocatorImEELb0EEENS_5sliceIT1_SM_EENSL_IT2_SO_EENSL_IT3_SQ_EERKT4_mmfEUlmE0_E8iteratorEEENS7_ISK_bEESN_SP_SR_mfbEUlmE_EEvRNS_9schedulerINS_15WorkStealingJobEEEmmRSE_mbEUlvE0_ED0Ev, symObjAddr: 0x84C44, symBinAddr: 0x1000878F0, symSize: 0x4 }
  - { offset: 0x2A763A, size: 0x8, addend: 0x0, symName: __ZN6parlay7JobImplIZNS_19fork_join_scheduler7parfor_IZNS_8internal11count_sort_INS_26uninitialized_relocate_tagEmPNSt3__14pairIllEES9_NS_16delayed_sequenceImmZNS3_14integer_sort_rINS6_17integral_constantIbLb0EEES5_S9_S9_S9_NS3_7get_keyMUlOT_E_EEENS_8sequenceImNS_9allocatorImEELb0EEENS_5sliceIT1_SM_EENSL_IT2_SO_EENSL_IT3_SQ_EERKT4_mmfEUlmE0_E8iteratorEEENS7_ISK_bEESN_SP_SR_mfbEUlmE_EEvRNS_9schedulerINS_15WorkStealingJobEEEmmRSE_mbEUlvE0_E7executeEv, symObjAddr: 0x84C48, symBinAddr: 0x1000878F4, symSize: 0x24 }
  - { offset: 0x2A7980, size: 0x8, addend: 0x0, symName: __ZN6parlay7JobImplIZNS_19fork_join_scheduler7parfor_IZNS_8internal11count_sort_INS_26uninitialized_relocate_tagEjPNSt3__14pairIllEES9_NS_16delayed_sequenceImmZNS3_14integer_sort_rINS6_17integral_constantIbLb0EEES5_S9_S9_S9_NS3_7get_keyMUlOT_E_EEENS_8sequenceImNS_9allocatorImEELb0EEENS_5sliceIT1_SM_EENSL_IT2_SO_EENSL_IT3_SQ_EERKT4_mmfEUlmE0_E8iteratorEEENS7_ISK_bEESN_SP_SR_mfbEUlmE2_EEvRNS_9schedulerINS_15WorkStealingJobEEEmmRSE_mbEUlvE0_ED1Ev, symObjAddr: 0x85278, symBinAddr: 0x100087F24, symSize: 0x4 }
  - { offset: 0x2A79AB, size: 0x8, addend: 0x0, symName: __ZN6parlay7JobImplIZNS_19fork_join_scheduler7parfor_IZNS_8internal11count_sort_INS_26uninitialized_relocate_tagEjPNSt3__14pairIllEES9_NS_16delayed_sequenceImmZNS3_14integer_sort_rINS6_17integral_constantIbLb0EEES5_S9_S9_S9_NS3_7get_keyMUlOT_E_EEENS_8sequenceImNS_9allocatorImEELb0EEENS_5sliceIT1_SM_EENSL_IT2_SO_EENSL_IT3_SQ_EERKT4_mmfEUlmE0_E8iteratorEEENS7_ISK_bEESN_SP_SR_mfbEUlmE2_EEvRNS_9schedulerINS_15WorkStealingJobEEEmmRSE_mbEUlvE0_ED0Ev, symObjAddr: 0x8527C, symBinAddr: 0x100087F28, symSize: 0x4 }
  - { offset: 0x2A79D6, size: 0x8, addend: 0x0, symName: __ZN6parlay7JobImplIZNS_19fork_join_scheduler7parfor_IZNS_8internal11count_sort_INS_26uninitialized_relocate_tagEjPNSt3__14pairIllEES9_NS_16delayed_sequenceImmZNS3_14integer_sort_rINS6_17integral_constantIbLb0EEES5_S9_S9_S9_NS3_7get_keyMUlOT_E_EEENS_8sequenceImNS_9allocatorImEELb0EEENS_5sliceIT1_SM_EENSL_IT2_SO_EENSL_IT3_SQ_EERKT4_mmfEUlmE0_E8iteratorEEENS7_ISK_bEESN_SP_SR_mfbEUlmE2_EEvRNS_9schedulerINS_15WorkStealingJobEEEmmRSE_mbEUlvE0_E7executeEv, symObjAddr: 0x85280, symBinAddr: 0x100087F2C, symSize: 0x24 }
  - { offset: 0x2A7D1C, size: 0x8, addend: 0x0, symName: __ZN6parlay7JobImplIZNS_19fork_join_scheduler7parfor_IZNS_8internal11count_sort_INS_26uninitialized_relocate_tagEjPNSt3__14pairIllEES9_NS_16delayed_sequenceImmZNS3_14integer_sort_rINS6_17integral_constantIbLb0EEES5_S9_S9_S9_NS3_7get_keyMUlOT_E_EEENS_8sequenceImNS_9allocatorImEELb0EEENS_5sliceIT1_SM_EENSL_IT2_SO_EENSL_IT3_SQ_EERKT4_mmfEUlmE0_E8iteratorEEENS7_ISK_bEESN_SP_SR_mfbEUlmE1_EEvRNS_9schedulerINS_15WorkStealingJobEEEmmRSE_mbEUlvE0_ED1Ev, symObjAddr: 0x8589C, symBinAddr: 0x100088548, symSize: 0x4 }
  - { offset: 0x2A7D47, size: 0x8, addend: 0x0, symName: __ZN6parlay7JobImplIZNS_19fork_join_scheduler7parfor_IZNS_8internal11count_sort_INS_26uninitialized_relocate_tagEjPNSt3__14pairIllEES9_NS_16delayed_sequenceImmZNS3_14integer_sort_rINS6_17integral_constantIbLb0EEES5_S9_S9_S9_NS3_7get_keyMUlOT_E_EEENS_8sequenceImNS_9allocatorImEELb0EEENS_5sliceIT1_SM_EENSL_IT2_SO_EENSL_IT3_SQ_EERKT4_mmfEUlmE0_E8iteratorEEENS7_ISK_bEESN_SP_SR_mfbEUlmE1_EEvRNS_9schedulerINS_15WorkStealingJobEEEmmRSE_mbEUlvE0_ED0Ev, symObjAddr: 0x858A0, symBinAddr: 0x10008854C, symSize: 0x4 }
  - { offset: 0x2A7D72, size: 0x8, addend: 0x0, symName: __ZN6parlay7JobImplIZNS_19fork_join_scheduler7parfor_IZNS_8internal11count_sort_INS_26uninitialized_relocate_tagEjPNSt3__14pairIllEES9_NS_16delayed_sequenceImmZNS3_14integer_sort_rINS6_17integral_constantIbLb0EEES5_S9_S9_S9_NS3_7get_keyMUlOT_E_EEENS_8sequenceImNS_9allocatorImEELb0EEENS_5sliceIT1_SM_EENSL_IT2_SO_EENSL_IT3_SQ_EERKT4_mmfEUlmE0_E8iteratorEEENS7_ISK_bEESN_SP_SR_mfbEUlmE1_EEvRNS_9schedulerINS_15WorkStealingJobEEEmmRSE_mbEUlvE0_E7executeEv, symObjAddr: 0x858A4, symBinAddr: 0x100088550, symSize: 0x24 }
  - { offset: 0x2A80B8, size: 0x8, addend: 0x0, symName: __ZN6parlay7JobImplIZNS_19fork_join_scheduler7parfor_IZNS_8internal11count_sort_INS_26uninitialized_relocate_tagEjPNSt3__14pairIllEES9_NS_16delayed_sequenceImmZNS3_14integer_sort_rINS6_17integral_constantIbLb0EEES5_S9_S9_S9_NS3_7get_keyMUlOT_E_EEENS_8sequenceImNS_9allocatorImEELb0EEENS_5sliceIT1_SM_EENSL_IT2_SO_EENSL_IT3_SQ_EERKT4_mmfEUlmE0_E8iteratorEEENS7_ISK_bEESN_SP_SR_mfbEUlmE0_EEvRNS_9schedulerINS_15WorkStealingJobEEEmmRSE_mbEUlvE0_ED1Ev, symObjAddr: 0x85F34, symBinAddr: 0x100088BE0, symSize: 0x4 }
  - { offset: 0x2A80E3, size: 0x8, addend: 0x0, symName: __ZN6parlay7JobImplIZNS_19fork_join_scheduler7parfor_IZNS_8internal11count_sort_INS_26uninitialized_relocate_tagEjPNSt3__14pairIllEES9_NS_16delayed_sequenceImmZNS3_14integer_sort_rINS6_17integral_constantIbLb0EEES5_S9_S9_S9_NS3_7get_keyMUlOT_E_EEENS_8sequenceImNS_9allocatorImEELb0EEENS_5sliceIT1_SM_EENSL_IT2_SO_EENSL_IT3_SQ_EERKT4_mmfEUlmE0_E8iteratorEEENS7_ISK_bEESN_SP_SR_mfbEUlmE0_EEvRNS_9schedulerINS_15WorkStealingJobEEEmmRSE_mbEUlvE0_ED0Ev, symObjAddr: 0x85F38, symBinAddr: 0x100088BE4, symSize: 0x4 }
  - { offset: 0x2A810E, size: 0x8, addend: 0x0, symName: __ZN6parlay7JobImplIZNS_19fork_join_scheduler7parfor_IZNS_8internal11count_sort_INS_26uninitialized_relocate_tagEjPNSt3__14pairIllEES9_NS_16delayed_sequenceImmZNS3_14integer_sort_rINS6_17integral_constantIbLb0EEES5_S9_S9_S9_NS3_7get_keyMUlOT_E_EEENS_8sequenceImNS_9allocatorImEELb0EEENS_5sliceIT1_SM_EENSL_IT2_SO_EENSL_IT3_SQ_EERKT4_mmfEUlmE0_E8iteratorEEENS7_ISK_bEESN_SP_SR_mfbEUlmE0_EEvRNS_9schedulerINS_15WorkStealingJobEEEmmRSE_mbEUlvE0_E7executeEv, symObjAddr: 0x85F3C, symBinAddr: 0x100088BE8, symSize: 0x24 }
  - { offset: 0x2A8454, size: 0x8, addend: 0x0, symName: __ZN6parlay7JobImplIZNS_19fork_join_scheduler7parfor_IZNS_8internal11count_sort_INS_26uninitialized_relocate_tagEjPNSt3__14pairIllEES9_NS_16delayed_sequenceImmZNS3_14integer_sort_rINS6_17integral_constantIbLb0EEES5_S9_S9_S9_NS3_7get_keyMUlOT_E_EEENS_8sequenceImNS_9allocatorImEELb0EEENS_5sliceIT1_SM_EENSL_IT2_SO_EENSL_IT3_SQ_EERKT4_mmfEUlmE0_E8iteratorEEENS7_ISK_bEESN_SP_SR_mfbEUlmE_EEvRNS_9schedulerINS_15WorkStealingJobEEEmmRSE_mbEUlvE0_ED1Ev, symObjAddr: 0x86708, symBinAddr: 0x1000893B4, symSize: 0x4 }
  - { offset: 0x2A847F, size: 0x8, addend: 0x0, symName: __ZN6parlay7JobImplIZNS_19fork_join_scheduler7parfor_IZNS_8internal11count_sort_INS_26uninitialized_relocate_tagEjPNSt3__14pairIllEES9_NS_16delayed_sequenceImmZNS3_14integer_sort_rINS6_17integral_constantIbLb0EEES5_S9_S9_S9_NS3_7get_keyMUlOT_E_EEENS_8sequenceImNS_9allocatorImEELb0EEENS_5sliceIT1_SM_EENSL_IT2_SO_EENSL_IT3_SQ_EERKT4_mmfEUlmE0_E8iteratorEEENS7_ISK_bEESN_SP_SR_mfbEUlmE_EEvRNS_9schedulerINS_15WorkStealingJobEEEmmRSE_mbEUlvE0_ED0Ev, symObjAddr: 0x8670C, symBinAddr: 0x1000893B8, symSize: 0x4 }
  - { offset: 0x2A84AA, size: 0x8, addend: 0x0, symName: __ZN6parlay7JobImplIZNS_19fork_join_scheduler7parfor_IZNS_8internal11count_sort_INS_26uninitialized_relocate_tagEjPNSt3__14pairIllEES9_NS_16delayed_sequenceImmZNS3_14integer_sort_rINS6_17integral_constantIbLb0EEES5_S9_S9_S9_NS3_7get_keyMUlOT_E_EEENS_8sequenceImNS_9allocatorImEELb0EEENS_5sliceIT1_SM_EENSL_IT2_SO_EENSL_IT3_SQ_EERKT4_mmfEUlmE0_E8iteratorEEENS7_ISK_bEESN_SP_SR_mfbEUlmE_EEvRNS_9schedulerINS_15WorkStealingJobEEEmmRSE_mbEUlvE0_E7executeEv, symObjAddr: 0x86710, symBinAddr: 0x1000893BC, symSize: 0x24 }
  - { offset: 0x2A87B7, size: 0x8, addend: 0x0, symName: __ZN6parlay7JobImplIZNS_19fork_join_scheduler7parfor_IZNS_8internal11count_sort_INS_26uninitialized_relocate_tagEmPNSt3__14pairIllEES9_NS_16delayed_sequenceImmZNS3_14integer_sort_rINS6_17integral_constantIbLb0EEES5_S9_S9_S9_NS3_7get_keyMUlOT_E_EEENS_8sequenceImNS_9allocatorImEELb0EEENS_5sliceIT1_SM_EENSL_IT2_SO_EENSL_IT3_SQ_EERKT4_mmfEUlmE_E8iteratorEEENS7_ISK_bEESN_SP_SR_mfbEUlmE2_EEvRNS_9schedulerINS_15WorkStealingJobEEEmmRSE_mbEUlvE0_ED1Ev, symObjAddr: 0x87040, symBinAddr: 0x100089CEC, symSize: 0x4 }
  - { offset: 0x2A87E2, size: 0x8, addend: 0x0, symName: __ZN6parlay7JobImplIZNS_19fork_join_scheduler7parfor_IZNS_8internal11count_sort_INS_26uninitialized_relocate_tagEmPNSt3__14pairIllEES9_NS_16delayed_sequenceImmZNS3_14integer_sort_rINS6_17integral_constantIbLb0EEES5_S9_S9_S9_NS3_7get_keyMUlOT_E_EEENS_8sequenceImNS_9allocatorImEELb0EEENS_5sliceIT1_SM_EENSL_IT2_SO_EENSL_IT3_SQ_EERKT4_mmfEUlmE_E8iteratorEEENS7_ISK_bEESN_SP_SR_mfbEUlmE2_EEvRNS_9schedulerINS_15WorkStealingJobEEEmmRSE_mbEUlvE0_ED0Ev, symObjAddr: 0x87044, symBinAddr: 0x100089CF0, symSize: 0x4 }
  - { offset: 0x2A880D, size: 0x8, addend: 0x0, symName: __ZN6parlay7JobImplIZNS_19fork_join_scheduler7parfor_IZNS_8internal11count_sort_INS_26uninitialized_relocate_tagEmPNSt3__14pairIllEES9_NS_16delayed_sequenceImmZNS3_14integer_sort_rINS6_17integral_constantIbLb0EEES5_S9_S9_S9_NS3_7get_keyMUlOT_E_EEENS_8sequenceImNS_9allocatorImEELb0EEENS_5sliceIT1_SM_EENSL_IT2_SO_EENSL_IT3_SQ_EERKT4_mmfEUlmE_E8iteratorEEENS7_ISK_bEESN_SP_SR_mfbEUlmE2_EEvRNS_9schedulerINS_15WorkStealingJobEEEmmRSE_mbEUlvE0_E7executeEv, symObjAddr: 0x87048, symBinAddr: 0x100089CF4, symSize: 0xD4 }
  - { offset: 0x2A8BBA, size: 0x8, addend: 0x0, symName: __ZN6parlay7JobImplIZNS_19fork_join_scheduler7parfor_IZNS_8internal11count_sort_INS_26uninitialized_relocate_tagEmPNSt3__14pairIllEES9_NS_16delayed_sequenceImmZNS3_14integer_sort_rINS6_17integral_constantIbLb0EEES5_S9_S9_S9_NS3_7get_keyMUlOT_E_EEENS_8sequenceImNS_9allocatorImEELb0EEENS_5sliceIT1_SM_EENSL_IT2_SO_EENSL_IT3_SQ_EERKT4_mmfEUlmE_E8iteratorEEENS7_ISK_bEESN_SP_SR_mfbEUlmE1_EEvRNS_9schedulerINS_15WorkStealingJobEEEmmRSE_mbEUlvE0_ED1Ev, symObjAddr: 0x87714, symBinAddr: 0x10008A3C0, symSize: 0x4 }
  - { offset: 0x2A8BE5, size: 0x8, addend: 0x0, symName: __ZN6parlay7JobImplIZNS_19fork_join_scheduler7parfor_IZNS_8internal11count_sort_INS_26uninitialized_relocate_tagEmPNSt3__14pairIllEES9_NS_16delayed_sequenceImmZNS3_14integer_sort_rINS6_17integral_constantIbLb0EEES5_S9_S9_S9_NS3_7get_keyMUlOT_E_EEENS_8sequenceImNS_9allocatorImEELb0EEENS_5sliceIT1_SM_EENSL_IT2_SO_EENSL_IT3_SQ_EERKT4_mmfEUlmE_E8iteratorEEENS7_ISK_bEESN_SP_SR_mfbEUlmE1_EEvRNS_9schedulerINS_15WorkStealingJobEEEmmRSE_mbEUlvE0_ED0Ev, symObjAddr: 0x87718, symBinAddr: 0x10008A3C4, symSize: 0x4 }
  - { offset: 0x2A8C10, size: 0x8, addend: 0x0, symName: __ZN6parlay7JobImplIZNS_19fork_join_scheduler7parfor_IZNS_8internal11count_sort_INS_26uninitialized_relocate_tagEmPNSt3__14pairIllEES9_NS_16delayed_sequenceImmZNS3_14integer_sort_rINS6_17integral_constantIbLb0EEES5_S9_S9_S9_NS3_7get_keyMUlOT_E_EEENS_8sequenceImNS_9allocatorImEELb0EEENS_5sliceIT1_SM_EENSL_IT2_SO_EENSL_IT3_SQ_EERKT4_mmfEUlmE_E8iteratorEEENS7_ISK_bEESN_SP_SR_mfbEUlmE1_EEvRNS_9schedulerINS_15WorkStealingJobEEEmmRSE_mbEUlvE0_E7executeEv, symObjAddr: 0x8771C, symBinAddr: 0x10008A3C8, symSize: 0x24 }
  - { offset: 0x2A8F56, size: 0x8, addend: 0x0, symName: __ZN6parlay7JobImplIZNS_19fork_join_scheduler7parfor_IZNS_8internal11count_sort_INS_26uninitialized_relocate_tagEmPNSt3__14pairIllEES9_NS_16delayed_sequenceImmZNS3_14integer_sort_rINS6_17integral_constantIbLb0EEES5_S9_S9_S9_NS3_7get_keyMUlOT_E_EEENS_8sequenceImNS_9allocatorImEELb0EEENS_5sliceIT1_SM_EENSL_IT2_SO_EENSL_IT3_SQ_EERKT4_mmfEUlmE_E8iteratorEEENS7_ISK_bEESN_SP_SR_mfbEUlmE0_EEvRNS_9schedulerINS_15WorkStealingJobEEEmmRSE_mbEUlvE0_ED1Ev, symObjAddr: 0x87D7C, symBinAddr: 0x10008AA28, symSize: 0x4 }
  - { offset: 0x2A8F81, size: 0x8, addend: 0x0, symName: __ZN6parlay7JobImplIZNS_19fork_join_scheduler7parfor_IZNS_8internal11count_sort_INS_26uninitialized_relocate_tagEmPNSt3__14pairIllEES9_NS_16delayed_sequenceImmZNS3_14integer_sort_rINS6_17integral_constantIbLb0EEES5_S9_S9_S9_NS3_7get_keyMUlOT_E_EEENS_8sequenceImNS_9allocatorImEELb0EEENS_5sliceIT1_SM_EENSL_IT2_SO_EENSL_IT3_SQ_EERKT4_mmfEUlmE_E8iteratorEEENS7_ISK_bEESN_SP_SR_mfbEUlmE0_EEvRNS_9schedulerINS_15WorkStealingJobEEEmmRSE_mbEUlvE0_ED0Ev, symObjAddr: 0x87D80, symBinAddr: 0x10008AA2C, symSize: 0x4 }
  - { offset: 0x2A8FAC, size: 0x8, addend: 0x0, symName: __ZN6parlay7JobImplIZNS_19fork_join_scheduler7parfor_IZNS_8internal11count_sort_INS_26uninitialized_relocate_tagEmPNSt3__14pairIllEES9_NS_16delayed_sequenceImmZNS3_14integer_sort_rINS6_17integral_constantIbLb0EEES5_S9_S9_S9_NS3_7get_keyMUlOT_E_EEENS_8sequenceImNS_9allocatorImEELb0EEENS_5sliceIT1_SM_EENSL_IT2_SO_EENSL_IT3_SQ_EERKT4_mmfEUlmE_E8iteratorEEENS7_ISK_bEESN_SP_SR_mfbEUlmE0_EEvRNS_9schedulerINS_15WorkStealingJobEEEmmRSE_mbEUlvE0_E7executeEv, symObjAddr: 0x87D84, symBinAddr: 0x10008AA30, symSize: 0x24 }
  - { offset: 0x2A92F2, size: 0x8, addend: 0x0, symName: __ZN6parlay7JobImplIZNS_19fork_join_scheduler7parfor_IZNS_8internal11count_sort_INS_26uninitialized_relocate_tagEmPNSt3__14pairIllEES9_NS_16delayed_sequenceImmZNS3_14integer_sort_rINS6_17integral_constantIbLb0EEES5_S9_S9_S9_NS3_7get_keyMUlOT_E_EEENS_8sequenceImNS_9allocatorImEELb0EEENS_5sliceIT1_SM_EENSL_IT2_SO_EENSL_IT3_SQ_EERKT4_mmfEUlmE_E8iteratorEEENS7_ISK_bEESN_SP_SR_mfbEUlmE_EEvRNS_9schedulerINS_15WorkStealingJobEEEmmRSE_mbEUlvE0_ED1Ev, symObjAddr: 0x88554, symBinAddr: 0x10008B200, symSize: 0x4 }
  - { offset: 0x2A931D, size: 0x8, addend: 0x0, symName: __ZN6parlay7JobImplIZNS_19fork_join_scheduler7parfor_IZNS_8internal11count_sort_INS_26uninitialized_relocate_tagEmPNSt3__14pairIllEES9_NS_16delayed_sequenceImmZNS3_14integer_sort_rINS6_17integral_constantIbLb0EEES5_S9_S9_S9_NS3_7get_keyMUlOT_E_EEENS_8sequenceImNS_9allocatorImEELb0EEENS_5sliceIT1_SM_EENSL_IT2_SO_EENSL_IT3_SQ_EERKT4_mmfEUlmE_E8iteratorEEENS7_ISK_bEESN_SP_SR_mfbEUlmE_EEvRNS_9schedulerINS_15WorkStealingJobEEEmmRSE_mbEUlvE0_ED0Ev, symObjAddr: 0x88558, symBinAddr: 0x10008B204, symSize: 0x4 }
  - { offset: 0x2A9348, size: 0x8, addend: 0x0, symName: __ZN6parlay7JobImplIZNS_19fork_join_scheduler7parfor_IZNS_8internal11count_sort_INS_26uninitialized_relocate_tagEmPNSt3__14pairIllEES9_NS_16delayed_sequenceImmZNS3_14integer_sort_rINS6_17integral_constantIbLb0EEES5_S9_S9_S9_NS3_7get_keyMUlOT_E_EEENS_8sequenceImNS_9allocatorImEELb0EEENS_5sliceIT1_SM_EENSL_IT2_SO_EENSL_IT3_SQ_EERKT4_mmfEUlmE_E8iteratorEEENS7_ISK_bEESN_SP_SR_mfbEUlmE_EEvRNS_9schedulerINS_15WorkStealingJobEEEmmRSE_mbEUlvE0_E7executeEv, symObjAddr: 0x8855C, symBinAddr: 0x10008B208, symSize: 0x24 }
  - { offset: 0x2A95BA, size: 0x8, addend: 0x0, symName: __ZN6parlay7JobImplIZNS_19fork_join_scheduler7parfor_IZNS_8internal11count_sort_INS_26uninitialized_relocate_tagEjPNSt3__14pairIllEES9_NS_16delayed_sequenceImmZNS3_14integer_sort_rINS6_17integral_constantIbLb0EEES5_S9_S9_S9_NS3_7get_keyMUlOT_E_EEENS_8sequenceImNS_9allocatorImEELb0EEENS_5sliceIT1_SM_EENSL_IT2_SO_EENSL_IT3_SQ_EERKT4_mmfEUlmE_E8iteratorEEENS7_ISK_bEESN_SP_SR_mfbEUlmE2_EEvRNS_9schedulerINS_15WorkStealingJobEEEmmRSE_mbEUlvE0_ED1Ev, symObjAddr: 0x88D30, symBinAddr: 0x10008B84C, symSize: 0x4 }
  - { offset: 0x2A95E5, size: 0x8, addend: 0x0, symName: __ZN6parlay7JobImplIZNS_19fork_join_scheduler7parfor_IZNS_8internal11count_sort_INS_26uninitialized_relocate_tagEjPNSt3__14pairIllEES9_NS_16delayed_sequenceImmZNS3_14integer_sort_rINS6_17integral_constantIbLb0EEES5_S9_S9_S9_NS3_7get_keyMUlOT_E_EEENS_8sequenceImNS_9allocatorImEELb0EEENS_5sliceIT1_SM_EENSL_IT2_SO_EENSL_IT3_SQ_EERKT4_mmfEUlmE_E8iteratorEEENS7_ISK_bEESN_SP_SR_mfbEUlmE2_EEvRNS_9schedulerINS_15WorkStealingJobEEEmmRSE_mbEUlvE0_ED0Ev, symObjAddr: 0x88D34, symBinAddr: 0x10008B850, symSize: 0x4 }
  - { offset: 0x2A9610, size: 0x8, addend: 0x0, symName: __ZN6parlay7JobImplIZNS_19fork_join_scheduler7parfor_IZNS_8internal11count_sort_INS_26uninitialized_relocate_tagEjPNSt3__14pairIllEES9_NS_16delayed_sequenceImmZNS3_14integer_sort_rINS6_17integral_constantIbLb0EEES5_S9_S9_S9_NS3_7get_keyMUlOT_E_EEENS_8sequenceImNS_9allocatorImEELb0EEENS_5sliceIT1_SM_EENSL_IT2_SO_EENSL_IT3_SQ_EERKT4_mmfEUlmE_E8iteratorEEENS7_ISK_bEESN_SP_SR_mfbEUlmE2_EEvRNS_9schedulerINS_15WorkStealingJobEEEmmRSE_mbEUlvE0_E7executeEv, symObjAddr: 0x88D38, symBinAddr: 0x10008B854, symSize: 0xD4 }
  - { offset: 0x2A99BD, size: 0x8, addend: 0x0, symName: __ZN6parlay7JobImplIZNS_19fork_join_scheduler7parfor_IZNS_8internal11count_sort_INS_26uninitialized_relocate_tagEjPNSt3__14pairIllEES9_NS_16delayed_sequenceImmZNS3_14integer_sort_rINS6_17integral_constantIbLb0EEES5_S9_S9_S9_NS3_7get_keyMUlOT_E_EEENS_8sequenceImNS_9allocatorImEELb0EEENS_5sliceIT1_SM_EENSL_IT2_SO_EENSL_IT3_SQ_EERKT4_mmfEUlmE_E8iteratorEEENS7_ISK_bEESN_SP_SR_mfbEUlmE1_EEvRNS_9schedulerINS_15WorkStealingJobEEEmmRSE_mbEUlvE0_ED1Ev, symObjAddr: 0x89404, symBinAddr: 0x10008BF20, symSize: 0x4 }
  - { offset: 0x2A99E8, size: 0x8, addend: 0x0, symName: __ZN6parlay7JobImplIZNS_19fork_join_scheduler7parfor_IZNS_8internal11count_sort_INS_26uninitialized_relocate_tagEjPNSt3__14pairIllEES9_NS_16delayed_sequenceImmZNS3_14integer_sort_rINS6_17integral_constantIbLb0EEES5_S9_S9_S9_NS3_7get_keyMUlOT_E_EEENS_8sequenceImNS_9allocatorImEELb0EEENS_5sliceIT1_SM_EENSL_IT2_SO_EENSL_IT3_SQ_EERKT4_mmfEUlmE_E8iteratorEEENS7_ISK_bEESN_SP_SR_mfbEUlmE1_EEvRNS_9schedulerINS_15WorkStealingJobEEEmmRSE_mbEUlvE0_ED0Ev, symObjAddr: 0x89408, symBinAddr: 0x10008BF24, symSize: 0x4 }
  - { offset: 0x2A9A13, size: 0x8, addend: 0x0, symName: __ZN6parlay7JobImplIZNS_19fork_join_scheduler7parfor_IZNS_8internal11count_sort_INS_26uninitialized_relocate_tagEjPNSt3__14pairIllEES9_NS_16delayed_sequenceImmZNS3_14integer_sort_rINS6_17integral_constantIbLb0EEES5_S9_S9_S9_NS3_7get_keyMUlOT_E_EEENS_8sequenceImNS_9allocatorImEELb0EEENS_5sliceIT1_SM_EENSL_IT2_SO_EENSL_IT3_SQ_EERKT4_mmfEUlmE_E8iteratorEEENS7_ISK_bEESN_SP_SR_mfbEUlmE1_EEvRNS_9schedulerINS_15WorkStealingJobEEEmmRSE_mbEUlvE0_E7executeEv, symObjAddr: 0x8940C, symBinAddr: 0x10008BF28, symSize: 0x24 }
  - { offset: 0x2A9D59, size: 0x8, addend: 0x0, symName: __ZN6parlay7JobImplIZNS_19fork_join_scheduler7parfor_IZNS_8internal11count_sort_INS_26uninitialized_relocate_tagEjPNSt3__14pairIllEES9_NS_16delayed_sequenceImmZNS3_14integer_sort_rINS6_17integral_constantIbLb0EEES5_S9_S9_S9_NS3_7get_keyMUlOT_E_EEENS_8sequenceImNS_9allocatorImEELb0EEENS_5sliceIT1_SM_EENSL_IT2_SO_EENSL_IT3_SQ_EERKT4_mmfEUlmE_E8iteratorEEENS7_ISK_bEESN_SP_SR_mfbEUlmE0_EEvRNS_9schedulerINS_15WorkStealingJobEEEmmRSE_mbEUlvE0_ED1Ev, symObjAddr: 0x89A9C, symBinAddr: 0x10008C5B8, symSize: 0x4 }
  - { offset: 0x2A9D84, size: 0x8, addend: 0x0, symName: __ZN6parlay7JobImplIZNS_19fork_join_scheduler7parfor_IZNS_8internal11count_sort_INS_26uninitialized_relocate_tagEjPNSt3__14pairIllEES9_NS_16delayed_sequenceImmZNS3_14integer_sort_rINS6_17integral_constantIbLb0EEES5_S9_S9_S9_NS3_7get_keyMUlOT_E_EEENS_8sequenceImNS_9allocatorImEELb0EEENS_5sliceIT1_SM_EENSL_IT2_SO_EENSL_IT3_SQ_EERKT4_mmfEUlmE_E8iteratorEEENS7_ISK_bEESN_SP_SR_mfbEUlmE0_EEvRNS_9schedulerINS_15WorkStealingJobEEEmmRSE_mbEUlvE0_ED0Ev, symObjAddr: 0x89AA0, symBinAddr: 0x10008C5BC, symSize: 0x4 }
  - { offset: 0x2A9DAF, size: 0x8, addend: 0x0, symName: __ZN6parlay7JobImplIZNS_19fork_join_scheduler7parfor_IZNS_8internal11count_sort_INS_26uninitialized_relocate_tagEjPNSt3__14pairIllEES9_NS_16delayed_sequenceImmZNS3_14integer_sort_rINS6_17integral_constantIbLb0EEES5_S9_S9_S9_NS3_7get_keyMUlOT_E_EEENS_8sequenceImNS_9allocatorImEELb0EEENS_5sliceIT1_SM_EENSL_IT2_SO_EENSL_IT3_SQ_EERKT4_mmfEUlmE_E8iteratorEEENS7_ISK_bEESN_SP_SR_mfbEUlmE0_EEvRNS_9schedulerINS_15WorkStealingJobEEEmmRSE_mbEUlvE0_E7executeEv, symObjAddr: 0x89AA4, symBinAddr: 0x10008C5C0, symSize: 0x24 }
  - { offset: 0x2AA0F5, size: 0x8, addend: 0x0, symName: __ZN6parlay7JobImplIZNS_19fork_join_scheduler7parfor_IZNS_8internal11count_sort_INS_26uninitialized_relocate_tagEjPNSt3__14pairIllEES9_NS_16delayed_sequenceImmZNS3_14integer_sort_rINS6_17integral_constantIbLb0EEES5_S9_S9_S9_NS3_7get_keyMUlOT_E_EEENS_8sequenceImNS_9allocatorImEELb0EEENS_5sliceIT1_SM_EENSL_IT2_SO_EENSL_IT3_SQ_EERKT4_mmfEUlmE_E8iteratorEEENS7_ISK_bEESN_SP_SR_mfbEUlmE_EEvRNS_9schedulerINS_15WorkStealingJobEEEmmRSE_mbEUlvE0_ED1Ev, symObjAddr: 0x8A264, symBinAddr: 0x10008CD80, symSize: 0x4 }
  - { offset: 0x2AA120, size: 0x8, addend: 0x0, symName: __ZN6parlay7JobImplIZNS_19fork_join_scheduler7parfor_IZNS_8internal11count_sort_INS_26uninitialized_relocate_tagEjPNSt3__14pairIllEES9_NS_16delayed_sequenceImmZNS3_14integer_sort_rINS6_17integral_constantIbLb0EEES5_S9_S9_S9_NS3_7get_keyMUlOT_E_EEENS_8sequenceImNS_9allocatorImEELb0EEENS_5sliceIT1_SM_EENSL_IT2_SO_EENSL_IT3_SQ_EERKT4_mmfEUlmE_E8iteratorEEENS7_ISK_bEESN_SP_SR_mfbEUlmE_EEvRNS_9schedulerINS_15WorkStealingJobEEEmmRSE_mbEUlvE0_ED0Ev, symObjAddr: 0x8A268, symBinAddr: 0x10008CD84, symSize: 0x4 }
  - { offset: 0x2AA14B, size: 0x8, addend: 0x0, symName: __ZN6parlay7JobImplIZNS_19fork_join_scheduler7parfor_IZNS_8internal11count_sort_INS_26uninitialized_relocate_tagEjPNSt3__14pairIllEES9_NS_16delayed_sequenceImmZNS3_14integer_sort_rINS6_17integral_constantIbLb0EEES5_S9_S9_S9_NS3_7get_keyMUlOT_E_EEENS_8sequenceImNS_9allocatorImEELb0EEENS_5sliceIT1_SM_EENSL_IT2_SO_EENSL_IT3_SQ_EERKT4_mmfEUlmE_E8iteratorEEENS7_ISK_bEESN_SP_SR_mfbEUlmE_EEvRNS_9schedulerINS_15WorkStealingJobEEEmmRSE_mbEUlvE0_E7executeEv, symObjAddr: 0x8A26C, symBinAddr: 0x10008CD88, symSize: 0x24 }
  - { offset: 0x2AA19E, size: 0x8, addend: 0x0, symName: __ZN6parlay7JobImplIZNS_19fork_join_scheduler7parfor_IZNS_8internal14integer_sort_rINSt3__117integral_constantIbLb1EEENS_26uninitialized_relocate_tagEPNS5_4pairIllEESB_SB_NS3_7get_keyMUlOT_E_EEENS_8sequenceImNS_9allocatorImEELb0EEENS_5sliceIT1_SK_EENSJ_IT2_SM_EENSJ_IT3_SO_EERKT4_mmfEUlmE1_EEvRNS_9schedulerINS_15WorkStealingJobEEEmmRSC_mbEUlvE0_ED1Ev, symObjAddr: 0x8A290, symBinAddr: 0x10008CDAC, symSize: 0x4 }
  - { offset: 0x2AA1C9, size: 0x8, addend: 0x0, symName: __ZN6parlay7JobImplIZNS_19fork_join_scheduler7parfor_IZNS_8internal14integer_sort_rINSt3__117integral_constantIbLb1EEENS_26uninitialized_relocate_tagEPNS5_4pairIllEESB_SB_NS3_7get_keyMUlOT_E_EEENS_8sequenceImNS_9allocatorImEELb0EEENS_5sliceIT1_SK_EENSJ_IT2_SM_EENSJ_IT3_SO_EERKT4_mmfEUlmE1_EEvRNS_9schedulerINS_15WorkStealingJobEEEmmRSC_mbEUlvE0_ED0Ev, symObjAddr: 0x8A294, symBinAddr: 0x10008CDB0, symSize: 0x4 }
  - { offset: 0x2AA1F4, size: 0x8, addend: 0x0, symName: __ZN6parlay7JobImplIZNS_19fork_join_scheduler7parfor_IZNS_8internal14integer_sort_rINSt3__117integral_constantIbLb1EEENS_26uninitialized_relocate_tagEPNS5_4pairIllEESB_SB_NS3_7get_keyMUlOT_E_EEENS_8sequenceImNS_9allocatorImEELb0EEENS_5sliceIT1_SK_EENSJ_IT2_SM_EENSJ_IT3_SO_EERKT4_mmfEUlmE1_EEvRNS_9schedulerINS_15WorkStealingJobEEEmmRSC_mbEUlvE0_E7executeEv, symObjAddr: 0x8A298, symBinAddr: 0x10008CDB4, symSize: 0xD4 }
  - { offset: 0x2AA63D, size: 0x8, addend: 0x0, symName: __ZN6parlay7JobImplIZNS_19fork_join_scheduler7parfor_IZNS_8internal11count_sort_INS_26uninitialized_relocate_tagEmPNSt3__14pairIllEES9_NS_16delayed_sequenceImmZNS3_14integer_sort_rINS6_17integral_constantIbLb1EEES5_S9_S9_S9_NS3_7get_keyMUlOT_E_EEENS_8sequenceImNS_9allocatorImEELb0EEENS_5sliceIT1_SM_EENSL_IT2_SO_EENSL_IT3_SQ_EERKT4_mmfEUlmE0_E8iteratorEEENS7_ISK_bEESN_SP_SR_mfbEUlmE2_EEvRNS_9schedulerINS_15WorkStealingJobEEEmmRSE_mbEUlvE0_ED1Ev, symObjAddr: 0x8ABEC, symBinAddr: 0x10008D5F4, symSize: 0x4 }
  - { offset: 0x2AA668, size: 0x8, addend: 0x0, symName: __ZN6parlay7JobImplIZNS_19fork_join_scheduler7parfor_IZNS_8internal11count_sort_INS_26uninitialized_relocate_tagEmPNSt3__14pairIllEES9_NS_16delayed_sequenceImmZNS3_14integer_sort_rINS6_17integral_constantIbLb1EEES5_S9_S9_S9_NS3_7get_keyMUlOT_E_EEENS_8sequenceImNS_9allocatorImEELb0EEENS_5sliceIT1_SM_EENSL_IT2_SO_EENSL_IT3_SQ_EERKT4_mmfEUlmE0_E8iteratorEEENS7_ISK_bEESN_SP_SR_mfbEUlmE2_EEvRNS_9schedulerINS_15WorkStealingJobEEEmmRSE_mbEUlvE0_ED0Ev, symObjAddr: 0x8ABF0, symBinAddr: 0x10008D5F8, symSize: 0x4 }
  - { offset: 0x2AA693, size: 0x8, addend: 0x0, symName: __ZN6parlay7JobImplIZNS_19fork_join_scheduler7parfor_IZNS_8internal11count_sort_INS_26uninitialized_relocate_tagEmPNSt3__14pairIllEES9_NS_16delayed_sequenceImmZNS3_14integer_sort_rINS6_17integral_constantIbLb1EEES5_S9_S9_S9_NS3_7get_keyMUlOT_E_EEENS_8sequenceImNS_9allocatorImEELb0EEENS_5sliceIT1_SM_EENSL_IT2_SO_EENSL_IT3_SQ_EERKT4_mmfEUlmE0_E8iteratorEEENS7_ISK_bEESN_SP_SR_mfbEUlmE2_EEvRNS_9schedulerINS_15WorkStealingJobEEEmmRSE_mbEUlvE0_E7executeEv, symObjAddr: 0x8ABF4, symBinAddr: 0x10008D5FC, symSize: 0x24 }
  - { offset: 0x2AA9D9, size: 0x8, addend: 0x0, symName: __ZN6parlay7JobImplIZNS_19fork_join_scheduler7parfor_IZNS_8internal11count_sort_INS_26uninitialized_relocate_tagEmPNSt3__14pairIllEES9_NS_16delayed_sequenceImmZNS3_14integer_sort_rINS6_17integral_constantIbLb1EEES5_S9_S9_S9_NS3_7get_keyMUlOT_E_EEENS_8sequenceImNS_9allocatorImEELb0EEENS_5sliceIT1_SM_EENSL_IT2_SO_EENSL_IT3_SQ_EERKT4_mmfEUlmE0_E8iteratorEEENS7_ISK_bEESN_SP_SR_mfbEUlmE1_EEvRNS_9schedulerINS_15WorkStealingJobEEEmmRSE_mbEUlvE0_ED1Ev, symObjAddr: 0x8B210, symBinAddr: 0x10008DC18, symSize: 0x4 }
  - { offset: 0x2AAA04, size: 0x8, addend: 0x0, symName: __ZN6parlay7JobImplIZNS_19fork_join_scheduler7parfor_IZNS_8internal11count_sort_INS_26uninitialized_relocate_tagEmPNSt3__14pairIllEES9_NS_16delayed_sequenceImmZNS3_14integer_sort_rINS6_17integral_constantIbLb1EEES5_S9_S9_S9_NS3_7get_keyMUlOT_E_EEENS_8sequenceImNS_9allocatorImEELb0EEENS_5sliceIT1_SM_EENSL_IT2_SO_EENSL_IT3_SQ_EERKT4_mmfEUlmE0_E8iteratorEEENS7_ISK_bEESN_SP_SR_mfbEUlmE1_EEvRNS_9schedulerINS_15WorkStealingJobEEEmmRSE_mbEUlvE0_ED0Ev, symObjAddr: 0x8B214, symBinAddr: 0x10008DC1C, symSize: 0x4 }
  - { offset: 0x2AAA2F, size: 0x8, addend: 0x0, symName: __ZN6parlay7JobImplIZNS_19fork_join_scheduler7parfor_IZNS_8internal11count_sort_INS_26uninitialized_relocate_tagEmPNSt3__14pairIllEES9_NS_16delayed_sequenceImmZNS3_14integer_sort_rINS6_17integral_constantIbLb1EEES5_S9_S9_S9_NS3_7get_keyMUlOT_E_EEENS_8sequenceImNS_9allocatorImEELb0EEENS_5sliceIT1_SM_EENSL_IT2_SO_EENSL_IT3_SQ_EERKT4_mmfEUlmE0_E8iteratorEEENS7_ISK_bEESN_SP_SR_mfbEUlmE1_EEvRNS_9schedulerINS_15WorkStealingJobEEEmmRSE_mbEUlvE0_E7executeEv, symObjAddr: 0x8B218, symBinAddr: 0x10008DC20, symSize: 0x24 }
  - { offset: 0x2AAD75, size: 0x8, addend: 0x0, symName: __ZN6parlay7JobImplIZNS_19fork_join_scheduler7parfor_IZNS_8internal11count_sort_INS_26uninitialized_relocate_tagEmPNSt3__14pairIllEES9_NS_16delayed_sequenceImmZNS3_14integer_sort_rINS6_17integral_constantIbLb1EEES5_S9_S9_S9_NS3_7get_keyMUlOT_E_EEENS_8sequenceImNS_9allocatorImEELb0EEENS_5sliceIT1_SM_EENSL_IT2_SO_EENSL_IT3_SQ_EERKT4_mmfEUlmE0_E8iteratorEEENS7_ISK_bEESN_SP_SR_mfbEUlmE0_EEvRNS_9schedulerINS_15WorkStealingJobEEEmmRSE_mbEUlvE0_ED1Ev, symObjAddr: 0x8B878, symBinAddr: 0x10008E280, symSize: 0x4 }
  - { offset: 0x2AADA0, size: 0x8, addend: 0x0, symName: __ZN6parlay7JobImplIZNS_19fork_join_scheduler7parfor_IZNS_8internal11count_sort_INS_26uninitialized_relocate_tagEmPNSt3__14pairIllEES9_NS_16delayed_sequenceImmZNS3_14integer_sort_rINS6_17integral_constantIbLb1EEES5_S9_S9_S9_NS3_7get_keyMUlOT_E_EEENS_8sequenceImNS_9allocatorImEELb0EEENS_5sliceIT1_SM_EENSL_IT2_SO_EENSL_IT3_SQ_EERKT4_mmfEUlmE0_E8iteratorEEENS7_ISK_bEESN_SP_SR_mfbEUlmE0_EEvRNS_9schedulerINS_15WorkStealingJobEEEmmRSE_mbEUlvE0_ED0Ev, symObjAddr: 0x8B87C, symBinAddr: 0x10008E284, symSize: 0x4 }
  - { offset: 0x2AADCB, size: 0x8, addend: 0x0, symName: __ZN6parlay7JobImplIZNS_19fork_join_scheduler7parfor_IZNS_8internal11count_sort_INS_26uninitialized_relocate_tagEmPNSt3__14pairIllEES9_NS_16delayed_sequenceImmZNS3_14integer_sort_rINS6_17integral_constantIbLb1EEES5_S9_S9_S9_NS3_7get_keyMUlOT_E_EEENS_8sequenceImNS_9allocatorImEELb0EEENS_5sliceIT1_SM_EENSL_IT2_SO_EENSL_IT3_SQ_EERKT4_mmfEUlmE0_E8iteratorEEENS7_ISK_bEESN_SP_SR_mfbEUlmE0_EEvRNS_9schedulerINS_15WorkStealingJobEEEmmRSE_mbEUlvE0_E7executeEv, symObjAddr: 0x8B880, symBinAddr: 0x10008E288, symSize: 0x24 }
  - { offset: 0x2AB111, size: 0x8, addend: 0x0, symName: __ZN6parlay7JobImplIZNS_19fork_join_scheduler7parfor_IZNS_8internal11count_sort_INS_26uninitialized_relocate_tagEmPNSt3__14pairIllEES9_NS_16delayed_sequenceImmZNS3_14integer_sort_rINS6_17integral_constantIbLb1EEES5_S9_S9_S9_NS3_7get_keyMUlOT_E_EEENS_8sequenceImNS_9allocatorImEELb0EEENS_5sliceIT1_SM_EENSL_IT2_SO_EENSL_IT3_SQ_EERKT4_mmfEUlmE0_E8iteratorEEENS7_ISK_bEESN_SP_SR_mfbEUlmE_EEvRNS_9schedulerINS_15WorkStealingJobEEEmmRSE_mbEUlvE0_ED1Ev, symObjAddr: 0x8C05C, symBinAddr: 0x10008EA64, symSize: 0x4 }
  - { offset: 0x2AB13C, size: 0x8, addend: 0x0, symName: __ZN6parlay7JobImplIZNS_19fork_join_scheduler7parfor_IZNS_8internal11count_sort_INS_26uninitialized_relocate_tagEmPNSt3__14pairIllEES9_NS_16delayed_sequenceImmZNS3_14integer_sort_rINS6_17integral_constantIbLb1EEES5_S9_S9_S9_NS3_7get_keyMUlOT_E_EEENS_8sequenceImNS_9allocatorImEELb0EEENS_5sliceIT1_SM_EENSL_IT2_SO_EENSL_IT3_SQ_EERKT4_mmfEUlmE0_E8iteratorEEENS7_ISK_bEESN_SP_SR_mfbEUlmE_EEvRNS_9schedulerINS_15WorkStealingJobEEEmmRSE_mbEUlvE0_ED0Ev, symObjAddr: 0x8C060, symBinAddr: 0x10008EA68, symSize: 0x4 }
  - { offset: 0x2AB167, size: 0x8, addend: 0x0, symName: __ZN6parlay7JobImplIZNS_19fork_join_scheduler7parfor_IZNS_8internal11count_sort_INS_26uninitialized_relocate_tagEmPNSt3__14pairIllEES9_NS_16delayed_sequenceImmZNS3_14integer_sort_rINS6_17integral_constantIbLb1EEES5_S9_S9_S9_NS3_7get_keyMUlOT_E_EEENS_8sequenceImNS_9allocatorImEELb0EEENS_5sliceIT1_SM_EENSL_IT2_SO_EENSL_IT3_SQ_EERKT4_mmfEUlmE0_E8iteratorEEENS7_ISK_bEESN_SP_SR_mfbEUlmE_EEvRNS_9schedulerINS_15WorkStealingJobEEEmmRSE_mbEUlvE0_E7executeEv, symObjAddr: 0x8C064, symBinAddr: 0x10008EA6C, symSize: 0x24 }
  - { offset: 0x2AB4AD, size: 0x8, addend: 0x0, symName: __ZN6parlay7JobImplIZNS_19fork_join_scheduler7parfor_IZNS_8internal11count_sort_INS_26uninitialized_relocate_tagEjPNSt3__14pairIllEES9_NS_16delayed_sequenceImmZNS3_14integer_sort_rINS6_17integral_constantIbLb1EEES5_S9_S9_S9_NS3_7get_keyMUlOT_E_EEENS_8sequenceImNS_9allocatorImEELb0EEENS_5sliceIT1_SM_EENSL_IT2_SO_EENSL_IT3_SQ_EERKT4_mmfEUlmE0_E8iteratorEEENS7_ISK_bEESN_SP_SR_mfbEUlmE2_EEvRNS_9schedulerINS_15WorkStealingJobEEEmmRSE_mbEUlvE0_ED1Ev, symObjAddr: 0x8C694, symBinAddr: 0x10008F09C, symSize: 0x4 }
  - { offset: 0x2AB4D8, size: 0x8, addend: 0x0, symName: __ZN6parlay7JobImplIZNS_19fork_join_scheduler7parfor_IZNS_8internal11count_sort_INS_26uninitialized_relocate_tagEjPNSt3__14pairIllEES9_NS_16delayed_sequenceImmZNS3_14integer_sort_rINS6_17integral_constantIbLb1EEES5_S9_S9_S9_NS3_7get_keyMUlOT_E_EEENS_8sequenceImNS_9allocatorImEELb0EEENS_5sliceIT1_SM_EENSL_IT2_SO_EENSL_IT3_SQ_EERKT4_mmfEUlmE0_E8iteratorEEENS7_ISK_bEESN_SP_SR_mfbEUlmE2_EEvRNS_9schedulerINS_15WorkStealingJobEEEmmRSE_mbEUlvE0_ED0Ev, symObjAddr: 0x8C698, symBinAddr: 0x10008F0A0, symSize: 0x4 }
  - { offset: 0x2AB503, size: 0x8, addend: 0x0, symName: __ZN6parlay7JobImplIZNS_19fork_join_scheduler7parfor_IZNS_8internal11count_sort_INS_26uninitialized_relocate_tagEjPNSt3__14pairIllEES9_NS_16delayed_sequenceImmZNS3_14integer_sort_rINS6_17integral_constantIbLb1EEES5_S9_S9_S9_NS3_7get_keyMUlOT_E_EEENS_8sequenceImNS_9allocatorImEELb0EEENS_5sliceIT1_SM_EENSL_IT2_SO_EENSL_IT3_SQ_EERKT4_mmfEUlmE0_E8iteratorEEENS7_ISK_bEESN_SP_SR_mfbEUlmE2_EEvRNS_9schedulerINS_15WorkStealingJobEEEmmRSE_mbEUlvE0_E7executeEv, symObjAddr: 0x8C69C, symBinAddr: 0x10008F0A4, symSize: 0x24 }
  - { offset: 0x2AB849, size: 0x8, addend: 0x0, symName: __ZN6parlay7JobImplIZNS_19fork_join_scheduler7parfor_IZNS_8internal11count_sort_INS_26uninitialized_relocate_tagEjPNSt3__14pairIllEES9_NS_16delayed_sequenceImmZNS3_14integer_sort_rINS6_17integral_constantIbLb1EEES5_S9_S9_S9_NS3_7get_keyMUlOT_E_EEENS_8sequenceImNS_9allocatorImEELb0EEENS_5sliceIT1_SM_EENSL_IT2_SO_EENSL_IT3_SQ_EERKT4_mmfEUlmE0_E8iteratorEEENS7_ISK_bEESN_SP_SR_mfbEUlmE1_EEvRNS_9schedulerINS_15WorkStealingJobEEEmmRSE_mbEUlvE0_ED1Ev, symObjAddr: 0x8CCB8, symBinAddr: 0x10008F6C0, symSize: 0x4 }
  - { offset: 0x2AB874, size: 0x8, addend: 0x0, symName: __ZN6parlay7JobImplIZNS_19fork_join_scheduler7parfor_IZNS_8internal11count_sort_INS_26uninitialized_relocate_tagEjPNSt3__14pairIllEES9_NS_16delayed_sequenceImmZNS3_14integer_sort_rINS6_17integral_constantIbLb1EEES5_S9_S9_S9_NS3_7get_keyMUlOT_E_EEENS_8sequenceImNS_9allocatorImEELb0EEENS_5sliceIT1_SM_EENSL_IT2_SO_EENSL_IT3_SQ_EERKT4_mmfEUlmE0_E8iteratorEEENS7_ISK_bEESN_SP_SR_mfbEUlmE1_EEvRNS_9schedulerINS_15WorkStealingJobEEEmmRSE_mbEUlvE0_ED0Ev, symObjAddr: 0x8CCBC, symBinAddr: 0x10008F6C4, symSize: 0x4 }
  - { offset: 0x2AB89F, size: 0x8, addend: 0x0, symName: __ZN6parlay7JobImplIZNS_19fork_join_scheduler7parfor_IZNS_8internal11count_sort_INS_26uninitialized_relocate_tagEjPNSt3__14pairIllEES9_NS_16delayed_sequenceImmZNS3_14integer_sort_rINS6_17integral_constantIbLb1EEES5_S9_S9_S9_NS3_7get_keyMUlOT_E_EEENS_8sequenceImNS_9allocatorImEELb0EEENS_5sliceIT1_SM_EENSL_IT2_SO_EENSL_IT3_SQ_EERKT4_mmfEUlmE0_E8iteratorEEENS7_ISK_bEESN_SP_SR_mfbEUlmE1_EEvRNS_9schedulerINS_15WorkStealingJobEEEmmRSE_mbEUlvE0_E7executeEv, symObjAddr: 0x8CCC0, symBinAddr: 0x10008F6C8, symSize: 0x24 }
  - { offset: 0x2ABBE5, size: 0x8, addend: 0x0, symName: __ZN6parlay7JobImplIZNS_19fork_join_scheduler7parfor_IZNS_8internal11count_sort_INS_26uninitialized_relocate_tagEjPNSt3__14pairIllEES9_NS_16delayed_sequenceImmZNS3_14integer_sort_rINS6_17integral_constantIbLb1EEES5_S9_S9_S9_NS3_7get_keyMUlOT_E_EEENS_8sequenceImNS_9allocatorImEELb0EEENS_5sliceIT1_SM_EENSL_IT2_SO_EENSL_IT3_SQ_EERKT4_mmfEUlmE0_E8iteratorEEENS7_ISK_bEESN_SP_SR_mfbEUlmE0_EEvRNS_9schedulerINS_15WorkStealingJobEEEmmRSE_mbEUlvE0_ED1Ev, symObjAddr: 0x8D350, symBinAddr: 0x10008FD58, symSize: 0x4 }
  - { offset: 0x2ABC10, size: 0x8, addend: 0x0, symName: __ZN6parlay7JobImplIZNS_19fork_join_scheduler7parfor_IZNS_8internal11count_sort_INS_26uninitialized_relocate_tagEjPNSt3__14pairIllEES9_NS_16delayed_sequenceImmZNS3_14integer_sort_rINS6_17integral_constantIbLb1EEES5_S9_S9_S9_NS3_7get_keyMUlOT_E_EEENS_8sequenceImNS_9allocatorImEELb0EEENS_5sliceIT1_SM_EENSL_IT2_SO_EENSL_IT3_SQ_EERKT4_mmfEUlmE0_E8iteratorEEENS7_ISK_bEESN_SP_SR_mfbEUlmE0_EEvRNS_9schedulerINS_15WorkStealingJobEEEmmRSE_mbEUlvE0_ED0Ev, symObjAddr: 0x8D354, symBinAddr: 0x10008FD5C, symSize: 0x4 }
  - { offset: 0x2ABC3B, size: 0x8, addend: 0x0, symName: __ZN6parlay7JobImplIZNS_19fork_join_scheduler7parfor_IZNS_8internal11count_sort_INS_26uninitialized_relocate_tagEjPNSt3__14pairIllEES9_NS_16delayed_sequenceImmZNS3_14integer_sort_rINS6_17integral_constantIbLb1EEES5_S9_S9_S9_NS3_7get_keyMUlOT_E_EEENS_8sequenceImNS_9allocatorImEELb0EEENS_5sliceIT1_SM_EENSL_IT2_SO_EENSL_IT3_SQ_EERKT4_mmfEUlmE0_E8iteratorEEENS7_ISK_bEESN_SP_SR_mfbEUlmE0_EEvRNS_9schedulerINS_15WorkStealingJobEEEmmRSE_mbEUlvE0_E7executeEv, symObjAddr: 0x8D358, symBinAddr: 0x10008FD60, symSize: 0x24 }
  - { offset: 0x2ABF81, size: 0x8, addend: 0x0, symName: __ZN6parlay7JobImplIZNS_19fork_join_scheduler7parfor_IZNS_8internal11count_sort_INS_26uninitialized_relocate_tagEjPNSt3__14pairIllEES9_NS_16delayed_sequenceImmZNS3_14integer_sort_rINS6_17integral_constantIbLb1EEES5_S9_S9_S9_NS3_7get_keyMUlOT_E_EEENS_8sequenceImNS_9allocatorImEELb0EEENS_5sliceIT1_SM_EENSL_IT2_SO_EENSL_IT3_SQ_EERKT4_mmfEUlmE0_E8iteratorEEENS7_ISK_bEESN_SP_SR_mfbEUlmE_EEvRNS_9schedulerINS_15WorkStealingJobEEEmmRSE_mbEUlvE0_ED1Ev, symObjAddr: 0x8DB24, symBinAddr: 0x10009052C, symSize: 0x4 }
  - { offset: 0x2ABFAC, size: 0x8, addend: 0x0, symName: __ZN6parlay7JobImplIZNS_19fork_join_scheduler7parfor_IZNS_8internal11count_sort_INS_26uninitialized_relocate_tagEjPNSt3__14pairIllEES9_NS_16delayed_sequenceImmZNS3_14integer_sort_rINS6_17integral_constantIbLb1EEES5_S9_S9_S9_NS3_7get_keyMUlOT_E_EEENS_8sequenceImNS_9allocatorImEELb0EEENS_5sliceIT1_SM_EENSL_IT2_SO_EENSL_IT3_SQ_EERKT4_mmfEUlmE0_E8iteratorEEENS7_ISK_bEESN_SP_SR_mfbEUlmE_EEvRNS_9schedulerINS_15WorkStealingJobEEEmmRSE_mbEUlvE0_ED0Ev, symObjAddr: 0x8DB28, symBinAddr: 0x100090530, symSize: 0x4 }
  - { offset: 0x2ABFD7, size: 0x8, addend: 0x0, symName: __ZN6parlay7JobImplIZNS_19fork_join_scheduler7parfor_IZNS_8internal11count_sort_INS_26uninitialized_relocate_tagEjPNSt3__14pairIllEES9_NS_16delayed_sequenceImmZNS3_14integer_sort_rINS6_17integral_constantIbLb1EEES5_S9_S9_S9_NS3_7get_keyMUlOT_E_EEENS_8sequenceImNS_9allocatorImEELb0EEENS_5sliceIT1_SM_EENSL_IT2_SO_EENSL_IT3_SQ_EERKT4_mmfEUlmE0_E8iteratorEEENS7_ISK_bEESN_SP_SR_mfbEUlmE_EEvRNS_9schedulerINS_15WorkStealingJobEEEmmRSE_mbEUlvE0_E7executeEv, symObjAddr: 0x8DB2C, symBinAddr: 0x100090534, symSize: 0x24 }
  - { offset: 0x2AC249, size: 0x8, addend: 0x0, symName: __ZN6parlay7JobImplIZNS_19fork_join_scheduler7parfor_IZNS_24uninitialized_relocate_nIPNSt3__14pairIllEElS7_EENS5_IT_T1_EES8_T0_S9_EUlmE_EEvRNS_9schedulerINS_15WorkStealingJobEEEmmRS8_mbEUlvE0_ED1Ev, symObjAddr: 0x8E1D8, symBinAddr: 0x100090BE0, symSize: 0x4 }
  - { offset: 0x2AC274, size: 0x8, addend: 0x0, symName: __ZN6parlay7JobImplIZNS_19fork_join_scheduler7parfor_IZNS_24uninitialized_relocate_nIPNSt3__14pairIllEElS7_EENS5_IT_T1_EES8_T0_S9_EUlmE_EEvRNS_9schedulerINS_15WorkStealingJobEEEmmRS8_mbEUlvE0_ED0Ev, symObjAddr: 0x8E1DC, symBinAddr: 0x100090BE4, symSize: 0x4 }
  - { offset: 0x2AC29F, size: 0x8, addend: 0x0, symName: __ZN6parlay7JobImplIZNS_19fork_join_scheduler7parfor_IZNS_24uninitialized_relocate_nIPNSt3__14pairIllEElS7_EENS5_IT_T1_EES8_T0_S9_EUlmE_EEvRNS_9schedulerINS_15WorkStealingJobEEEmmRS8_mbEUlvE0_E7executeEv, symObjAddr: 0x8E1E0, symBinAddr: 0x100090BE8, symSize: 0x108 }
  - { offset: 0x2AC68C, size: 0x8, addend: 0x0, symName: __ZN6parlay7JobImplIZNS_19fork_join_scheduler7parfor_IZNS_8internal11count_sort_INS_26uninitialized_relocate_tagEmPNSt3__14pairIllEES9_NS_16delayed_sequenceImmZNS3_14integer_sort_rINS6_17integral_constantIbLb1EEES5_S9_S9_S9_NS3_7get_keyMUlOT_E_EEENS_8sequenceImNS_9allocatorImEELb0EEENS_5sliceIT1_SM_EENSL_IT2_SO_EENSL_IT3_SQ_EERKT4_mmfEUlmE_E8iteratorEEENS7_ISK_bEESN_SP_SR_mfbEUlmE2_EEvRNS_9schedulerINS_15WorkStealingJobEEEmmRSE_mbEUlvE0_ED1Ev, symObjAddr: 0x8EBF4, symBinAddr: 0x10009146C, symSize: 0x4 }
  - { offset: 0x2AC6B7, size: 0x8, addend: 0x0, symName: __ZN6parlay7JobImplIZNS_19fork_join_scheduler7parfor_IZNS_8internal11count_sort_INS_26uninitialized_relocate_tagEmPNSt3__14pairIllEES9_NS_16delayed_sequenceImmZNS3_14integer_sort_rINS6_17integral_constantIbLb1EEES5_S9_S9_S9_NS3_7get_keyMUlOT_E_EEENS_8sequenceImNS_9allocatorImEELb0EEENS_5sliceIT1_SM_EENSL_IT2_SO_EENSL_IT3_SQ_EERKT4_mmfEUlmE_E8iteratorEEENS7_ISK_bEESN_SP_SR_mfbEUlmE2_EEvRNS_9schedulerINS_15WorkStealingJobEEEmmRSE_mbEUlvE0_ED0Ev, symObjAddr: 0x8EBF8, symBinAddr: 0x100091470, symSize: 0x4 }
  - { offset: 0x2AC6E2, size: 0x8, addend: 0x0, symName: __ZN6parlay7JobImplIZNS_19fork_join_scheduler7parfor_IZNS_8internal11count_sort_INS_26uninitialized_relocate_tagEmPNSt3__14pairIllEES9_NS_16delayed_sequenceImmZNS3_14integer_sort_rINS6_17integral_constantIbLb1EEES5_S9_S9_S9_NS3_7get_keyMUlOT_E_EEENS_8sequenceImNS_9allocatorImEELb0EEENS_5sliceIT1_SM_EENSL_IT2_SO_EENSL_IT3_SQ_EERKT4_mmfEUlmE_E8iteratorEEENS7_ISK_bEESN_SP_SR_mfbEUlmE2_EEvRNS_9schedulerINS_15WorkStealingJobEEEmmRSE_mbEUlvE0_E7executeEv, symObjAddr: 0x8EBFC, symBinAddr: 0x100091474, symSize: 0xD4 }
  - { offset: 0x2ACA8F, size: 0x8, addend: 0x0, symName: __ZN6parlay7JobImplIZNS_19fork_join_scheduler7parfor_IZNS_8internal11count_sort_INS_26uninitialized_relocate_tagEmPNSt3__14pairIllEES9_NS_16delayed_sequenceImmZNS3_14integer_sort_rINS6_17integral_constantIbLb1EEES5_S9_S9_S9_NS3_7get_keyMUlOT_E_EEENS_8sequenceImNS_9allocatorImEELb0EEENS_5sliceIT1_SM_EENSL_IT2_SO_EENSL_IT3_SQ_EERKT4_mmfEUlmE_E8iteratorEEENS7_ISK_bEESN_SP_SR_mfbEUlmE1_EEvRNS_9schedulerINS_15WorkStealingJobEEEmmRSE_mbEUlvE0_ED1Ev, symObjAddr: 0x8F2C8, symBinAddr: 0x100091B40, symSize: 0x4 }
  - { offset: 0x2ACABA, size: 0x8, addend: 0x0, symName: __ZN6parlay7JobImplIZNS_19fork_join_scheduler7parfor_IZNS_8internal11count_sort_INS_26uninitialized_relocate_tagEmPNSt3__14pairIllEES9_NS_16delayed_sequenceImmZNS3_14integer_sort_rINS6_17integral_constantIbLb1EEES5_S9_S9_S9_NS3_7get_keyMUlOT_E_EEENS_8sequenceImNS_9allocatorImEELb0EEENS_5sliceIT1_SM_EENSL_IT2_SO_EENSL_IT3_SQ_EERKT4_mmfEUlmE_E8iteratorEEENS7_ISK_bEESN_SP_SR_mfbEUlmE1_EEvRNS_9schedulerINS_15WorkStealingJobEEEmmRSE_mbEUlvE0_ED0Ev, symObjAddr: 0x8F2CC, symBinAddr: 0x100091B44, symSize: 0x4 }
  - { offset: 0x2ACAE5, size: 0x8, addend: 0x0, symName: __ZN6parlay7JobImplIZNS_19fork_join_scheduler7parfor_IZNS_8internal11count_sort_INS_26uninitialized_relocate_tagEmPNSt3__14pairIllEES9_NS_16delayed_sequenceImmZNS3_14integer_sort_rINS6_17integral_constantIbLb1EEES5_S9_S9_S9_NS3_7get_keyMUlOT_E_EEENS_8sequenceImNS_9allocatorImEELb0EEENS_5sliceIT1_SM_EENSL_IT2_SO_EENSL_IT3_SQ_EERKT4_mmfEUlmE_E8iteratorEEENS7_ISK_bEESN_SP_SR_mfbEUlmE1_EEvRNS_9schedulerINS_15WorkStealingJobEEEmmRSE_mbEUlvE0_E7executeEv, symObjAddr: 0x8F2D0, symBinAddr: 0x100091B48, symSize: 0x24 }
  - { offset: 0x2ACE2B, size: 0x8, addend: 0x0, symName: __ZN6parlay7JobImplIZNS_19fork_join_scheduler7parfor_IZNS_8internal11count_sort_INS_26uninitialized_relocate_tagEmPNSt3__14pairIllEES9_NS_16delayed_sequenceImmZNS3_14integer_sort_rINS6_17integral_constantIbLb1EEES5_S9_S9_S9_NS3_7get_keyMUlOT_E_EEENS_8sequenceImNS_9allocatorImEELb0EEENS_5sliceIT1_SM_EENSL_IT2_SO_EENSL_IT3_SQ_EERKT4_mmfEUlmE_E8iteratorEEENS7_ISK_bEESN_SP_SR_mfbEUlmE0_EEvRNS_9schedulerINS_15WorkStealingJobEEEmmRSE_mbEUlvE0_ED1Ev, symObjAddr: 0x8F930, symBinAddr: 0x1000921A8, symSize: 0x4 }
  - { offset: 0x2ACE56, size: 0x8, addend: 0x0, symName: __ZN6parlay7JobImplIZNS_19fork_join_scheduler7parfor_IZNS_8internal11count_sort_INS_26uninitialized_relocate_tagEmPNSt3__14pairIllEES9_NS_16delayed_sequenceImmZNS3_14integer_sort_rINS6_17integral_constantIbLb1EEES5_S9_S9_S9_NS3_7get_keyMUlOT_E_EEENS_8sequenceImNS_9allocatorImEELb0EEENS_5sliceIT1_SM_EENSL_IT2_SO_EENSL_IT3_SQ_EERKT4_mmfEUlmE_E8iteratorEEENS7_ISK_bEESN_SP_SR_mfbEUlmE0_EEvRNS_9schedulerINS_15WorkStealingJobEEEmmRSE_mbEUlvE0_ED0Ev, symObjAddr: 0x8F934, symBinAddr: 0x1000921AC, symSize: 0x4 }
  - { offset: 0x2ACE81, size: 0x8, addend: 0x0, symName: __ZN6parlay7JobImplIZNS_19fork_join_scheduler7parfor_IZNS_8internal11count_sort_INS_26uninitialized_relocate_tagEmPNSt3__14pairIllEES9_NS_16delayed_sequenceImmZNS3_14integer_sort_rINS6_17integral_constantIbLb1EEES5_S9_S9_S9_NS3_7get_keyMUlOT_E_EEENS_8sequenceImNS_9allocatorImEELb0EEENS_5sliceIT1_SM_EENSL_IT2_SO_EENSL_IT3_SQ_EERKT4_mmfEUlmE_E8iteratorEEENS7_ISK_bEESN_SP_SR_mfbEUlmE0_EEvRNS_9schedulerINS_15WorkStealingJobEEEmmRSE_mbEUlvE0_E7executeEv, symObjAddr: 0x8F938, symBinAddr: 0x1000921B0, symSize: 0x24 }
  - { offset: 0x2AD1C7, size: 0x8, addend: 0x0, symName: __ZN6parlay7JobImplIZNS_19fork_join_scheduler7parfor_IZNS_8internal11count_sort_INS_26uninitialized_relocate_tagEmPNSt3__14pairIllEES9_NS_16delayed_sequenceImmZNS3_14integer_sort_rINS6_17integral_constantIbLb1EEES5_S9_S9_S9_NS3_7get_keyMUlOT_E_EEENS_8sequenceImNS_9allocatorImEELb0EEENS_5sliceIT1_SM_EENSL_IT2_SO_EENSL_IT3_SQ_EERKT4_mmfEUlmE_E8iteratorEEENS7_ISK_bEESN_SP_SR_mfbEUlmE_EEvRNS_9schedulerINS_15WorkStealingJobEEEmmRSE_mbEUlvE0_ED1Ev, symObjAddr: 0x90108, symBinAddr: 0x100092980, symSize: 0x4 }
  - { offset: 0x2AD1F2, size: 0x8, addend: 0x0, symName: __ZN6parlay7JobImplIZNS_19fork_join_scheduler7parfor_IZNS_8internal11count_sort_INS_26uninitialized_relocate_tagEmPNSt3__14pairIllEES9_NS_16delayed_sequenceImmZNS3_14integer_sort_rINS6_17integral_constantIbLb1EEES5_S9_S9_S9_NS3_7get_keyMUlOT_E_EEENS_8sequenceImNS_9allocatorImEELb0EEENS_5sliceIT1_SM_EENSL_IT2_SO_EENSL_IT3_SQ_EERKT4_mmfEUlmE_E8iteratorEEENS7_ISK_bEESN_SP_SR_mfbEUlmE_EEvRNS_9schedulerINS_15WorkStealingJobEEEmmRSE_mbEUlvE0_ED0Ev, symObjAddr: 0x9010C, symBinAddr: 0x100092984, symSize: 0x4 }
  - { offset: 0x2AD21D, size: 0x8, addend: 0x0, symName: __ZN6parlay7JobImplIZNS_19fork_join_scheduler7parfor_IZNS_8internal11count_sort_INS_26uninitialized_relocate_tagEmPNSt3__14pairIllEES9_NS_16delayed_sequenceImmZNS3_14integer_sort_rINS6_17integral_constantIbLb1EEES5_S9_S9_S9_NS3_7get_keyMUlOT_E_EEENS_8sequenceImNS_9allocatorImEELb0EEENS_5sliceIT1_SM_EENSL_IT2_SO_EENSL_IT3_SQ_EERKT4_mmfEUlmE_E8iteratorEEENS7_ISK_bEESN_SP_SR_mfbEUlmE_EEvRNS_9schedulerINS_15WorkStealingJobEEEmmRSE_mbEUlvE0_E7executeEv, symObjAddr: 0x90110, symBinAddr: 0x100092988, symSize: 0x24 }
  - { offset: 0x2AD48F, size: 0x8, addend: 0x0, symName: __ZN6parlay7JobImplIZNS_19fork_join_scheduler7parfor_IZNS_8internal11count_sort_INS_26uninitialized_relocate_tagEjPNSt3__14pairIllEES9_NS_16delayed_sequenceImmZNS3_14integer_sort_rINS6_17integral_constantIbLb1EEES5_S9_S9_S9_NS3_7get_keyMUlOT_E_EEENS_8sequenceImNS_9allocatorImEELb0EEENS_5sliceIT1_SM_EENSL_IT2_SO_EENSL_IT3_SQ_EERKT4_mmfEUlmE_E8iteratorEEENS7_ISK_bEESN_SP_SR_mfbEUlmE2_EEvRNS_9schedulerINS_15WorkStealingJobEEEmmRSE_mbEUlvE0_ED1Ev, symObjAddr: 0x908E4, symBinAddr: 0x100092FCC, symSize: 0x4 }
  - { offset: 0x2AD4BA, size: 0x8, addend: 0x0, symName: __ZN6parlay7JobImplIZNS_19fork_join_scheduler7parfor_IZNS_8internal11count_sort_INS_26uninitialized_relocate_tagEjPNSt3__14pairIllEES9_NS_16delayed_sequenceImmZNS3_14integer_sort_rINS6_17integral_constantIbLb1EEES5_S9_S9_S9_NS3_7get_keyMUlOT_E_EEENS_8sequenceImNS_9allocatorImEELb0EEENS_5sliceIT1_SM_EENSL_IT2_SO_EENSL_IT3_SQ_EERKT4_mmfEUlmE_E8iteratorEEENS7_ISK_bEESN_SP_SR_mfbEUlmE2_EEvRNS_9schedulerINS_15WorkStealingJobEEEmmRSE_mbEUlvE0_ED0Ev, symObjAddr: 0x908E8, symBinAddr: 0x100092FD0, symSize: 0x4 }
  - { offset: 0x2AD4E5, size: 0x8, addend: 0x0, symName: __ZN6parlay7JobImplIZNS_19fork_join_scheduler7parfor_IZNS_8internal11count_sort_INS_26uninitialized_relocate_tagEjPNSt3__14pairIllEES9_NS_16delayed_sequenceImmZNS3_14integer_sort_rINS6_17integral_constantIbLb1EEES5_S9_S9_S9_NS3_7get_keyMUlOT_E_EEENS_8sequenceImNS_9allocatorImEELb0EEENS_5sliceIT1_SM_EENSL_IT2_SO_EENSL_IT3_SQ_EERKT4_mmfEUlmE_E8iteratorEEENS7_ISK_bEESN_SP_SR_mfbEUlmE2_EEvRNS_9schedulerINS_15WorkStealingJobEEEmmRSE_mbEUlvE0_E7executeEv, symObjAddr: 0x908EC, symBinAddr: 0x100092FD4, symSize: 0xD4 }
  - { offset: 0x2AD892, size: 0x8, addend: 0x0, symName: __ZN6parlay7JobImplIZNS_19fork_join_scheduler7parfor_IZNS_8internal11count_sort_INS_26uninitialized_relocate_tagEjPNSt3__14pairIllEES9_NS_16delayed_sequenceImmZNS3_14integer_sort_rINS6_17integral_constantIbLb1EEES5_S9_S9_S9_NS3_7get_keyMUlOT_E_EEENS_8sequenceImNS_9allocatorImEELb0EEENS_5sliceIT1_SM_EENSL_IT2_SO_EENSL_IT3_SQ_EERKT4_mmfEUlmE_E8iteratorEEENS7_ISK_bEESN_SP_SR_mfbEUlmE1_EEvRNS_9schedulerINS_15WorkStealingJobEEEmmRSE_mbEUlvE0_ED1Ev, symObjAddr: 0x90FB8, symBinAddr: 0x1000936A0, symSize: 0x4 }
  - { offset: 0x2AD8BD, size: 0x8, addend: 0x0, symName: __ZN6parlay7JobImplIZNS_19fork_join_scheduler7parfor_IZNS_8internal11count_sort_INS_26uninitialized_relocate_tagEjPNSt3__14pairIllEES9_NS_16delayed_sequenceImmZNS3_14integer_sort_rINS6_17integral_constantIbLb1EEES5_S9_S9_S9_NS3_7get_keyMUlOT_E_EEENS_8sequenceImNS_9allocatorImEELb0EEENS_5sliceIT1_SM_EENSL_IT2_SO_EENSL_IT3_SQ_EERKT4_mmfEUlmE_E8iteratorEEENS7_ISK_bEESN_SP_SR_mfbEUlmE1_EEvRNS_9schedulerINS_15WorkStealingJobEEEmmRSE_mbEUlvE0_ED0Ev, symObjAddr: 0x90FBC, symBinAddr: 0x1000936A4, symSize: 0x4 }
  - { offset: 0x2AD8E8, size: 0x8, addend: 0x0, symName: __ZN6parlay7JobImplIZNS_19fork_join_scheduler7parfor_IZNS_8internal11count_sort_INS_26uninitialized_relocate_tagEjPNSt3__14pairIllEES9_NS_16delayed_sequenceImmZNS3_14integer_sort_rINS6_17integral_constantIbLb1EEES5_S9_S9_S9_NS3_7get_keyMUlOT_E_EEENS_8sequenceImNS_9allocatorImEELb0EEENS_5sliceIT1_SM_EENSL_IT2_SO_EENSL_IT3_SQ_EERKT4_mmfEUlmE_E8iteratorEEENS7_ISK_bEESN_SP_SR_mfbEUlmE1_EEvRNS_9schedulerINS_15WorkStealingJobEEEmmRSE_mbEUlvE0_E7executeEv, symObjAddr: 0x90FC0, symBinAddr: 0x1000936A8, symSize: 0x24 }
  - { offset: 0x2ADC2E, size: 0x8, addend: 0x0, symName: __ZN6parlay7JobImplIZNS_19fork_join_scheduler7parfor_IZNS_8internal11count_sort_INS_26uninitialized_relocate_tagEjPNSt3__14pairIllEES9_NS_16delayed_sequenceImmZNS3_14integer_sort_rINS6_17integral_constantIbLb1EEES5_S9_S9_S9_NS3_7get_keyMUlOT_E_EEENS_8sequenceImNS_9allocatorImEELb0EEENS_5sliceIT1_SM_EENSL_IT2_SO_EENSL_IT3_SQ_EERKT4_mmfEUlmE_E8iteratorEEENS7_ISK_bEESN_SP_SR_mfbEUlmE0_EEvRNS_9schedulerINS_15WorkStealingJobEEEmmRSE_mbEUlvE0_ED1Ev, symObjAddr: 0x91650, symBinAddr: 0x100093D38, symSize: 0x4 }
  - { offset: 0x2ADC59, size: 0x8, addend: 0x0, symName: __ZN6parlay7JobImplIZNS_19fork_join_scheduler7parfor_IZNS_8internal11count_sort_INS_26uninitialized_relocate_tagEjPNSt3__14pairIllEES9_NS_16delayed_sequenceImmZNS3_14integer_sort_rINS6_17integral_constantIbLb1EEES5_S9_S9_S9_NS3_7get_keyMUlOT_E_EEENS_8sequenceImNS_9allocatorImEELb0EEENS_5sliceIT1_SM_EENSL_IT2_SO_EENSL_IT3_SQ_EERKT4_mmfEUlmE_E8iteratorEEENS7_ISK_bEESN_SP_SR_mfbEUlmE0_EEvRNS_9schedulerINS_15WorkStealingJobEEEmmRSE_mbEUlvE0_ED0Ev, symObjAddr: 0x91654, symBinAddr: 0x100093D3C, symSize: 0x4 }
  - { offset: 0x2ADC84, size: 0x8, addend: 0x0, symName: __ZN6parlay7JobImplIZNS_19fork_join_scheduler7parfor_IZNS_8internal11count_sort_INS_26uninitialized_relocate_tagEjPNSt3__14pairIllEES9_NS_16delayed_sequenceImmZNS3_14integer_sort_rINS6_17integral_constantIbLb1EEES5_S9_S9_S9_NS3_7get_keyMUlOT_E_EEENS_8sequenceImNS_9allocatorImEELb0EEENS_5sliceIT1_SM_EENSL_IT2_SO_EENSL_IT3_SQ_EERKT4_mmfEUlmE_E8iteratorEEENS7_ISK_bEESN_SP_SR_mfbEUlmE0_EEvRNS_9schedulerINS_15WorkStealingJobEEEmmRSE_mbEUlvE0_E7executeEv, symObjAddr: 0x91658, symBinAddr: 0x100093D40, symSize: 0x24 }
  - { offset: 0x2ADFCA, size: 0x8, addend: 0x0, symName: __ZN6parlay7JobImplIZNS_19fork_join_scheduler7parfor_IZNS_8internal11count_sort_INS_26uninitialized_relocate_tagEjPNSt3__14pairIllEES9_NS_16delayed_sequenceImmZNS3_14integer_sort_rINS6_17integral_constantIbLb1EEES5_S9_S9_S9_NS3_7get_keyMUlOT_E_EEENS_8sequenceImNS_9allocatorImEELb0EEENS_5sliceIT1_SM_EENSL_IT2_SO_EENSL_IT3_SQ_EERKT4_mmfEUlmE_E8iteratorEEENS7_ISK_bEESN_SP_SR_mfbEUlmE_EEvRNS_9schedulerINS_15WorkStealingJobEEEmmRSE_mbEUlvE0_ED1Ev, symObjAddr: 0x91E18, symBinAddr: 0x100094500, symSize: 0x4 }
  - { offset: 0x2ADFF5, size: 0x8, addend: 0x0, symName: __ZN6parlay7JobImplIZNS_19fork_join_scheduler7parfor_IZNS_8internal11count_sort_INS_26uninitialized_relocate_tagEjPNSt3__14pairIllEES9_NS_16delayed_sequenceImmZNS3_14integer_sort_rINS6_17integral_constantIbLb1EEES5_S9_S9_S9_NS3_7get_keyMUlOT_E_EEENS_8sequenceImNS_9allocatorImEELb0EEENS_5sliceIT1_SM_EENSL_IT2_SO_EENSL_IT3_SQ_EERKT4_mmfEUlmE_E8iteratorEEENS7_ISK_bEESN_SP_SR_mfbEUlmE_EEvRNS_9schedulerINS_15WorkStealingJobEEEmmRSE_mbEUlvE0_ED0Ev, symObjAddr: 0x91E1C, symBinAddr: 0x100094504, symSize: 0x4 }
  - { offset: 0x2AE020, size: 0x8, addend: 0x0, symName: __ZN6parlay7JobImplIZNS_19fork_join_scheduler7parfor_IZNS_8internal11count_sort_INS_26uninitialized_relocate_tagEjPNSt3__14pairIllEES9_NS_16delayed_sequenceImmZNS3_14integer_sort_rINS6_17integral_constantIbLb1EEES5_S9_S9_S9_NS3_7get_keyMUlOT_E_EEENS_8sequenceImNS_9allocatorImEELb0EEENS_5sliceIT1_SM_EENSL_IT2_SO_EENSL_IT3_SQ_EERKT4_mmfEUlmE_E8iteratorEEENS7_ISK_bEESN_SP_SR_mfbEUlmE_EEvRNS_9schedulerINS_15WorkStealingJobEEEmmRSE_mbEUlvE0_E7executeEv, symObjAddr: 0x91E20, symBinAddr: 0x100094508, symSize: 0x24 }
  - { offset: 0x2AE073, size: 0x8, addend: 0x0, symName: __ZN6parlay7JobImplIZNS_19fork_join_scheduler7parfor_IZNS_8internal14integer_sort_rINSt3__117integral_constantIbLb0EEENS_22uninitialized_copy_tagEPNS5_4pairIllEESB_SB_NS3_7get_keyMUlOT_E_EEENS_8sequenceImNS_9allocatorImEELb0EEENS_5sliceIT1_SK_EENSJ_IT2_SM_EENSJ_IT3_SO_EERKT4_mmfEUlmE2_EEvRNS_9schedulerINS_15WorkStealingJobEEEmmRSC_mbEUlvE0_ED1Ev, symObjAddr: 0x91E44, symBinAddr: 0x10009452C, symSize: 0x4 }
  - { offset: 0x2AE09E, size: 0x8, addend: 0x0, symName: __ZN6parlay7JobImplIZNS_19fork_join_scheduler7parfor_IZNS_8internal14integer_sort_rINSt3__117integral_constantIbLb0EEENS_22uninitialized_copy_tagEPNS5_4pairIllEESB_SB_NS3_7get_keyMUlOT_E_EEENS_8sequenceImNS_9allocatorImEELb0EEENS_5sliceIT1_SK_EENSJ_IT2_SM_EENSJ_IT3_SO_EERKT4_mmfEUlmE2_EEvRNS_9schedulerINS_15WorkStealingJobEEEmmRSC_mbEUlvE0_ED0Ev, symObjAddr: 0x91E48, symBinAddr: 0x100094530, symSize: 0x4 }
  - { offset: 0x2AE0C9, size: 0x8, addend: 0x0, symName: __ZN6parlay7JobImplIZNS_19fork_join_scheduler7parfor_IZNS_8internal14integer_sort_rINSt3__117integral_constantIbLb0EEENS_22uninitialized_copy_tagEPNS5_4pairIllEESB_SB_NS3_7get_keyMUlOT_E_EEENS_8sequenceImNS_9allocatorImEELb0EEENS_5sliceIT1_SK_EENSJ_IT2_SM_EENSJ_IT3_SO_EERKT4_mmfEUlmE2_EEvRNS_9schedulerINS_15WorkStealingJobEEEmmRSC_mbEUlvE0_E7executeEv, symObjAddr: 0x91E4C, symBinAddr: 0x100094534, symSize: 0xD4 }
  - { offset: 0x2AE512, size: 0x8, addend: 0x0, symName: __ZN6parlay7JobImplIZNS_19fork_join_scheduler7parfor_IZNS_8internal11count_sort_INS_22uninitialized_copy_tagEmPNSt3__14pairIllEES9_NS_16delayed_sequenceImmZNS3_14integer_sort_rINS6_17integral_constantIbLb0EEES5_S9_S9_S9_NS3_7get_keyMUlOT_E_EEENS_8sequenceImNS_9allocatorImEELb0EEENS_5sliceIT1_SM_EENSL_IT2_SO_EENSL_IT3_SQ_EERKT4_mmfEUlmE1_E8iteratorEEENS7_ISK_bEESN_SP_SR_mfbEUlmE2_EEvRNS_9schedulerINS_15WorkStealingJobEEEmmRSE_mbEUlvE0_ED1Ev, symObjAddr: 0x927A0, symBinAddr: 0x100094D74, symSize: 0x4 }
  - { offset: 0x2AE53D, size: 0x8, addend: 0x0, symName: __ZN6parlay7JobImplIZNS_19fork_join_scheduler7parfor_IZNS_8internal11count_sort_INS_22uninitialized_copy_tagEmPNSt3__14pairIllEES9_NS_16delayed_sequenceImmZNS3_14integer_sort_rINS6_17integral_constantIbLb0EEES5_S9_S9_S9_NS3_7get_keyMUlOT_E_EEENS_8sequenceImNS_9allocatorImEELb0EEENS_5sliceIT1_SM_EENSL_IT2_SO_EENSL_IT3_SQ_EERKT4_mmfEUlmE1_E8iteratorEEENS7_ISK_bEESN_SP_SR_mfbEUlmE2_EEvRNS_9schedulerINS_15WorkStealingJobEEEmmRSE_mbEUlvE0_ED0Ev, symObjAddr: 0x927A4, symBinAddr: 0x100094D78, symSize: 0x4 }
  - { offset: 0x2AE568, size: 0x8, addend: 0x0, symName: __ZN6parlay7JobImplIZNS_19fork_join_scheduler7parfor_IZNS_8internal11count_sort_INS_22uninitialized_copy_tagEmPNSt3__14pairIllEES9_NS_16delayed_sequenceImmZNS3_14integer_sort_rINS6_17integral_constantIbLb0EEES5_S9_S9_S9_NS3_7get_keyMUlOT_E_EEENS_8sequenceImNS_9allocatorImEELb0EEENS_5sliceIT1_SM_EENSL_IT2_SO_EENSL_IT3_SQ_EERKT4_mmfEUlmE1_E8iteratorEEENS7_ISK_bEESN_SP_SR_mfbEUlmE2_EEvRNS_9schedulerINS_15WorkStealingJobEEEmmRSE_mbEUlvE0_E7executeEv, symObjAddr: 0x927A8, symBinAddr: 0x100094D7C, symSize: 0x24 }
  - { offset: 0x2AE8AE, size: 0x8, addend: 0x0, symName: __ZN6parlay7JobImplIZNS_19fork_join_scheduler7parfor_IZNS_8internal11count_sort_INS_22uninitialized_copy_tagEmPNSt3__14pairIllEES9_NS_16delayed_sequenceImmZNS3_14integer_sort_rINS6_17integral_constantIbLb0EEES5_S9_S9_S9_NS3_7get_keyMUlOT_E_EEENS_8sequenceImNS_9allocatorImEELb0EEENS_5sliceIT1_SM_EENSL_IT2_SO_EENSL_IT3_SQ_EERKT4_mmfEUlmE1_E8iteratorEEENS7_ISK_bEESN_SP_SR_mfbEUlmE1_EEvRNS_9schedulerINS_15WorkStealingJobEEEmmRSE_mbEUlvE0_ED1Ev, symObjAddr: 0x92DC4, symBinAddr: 0x100095398, symSize: 0x4 }
  - { offset: 0x2AE8D9, size: 0x8, addend: 0x0, symName: __ZN6parlay7JobImplIZNS_19fork_join_scheduler7parfor_IZNS_8internal11count_sort_INS_22uninitialized_copy_tagEmPNSt3__14pairIllEES9_NS_16delayed_sequenceImmZNS3_14integer_sort_rINS6_17integral_constantIbLb0EEES5_S9_S9_S9_NS3_7get_keyMUlOT_E_EEENS_8sequenceImNS_9allocatorImEELb0EEENS_5sliceIT1_SM_EENSL_IT2_SO_EENSL_IT3_SQ_EERKT4_mmfEUlmE1_E8iteratorEEENS7_ISK_bEESN_SP_SR_mfbEUlmE1_EEvRNS_9schedulerINS_15WorkStealingJobEEEmmRSE_mbEUlvE0_ED0Ev, symObjAddr: 0x92DC8, symBinAddr: 0x10009539C, symSize: 0x4 }
  - { offset: 0x2AE904, size: 0x8, addend: 0x0, symName: __ZN6parlay7JobImplIZNS_19fork_join_scheduler7parfor_IZNS_8internal11count_sort_INS_22uninitialized_copy_tagEmPNSt3__14pairIllEES9_NS_16delayed_sequenceImmZNS3_14integer_sort_rINS6_17integral_constantIbLb0EEES5_S9_S9_S9_NS3_7get_keyMUlOT_E_EEENS_8sequenceImNS_9allocatorImEELb0EEENS_5sliceIT1_SM_EENSL_IT2_SO_EENSL_IT3_SQ_EERKT4_mmfEUlmE1_E8iteratorEEENS7_ISK_bEESN_SP_SR_mfbEUlmE1_EEvRNS_9schedulerINS_15WorkStealingJobEEEmmRSE_mbEUlvE0_E7executeEv, symObjAddr: 0x92DCC, symBinAddr: 0x1000953A0, symSize: 0x24 }
  - { offset: 0x2AEC4A, size: 0x8, addend: 0x0, symName: __ZN6parlay7JobImplIZNS_19fork_join_scheduler7parfor_IZNS_8internal11count_sort_INS_22uninitialized_copy_tagEmPNSt3__14pairIllEES9_NS_16delayed_sequenceImmZNS3_14integer_sort_rINS6_17integral_constantIbLb0EEES5_S9_S9_S9_NS3_7get_keyMUlOT_E_EEENS_8sequenceImNS_9allocatorImEELb0EEENS_5sliceIT1_SM_EENSL_IT2_SO_EENSL_IT3_SQ_EERKT4_mmfEUlmE1_E8iteratorEEENS7_ISK_bEESN_SP_SR_mfbEUlmE0_EEvRNS_9schedulerINS_15WorkStealingJobEEEmmRSE_mbEUlvE0_ED1Ev, symObjAddr: 0x9342C, symBinAddr: 0x100095A00, symSize: 0x4 }
  - { offset: 0x2AEC75, size: 0x8, addend: 0x0, symName: __ZN6parlay7JobImplIZNS_19fork_join_scheduler7parfor_IZNS_8internal11count_sort_INS_22uninitialized_copy_tagEmPNSt3__14pairIllEES9_NS_16delayed_sequenceImmZNS3_14integer_sort_rINS6_17integral_constantIbLb0EEES5_S9_S9_S9_NS3_7get_keyMUlOT_E_EEENS_8sequenceImNS_9allocatorImEELb0EEENS_5sliceIT1_SM_EENSL_IT2_SO_EENSL_IT3_SQ_EERKT4_mmfEUlmE1_E8iteratorEEENS7_ISK_bEESN_SP_SR_mfbEUlmE0_EEvRNS_9schedulerINS_15WorkStealingJobEEEmmRSE_mbEUlvE0_ED0Ev, symObjAddr: 0x93430, symBinAddr: 0x100095A04, symSize: 0x4 }
  - { offset: 0x2AECA0, size: 0x8, addend: 0x0, symName: __ZN6parlay7JobImplIZNS_19fork_join_scheduler7parfor_IZNS_8internal11count_sort_INS_22uninitialized_copy_tagEmPNSt3__14pairIllEES9_NS_16delayed_sequenceImmZNS3_14integer_sort_rINS6_17integral_constantIbLb0EEES5_S9_S9_S9_NS3_7get_keyMUlOT_E_EEENS_8sequenceImNS_9allocatorImEELb0EEENS_5sliceIT1_SM_EENSL_IT2_SO_EENSL_IT3_SQ_EERKT4_mmfEUlmE1_E8iteratorEEENS7_ISK_bEESN_SP_SR_mfbEUlmE0_EEvRNS_9schedulerINS_15WorkStealingJobEEEmmRSE_mbEUlvE0_E7executeEv, symObjAddr: 0x93434, symBinAddr: 0x100095A08, symSize: 0x24 }
  - { offset: 0x2AEFE6, size: 0x8, addend: 0x0, symName: __ZN6parlay7JobImplIZNS_19fork_join_scheduler7parfor_IZNS_8internal11count_sort_INS_22uninitialized_copy_tagEmPNSt3__14pairIllEES9_NS_16delayed_sequenceImmZNS3_14integer_sort_rINS6_17integral_constantIbLb0EEES5_S9_S9_S9_NS3_7get_keyMUlOT_E_EEENS_8sequenceImNS_9allocatorImEELb0EEENS_5sliceIT1_SM_EENSL_IT2_SO_EENSL_IT3_SQ_EERKT4_mmfEUlmE1_E8iteratorEEENS7_ISK_bEESN_SP_SR_mfbEUlmE_EEvRNS_9schedulerINS_15WorkStealingJobEEEmmRSE_mbEUlvE0_ED1Ev, symObjAddr: 0x93C10, symBinAddr: 0x1000961E4, symSize: 0x4 }
  - { offset: 0x2AF011, size: 0x8, addend: 0x0, symName: __ZN6parlay7JobImplIZNS_19fork_join_scheduler7parfor_IZNS_8internal11count_sort_INS_22uninitialized_copy_tagEmPNSt3__14pairIllEES9_NS_16delayed_sequenceImmZNS3_14integer_sort_rINS6_17integral_constantIbLb0EEES5_S9_S9_S9_NS3_7get_keyMUlOT_E_EEENS_8sequenceImNS_9allocatorImEELb0EEENS_5sliceIT1_SM_EENSL_IT2_SO_EENSL_IT3_SQ_EERKT4_mmfEUlmE1_E8iteratorEEENS7_ISK_bEESN_SP_SR_mfbEUlmE_EEvRNS_9schedulerINS_15WorkStealingJobEEEmmRSE_mbEUlvE0_ED0Ev, symObjAddr: 0x93C14, symBinAddr: 0x1000961E8, symSize: 0x4 }
  - { offset: 0x2AF03C, size: 0x8, addend: 0x0, symName: __ZN6parlay7JobImplIZNS_19fork_join_scheduler7parfor_IZNS_8internal11count_sort_INS_22uninitialized_copy_tagEmPNSt3__14pairIllEES9_NS_16delayed_sequenceImmZNS3_14integer_sort_rINS6_17integral_constantIbLb0EEES5_S9_S9_S9_NS3_7get_keyMUlOT_E_EEENS_8sequenceImNS_9allocatorImEELb0EEENS_5sliceIT1_SM_EENSL_IT2_SO_EENSL_IT3_SQ_EERKT4_mmfEUlmE1_E8iteratorEEENS7_ISK_bEESN_SP_SR_mfbEUlmE_EEvRNS_9schedulerINS_15WorkStealingJobEEEmmRSE_mbEUlvE0_E7executeEv, symObjAddr: 0x93C18, symBinAddr: 0x1000961EC, symSize: 0x24 }
  - { offset: 0x2AF382, size: 0x8, addend: 0x0, symName: __ZN6parlay7JobImplIZNS_19fork_join_scheduler7parfor_IZNS_8internal11count_sort_INS_22uninitialized_copy_tagEjPNSt3__14pairIllEES9_NS_16delayed_sequenceImmZNS3_14integer_sort_rINS6_17integral_constantIbLb0EEES5_S9_S9_S9_NS3_7get_keyMUlOT_E_EEENS_8sequenceImNS_9allocatorImEELb0EEENS_5sliceIT1_SM_EENSL_IT2_SO_EENSL_IT3_SQ_EERKT4_mmfEUlmE1_E8iteratorEEENS7_ISK_bEESN_SP_SR_mfbEUlmE2_EEvRNS_9schedulerINS_15WorkStealingJobEEEmmRSE_mbEUlvE0_ED1Ev, symObjAddr: 0x94248, symBinAddr: 0x10009681C, symSize: 0x4 }
  - { offset: 0x2AF3AD, size: 0x8, addend: 0x0, symName: __ZN6parlay7JobImplIZNS_19fork_join_scheduler7parfor_IZNS_8internal11count_sort_INS_22uninitialized_copy_tagEjPNSt3__14pairIllEES9_NS_16delayed_sequenceImmZNS3_14integer_sort_rINS6_17integral_constantIbLb0EEES5_S9_S9_S9_NS3_7get_keyMUlOT_E_EEENS_8sequenceImNS_9allocatorImEELb0EEENS_5sliceIT1_SM_EENSL_IT2_SO_EENSL_IT3_SQ_EERKT4_mmfEUlmE1_E8iteratorEEENS7_ISK_bEESN_SP_SR_mfbEUlmE2_EEvRNS_9schedulerINS_15WorkStealingJobEEEmmRSE_mbEUlvE0_ED0Ev, symObjAddr: 0x9424C, symBinAddr: 0x100096820, symSize: 0x4 }
  - { offset: 0x2AF3D8, size: 0x8, addend: 0x0, symName: __ZN6parlay7JobImplIZNS_19fork_join_scheduler7parfor_IZNS_8internal11count_sort_INS_22uninitialized_copy_tagEjPNSt3__14pairIllEES9_NS_16delayed_sequenceImmZNS3_14integer_sort_rINS6_17integral_constantIbLb0EEES5_S9_S9_S9_NS3_7get_keyMUlOT_E_EEENS_8sequenceImNS_9allocatorImEELb0EEENS_5sliceIT1_SM_EENSL_IT2_SO_EENSL_IT3_SQ_EERKT4_mmfEUlmE1_E8iteratorEEENS7_ISK_bEESN_SP_SR_mfbEUlmE2_EEvRNS_9schedulerINS_15WorkStealingJobEEEmmRSE_mbEUlvE0_E7executeEv, symObjAddr: 0x94250, symBinAddr: 0x100096824, symSize: 0x24 }
  - { offset: 0x2AF71E, size: 0x8, addend: 0x0, symName: __ZN6parlay7JobImplIZNS_19fork_join_scheduler7parfor_IZNS_8internal11count_sort_INS_22uninitialized_copy_tagEjPNSt3__14pairIllEES9_NS_16delayed_sequenceImmZNS3_14integer_sort_rINS6_17integral_constantIbLb0EEES5_S9_S9_S9_NS3_7get_keyMUlOT_E_EEENS_8sequenceImNS_9allocatorImEELb0EEENS_5sliceIT1_SM_EENSL_IT2_SO_EENSL_IT3_SQ_EERKT4_mmfEUlmE1_E8iteratorEEENS7_ISK_bEESN_SP_SR_mfbEUlmE1_EEvRNS_9schedulerINS_15WorkStealingJobEEEmmRSE_mbEUlvE0_ED1Ev, symObjAddr: 0x9486C, symBinAddr: 0x100096E40, symSize: 0x4 }
  - { offset: 0x2AF749, size: 0x8, addend: 0x0, symName: __ZN6parlay7JobImplIZNS_19fork_join_scheduler7parfor_IZNS_8internal11count_sort_INS_22uninitialized_copy_tagEjPNSt3__14pairIllEES9_NS_16delayed_sequenceImmZNS3_14integer_sort_rINS6_17integral_constantIbLb0EEES5_S9_S9_S9_NS3_7get_keyMUlOT_E_EEENS_8sequenceImNS_9allocatorImEELb0EEENS_5sliceIT1_SM_EENSL_IT2_SO_EENSL_IT3_SQ_EERKT4_mmfEUlmE1_E8iteratorEEENS7_ISK_bEESN_SP_SR_mfbEUlmE1_EEvRNS_9schedulerINS_15WorkStealingJobEEEmmRSE_mbEUlvE0_ED0Ev, symObjAddr: 0x94870, symBinAddr: 0x100096E44, symSize: 0x4 }
  - { offset: 0x2AF774, size: 0x8, addend: 0x0, symName: __ZN6parlay7JobImplIZNS_19fork_join_scheduler7parfor_IZNS_8internal11count_sort_INS_22uninitialized_copy_tagEjPNSt3__14pairIllEES9_NS_16delayed_sequenceImmZNS3_14integer_sort_rINS6_17integral_constantIbLb0EEES5_S9_S9_S9_NS3_7get_keyMUlOT_E_EEENS_8sequenceImNS_9allocatorImEELb0EEENS_5sliceIT1_SM_EENSL_IT2_SO_EENSL_IT3_SQ_EERKT4_mmfEUlmE1_E8iteratorEEENS7_ISK_bEESN_SP_SR_mfbEUlmE1_EEvRNS_9schedulerINS_15WorkStealingJobEEEmmRSE_mbEUlvE0_E7executeEv, symObjAddr: 0x94874, symBinAddr: 0x100096E48, symSize: 0x24 }
  - { offset: 0x2AFABA, size: 0x8, addend: 0x0, symName: __ZN6parlay7JobImplIZNS_19fork_join_scheduler7parfor_IZNS_8internal11count_sort_INS_22uninitialized_copy_tagEjPNSt3__14pairIllEES9_NS_16delayed_sequenceImmZNS3_14integer_sort_rINS6_17integral_constantIbLb0EEES5_S9_S9_S9_NS3_7get_keyMUlOT_E_EEENS_8sequenceImNS_9allocatorImEELb0EEENS_5sliceIT1_SM_EENSL_IT2_SO_EENSL_IT3_SQ_EERKT4_mmfEUlmE1_E8iteratorEEENS7_ISK_bEESN_SP_SR_mfbEUlmE0_EEvRNS_9schedulerINS_15WorkStealingJobEEEmmRSE_mbEUlvE0_ED1Ev, symObjAddr: 0x94F04, symBinAddr: 0x1000974D8, symSize: 0x4 }
  - { offset: 0x2AFAE5, size: 0x8, addend: 0x0, symName: __ZN6parlay7JobImplIZNS_19fork_join_scheduler7parfor_IZNS_8internal11count_sort_INS_22uninitialized_copy_tagEjPNSt3__14pairIllEES9_NS_16delayed_sequenceImmZNS3_14integer_sort_rINS6_17integral_constantIbLb0EEES5_S9_S9_S9_NS3_7get_keyMUlOT_E_EEENS_8sequenceImNS_9allocatorImEELb0EEENS_5sliceIT1_SM_EENSL_IT2_SO_EENSL_IT3_SQ_EERKT4_mmfEUlmE1_E8iteratorEEENS7_ISK_bEESN_SP_SR_mfbEUlmE0_EEvRNS_9schedulerINS_15WorkStealingJobEEEmmRSE_mbEUlvE0_ED0Ev, symObjAddr: 0x94F08, symBinAddr: 0x1000974DC, symSize: 0x4 }
  - { offset: 0x2AFB10, size: 0x8, addend: 0x0, symName: __ZN6parlay7JobImplIZNS_19fork_join_scheduler7parfor_IZNS_8internal11count_sort_INS_22uninitialized_copy_tagEjPNSt3__14pairIllEES9_NS_16delayed_sequenceImmZNS3_14integer_sort_rINS6_17integral_constantIbLb0EEES5_S9_S9_S9_NS3_7get_keyMUlOT_E_EEENS_8sequenceImNS_9allocatorImEELb0EEENS_5sliceIT1_SM_EENSL_IT2_SO_EENSL_IT3_SQ_EERKT4_mmfEUlmE1_E8iteratorEEENS7_ISK_bEESN_SP_SR_mfbEUlmE0_EEvRNS_9schedulerINS_15WorkStealingJobEEEmmRSE_mbEUlvE0_E7executeEv, symObjAddr: 0x94F0C, symBinAddr: 0x1000974E0, symSize: 0x24 }
  - { offset: 0x2AFE56, size: 0x8, addend: 0x0, symName: __ZN6parlay7JobImplIZNS_19fork_join_scheduler7parfor_IZNS_8internal11count_sort_INS_22uninitialized_copy_tagEjPNSt3__14pairIllEES9_NS_16delayed_sequenceImmZNS3_14integer_sort_rINS6_17integral_constantIbLb0EEES5_S9_S9_S9_NS3_7get_keyMUlOT_E_EEENS_8sequenceImNS_9allocatorImEELb0EEENS_5sliceIT1_SM_EENSL_IT2_SO_EENSL_IT3_SQ_EERKT4_mmfEUlmE1_E8iteratorEEENS7_ISK_bEESN_SP_SR_mfbEUlmE_EEvRNS_9schedulerINS_15WorkStealingJobEEEmmRSE_mbEUlvE0_ED1Ev, symObjAddr: 0x956D8, symBinAddr: 0x100097CAC, symSize: 0x4 }
  - { offset: 0x2AFE81, size: 0x8, addend: 0x0, symName: __ZN6parlay7JobImplIZNS_19fork_join_scheduler7parfor_IZNS_8internal11count_sort_INS_22uninitialized_copy_tagEjPNSt3__14pairIllEES9_NS_16delayed_sequenceImmZNS3_14integer_sort_rINS6_17integral_constantIbLb0EEES5_S9_S9_S9_NS3_7get_keyMUlOT_E_EEENS_8sequenceImNS_9allocatorImEELb0EEENS_5sliceIT1_SM_EENSL_IT2_SO_EENSL_IT3_SQ_EERKT4_mmfEUlmE1_E8iteratorEEENS7_ISK_bEESN_SP_SR_mfbEUlmE_EEvRNS_9schedulerINS_15WorkStealingJobEEEmmRSE_mbEUlvE0_ED0Ev, symObjAddr: 0x956DC, symBinAddr: 0x100097CB0, symSize: 0x4 }
  - { offset: 0x2AFEAC, size: 0x8, addend: 0x0, symName: __ZN6parlay7JobImplIZNS_19fork_join_scheduler7parfor_IZNS_8internal11count_sort_INS_22uninitialized_copy_tagEjPNSt3__14pairIllEES9_NS_16delayed_sequenceImmZNS3_14integer_sort_rINS6_17integral_constantIbLb0EEES5_S9_S9_S9_NS3_7get_keyMUlOT_E_EEENS_8sequenceImNS_9allocatorImEELb0EEENS_5sliceIT1_SM_EENSL_IT2_SO_EENSL_IT3_SQ_EERKT4_mmfEUlmE1_E8iteratorEEENS7_ISK_bEESN_SP_SR_mfbEUlmE_EEvRNS_9schedulerINS_15WorkStealingJobEEEmmRSE_mbEUlvE0_E7executeEv, symObjAddr: 0x956E0, symBinAddr: 0x100097CB4, symSize: 0x24 }
  - { offset: 0x2B01B9, size: 0x8, addend: 0x0, symName: __ZN6parlay7JobImplIZNS_19fork_join_scheduler7parfor_IZNS_8internal11count_sort_INS_22uninitialized_copy_tagEmPNSt3__14pairIllEES9_NS_16delayed_sequenceImmZNS3_14integer_sort_rINS6_17integral_constantIbLb0EEES5_S9_S9_S9_NS3_7get_keyMUlOT_E_EEENS_8sequenceImNS_9allocatorImEELb0EEENS_5sliceIT1_SM_EENSL_IT2_SO_EENSL_IT3_SQ_EERKT4_mmfEUlmE0_E8iteratorEEENS7_ISK_bEESN_SP_SR_mfbEUlmE2_EEvRNS_9schedulerINS_15WorkStealingJobEEEmmRSE_mbEUlvE0_ED1Ev, symObjAddr: 0x96010, symBinAddr: 0x100098454, symSize: 0x4 }
  - { offset: 0x2B01E4, size: 0x8, addend: 0x0, symName: __ZN6parlay7JobImplIZNS_19fork_join_scheduler7parfor_IZNS_8internal11count_sort_INS_22uninitialized_copy_tagEmPNSt3__14pairIllEES9_NS_16delayed_sequenceImmZNS3_14integer_sort_rINS6_17integral_constantIbLb0EEES5_S9_S9_S9_NS3_7get_keyMUlOT_E_EEENS_8sequenceImNS_9allocatorImEELb0EEENS_5sliceIT1_SM_EENSL_IT2_SO_EENSL_IT3_SQ_EERKT4_mmfEUlmE0_E8iteratorEEENS7_ISK_bEESN_SP_SR_mfbEUlmE2_EEvRNS_9schedulerINS_15WorkStealingJobEEEmmRSE_mbEUlvE0_ED0Ev, symObjAddr: 0x96014, symBinAddr: 0x100098458, symSize: 0x4 }
  - { offset: 0x2B020F, size: 0x8, addend: 0x0, symName: __ZN6parlay7JobImplIZNS_19fork_join_scheduler7parfor_IZNS_8internal11count_sort_INS_22uninitialized_copy_tagEmPNSt3__14pairIllEES9_NS_16delayed_sequenceImmZNS3_14integer_sort_rINS6_17integral_constantIbLb0EEES5_S9_S9_S9_NS3_7get_keyMUlOT_E_EEENS_8sequenceImNS_9allocatorImEELb0EEENS_5sliceIT1_SM_EENSL_IT2_SO_EENSL_IT3_SQ_EERKT4_mmfEUlmE0_E8iteratorEEENS7_ISK_bEESN_SP_SR_mfbEUlmE2_EEvRNS_9schedulerINS_15WorkStealingJobEEEmmRSE_mbEUlvE0_E7executeEv, symObjAddr: 0x96018, symBinAddr: 0x10009845C, symSize: 0xD4 }
  - { offset: 0x2B05BC, size: 0x8, addend: 0x0, symName: __ZN6parlay7JobImplIZNS_19fork_join_scheduler7parfor_IZNS_8internal11count_sort_INS_22uninitialized_copy_tagEmPNSt3__14pairIllEES9_NS_16delayed_sequenceImmZNS3_14integer_sort_rINS6_17integral_constantIbLb0EEES5_S9_S9_S9_NS3_7get_keyMUlOT_E_EEENS_8sequenceImNS_9allocatorImEELb0EEENS_5sliceIT1_SM_EENSL_IT2_SO_EENSL_IT3_SQ_EERKT4_mmfEUlmE0_E8iteratorEEENS7_ISK_bEESN_SP_SR_mfbEUlmE1_EEvRNS_9schedulerINS_15WorkStealingJobEEEmmRSE_mbEUlvE0_ED1Ev, symObjAddr: 0x966E4, symBinAddr: 0x100098B28, symSize: 0x4 }
  - { offset: 0x2B05E7, size: 0x8, addend: 0x0, symName: __ZN6parlay7JobImplIZNS_19fork_join_scheduler7parfor_IZNS_8internal11count_sort_INS_22uninitialized_copy_tagEmPNSt3__14pairIllEES9_NS_16delayed_sequenceImmZNS3_14integer_sort_rINS6_17integral_constantIbLb0EEES5_S9_S9_S9_NS3_7get_keyMUlOT_E_EEENS_8sequenceImNS_9allocatorImEELb0EEENS_5sliceIT1_SM_EENSL_IT2_SO_EENSL_IT3_SQ_EERKT4_mmfEUlmE0_E8iteratorEEENS7_ISK_bEESN_SP_SR_mfbEUlmE1_EEvRNS_9schedulerINS_15WorkStealingJobEEEmmRSE_mbEUlvE0_ED0Ev, symObjAddr: 0x966E8, symBinAddr: 0x100098B2C, symSize: 0x4 }
  - { offset: 0x2B0612, size: 0x8, addend: 0x0, symName: __ZN6parlay7JobImplIZNS_19fork_join_scheduler7parfor_IZNS_8internal11count_sort_INS_22uninitialized_copy_tagEmPNSt3__14pairIllEES9_NS_16delayed_sequenceImmZNS3_14integer_sort_rINS6_17integral_constantIbLb0EEES5_S9_S9_S9_NS3_7get_keyMUlOT_E_EEENS_8sequenceImNS_9allocatorImEELb0EEENS_5sliceIT1_SM_EENSL_IT2_SO_EENSL_IT3_SQ_EERKT4_mmfEUlmE0_E8iteratorEEENS7_ISK_bEESN_SP_SR_mfbEUlmE1_EEvRNS_9schedulerINS_15WorkStealingJobEEEmmRSE_mbEUlvE0_E7executeEv, symObjAddr: 0x966EC, symBinAddr: 0x100098B30, symSize: 0x24 }
  - { offset: 0x2B0958, size: 0x8, addend: 0x0, symName: __ZN6parlay7JobImplIZNS_19fork_join_scheduler7parfor_IZNS_8internal11count_sort_INS_22uninitialized_copy_tagEmPNSt3__14pairIllEES9_NS_16delayed_sequenceImmZNS3_14integer_sort_rINS6_17integral_constantIbLb0EEES5_S9_S9_S9_NS3_7get_keyMUlOT_E_EEENS_8sequenceImNS_9allocatorImEELb0EEENS_5sliceIT1_SM_EENSL_IT2_SO_EENSL_IT3_SQ_EERKT4_mmfEUlmE0_E8iteratorEEENS7_ISK_bEESN_SP_SR_mfbEUlmE0_EEvRNS_9schedulerINS_15WorkStealingJobEEEmmRSE_mbEUlvE0_ED1Ev, symObjAddr: 0x96D4C, symBinAddr: 0x100099190, symSize: 0x4 }
  - { offset: 0x2B0983, size: 0x8, addend: 0x0, symName: __ZN6parlay7JobImplIZNS_19fork_join_scheduler7parfor_IZNS_8internal11count_sort_INS_22uninitialized_copy_tagEmPNSt3__14pairIllEES9_NS_16delayed_sequenceImmZNS3_14integer_sort_rINS6_17integral_constantIbLb0EEES5_S9_S9_S9_NS3_7get_keyMUlOT_E_EEENS_8sequenceImNS_9allocatorImEELb0EEENS_5sliceIT1_SM_EENSL_IT2_SO_EENSL_IT3_SQ_EERKT4_mmfEUlmE0_E8iteratorEEENS7_ISK_bEESN_SP_SR_mfbEUlmE0_EEvRNS_9schedulerINS_15WorkStealingJobEEEmmRSE_mbEUlvE0_ED0Ev, symObjAddr: 0x96D50, symBinAddr: 0x100099194, symSize: 0x4 }
  - { offset: 0x2B09AE, size: 0x8, addend: 0x0, symName: __ZN6parlay7JobImplIZNS_19fork_join_scheduler7parfor_IZNS_8internal11count_sort_INS_22uninitialized_copy_tagEmPNSt3__14pairIllEES9_NS_16delayed_sequenceImmZNS3_14integer_sort_rINS6_17integral_constantIbLb0EEES5_S9_S9_S9_NS3_7get_keyMUlOT_E_EEENS_8sequenceImNS_9allocatorImEELb0EEENS_5sliceIT1_SM_EENSL_IT2_SO_EENSL_IT3_SQ_EERKT4_mmfEUlmE0_E8iteratorEEENS7_ISK_bEESN_SP_SR_mfbEUlmE0_EEvRNS_9schedulerINS_15WorkStealingJobEEEmmRSE_mbEUlvE0_E7executeEv, symObjAddr: 0x96D54, symBinAddr: 0x100099198, symSize: 0x24 }
  - { offset: 0x2B0CF4, size: 0x8, addend: 0x0, symName: __ZN6parlay7JobImplIZNS_19fork_join_scheduler7parfor_IZNS_8internal11count_sort_INS_22uninitialized_copy_tagEmPNSt3__14pairIllEES9_NS_16delayed_sequenceImmZNS3_14integer_sort_rINS6_17integral_constantIbLb0EEES5_S9_S9_S9_NS3_7get_keyMUlOT_E_EEENS_8sequenceImNS_9allocatorImEELb0EEENS_5sliceIT1_SM_EENSL_IT2_SO_EENSL_IT3_SQ_EERKT4_mmfEUlmE0_E8iteratorEEENS7_ISK_bEESN_SP_SR_mfbEUlmE_EEvRNS_9schedulerINS_15WorkStealingJobEEEmmRSE_mbEUlvE0_ED1Ev, symObjAddr: 0x97524, symBinAddr: 0x100099968, symSize: 0x4 }
  - { offset: 0x2B0D1F, size: 0x8, addend: 0x0, symName: __ZN6parlay7JobImplIZNS_19fork_join_scheduler7parfor_IZNS_8internal11count_sort_INS_22uninitialized_copy_tagEmPNSt3__14pairIllEES9_NS_16delayed_sequenceImmZNS3_14integer_sort_rINS6_17integral_constantIbLb0EEES5_S9_S9_S9_NS3_7get_keyMUlOT_E_EEENS_8sequenceImNS_9allocatorImEELb0EEENS_5sliceIT1_SM_EENSL_IT2_SO_EENSL_IT3_SQ_EERKT4_mmfEUlmE0_E8iteratorEEENS7_ISK_bEESN_SP_SR_mfbEUlmE_EEvRNS_9schedulerINS_15WorkStealingJobEEEmmRSE_mbEUlvE0_ED0Ev, symObjAddr: 0x97528, symBinAddr: 0x10009996C, symSize: 0x4 }
  - { offset: 0x2B0D4A, size: 0x8, addend: 0x0, symName: __ZN6parlay7JobImplIZNS_19fork_join_scheduler7parfor_IZNS_8internal11count_sort_INS_22uninitialized_copy_tagEmPNSt3__14pairIllEES9_NS_16delayed_sequenceImmZNS3_14integer_sort_rINS6_17integral_constantIbLb0EEES5_S9_S9_S9_NS3_7get_keyMUlOT_E_EEENS_8sequenceImNS_9allocatorImEELb0EEENS_5sliceIT1_SM_EENSL_IT2_SO_EENSL_IT3_SQ_EERKT4_mmfEUlmE0_E8iteratorEEENS7_ISK_bEESN_SP_SR_mfbEUlmE_EEvRNS_9schedulerINS_15WorkStealingJobEEEmmRSE_mbEUlvE0_E7executeEv, symObjAddr: 0x9752C, symBinAddr: 0x100099970, symSize: 0x24 }
  - { offset: 0x2B0FBC, size: 0x8, addend: 0x0, symName: __ZN6parlay7JobImplIZNS_19fork_join_scheduler7parfor_IZNS_8internal11count_sort_INS_22uninitialized_copy_tagEjPNSt3__14pairIllEES9_NS_16delayed_sequenceImmZNS3_14integer_sort_rINS6_17integral_constantIbLb0EEES5_S9_S9_S9_NS3_7get_keyMUlOT_E_EEENS_8sequenceImNS_9allocatorImEELb0EEENS_5sliceIT1_SM_EENSL_IT2_SO_EENSL_IT3_SQ_EERKT4_mmfEUlmE0_E8iteratorEEENS7_ISK_bEESN_SP_SR_mfbEUlmE2_EEvRNS_9schedulerINS_15WorkStealingJobEEEmmRSE_mbEUlvE0_ED1Ev, symObjAddr: 0x97D00, symBinAddr: 0x100099FB4, symSize: 0x4 }
  - { offset: 0x2B0FE7, size: 0x8, addend: 0x0, symName: __ZN6parlay7JobImplIZNS_19fork_join_scheduler7parfor_IZNS_8internal11count_sort_INS_22uninitialized_copy_tagEjPNSt3__14pairIllEES9_NS_16delayed_sequenceImmZNS3_14integer_sort_rINS6_17integral_constantIbLb0EEES5_S9_S9_S9_NS3_7get_keyMUlOT_E_EEENS_8sequenceImNS_9allocatorImEELb0EEENS_5sliceIT1_SM_EENSL_IT2_SO_EENSL_IT3_SQ_EERKT4_mmfEUlmE0_E8iteratorEEENS7_ISK_bEESN_SP_SR_mfbEUlmE2_EEvRNS_9schedulerINS_15WorkStealingJobEEEmmRSE_mbEUlvE0_ED0Ev, symObjAddr: 0x97D04, symBinAddr: 0x100099FB8, symSize: 0x4 }
  - { offset: 0x2B1012, size: 0x8, addend: 0x0, symName: __ZN6parlay7JobImplIZNS_19fork_join_scheduler7parfor_IZNS_8internal11count_sort_INS_22uninitialized_copy_tagEjPNSt3__14pairIllEES9_NS_16delayed_sequenceImmZNS3_14integer_sort_rINS6_17integral_constantIbLb0EEES5_S9_S9_S9_NS3_7get_keyMUlOT_E_EEENS_8sequenceImNS_9allocatorImEELb0EEENS_5sliceIT1_SM_EENSL_IT2_SO_EENSL_IT3_SQ_EERKT4_mmfEUlmE0_E8iteratorEEENS7_ISK_bEESN_SP_SR_mfbEUlmE2_EEvRNS_9schedulerINS_15WorkStealingJobEEEmmRSE_mbEUlvE0_E7executeEv, symObjAddr: 0x97D08, symBinAddr: 0x100099FBC, symSize: 0xD4 }
  - { offset: 0x2B13BF, size: 0x8, addend: 0x0, symName: __ZN6parlay7JobImplIZNS_19fork_join_scheduler7parfor_IZNS_8internal11count_sort_INS_22uninitialized_copy_tagEjPNSt3__14pairIllEES9_NS_16delayed_sequenceImmZNS3_14integer_sort_rINS6_17integral_constantIbLb0EEES5_S9_S9_S9_NS3_7get_keyMUlOT_E_EEENS_8sequenceImNS_9allocatorImEELb0EEENS_5sliceIT1_SM_EENSL_IT2_SO_EENSL_IT3_SQ_EERKT4_mmfEUlmE0_E8iteratorEEENS7_ISK_bEESN_SP_SR_mfbEUlmE1_EEvRNS_9schedulerINS_15WorkStealingJobEEEmmRSE_mbEUlvE0_ED1Ev, symObjAddr: 0x983D4, symBinAddr: 0x10009A688, symSize: 0x4 }
  - { offset: 0x2B13EA, size: 0x8, addend: 0x0, symName: __ZN6parlay7JobImplIZNS_19fork_join_scheduler7parfor_IZNS_8internal11count_sort_INS_22uninitialized_copy_tagEjPNSt3__14pairIllEES9_NS_16delayed_sequenceImmZNS3_14integer_sort_rINS6_17integral_constantIbLb0EEES5_S9_S9_S9_NS3_7get_keyMUlOT_E_EEENS_8sequenceImNS_9allocatorImEELb0EEENS_5sliceIT1_SM_EENSL_IT2_SO_EENSL_IT3_SQ_EERKT4_mmfEUlmE0_E8iteratorEEENS7_ISK_bEESN_SP_SR_mfbEUlmE1_EEvRNS_9schedulerINS_15WorkStealingJobEEEmmRSE_mbEUlvE0_ED0Ev, symObjAddr: 0x983D8, symBinAddr: 0x10009A68C, symSize: 0x4 }
  - { offset: 0x2B1415, size: 0x8, addend: 0x0, symName: __ZN6parlay7JobImplIZNS_19fork_join_scheduler7parfor_IZNS_8internal11count_sort_INS_22uninitialized_copy_tagEjPNSt3__14pairIllEES9_NS_16delayed_sequenceImmZNS3_14integer_sort_rINS6_17integral_constantIbLb0EEES5_S9_S9_S9_NS3_7get_keyMUlOT_E_EEENS_8sequenceImNS_9allocatorImEELb0EEENS_5sliceIT1_SM_EENSL_IT2_SO_EENSL_IT3_SQ_EERKT4_mmfEUlmE0_E8iteratorEEENS7_ISK_bEESN_SP_SR_mfbEUlmE1_EEvRNS_9schedulerINS_15WorkStealingJobEEEmmRSE_mbEUlvE0_E7executeEv, symObjAddr: 0x983DC, symBinAddr: 0x10009A690, symSize: 0x24 }
  - { offset: 0x2B175B, size: 0x8, addend: 0x0, symName: __ZN6parlay7JobImplIZNS_19fork_join_scheduler7parfor_IZNS_8internal11count_sort_INS_22uninitialized_copy_tagEjPNSt3__14pairIllEES9_NS_16delayed_sequenceImmZNS3_14integer_sort_rINS6_17integral_constantIbLb0EEES5_S9_S9_S9_NS3_7get_keyMUlOT_E_EEENS_8sequenceImNS_9allocatorImEELb0EEENS_5sliceIT1_SM_EENSL_IT2_SO_EENSL_IT3_SQ_EERKT4_mmfEUlmE0_E8iteratorEEENS7_ISK_bEESN_SP_SR_mfbEUlmE0_EEvRNS_9schedulerINS_15WorkStealingJobEEEmmRSE_mbEUlvE0_ED1Ev, symObjAddr: 0x98A6C, symBinAddr: 0x10009AD20, symSize: 0x4 }
  - { offset: 0x2B1786, size: 0x8, addend: 0x0, symName: __ZN6parlay7JobImplIZNS_19fork_join_scheduler7parfor_IZNS_8internal11count_sort_INS_22uninitialized_copy_tagEjPNSt3__14pairIllEES9_NS_16delayed_sequenceImmZNS3_14integer_sort_rINS6_17integral_constantIbLb0EEES5_S9_S9_S9_NS3_7get_keyMUlOT_E_EEENS_8sequenceImNS_9allocatorImEELb0EEENS_5sliceIT1_SM_EENSL_IT2_SO_EENSL_IT3_SQ_EERKT4_mmfEUlmE0_E8iteratorEEENS7_ISK_bEESN_SP_SR_mfbEUlmE0_EEvRNS_9schedulerINS_15WorkStealingJobEEEmmRSE_mbEUlvE0_ED0Ev, symObjAddr: 0x98A70, symBinAddr: 0x10009AD24, symSize: 0x4 }
  - { offset: 0x2B17B1, size: 0x8, addend: 0x0, symName: __ZN6parlay7JobImplIZNS_19fork_join_scheduler7parfor_IZNS_8internal11count_sort_INS_22uninitialized_copy_tagEjPNSt3__14pairIllEES9_NS_16delayed_sequenceImmZNS3_14integer_sort_rINS6_17integral_constantIbLb0EEES5_S9_S9_S9_NS3_7get_keyMUlOT_E_EEENS_8sequenceImNS_9allocatorImEELb0EEENS_5sliceIT1_SM_EENSL_IT2_SO_EENSL_IT3_SQ_EERKT4_mmfEUlmE0_E8iteratorEEENS7_ISK_bEESN_SP_SR_mfbEUlmE0_EEvRNS_9schedulerINS_15WorkStealingJobEEEmmRSE_mbEUlvE0_E7executeEv, symObjAddr: 0x98A74, symBinAddr: 0x10009AD28, symSize: 0x24 }
  - { offset: 0x2B1AF7, size: 0x8, addend: 0x0, symName: __ZN6parlay7JobImplIZNS_19fork_join_scheduler7parfor_IZNS_8internal11count_sort_INS_22uninitialized_copy_tagEjPNSt3__14pairIllEES9_NS_16delayed_sequenceImmZNS3_14integer_sort_rINS6_17integral_constantIbLb0EEES5_S9_S9_S9_NS3_7get_keyMUlOT_E_EEENS_8sequenceImNS_9allocatorImEELb0EEENS_5sliceIT1_SM_EENSL_IT2_SO_EENSL_IT3_SQ_EERKT4_mmfEUlmE0_E8iteratorEEENS7_ISK_bEESN_SP_SR_mfbEUlmE_EEvRNS_9schedulerINS_15WorkStealingJobEEEmmRSE_mbEUlvE0_ED1Ev, symObjAddr: 0x99234, symBinAddr: 0x10009B4E8, symSize: 0x4 }
  - { offset: 0x2B1B22, size: 0x8, addend: 0x0, symName: __ZN6parlay7JobImplIZNS_19fork_join_scheduler7parfor_IZNS_8internal11count_sort_INS_22uninitialized_copy_tagEjPNSt3__14pairIllEES9_NS_16delayed_sequenceImmZNS3_14integer_sort_rINS6_17integral_constantIbLb0EEES5_S9_S9_S9_NS3_7get_keyMUlOT_E_EEENS_8sequenceImNS_9allocatorImEELb0EEENS_5sliceIT1_SM_EENSL_IT2_SO_EENSL_IT3_SQ_EERKT4_mmfEUlmE0_E8iteratorEEENS7_ISK_bEESN_SP_SR_mfbEUlmE_EEvRNS_9schedulerINS_15WorkStealingJobEEEmmRSE_mbEUlvE0_ED0Ev, symObjAddr: 0x99238, symBinAddr: 0x10009B4EC, symSize: 0x4 }
  - { offset: 0x2B1B4D, size: 0x8, addend: 0x0, symName: __ZN6parlay7JobImplIZNS_19fork_join_scheduler7parfor_IZNS_8internal11count_sort_INS_22uninitialized_copy_tagEjPNSt3__14pairIllEES9_NS_16delayed_sequenceImmZNS3_14integer_sort_rINS6_17integral_constantIbLb0EEES5_S9_S9_S9_NS3_7get_keyMUlOT_E_EEENS_8sequenceImNS_9allocatorImEELb0EEENS_5sliceIT1_SM_EENSL_IT2_SO_EENSL_IT3_SQ_EERKT4_mmfEUlmE0_E8iteratorEEENS7_ISK_bEESN_SP_SR_mfbEUlmE_EEvRNS_9schedulerINS_15WorkStealingJobEEEmmRSE_mbEUlvE0_E7executeEv, symObjAddr: 0x9923C, symBinAddr: 0x10009B4F0, symSize: 0x24 }
  - { offset: 0x2B1DBF, size: 0x8, addend: 0x0, symName: __ZN6parlay7JobImplIZNS_19fork_join_scheduler7parfor_IZNS_8internal14integer_sort_rINSt3__117integral_constantIbLb0EEENS_22uninitialized_copy_tagEPNS5_4pairIllEESB_SB_NS3_7get_keyMUlOT_E_EEENS_8sequenceImNS_9allocatorImEELb0EEENS_5sliceIT1_SK_EENSJ_IT2_SM_EENSJ_IT3_SO_EERKT4_mmfEUlmE_EEvRNS_9schedulerINS_15WorkStealingJobEEEmmRSC_mbEUlvE0_ED1Ev, symObjAddr: 0x99898, symBinAddr: 0x10009BB4C, symSize: 0x4 }
  - { offset: 0x2B1DEA, size: 0x8, addend: 0x0, symName: __ZN6parlay7JobImplIZNS_19fork_join_scheduler7parfor_IZNS_8internal14integer_sort_rINSt3__117integral_constantIbLb0EEENS_22uninitialized_copy_tagEPNS5_4pairIllEESB_SB_NS3_7get_keyMUlOT_E_EEENS_8sequenceImNS_9allocatorImEELb0EEENS_5sliceIT1_SK_EENSJ_IT2_SM_EENSJ_IT3_SO_EERKT4_mmfEUlmE_EEvRNS_9schedulerINS_15WorkStealingJobEEEmmRSC_mbEUlvE0_ED0Ev, symObjAddr: 0x9989C, symBinAddr: 0x10009BB50, symSize: 0x4 }
  - { offset: 0x2B1E15, size: 0x8, addend: 0x0, symName: __ZN6parlay7JobImplIZNS_19fork_join_scheduler7parfor_IZNS_8internal14integer_sort_rINSt3__117integral_constantIbLb0EEENS_22uninitialized_copy_tagEPNS5_4pairIllEESB_SB_NS3_7get_keyMUlOT_E_EEENS_8sequenceImNS_9allocatorImEELb0EEENS_5sliceIT1_SK_EENSJ_IT2_SM_EENSJ_IT3_SO_EERKT4_mmfEUlmE_EEvRNS_9schedulerINS_15WorkStealingJobEEEmmRSC_mbEUlvE0_E7executeEv, symObjAddr: 0x998A0, symBinAddr: 0x10009BB54, symSize: 0xD0 }
  - { offset: 0x2B2397, size: 0x8, addend: 0x0, symName: __ZN6parlay7JobImplIZNS_19fork_join_scheduler7parfor_IZNS_8internal10sliced_forIZNS3_6reduceINS_8sequenceImNS_9allocatorImEELb0EEERNS_7maximumImEEEEDaRKT_OT0_jEUlmmmE_EEvmmSG_jEUlmE_EEvRNS_9schedulerINS_15WorkStealingJobEEEmmRSE_mbEUlvE0_ED1Ev, symObjAddr: 0x9A2D4, symBinAddr: 0x10009C588, symSize: 0x4 }
  - { offset: 0x2B23C2, size: 0x8, addend: 0x0, symName: __ZN6parlay7JobImplIZNS_19fork_join_scheduler7parfor_IZNS_8internal10sliced_forIZNS3_6reduceINS_8sequenceImNS_9allocatorImEELb0EEERNS_7maximumImEEEEDaRKT_OT0_jEUlmmmE_EEvmmSG_jEUlmE_EEvRNS_9schedulerINS_15WorkStealingJobEEEmmRSE_mbEUlvE0_ED0Ev, symObjAddr: 0x9A2D8, symBinAddr: 0x10009C58C, symSize: 0x4 }
  - { offset: 0x2B23ED, size: 0x8, addend: 0x0, symName: __ZN6parlay7JobImplIZNS_19fork_join_scheduler7parfor_IZNS_8internal10sliced_forIZNS3_6reduceINS_8sequenceImNS_9allocatorImEELb0EEERNS_7maximumImEEEEDaRKT_OT0_jEUlmmmE_EEvmmSG_jEUlmE_EEvRNS_9schedulerINS_15WorkStealingJobEEEmmRSE_mbEUlvE0_E7executeEv, symObjAddr: 0x9A2DC, symBinAddr: 0x10009C590, symSize: 0x24 }
  - { offset: 0x2B282A, size: 0x8, addend: 0x0, symName: __ZN6parlay7JobImplIZNS_19fork_join_scheduler7parfor_IZNS_8internal10sliced_forIZNS3_6reduceINS_5sliceINS_16delayed_sequenceImmZNS3_13integer_sort_INSt3__117integral_constantIbLb0EEENS_22uninitialized_copy_tagEPNS9_4pairIllEESF_SF_NS3_7get_keyMUlOT_E_EEENS_8sequenceImNS_9allocatorImEELb0EEENS6_IT1_SN_EENS6_IT2_SP_EENS6_IT3_SR_EERKT4_mmEUlmE_E8iteratorESY_EENS_7maximumImEEEEDaRKSG_OT0_jEUlmmmE_EEvmmS14_jEUlmE_EEvRNS_9schedulerINS_15WorkStealingJobEEEmmRSG_mbEUlvE0_ED1Ev, symObjAddr: 0x9A9D8, symBinAddr: 0x10009CC8C, symSize: 0x4 }
  - { offset: 0x2B2855, size: 0x8, addend: 0x0, symName: __ZN6parlay7JobImplIZNS_19fork_join_scheduler7parfor_IZNS_8internal10sliced_forIZNS3_6reduceINS_5sliceINS_16delayed_sequenceImmZNS3_13integer_sort_INSt3__117integral_constantIbLb0EEENS_22uninitialized_copy_tagEPNS9_4pairIllEESF_SF_NS3_7get_keyMUlOT_E_EEENS_8sequenceImNS_9allocatorImEELb0EEENS6_IT1_SN_EENS6_IT2_SP_EENS6_IT3_SR_EERKT4_mmEUlmE_E8iteratorESY_EENS_7maximumImEEEEDaRKSG_OT0_jEUlmmmE_EEvmmS14_jEUlmE_EEvRNS_9schedulerINS_15WorkStealingJobEEEmmRSG_mbEUlvE0_ED0Ev, symObjAddr: 0x9A9DC, symBinAddr: 0x10009CC90, symSize: 0x4 }
  - { offset: 0x2B2880, size: 0x8, addend: 0x0, symName: __ZN6parlay7JobImplIZNS_19fork_join_scheduler7parfor_IZNS_8internal10sliced_forIZNS3_6reduceINS_5sliceINS_16delayed_sequenceImmZNS3_13integer_sort_INSt3__117integral_constantIbLb0EEENS_22uninitialized_copy_tagEPNS9_4pairIllEESF_SF_NS3_7get_keyMUlOT_E_EEENS_8sequenceImNS_9allocatorImEELb0EEENS6_IT1_SN_EENS6_IT2_SP_EENS6_IT3_SR_EERKT4_mmEUlmE_E8iteratorESY_EENS_7maximumImEEEEDaRKSG_OT0_jEUlmmmE_EEvmmS14_jEUlmE_EEvRNS_9schedulerINS_15WorkStealingJobEEEmmRSG_mbEUlvE0_E7executeEv, symObjAddr: 0x9A9E0, symBinAddr: 0x10009CC94, symSize: 0x24 }
  - { offset: 0x2B2EA9, size: 0x8, addend: 0x0, symName: __ZN6parlay7JobImplIZNS_19fork_join_scheduler7parfor_IZNS_8internal18group_by_small_intINS_16delayed_sequenceIllZNS3_11delayed_mapIRNS_8sequenceINSt3__14pairIllEENS_9allocatorISA_EELb0EEEZNS_14group_by_indexImSE_EEDaOT0_T_EUlRKSJ_E0_Li0EEESG_OSJ_SH_EUlmE_E8iteratorENS5_IllZNS6_ISE_ZNSF_ImSE_EESG_SI_SJ_EUlSL_E_Li0EEESG_SN_SH_EUlmE_E8iteratorEEESG_NS_5sliceISJ_SJ_EENSV_ISH_SH_EEmEUlmE3_EEvRNS_9schedulerINS_15WorkStealingJobEEEmmRSJ_mbEUlvE0_ED1Ev, symObjAddr: 0x9BA14, symBinAddr: 0x10009DCC8, symSize: 0x4 }
  - { offset: 0x2B2ED4, size: 0x8, addend: 0x0, symName: __ZN6parlay7JobImplIZNS_19fork_join_scheduler7parfor_IZNS_8internal18group_by_small_intINS_16delayed_sequenceIllZNS3_11delayed_mapIRNS_8sequenceINSt3__14pairIllEENS_9allocatorISA_EELb0EEEZNS_14group_by_indexImSE_EEDaOT0_T_EUlRKSJ_E0_Li0EEESG_OSJ_SH_EUlmE_E8iteratorENS5_IllZNS6_ISE_ZNSF_ImSE_EESG_SI_SJ_EUlSL_E_Li0EEESG_SN_SH_EUlmE_E8iteratorEEESG_NS_5sliceISJ_SJ_EENSV_ISH_SH_EEmEUlmE3_EEvRNS_9schedulerINS_15WorkStealingJobEEEmmRSJ_mbEUlvE0_ED0Ev, symObjAddr: 0x9BA18, symBinAddr: 0x10009DCCC, symSize: 0x4 }
  - { offset: 0x2B2EFF, size: 0x8, addend: 0x0, symName: __ZN6parlay7JobImplIZNS_19fork_join_scheduler7parfor_IZNS_8internal18group_by_small_intINS_16delayed_sequenceIllZNS3_11delayed_mapIRNS_8sequenceINSt3__14pairIllEENS_9allocatorISA_EELb0EEEZNS_14group_by_indexImSE_EEDaOT0_T_EUlRKSJ_E0_Li0EEESG_OSJ_SH_EUlmE_E8iteratorENS5_IllZNS6_ISE_ZNSF_ImSE_EESG_SI_SJ_EUlSL_E_Li0EEESG_SN_SH_EUlmE_E8iteratorEEESG_NS_5sliceISJ_SJ_EENSV_ISH_SH_EEmEUlmE3_EEvRNS_9schedulerINS_15WorkStealingJobEEEmmRSJ_mbEUlvE0_E7executeEv, symObjAddr: 0x9BA1C, symBinAddr: 0x10009DCD0, symSize: 0xD4 }
  - { offset: 0x2B32AC, size: 0x8, addend: 0x0, symName: __ZN6parlay7JobImplIZNS_19fork_join_scheduler7parfor_IZNS_8internal18group_by_small_intINS_16delayed_sequenceIllZNS3_11delayed_mapIRNS_8sequenceINSt3__14pairIllEENS_9allocatorISA_EELb0EEEZNS_14group_by_indexImSE_EEDaOT0_T_EUlRKSJ_E0_Li0EEESG_OSJ_SH_EUlmE_E8iteratorENS5_IllZNS6_ISE_ZNSF_ImSE_EESG_SI_SJ_EUlSL_E_Li0EEESG_SN_SH_EUlmE_E8iteratorEEESG_NS_5sliceISJ_SJ_EENSV_ISH_SH_EEmEUlmE2_EEvRNS_9schedulerINS_15WorkStealingJobEEEmmRSJ_mbEUlvE0_ED1Ev, symObjAddr: 0x9C0F0, symBinAddr: 0x10009E3A4, symSize: 0x4 }
  - { offset: 0x2B32D7, size: 0x8, addend: 0x0, symName: __ZN6parlay7JobImplIZNS_19fork_join_scheduler7parfor_IZNS_8internal18group_by_small_intINS_16delayed_sequenceIllZNS3_11delayed_mapIRNS_8sequenceINSt3__14pairIllEENS_9allocatorISA_EELb0EEEZNS_14group_by_indexImSE_EEDaOT0_T_EUlRKSJ_E0_Li0EEESG_OSJ_SH_EUlmE_E8iteratorENS5_IllZNS6_ISE_ZNSF_ImSE_EESG_SI_SJ_EUlSL_E_Li0EEESG_SN_SH_EUlmE_E8iteratorEEESG_NS_5sliceISJ_SJ_EENSV_ISH_SH_EEmEUlmE2_EEvRNS_9schedulerINS_15WorkStealingJobEEEmmRSJ_mbEUlvE0_ED0Ev, symObjAddr: 0x9C0F4, symBinAddr: 0x10009E3A8, symSize: 0x4 }
  - { offset: 0x2B3302, size: 0x8, addend: 0x0, symName: __ZN6parlay7JobImplIZNS_19fork_join_scheduler7parfor_IZNS_8internal18group_by_small_intINS_16delayed_sequenceIllZNS3_11delayed_mapIRNS_8sequenceINSt3__14pairIllEENS_9allocatorISA_EELb0EEEZNS_14group_by_indexImSE_EEDaOT0_T_EUlRKSJ_E0_Li0EEESG_OSJ_SH_EUlmE_E8iteratorENS5_IllZNS6_ISE_ZNSF_ImSE_EESG_SI_SJ_EUlSL_E_Li0EEESG_SN_SH_EUlmE_E8iteratorEEESG_NS_5sliceISJ_SJ_EENSV_ISH_SH_EEmEUlmE2_EEvRNS_9schedulerINS_15WorkStealingJobEEEmmRSJ_mbEUlvE0_E7executeEv, symObjAddr: 0x9C0F8, symBinAddr: 0x10009E3AC, symSize: 0x24 }
  - { offset: 0x2B3648, size: 0x8, addend: 0x0, symName: __ZN6parlay7JobImplIZNS_19fork_join_scheduler7parfor_IZNS_8sequenceINS3_IlNS_9allocatorIlEELb0EEENS4_IS6_EELb0EEC1IZNS_8internal3mapIRNS3_ImNS4_ImEELb0EEEZNSA_18group_by_small_intINS_16delayed_sequenceIllZNSA_11delayed_mapIRNS3_INSt3__14pairIllEENS4_ISK_EELb0EEEZNS_14group_by_indexImSN_EEDaOT0_T_EUlRKSS_E0_Li0EEESP_OSS_SQ_EUlmE_E8iteratorENSG_IllZNSH_ISN_ZNSO_ImSN_EESP_SR_SS_EUlSU_E_Li0EEESP_SW_SQ_EUlmE_E8iteratorEEESP_NS_5sliceISS_SS_EENS14_ISQ_SQ_EEmEUlmE1_EESP_SW_SR_mEUlmE_EEmSW_NS8_18_from_function_tagEmEUlmE_EEvRNS_9schedulerINS_15WorkStealingJobEEEmmRSS_mbEUlvE0_ED1Ev, symObjAddr: 0x9C6BC, symBinAddr: 0x10009E970, symSize: 0x4 }
  - { offset: 0x2B3673, size: 0x8, addend: 0x0, symName: __ZN6parlay7JobImplIZNS_19fork_join_scheduler7parfor_IZNS_8sequenceINS3_IlNS_9allocatorIlEELb0EEENS4_IS6_EELb0EEC1IZNS_8internal3mapIRNS3_ImNS4_ImEELb0EEEZNSA_18group_by_small_intINS_16delayed_sequenceIllZNSA_11delayed_mapIRNS3_INSt3__14pairIllEENS4_ISK_EELb0EEEZNS_14group_by_indexImSN_EEDaOT0_T_EUlRKSS_E0_Li0EEESP_OSS_SQ_EUlmE_E8iteratorENSG_IllZNSH_ISN_ZNSO_ImSN_EESP_SR_SS_EUlSU_E_Li0EEESP_SW_SQ_EUlmE_E8iteratorEEESP_NS_5sliceISS_SS_EENS14_ISQ_SQ_EEmEUlmE1_EESP_SW_SR_mEUlmE_EEmSW_NS8_18_from_function_tagEmEUlmE_EEvRNS_9schedulerINS_15WorkStealingJobEEEmmRSS_mbEUlvE0_ED0Ev, symObjAddr: 0x9C6C0, symBinAddr: 0x10009E974, symSize: 0x4 }
  - { offset: 0x2B369E, size: 0x8, addend: 0x0, symName: __ZN6parlay7JobImplIZNS_19fork_join_scheduler7parfor_IZNS_8sequenceINS3_IlNS_9allocatorIlEELb0EEENS4_IS6_EELb0EEC1IZNS_8internal3mapIRNS3_ImNS4_ImEELb0EEEZNSA_18group_by_small_intINS_16delayed_sequenceIllZNSA_11delayed_mapIRNS3_INSt3__14pairIllEENS4_ISK_EELb0EEEZNS_14group_by_indexImSN_EEDaOT0_T_EUlRKSS_E0_Li0EEESP_OSS_SQ_EUlmE_E8iteratorENSG_IllZNSH_ISN_ZNSO_ImSN_EESP_SR_SS_EUlSU_E_Li0EEESP_SW_SQ_EUlmE_E8iteratorEEESP_NS_5sliceISS_SS_EENS14_ISQ_SQ_EEmEUlmE1_EESP_SW_SR_mEUlmE_EEmSW_NS8_18_from_function_tagEmEUlmE_EEvRNS_9schedulerINS_15WorkStealingJobEEEmmRSS_mbEUlvE0_E7executeEv, symObjAddr: 0x9C6C4, symBinAddr: 0x10009E978, symSize: 0x24 }
  - { offset: 0x2B39E4, size: 0x8, addend: 0x0, symName: __ZN6parlay7JobImplIZNS_19fork_join_scheduler7parfor_IZNS_8internal18group_by_small_intINS_16delayed_sequenceIllZNS3_11delayed_mapIRNS_8sequenceINSt3__14pairIllEENS_9allocatorISA_EELb0EEEZNS_14group_by_indexImSE_EEDaOT0_T_EUlRKSJ_E0_Li0EEESG_OSJ_SH_EUlmE_E8iteratorENS5_IllZNS6_ISE_ZNSF_ImSE_EESG_SI_SJ_EUlSL_E_Li0EEESG_SN_SH_EUlmE_E8iteratorEEESG_NS_5sliceISJ_SJ_EENSV_ISH_SH_EEmEUlmE0_EEvRNS_9schedulerINS_15WorkStealingJobEEEmmRSJ_mbEUlvE0_ED1Ev, symObjAddr: 0x9CD24, symBinAddr: 0x10009EFD8, symSize: 0x4 }
  - { offset: 0x2B3A0F, size: 0x8, addend: 0x0, symName: __ZN6parlay7JobImplIZNS_19fork_join_scheduler7parfor_IZNS_8internal18group_by_small_intINS_16delayed_sequenceIllZNS3_11delayed_mapIRNS_8sequenceINSt3__14pairIllEENS_9allocatorISA_EELb0EEEZNS_14group_by_indexImSE_EEDaOT0_T_EUlRKSJ_E0_Li0EEESG_OSJ_SH_EUlmE_E8iteratorENS5_IllZNS6_ISE_ZNSF_ImSE_EESG_SI_SJ_EUlSL_E_Li0EEESG_SN_SH_EUlmE_E8iteratorEEESG_NS_5sliceISJ_SJ_EENSV_ISH_SH_EEmEUlmE0_EEvRNS_9schedulerINS_15WorkStealingJobEEEmmRSJ_mbEUlvE0_ED0Ev, symObjAddr: 0x9CD28, symBinAddr: 0x10009EFDC, symSize: 0x4 }
  - { offset: 0x2B3A3A, size: 0x8, addend: 0x0, symName: __ZN6parlay7JobImplIZNS_19fork_join_scheduler7parfor_IZNS_8internal18group_by_small_intINS_16delayed_sequenceIllZNS3_11delayed_mapIRNS_8sequenceINSt3__14pairIllEENS_9allocatorISA_EELb0EEEZNS_14group_by_indexImSE_EEDaOT0_T_EUlRKSJ_E0_Li0EEESG_OSJ_SH_EUlmE_E8iteratorENS5_IllZNS6_ISE_ZNSF_ImSE_EESG_SI_SJ_EUlSL_E_Li0EEESG_SN_SH_EUlmE_E8iteratorEEESG_NS_5sliceISJ_SJ_EENSV_ISH_SH_EEmEUlmE0_EEvRNS_9schedulerINS_15WorkStealingJobEEEmmRSJ_mbEUlvE0_E7executeEv, symObjAddr: 0x9CD2C, symBinAddr: 0x10009EFE0, symSize: 0x24 }
  - { offset: 0x2B3A8D, size: 0x8, addend: 0x0, symName: __ZN6parlay7JobImplIZNS_19fork_join_scheduler7parfor_IZNS_8internal18group_by_small_intINS_16delayed_sequenceIllZNS3_11delayed_mapIRNS_8sequenceINSt3__14pairIllEENS_9allocatorISA_EELb0EEEZNS_14group_by_indexImSE_EEDaOT0_T_EUlRKSJ_E0_Li0EEESG_OSJ_SH_EUlmE_E8iteratorENS5_IllZNS6_ISE_ZNSF_ImSE_EESG_SI_SJ_EUlSL_E_Li0EEESG_SN_SH_EUlmE_E8iteratorEEESG_NS_5sliceISJ_SJ_EENSV_ISH_SH_EEmEUlmE_EEvRNS_9schedulerINS_15WorkStealingJobEEEmmRSJ_mbEUlvE0_ED1Ev, symObjAddr: 0x9CD50, symBinAddr: 0x10009F004, symSize: 0x4 }
  - { offset: 0x2B3AB8, size: 0x8, addend: 0x0, symName: __ZN6parlay7JobImplIZNS_19fork_join_scheduler7parfor_IZNS_8internal18group_by_small_intINS_16delayed_sequenceIllZNS3_11delayed_mapIRNS_8sequenceINSt3__14pairIllEENS_9allocatorISA_EELb0EEEZNS_14group_by_indexImSE_EEDaOT0_T_EUlRKSJ_E0_Li0EEESG_OSJ_SH_EUlmE_E8iteratorENS5_IllZNS6_ISE_ZNSF_ImSE_EESG_SI_SJ_EUlSL_E_Li0EEESG_SN_SH_EUlmE_E8iteratorEEESG_NS_5sliceISJ_SJ_EENSV_ISH_SH_EEmEUlmE_EEvRNS_9schedulerINS_15WorkStealingJobEEEmmRSJ_mbEUlvE0_ED0Ev, symObjAddr: 0x9CD54, symBinAddr: 0x10009F008, symSize: 0x4 }
  - { offset: 0x2B3AE3, size: 0x8, addend: 0x0, symName: __ZN6parlay7JobImplIZNS_19fork_join_scheduler7parfor_IZNS_8internal18group_by_small_intINS_16delayed_sequenceIllZNS3_11delayed_mapIRNS_8sequenceINSt3__14pairIllEENS_9allocatorISA_EELb0EEEZNS_14group_by_indexImSE_EEDaOT0_T_EUlRKSJ_E0_Li0EEESG_OSJ_SH_EUlmE_E8iteratorENS5_IllZNS6_ISE_ZNSF_ImSE_EESG_SI_SJ_EUlSL_E_Li0EEESG_SN_SH_EUlmE_E8iteratorEEESG_NS_5sliceISJ_SJ_EENSV_ISH_SH_EEmEUlmE_EEvRNS_9schedulerINS_15WorkStealingJobEEEmmRSJ_mbEUlvE0_E7executeEv, symObjAddr: 0x9CD58, symBinAddr: 0x10009F00C, symSize: 0xD4 }
  - { offset: 0x2B3DBC, size: 0x8, addend: 0x0, symName: __ZN6parlay7JobImplIZNS_19fork_join_scheduler7parfor_IZNS_8sequenceINS3_IlNS_9allocatorIlEELb0EEENS4_IS6_EELb0EE16initialize_rangeIPKS6_EEvT_SC_EUlmE_EEvRNS_9schedulerINS_15WorkStealingJobEEEmmRSC_mbEUlvE0_ED1Ev, symObjAddr: 0x9D46C, symBinAddr: 0x10009F720, symSize: 0x4 }
  - { offset: 0x2B3DE7, size: 0x8, addend: 0x0, symName: __ZN6parlay7JobImplIZNS_19fork_join_scheduler7parfor_IZNS_8sequenceINS3_IlNS_9allocatorIlEELb0EEENS4_IS6_EELb0EE16initialize_rangeIPKS6_EEvT_SC_EUlmE_EEvRNS_9schedulerINS_15WorkStealingJobEEEmmRSC_mbEUlvE0_ED0Ev, symObjAddr: 0x9D470, symBinAddr: 0x10009F724, symSize: 0x4 }
  - { offset: 0x2B3E12, size: 0x8, addend: 0x0, symName: __ZN6parlay7JobImplIZNS_19fork_join_scheduler7parfor_IZNS_8sequenceINS3_IlNS_9allocatorIlEELb0EEENS4_IS6_EELb0EE16initialize_rangeIPKS6_EEvT_SC_EUlmE_EEvRNS_9schedulerINS_15WorkStealingJobEEEmmRSC_mbEUlvE0_E7executeEv, symObjAddr: 0x9D474, symBinAddr: 0x10009F728, symSize: 0xE4 }
  - { offset: 0x2B425A, size: 0x8, addend: 0x0, symName: __ZN6parlay7JobImplIZNS_19fork_join_scheduler7parfor_IZNS_8internal10sliced_forIZNS3_18group_by_small_intINS_16delayed_sequenceIllZNS3_11delayed_mapIRNS_8sequenceINSt3__14pairIllEENS_9allocatorISB_EELb0EEEZNS_14group_by_indexImSF_EEDaOT0_T_EUlRKSK_E0_Li0EEESH_OSK_SI_EUlmE_E8iteratorENS6_IllZNS7_ISF_ZNSG_ImSF_EESH_SJ_SK_EUlSM_E_Li0EEESH_SO_SI_EUlmE_E8iteratorEEESH_NS_5sliceISK_SK_EENSW_ISI_SI_EEmEUlmmmE0_EEvmmSM_jEUlmE_EEvRNS_9schedulerINS_15WorkStealingJobEEEmmRSK_mbEUlvE0_ED1Ev, symObjAddr: 0x9DB94, symBinAddr: 0x10009FE48, symSize: 0x4 }
  - { offset: 0x2B4285, size: 0x8, addend: 0x0, symName: __ZN6parlay7JobImplIZNS_19fork_join_scheduler7parfor_IZNS_8internal10sliced_forIZNS3_18group_by_small_intINS_16delayed_sequenceIllZNS3_11delayed_mapIRNS_8sequenceINSt3__14pairIllEENS_9allocatorISB_EELb0EEEZNS_14group_by_indexImSF_EEDaOT0_T_EUlRKSK_E0_Li0EEESH_OSK_SI_EUlmE_E8iteratorENS6_IllZNS7_ISF_ZNSG_ImSF_EESH_SJ_SK_EUlSM_E_Li0EEESH_SO_SI_EUlmE_E8iteratorEEESH_NS_5sliceISK_SK_EENSW_ISI_SI_EEmEUlmmmE0_EEvmmSM_jEUlmE_EEvRNS_9schedulerINS_15WorkStealingJobEEEmmRSK_mbEUlvE0_ED0Ev, symObjAddr: 0x9DB98, symBinAddr: 0x10009FE4C, symSize: 0x4 }
  - { offset: 0x2B42B0, size: 0x8, addend: 0x0, symName: __ZN6parlay7JobImplIZNS_19fork_join_scheduler7parfor_IZNS_8internal10sliced_forIZNS3_18group_by_small_intINS_16delayed_sequenceIllZNS3_11delayed_mapIRNS_8sequenceINSt3__14pairIllEENS_9allocatorISB_EELb0EEEZNS_14group_by_indexImSF_EEDaOT0_T_EUlRKSK_E0_Li0EEESH_OSK_SI_EUlmE_E8iteratorENS6_IllZNS7_ISF_ZNSG_ImSF_EESH_SJ_SK_EUlSM_E_Li0EEESH_SO_SI_EUlmE_E8iteratorEEESH_NS_5sliceISK_SK_EENSW_ISI_SI_EEmEUlmmmE0_EEvmmSM_jEUlmE_EEvRNS_9schedulerINS_15WorkStealingJobEEEmmRSK_mbEUlvE0_E7executeEv, symObjAddr: 0x9DB9C, symBinAddr: 0x10009FE50, symSize: 0x24 }
  - { offset: 0x2B45F6, size: 0x8, addend: 0x0, symName: __ZN6parlay7JobImplIZNS_19fork_join_scheduler7parfor_IZNS_8internal10sliced_forIZNS3_18group_by_small_intINS_16delayed_sequenceIllZNS3_11delayed_mapIRNS_8sequenceINSt3__14pairIllEENS_9allocatorISB_EELb0EEEZNS_14group_by_indexImSF_EEDaOT0_T_EUlRKSK_E0_Li0EEESH_OSK_SI_EUlmE_E8iteratorENS6_IllZNS7_ISF_ZNSG_ImSF_EESH_SJ_SK_EUlSM_E_Li0EEESH_SO_SI_EUlmE_E8iteratorEEESH_NS_5sliceISK_SK_EENSW_ISI_SI_EEmEUlmmmE_EEvmmSM_jEUlmE_EEvRNS_9schedulerINS_15WorkStealingJobEEEmmRSK_mbEUlvE0_ED1Ev, symObjAddr: 0x9E230, symBinAddr: 0x1000A04E4, symSize: 0x4 }
  - { offset: 0x2B4621, size: 0x8, addend: 0x0, symName: __ZN6parlay7JobImplIZNS_19fork_join_scheduler7parfor_IZNS_8internal10sliced_forIZNS3_18group_by_small_intINS_16delayed_sequenceIllZNS3_11delayed_mapIRNS_8sequenceINSt3__14pairIllEENS_9allocatorISB_EELb0EEEZNS_14group_by_indexImSF_EEDaOT0_T_EUlRKSK_E0_Li0EEESH_OSK_SI_EUlmE_E8iteratorENS6_IllZNS7_ISF_ZNSG_ImSF_EESH_SJ_SK_EUlSM_E_Li0EEESH_SO_SI_EUlmE_E8iteratorEEESH_NS_5sliceISK_SK_EENSW_ISI_SI_EEmEUlmmmE_EEvmmSM_jEUlmE_EEvRNS_9schedulerINS_15WorkStealingJobEEEmmRSK_mbEUlvE0_ED0Ev, symObjAddr: 0x9E234, symBinAddr: 0x1000A04E8, symSize: 0x4 }
  - { offset: 0x2B464C, size: 0x8, addend: 0x0, symName: __ZN6parlay7JobImplIZNS_19fork_join_scheduler7parfor_IZNS_8internal10sliced_forIZNS3_18group_by_small_intINS_16delayed_sequenceIllZNS3_11delayed_mapIRNS_8sequenceINSt3__14pairIllEENS_9allocatorISB_EELb0EEEZNS_14group_by_indexImSF_EEDaOT0_T_EUlRKSK_E0_Li0EEESH_OSK_SI_EUlmE_E8iteratorENS6_IllZNS7_ISF_ZNSG_ImSF_EESH_SJ_SK_EUlSM_E_Li0EEESH_SO_SI_EUlmE_E8iteratorEEESH_NS_5sliceISK_SK_EENSW_ISI_SI_EEmEUlmmmE_EEvmmSM_jEUlmE_EEvRNS_9schedulerINS_15WorkStealingJobEEEmmRSK_mbEUlvE0_E7executeEv, symObjAddr: 0x9E238, symBinAddr: 0x1000A04EC, symSize: 0x24 }
  - { offset: 0x2B4B03, size: 0x8, addend: 0x0, symName: __ZN6parlay7JobImplIZNS_19fork_join_scheduler7parfor_IZNS_17sequence_internal13sequence_baseINS_8sequenceINSt3__14pairIllEENS_9allocatorIS8_EELb0EEENS9_ISB_EELb0EE12storage_impl11destroy_allEvEUlmE_EEvRNS_9schedulerINS_15WorkStealingJobEEEmmRT_mbEUlvE0_ED1Ev, symObjAddr: 0x9F3C4, symBinAddr: 0x1000A1678, symSize: 0x4 }
  - { offset: 0x2B4B2E, size: 0x8, addend: 0x0, symName: __ZN6parlay7JobImplIZNS_19fork_join_scheduler7parfor_IZNS_17sequence_internal13sequence_baseINS_8sequenceINSt3__14pairIllEENS_9allocatorIS8_EELb0EEENS9_ISB_EELb0EE12storage_impl11destroy_allEvEUlmE_EEvRNS_9schedulerINS_15WorkStealingJobEEEmmRT_mbEUlvE0_ED0Ev, symObjAddr: 0x9F3C8, symBinAddr: 0x1000A167C, symSize: 0x4 }
  - { offset: 0x2B4B59, size: 0x8, addend: 0x0, symName: __ZN6parlay7JobImplIZNS_19fork_join_scheduler7parfor_IZNS_17sequence_internal13sequence_baseINS_8sequenceINSt3__14pairIllEENS_9allocatorIS8_EELb0EEENS9_ISB_EELb0EE12storage_impl11destroy_allEvEUlmE_EEvRNS_9schedulerINS_15WorkStealingJobEEEmmRT_mbEUlvE0_E7executeEv, symObjAddr: 0x9F3CC, symBinAddr: 0x1000A1680, symSize: 0x24 }
  - { offset: 0x2B4E9F, size: 0x8, addend: 0x0, symName: __ZN6parlay7JobImplIZNS_19fork_join_scheduler7parfor_IZNS_7flattenINSt3__14pairIllEEEEDaONS_8sequenceINS8_IT_NS_9allocatorIS9_EEXsr3std7is_sameIS9_cEE5valueEEENSA_ISC_EEXsr3std7is_sameISC_cEE5valueEEEEUlmE0_EEvRNS_9schedulerINS_15WorkStealingJobEEEmmRS9_mbEUlvE0_ED1Ev, symObjAddr: 0x9FA08, symBinAddr: 0x1000A1CBC, symSize: 0x4 }
  - { offset: 0x2B4ECA, size: 0x8, addend: 0x0, symName: __ZN6parlay7JobImplIZNS_19fork_join_scheduler7parfor_IZNS_7flattenINSt3__14pairIllEEEEDaONS_8sequenceINS8_IT_NS_9allocatorIS9_EEXsr3std7is_sameIS9_cEE5valueEEENSA_ISC_EEXsr3std7is_sameISC_cEE5valueEEEEUlmE0_EEvRNS_9schedulerINS_15WorkStealingJobEEEmmRS9_mbEUlvE0_ED0Ev, symObjAddr: 0x9FA0C, symBinAddr: 0x1000A1CC0, symSize: 0x4 }
  - { offset: 0x2B4EF5, size: 0x8, addend: 0x0, symName: __ZN6parlay7JobImplIZNS_19fork_join_scheduler7parfor_IZNS_7flattenINSt3__14pairIllEEEEDaONS_8sequenceINS8_IT_NS_9allocatorIS9_EEXsr3std7is_sameIS9_cEE5valueEEENSA_ISC_EEXsr3std7is_sameISC_cEE5valueEEEEUlmE0_EEvRNS_9schedulerINS_15WorkStealingJobEEEmmRS9_mbEUlvE0_E7executeEv, symObjAddr: 0x9FA10, symBinAddr: 0x1000A1CC4, symSize: 0x24 }
  - { offset: 0x2B5167, size: 0x8, addend: 0x0, symName: __ZN6parlay7JobImplIZNS_19fork_join_scheduler7parfor_IZNS_8sequenceImNS_9allocatorImEELb0EEC1IZNS_7flattenINSt3__14pairIllEEEEDaONS3_INS3_IT_NS4_ISD_EEXsr3std7is_sameISD_cEE5valueEEENS4_ISF_EEXsr3std7is_sameISF_cEE5valueEEEEUlmE_EEmOSD_NS6_18_from_function_tagEmEUlmE_EEvRNS_9schedulerINS_15WorkStealingJobEEEmmRSD_mbEUlvE0_ED1Ev, symObjAddr: 0xA0264, symBinAddr: 0x1000A2518, symSize: 0x4 }
  - { offset: 0x2B5192, size: 0x8, addend: 0x0, symName: __ZN6parlay7JobImplIZNS_19fork_join_scheduler7parfor_IZNS_8sequenceImNS_9allocatorImEELb0EEC1IZNS_7flattenINSt3__14pairIllEEEEDaONS3_INS3_IT_NS4_ISD_EEXsr3std7is_sameISD_cEE5valueEEENS4_ISF_EEXsr3std7is_sameISF_cEE5valueEEEEUlmE_EEmOSD_NS6_18_from_function_tagEmEUlmE_EEvRNS_9schedulerINS_15WorkStealingJobEEEmmRSD_mbEUlvE0_ED0Ev, symObjAddr: 0xA0268, symBinAddr: 0x1000A251C, symSize: 0x4 }
  - { offset: 0x2B51BD, size: 0x8, addend: 0x0, symName: __ZN6parlay7JobImplIZNS_19fork_join_scheduler7parfor_IZNS_8sequenceImNS_9allocatorImEELb0EEC1IZNS_7flattenINSt3__14pairIllEEEEDaONS3_INS3_IT_NS4_ISD_EEXsr3std7is_sameISD_cEE5valueEEENS4_ISF_EEXsr3std7is_sameISF_cEE5valueEEEEUlmE_EEmOSD_NS6_18_from_function_tagEmEUlmE_EEvRNS_9schedulerINS_15WorkStealingJobEEEmmRSD_mbEUlvE0_E7executeEv, symObjAddr: 0xA026C, symBinAddr: 0x1000A2520, symSize: 0x1D0 }
  - { offset: 0x2B5573, size: 0x8, addend: 0x0, symName: __ZN6parlay19fork_join_scheduler5pardoIZNS0_7parfor_IZNS_8sequenceINSt3__14pairIllEENS_9allocatorIS6_EELb0EEC1IZNS_8internal3mapIRKNS3_IlNS7_IlEELb0EEEZZN11graph_utilsIlE9transposeERKNS3_ISE_NS7_ISE_EELb0EEEENKUllE_clElEUlT_E_EEDaOSO_OT0_mEUlmE_EEmSR_NS9_18_from_function_tagEmEUlmE_EEvRNS_9schedulerINS_15WorkStealingJobEEEmmRSO_mbEUlvE_ZNS2_ISW_EEvS10_mmS11_mbEUlvE0_EEvS10_SR_ST_b, symObjAddr: 0xA0F0C, symBinAddr: 0x1000A31C0, symSize: 0x7C4 }
  - { offset: 0x2B6B40, size: 0x8, addend: 0x0, symName: __ZN6parlay7JobImplIZNS_19fork_join_scheduler7parfor_IZNS_8sequenceINS3_INSt3__14pairIllEENS_9allocatorIS6_EELb0EEENS7_IS9_EELb0EE16initialize_rangeINS_16delayed_sequenceIS9_S9_ZN11graph_utilsIlE9transposeERKNS3_INS3_IlNS7_IlEELb0EEENS7_ISH_EELb0EEEEUllE_E8iteratorEEEvT_SP_EUlmE_EEvRNS_9schedulerINS_15WorkStealingJobEEEmmRSP_mbEUlvE0_ED1Ev, symObjAddr: 0xA0EE0, symBinAddr: 0x1000A3194, symSize: 0x4 }
  - { offset: 0x2B6B6B, size: 0x8, addend: 0x0, symName: __ZN6parlay7JobImplIZNS_19fork_join_scheduler7parfor_IZNS_8sequenceINS3_INSt3__14pairIllEENS_9allocatorIS6_EELb0EEENS7_IS9_EELb0EE16initialize_rangeINS_16delayed_sequenceIS9_S9_ZN11graph_utilsIlE9transposeERKNS3_INS3_IlNS7_IlEELb0EEENS7_ISH_EELb0EEEEUllE_E8iteratorEEEvT_SP_EUlmE_EEvRNS_9schedulerINS_15WorkStealingJobEEEmmRSP_mbEUlvE0_ED0Ev, symObjAddr: 0xA0EE4, symBinAddr: 0x1000A3198, symSize: 0x4 }
  - { offset: 0x2B6B96, size: 0x8, addend: 0x0, symName: __ZN6parlay7JobImplIZNS_19fork_join_scheduler7parfor_IZNS_8sequenceINS3_INSt3__14pairIllEENS_9allocatorIS6_EELb0EEENS7_IS9_EELb0EE16initialize_rangeINS_16delayed_sequenceIS9_S9_ZN11graph_utilsIlE9transposeERKNS3_INS3_IlNS7_IlEELb0EEENS7_ISH_EELb0EEEEUllE_E8iteratorEEEvT_SP_EUlmE_EEvRNS_9schedulerINS_15WorkStealingJobEEEmmRSP_mbEUlvE0_E7executeEv, symObjAddr: 0xA0EE8, symBinAddr: 0x1000A319C, symSize: 0x24 }
  - { offset: 0x2B6E08, size: 0x8, addend: 0x0, symName: __ZN6parlay7JobImplIZNS_19fork_join_scheduler7parfor_IZNS_8sequenceINSt3__14pairIllEENS_9allocatorIS6_EELb0EEC1IZNS_8internal3mapIRKNS3_IlNS7_IlEELb0EEEZZN11graph_utilsIlE9transposeERKNS3_ISE_NS7_ISE_EELb0EEEENKUllE_clElEUlT_E_EEDaOSO_OT0_mEUlmE_EEmSR_NS9_18_from_function_tagEmEUlmE_EEvRNS_9schedulerINS_15WorkStealingJobEEEmmRSO_mbEUlvE0_ED1Ev, symObjAddr: 0xA16D0, symBinAddr: 0x1000A3984, symSize: 0x4 }
  - { offset: 0x2B6E33, size: 0x8, addend: 0x0, symName: __ZN6parlay7JobImplIZNS_19fork_join_scheduler7parfor_IZNS_8sequenceINSt3__14pairIllEENS_9allocatorIS6_EELb0EEC1IZNS_8internal3mapIRKNS3_IlNS7_IlEELb0EEEZZN11graph_utilsIlE9transposeERKNS3_ISE_NS7_ISE_EELb0EEEENKUllE_clElEUlT_E_EEDaOSO_OT0_mEUlmE_EEmSR_NS9_18_from_function_tagEmEUlmE_EEvRNS_9schedulerINS_15WorkStealingJobEEEmmRSO_mbEUlvE0_ED0Ev, symObjAddr: 0xA16D4, symBinAddr: 0x1000A3988, symSize: 0x4 }
  - { offset: 0x2B6E5E, size: 0x8, addend: 0x0, symName: __ZN6parlay7JobImplIZNS_19fork_join_scheduler7parfor_IZNS_8sequenceINSt3__14pairIllEENS_9allocatorIS6_EELb0EEC1IZNS_8internal3mapIRKNS3_IlNS7_IlEELb0EEEZZN11graph_utilsIlE9transposeERKNS3_ISE_NS7_ISE_EELb0EEEENKUllE_clElEUlT_E_EEDaOSO_OT0_mEUlmE_EEmSR_NS9_18_from_function_tagEmEUlmE_EEvRNS_9schedulerINS_15WorkStealingJobEEEmmRSO_mbEUlvE0_E7executeEv, symObjAddr: 0xA16D8, symBinAddr: 0x1000A398C, symSize: 0x194 }
  - { offset: 0x2B71B2, size: 0x8, addend: 0x0, symName: __ZN6parlay7JobImplIZNS_19fork_join_scheduler7parfor_IZNS_8sequenceINS3_IlNS_9allocatorIlEELb0EEENS4_IS6_EELb0EEC1IZNS_8internal3mapIRS6_Z24convert_parents_to_graphIS8_lET_SE_NS3_IT0_NS4_ISF_EEXsr3std7is_sameISF_cEE5valueEEEEUllE0_EEDaOSE_OSF_mEUlmE_EEmSK_NS8_18_from_function_tagEmEUlmE_EEvRNS_9schedulerINS_15WorkStealingJobEEEmmRSE_mbEUlvE0_ED1Ev, symObjAddr: 0xA2048, symBinAddr: 0x1000A42FC, symSize: 0x4 }
  - { offset: 0x2B71DD, size: 0x8, addend: 0x0, symName: __ZN6parlay7JobImplIZNS_19fork_join_scheduler7parfor_IZNS_8sequenceINS3_IlNS_9allocatorIlEELb0EEENS4_IS6_EELb0EEC1IZNS_8internal3mapIRS6_Z24convert_parents_to_graphIS8_lET_SE_NS3_IT0_NS4_ISF_EEXsr3std7is_sameISF_cEE5valueEEEEUllE0_EEDaOSE_OSF_mEUlmE_EEmSK_NS8_18_from_function_tagEmEUlmE_EEvRNS_9schedulerINS_15WorkStealingJobEEEmmRSE_mbEUlvE0_ED0Ev, symObjAddr: 0xA204C, symBinAddr: 0x1000A4300, symSize: 0x4 }
  - { offset: 0x2B7208, size: 0x8, addend: 0x0, symName: __ZN6parlay7JobImplIZNS_19fork_join_scheduler7parfor_IZNS_8sequenceINS3_IlNS_9allocatorIlEELb0EEENS4_IS6_EELb0EEC1IZNS_8internal3mapIRS6_Z24convert_parents_to_graphIS8_lET_SE_NS3_IT0_NS4_ISF_EEXsr3std7is_sameISF_cEE5valueEEEEUllE0_EEDaOSE_OSF_mEUlmE_EEmSK_NS8_18_from_function_tagEmEUlmE_EEvRNS_9schedulerINS_15WorkStealingJobEEEmmRSE_mbEUlvE0_E7executeEv, symObjAddr: 0xA2050, symBinAddr: 0x1000A4304, symSize: 0xD8 }
  - { offset: 0x2B74DA, size: 0x8, addend: 0x0, symName: __ZN6parlay7JobImplIZNS_19fork_join_scheduler7parfor_IZNS_8sequenceIlNS_9allocatorIlEELb0EEC1IZ24convert_parents_to_graphINS3_IS6_NS4_IS6_EELb0EEElET_SB_NS3_IT0_NS4_ISC_EEXsr3std7is_sameISC_cEE5valueEEEEUllE_EEmOSB_NS6_18_from_function_tagEmEUlmE_EEvRNS_9schedulerINS_15WorkStealingJobEEEmmRSB_mbEUlvE0_ED1Ev, symObjAddr: 0xA2830, symBinAddr: 0x1000A4AE4, symSize: 0x4 }
  - { offset: 0x2B7505, size: 0x8, addend: 0x0, symName: __ZN6parlay7JobImplIZNS_19fork_join_scheduler7parfor_IZNS_8sequenceIlNS_9allocatorIlEELb0EEC1IZ24convert_parents_to_graphINS3_IS6_NS4_IS6_EELb0EEElET_SB_NS3_IT0_NS4_ISC_EEXsr3std7is_sameISC_cEE5valueEEEEUllE_EEmOSB_NS6_18_from_function_tagEmEUlmE_EEvRNS_9schedulerINS_15WorkStealingJobEEEmmRSB_mbEUlvE0_ED0Ev, symObjAddr: 0xA2834, symBinAddr: 0x1000A4AE8, symSize: 0x4 }
  - { offset: 0x2B7530, size: 0x8, addend: 0x0, symName: __ZN6parlay7JobImplIZNS_19fork_join_scheduler7parfor_IZNS_8sequenceIlNS_9allocatorIlEELb0EEC1IZ24convert_parents_to_graphINS3_IS6_NS4_IS6_EELb0EEElET_SB_NS3_IT0_NS4_ISC_EEXsr3std7is_sameISC_cEE5valueEEEEUllE_EEmOSB_NS6_18_from_function_tagEmEUlmE_EEvRNS_9schedulerINS_15WorkStealingJobEEEmmRSB_mbEUlvE0_E7executeEv, symObjAddr: 0xA2838, symBinAddr: 0x1000A4AEC, symSize: 0x138 }
  - { offset: 0x2B783C, size: 0x8, addend: 0x0, symName: __ZN6parlay7JobImplIZNS_19fork_join_scheduler7parfor_IZNS_17sequence_internal13sequence_baseIlNS_9allocatorIlEELb0EE12storage_implC1ERKS8_EUlmE_EEvRNS_9schedulerINS_15WorkStealingJobEEEmmRT_mbEUlvE0_ED1Ev, symObjAddr: 0xA3058, symBinAddr: 0x1000A530C, symSize: 0x4 }
  - { offset: 0x2B7867, size: 0x8, addend: 0x0, symName: __ZN6parlay7JobImplIZNS_19fork_join_scheduler7parfor_IZNS_17sequence_internal13sequence_baseIlNS_9allocatorIlEELb0EE12storage_implC1ERKS8_EUlmE_EEvRNS_9schedulerINS_15WorkStealingJobEEEmmRT_mbEUlvE0_ED0Ev, symObjAddr: 0xA305C, symBinAddr: 0x1000A5310, symSize: 0x4 }
  - { offset: 0x2B7892, size: 0x8, addend: 0x0, symName: __ZN6parlay7JobImplIZNS_19fork_join_scheduler7parfor_IZNS_17sequence_internal13sequence_baseIlNS_9allocatorIlEELb0EE12storage_implC1ERKS8_EUlmE_EEvRNS_9schedulerINS_15WorkStealingJobEEEmmRT_mbEUlvE0_E7executeEv, symObjAddr: 0xA3060, symBinAddr: 0x1000A5314, symSize: 0x130 }
  - { offset: 0x2B7B83, size: 0x8, addend: 0x0, symName: __ZN6parlay7JobImplIZNS_19fork_join_scheduler7parfor_IZNS_17sequence_internal13sequence_baseINS_8sequenceIlNS_9allocatorIlEELb0EEENS6_IS8_EELb0EE12storage_implC1ERKSB_EUlmE_EEvRNS_9schedulerINS_15WorkStealingJobEEEmmRT_mbEUlvE0_ED1Ev, symObjAddr: 0xA37D0, symBinAddr: 0x1000A5A84, symSize: 0x4 }
  - { offset: 0x2B7BAE, size: 0x8, addend: 0x0, symName: __ZN6parlay7JobImplIZNS_19fork_join_scheduler7parfor_IZNS_17sequence_internal13sequence_baseINS_8sequenceIlNS_9allocatorIlEELb0EEENS6_IS8_EELb0EE12storage_implC1ERKSB_EUlmE_EEvRNS_9schedulerINS_15WorkStealingJobEEEmmRT_mbEUlvE0_ED0Ev, symObjAddr: 0xA37D4, symBinAddr: 0x1000A5A88, symSize: 0x4 }
  - { offset: 0x2B7BD9, size: 0x8, addend: 0x0, symName: __ZN6parlay7JobImplIZNS_19fork_join_scheduler7parfor_IZNS_17sequence_internal13sequence_baseINS_8sequenceIlNS_9allocatorIlEELb0EEENS6_IS8_EELb0EE12storage_implC1ERKSB_EUlmE_EEvRNS_9schedulerINS_15WorkStealingJobEEEmmRT_mbEUlvE0_E7executeEv, symObjAddr: 0xA37D8, symBinAddr: 0x1000A5A8C, symSize: 0xE4 }
  - { offset: 0x2B80F9, size: 0x8, addend: 0x0, symName: __ZN6parlay19fork_join_scheduler5pardoIZNS0_7parfor_IZNS_8sequenceINSt3__16atomicIsEENS_9allocatorIS6_EELb0EE18initialize_defaultEmEUlmE_EEvRNS_9schedulerINS_15WorkStealingJobEEEmmRT_mbEUlvE_ZNS2_ISA_EEvSE_mmSG_mbEUlvE0_EEvSE_OSF_OT0_b, symObjAddr: 0xA4AF8, symBinAddr: 0x1000A6DAC, symSize: 0x620 }
  - { offset: 0x2B95CB, size: 0x8, addend: 0x0, symName: __ZN6parlay7JobImplIZNS_19fork_join_scheduler7parfor_IZN7TreeGenIldE13verifyParentsEvEUllE0_EEvRNS_9schedulerINS_15WorkStealingJobEEEmmRT_mbEUlvE0_ED1Ev, symObjAddr: 0xA4418, symBinAddr: 0x1000A66CC, symSize: 0x4 }
  - { offset: 0x2B95F6, size: 0x8, addend: 0x0, symName: __ZN6parlay7JobImplIZNS_19fork_join_scheduler7parfor_IZN7TreeGenIldE13verifyParentsEvEUllE0_EEvRNS_9schedulerINS_15WorkStealingJobEEEmmRT_mbEUlvE0_ED0Ev, symObjAddr: 0xA441C, symBinAddr: 0x1000A66D0, symSize: 0x4 }
  - { offset: 0x2B9621, size: 0x8, addend: 0x0, symName: __ZN6parlay7JobImplIZNS_19fork_join_scheduler7parfor_IZN7TreeGenIldE13verifyParentsEvEUllE0_EEvRNS_9schedulerINS_15WorkStealingJobEEEmmRT_mbEUlvE0_E7executeEv, symObjAddr: 0xA4420, symBinAddr: 0x1000A66D4, symSize: 0xD4 }
  - { offset: 0x2B99CE, size: 0x8, addend: 0x0, symName: __ZN6parlay7JobImplIZNS_19fork_join_scheduler7parfor_IZN7TreeGenIldE13verifyParentsEvEUllE_EEvRNS_9schedulerINS_15WorkStealingJobEEEmmRT_mbEUlvE0_ED1Ev, symObjAddr: 0xA4ACC, symBinAddr: 0x1000A6D80, symSize: 0x4 }
  - { offset: 0x2B99F9, size: 0x8, addend: 0x0, symName: __ZN6parlay7JobImplIZNS_19fork_join_scheduler7parfor_IZN7TreeGenIldE13verifyParentsEvEUllE_EEvRNS_9schedulerINS_15WorkStealingJobEEEmmRT_mbEUlvE0_ED0Ev, symObjAddr: 0xA4AD0, symBinAddr: 0x1000A6D84, symSize: 0x4 }
  - { offset: 0x2B9A24, size: 0x8, addend: 0x0, symName: __ZN6parlay7JobImplIZNS_19fork_join_scheduler7parfor_IZN7TreeGenIldE13verifyParentsEvEUllE_EEvRNS_9schedulerINS_15WorkStealingJobEEEmmRT_mbEUlvE0_E7executeEv, symObjAddr: 0xA4AD4, symBinAddr: 0x1000A6D88, symSize: 0x24 }
  - { offset: 0x2B9C96, size: 0x8, addend: 0x0, symName: __ZN6parlay7JobImplIZNS_19fork_join_scheduler7parfor_IZNS_8sequenceINSt3__16atomicIsEENS_9allocatorIS6_EELb0EE18initialize_defaultEmEUlmE_EEvRNS_9schedulerINS_15WorkStealingJobEEEmmRT_mbEUlvE0_ED1Ev, symObjAddr: 0xA5118, symBinAddr: 0x1000A73CC, symSize: 0x4 }
  - { offset: 0x2B9CC1, size: 0x8, addend: 0x0, symName: __ZN6parlay7JobImplIZNS_19fork_join_scheduler7parfor_IZNS_8sequenceINSt3__16atomicIsEENS_9allocatorIS6_EELb0EE18initialize_defaultEmEUlmE_EEvRNS_9schedulerINS_15WorkStealingJobEEEmmRT_mbEUlvE0_ED0Ev, symObjAddr: 0xA511C, symBinAddr: 0x1000A73D0, symSize: 0x4 }
  - { offset: 0x2B9CEC, size: 0x8, addend: 0x0, symName: __ZN6parlay7JobImplIZNS_19fork_join_scheduler7parfor_IZNS_8sequenceINSt3__16atomicIsEENS_9allocatorIS6_EELb0EE18initialize_defaultEmEUlmE_EEvRNS_9schedulerINS_15WorkStealingJobEEEmmRT_mbEUlvE0_E7executeEv, symObjAddr: 0xA5120, symBinAddr: 0x1000A73D4, symSize: 0xC4 }
  - { offset: 0x2BA0F3, size: 0x8, addend: 0x0, symName: __ZN6parlay7JobImplIZNS_19fork_join_scheduler7parfor_IZNS_8internal10sliced_forIZNS3_10filter_mapINS_5sliceIPNSt3__15tupleIJlldEEESA_EEZN7TreeGenIldE11getAllEdgesEvEUlS9_E_RZNS3_6filterISB_SE_EENS_8sequenceINT_10value_typeENS_9allocatorISI_EEXsr3std7is_sameISI_cEE5valueEEERKSH_OT0_EUlOSH_E_EEDaSN_SP_OT1_EUlmmmE0_EEvmmSN_jEUlmE_EEvRNS_9schedulerINS_15WorkStealingJobEEEmmRSH_mbEUlvE0_ED1Ev, symObjAddr: 0xA5868, symBinAddr: 0x1000A7B1C, symSize: 0x4 }
  - { offset: 0x2BA11E, size: 0x8, addend: 0x0, symName: __ZN6parlay7JobImplIZNS_19fork_join_scheduler7parfor_IZNS_8internal10sliced_forIZNS3_10filter_mapINS_5sliceIPNSt3__15tupleIJlldEEESA_EEZN7TreeGenIldE11getAllEdgesEvEUlS9_E_RZNS3_6filterISB_SE_EENS_8sequenceINT_10value_typeENS_9allocatorISI_EEXsr3std7is_sameISI_cEE5valueEEERKSH_OT0_EUlOSH_E_EEDaSN_SP_OT1_EUlmmmE0_EEvmmSN_jEUlmE_EEvRNS_9schedulerINS_15WorkStealingJobEEEmmRSH_mbEUlvE0_ED0Ev, symObjAddr: 0xA586C, symBinAddr: 0x1000A7B20, symSize: 0x4 }
  - { offset: 0x2BA149, size: 0x8, addend: 0x0, symName: __ZN6parlay7JobImplIZNS_19fork_join_scheduler7parfor_IZNS_8internal10sliced_forIZNS3_10filter_mapINS_5sliceIPNSt3__15tupleIJlldEEESA_EEZN7TreeGenIldE11getAllEdgesEvEUlS9_E_RZNS3_6filterISB_SE_EENS_8sequenceINT_10value_typeENS_9allocatorISI_EEXsr3std7is_sameISI_cEE5valueEEERKSH_OT0_EUlOSH_E_EEDaSN_SP_OT1_EUlmmmE0_EEvmmSN_jEUlmE_EEvRNS_9schedulerINS_15WorkStealingJobEEEmmRSH_mbEUlvE0_E7executeEv, symObjAddr: 0xA5870, symBinAddr: 0x1000A7B24, symSize: 0x24 }
  - { offset: 0x2BA48F, size: 0x8, addend: 0x0, symName: __ZN6parlay7JobImplIZNS_19fork_join_scheduler7parfor_IZNS_8internal10sliced_forIZNS3_10filter_mapINS_5sliceIPNSt3__15tupleIJlldEEESA_EEZN7TreeGenIldE11getAllEdgesEvEUlS9_E_RZNS3_6filterISB_SE_EENS_8sequenceINT_10value_typeENS_9allocatorISI_EEXsr3std7is_sameISI_cEE5valueEEERKSH_OT0_EUlOSH_E_EEDaSN_SP_OT1_EUlmmmE_EEvmmSN_jEUlmE_EEvRNS_9schedulerINS_15WorkStealingJobEEEmmRSH_mbEUlvE0_ED1Ev, symObjAddr: 0xA6228, symBinAddr: 0x1000A84DC, symSize: 0x4 }
  - { offset: 0x2BA4BA, size: 0x8, addend: 0x0, symName: __ZN6parlay7JobImplIZNS_19fork_join_scheduler7parfor_IZNS_8internal10sliced_forIZNS3_10filter_mapINS_5sliceIPNSt3__15tupleIJlldEEESA_EEZN7TreeGenIldE11getAllEdgesEvEUlS9_E_RZNS3_6filterISB_SE_EENS_8sequenceINT_10value_typeENS_9allocatorISI_EEXsr3std7is_sameISI_cEE5valueEEERKSH_OT0_EUlOSH_E_EEDaSN_SP_OT1_EUlmmmE_EEvmmSN_jEUlmE_EEvRNS_9schedulerINS_15WorkStealingJobEEEmmRSH_mbEUlvE0_ED0Ev, symObjAddr: 0xA622C, symBinAddr: 0x1000A84E0, symSize: 0x4 }
  - { offset: 0x2BA4E5, size: 0x8, addend: 0x0, symName: __ZN6parlay7JobImplIZNS_19fork_join_scheduler7parfor_IZNS_8internal10sliced_forIZNS3_10filter_mapINS_5sliceIPNSt3__15tupleIJlldEEESA_EEZN7TreeGenIldE11getAllEdgesEvEUlS9_E_RZNS3_6filterISB_SE_EENS_8sequenceINT_10value_typeENS_9allocatorISI_EEXsr3std7is_sameISI_cEE5valueEEERKSH_OT0_EUlOSH_E_EEDaSN_SP_OT1_EUlmmmE_EEvmmSN_jEUlmE_EEvRNS_9schedulerINS_15WorkStealingJobEEEmmRSH_mbEUlvE0_E7executeEv, symObjAddr: 0xA6230, symBinAddr: 0x1000A84E4, symSize: 0x24 }
  - { offset: 0x2BA82B, size: 0x8, addend: 0x0, symName: __ZN6parlay7JobImplIZNS_19fork_join_scheduler7parfor_IZNS_8sequenceINSt3__15tupleIJlldEEENS_9allocatorIS6_EELb0EEC1IZN7TreeGenIldE11getAllEdgesEvEUllE_EEmOT_NS9_18_from_function_tagEmEUlmE_EEvRNS_9schedulerINS_15WorkStealingJobEEEmmRSE_mbEUlvE0_ED1Ev, symObjAddr: 0xA6804, symBinAddr: 0x1000A8AB8, symSize: 0x4 }
  - { offset: 0x2BA856, size: 0x8, addend: 0x0, symName: __ZN6parlay7JobImplIZNS_19fork_join_scheduler7parfor_IZNS_8sequenceINSt3__15tupleIJlldEEENS_9allocatorIS6_EELb0EEC1IZN7TreeGenIldE11getAllEdgesEvEUllE_EEmOT_NS9_18_from_function_tagEmEUlmE_EEvRNS_9schedulerINS_15WorkStealingJobEEEmmRSE_mbEUlvE0_ED0Ev, symObjAddr: 0xA6808, symBinAddr: 0x1000A8ABC, symSize: 0x4 }
  - { offset: 0x2BA881, size: 0x8, addend: 0x0, symName: __ZN6parlay7JobImplIZNS_19fork_join_scheduler7parfor_IZNS_8sequenceINSt3__15tupleIJlldEEENS_9allocatorIS6_EELb0EEC1IZN7TreeGenIldE11getAllEdgesEvEUllE_EEmOT_NS9_18_from_function_tagEmEUlmE_EEvRNS_9schedulerINS_15WorkStealingJobEEEmmRSE_mbEUlvE0_E7executeEv, symObjAddr: 0xA680C, symBinAddr: 0x1000A8AC0, symSize: 0x24 }
  - { offset: 0x2BAC2E, size: 0x8, addend: 0x0, symName: __ZN6parlay7JobImplIZNS_19fork_join_scheduler7parfor_IZNS_8internal10sliced_forIZNS3_10filter_mapINS_5sliceIPNSt3__15tupleIJNS7_4pairIllEESA_NS8_IJlldEEEbEEESD_EEZN7TreeGenIldE21generateInterconnectsEvEUlSC_E_RZNS3_6filterISE_SH_EENS_8sequenceINT_10value_typeENS_9allocatorISL_EEXsr3std7is_sameISL_cEE5valueEEERKSK_OT0_EUlOSK_E_EEDaSQ_SS_OT1_EUlmmmE0_EEvmmSQ_jEUlmE_EEvRNS_9schedulerINS_15WorkStealingJobEEEmmRSK_mbEUlvE0_ED1Ev, symObjAddr: 0xA7144, symBinAddr: 0x1000A93F8, symSize: 0x4 }
