---
triple:          'arm64-apple-darwin'
binary-path:     testHashing.out
relocations:
  - { offset: 0x39, size: 0x8, addend: 0x0, symName: __ZN6parlay8internal19ThreadListChunkData22thread_list_chunk_sizeE, symObjAddr: 0x707C0, symBinAddr: 0x100088000, symSize: 0x0 }
  - { offset: 0x104, size: 0x8, addend: 0x0, symName: __ZN6parlay8internal31default_allocator_max_pool_sizeE, symObjAddr: 0x707D0, symBinAddr: 0x100088010, symSize: 0x0 }
  - { offset: 0x1E1, size: 0x8, addend: 0x0, symName: __ZN6parlay8internal21get_default_allocatorEv, symObjAddr: 0x310C, symBinAddr: 0x1000065A8, symSize: 0xF0 }
  - { offset: 0x20A, size: 0x8, addend: 0x0, symName: __ZZN6parlay8internal21get_default_allocatorEvE17default_allocator, symObjAddr: 0x707E0, symBinAddr: 0x100088020, symSize: 0x0 }
  - { offset: 0x1117, size: 0x8, addend: 0x0, symName: __ZN6parlay8internal14get_chunk_dataEv, symObjAddr: 0x85C4, symBinAddr: 0x10000BA60, symSize: 0x74 }
  - { offset: 0x1140, size: 0x8, addend: 0x0, symName: __ZZN6parlay8internal14get_chunk_dataEvE4data, symObjAddr: 0x7946F, symBinAddr: 0x1000904B0, symSize: 0x0 }
  - { offset: 0x12A6, size: 0x8, addend: 0x0, symName: __ZN6parlay8internal21get_current_schedulerEv, symObjAddr: 0x22F7C, symBinAddr: 0x100026418, symSize: 0xC8 }
  - { offset: 0x12CF, size: 0x8, addend: 0x0, symName: __ZZN6parlay8internal21get_current_schedulerEvE15local_scheduler, symObjAddr: 0x794CF, symBinAddr: 0x100090510, symSize: 0x0 }
  - { offset: 0x1319, size: 0x8, addend: 0x0, symName: '__ZN6parlay8internal11count_sort_INS_22uninitialized_copy_tagEjNS_16delayed_sequenceINSt3__15tupleIJlldEEES6_Z4mainE3$_0E8iteratorEPS6_NS3_ImmZNS0_22collect_reduce_sparse_IS2_NS_5sliceIS9_S9_EENS_19group_by_key_helperIS6_14TupleFirstHash15TupleFirstEqualEEEEDaT0_RKT1_EUlmE_E8iteratorEEENS4_4pairINS_8sequenceImNS_9allocatorImEELb0EEEbEENSC_ISK_SK_EENSC_IT2_SX_EENSC_IT3_SZ_EEmfb', symObjAddr: 0x323C0, symBinAddr: 0x10003585C, symSize: 0x5FC }
  - { offset: 0x15EA, size: 0x8, addend: 0x0, symName: '__ZN6parlay8internal22collect_reduce_sparse_INS_22uninitialized_copy_tagENS_5sliceINS_16delayed_sequenceINSt3__15tupleIJlldEEES7_Z4mainE3$_0E8iteratorESA_EENS_19group_by_key_helperIS7_14TupleFirstHash15TupleFirstEqualEEEEDaT0_RKT1_', symObjAddr: 0x1754, symBinAddr: 0x100004BF0, symSize: 0x404 }
  - { offset: 0x182E, size: 0x8, addend: 0x0, symName: __ZN6parlay8internal10sliced_forIZNS0_5scan_INS_5sliceIPmS4_EES5_NS_4plusImEEEEDaRKT_T0_OT1_jbEUlmmmE_EEvmmSB_j, symObjAddr: 0x38ECC, symBinAddr: 0x10003C368, symSize: 0x8C }
  - { offset: 0x18E2, size: 0x8, addend: 0x0, symName: __ZN6parlay8internal5scan_INS_5sliceIPmS3_EES4_NS_4plusImEEEEDaRKT_T0_OT1_jb, symObjAddr: 0x38A90, symBinAddr: 0x10003BF2C, symSize: 0x1D8 }
  - { offset: 0x1A5A, size: 0x8, addend: 0x0, symName: __ZN6parlay8internal10sliced_forIZNS0_5scan_INS_5sliceIPmS4_EES5_NS_4plusImEEEEDaRKT_T0_OT1_jbEUlmmmE0_EEvmmSB_j, symObjAddr: 0x39144, symBinAddr: 0x10003C5E0, symSize: 0x8C }
  - { offset: 0x1B0E, size: 0x8, addend: 0x0, symName: '__ZN6parlay8internal11count_sort_INS_22uninitialized_copy_tagEmNS_16delayed_sequenceINSt3__15tupleIJlldEEES6_Z4mainE3$_0E8iteratorEPS6_NS3_ImmZNS0_22collect_reduce_sparse_IS2_NS_5sliceIS9_S9_EENS_19group_by_key_helperIS6_14TupleFirstHash15TupleFirstEqualEEEEDaT0_RKT1_EUlmE_E8iteratorEEENS4_4pairINS_8sequenceImNS_9allocatorImEELb0EEEbEENSC_ISK_SK_EENSC_IT2_SX_EENSC_IT3_SZ_EEmfb', symObjAddr: 0x329BC, symBinAddr: 0x100035E58, symSize: 0x5D4 }
  - { offset: 0x1DDF, size: 0x8, addend: 0x0, symName: __ZN6parlay8internal3mapIRNS_5sliceIPNSt3__15tupleIJlldEEES6_EEZNS_19group_by_key_helperIS5_14TupleFirstHash15TupleFirstEqualE6reduceIS7_EENS3_4pairIlNS_8sequenceIlNS_9allocatorIlEELb0EEEEERT_EUlRKS5_E_EEDaOSK_OT0_m, symObjAddr: 0x43990, symBinAddr: 0x100046E2C, symSize: 0x5C }
  - { offset: 0x21D1, size: 0x8, addend: 0x0, symName: __ZN6parlay8internal10sliced_forIZNS0_6reduceINS_5sliceIPlS4_EENS_4plusIlEEEEDaRKT_OT0_jEUlmmmE_EEvmmSB_j, symObjAddr: 0x4D118, symBinAddr: 0x1000505B4, symSize: 0x8C }
  - { offset: 0x2285, size: 0x8, addend: 0x0, symName: __ZN6parlay8internal6reduceINS_5sliceIPlS3_EENS_4plusIlEEEEDaRKT_OT0_j, symObjAddr: 0x4CE10, symBinAddr: 0x1000502AC, symSize: 0x168 }
  - { offset: 0x2378, size: 0x8, addend: 0x0, symName: __ZN6parlay8internal10sliced_forIZNS0_6reduceINS_8sequenceIlNS_9allocatorIlEELb0EEERNS_4plusIlEEEEDaRKT_OT0_jEUlmmmE_EEvmmSD_j, symObjAddr: 0x4E310, symBinAddr: 0x1000517AC, symSize: 0x8C }
  - { offset: 0x242C, size: 0x8, addend: 0x0, symName: __ZN6parlay8internal6reduceINS_8sequenceIlNS_9allocatorIlEELb0EEERNS_4plusIlEEEEDaRKT_OT0_j, symObjAddr: 0x4D1A4, symBinAddr: 0x100050640, symSize: 0x168 }
  - { offset: 0x251F, size: 0x8, addend: 0x0, symName: __ZN6parlay8internal10sliced_forIZNS0_5scan_INS_5sliceIPlS4_EES5_NS_4plusIlEEEEDaRKT_T0_OT1_jbEUlmmmE_EEvmmSB_j, symObjAddr: 0x543CC, symBinAddr: 0x100057868, symSize: 0x8C }
  - { offset: 0x25D3, size: 0x8, addend: 0x0, symName: __ZN6parlay8internal5scan_INS_5sliceIPlS3_EES4_NS_4plusIlEEEEDaRKT_T0_OT1_jb, symObjAddr: 0x53F88, symBinAddr: 0x100057424, symSize: 0x1D8 }
  - { offset: 0x274B, size: 0x8, addend: 0x0, symName: __ZN6parlay8internal10sliced_forIZNS0_5scan_INS_5sliceIPlS4_EES5_NS_4plusIlEEEEDaRKT_T0_OT1_jbEUlmmmE0_EEvmmSB_j, symObjAddr: 0x54644, symBinAddr: 0x100057AE0, symSize: 0x8C }
  - { offset: 0x27FF, size: 0x8, addend: 0x0, symName: __ZN6parlay8internal13find_if_indexIZNS_7find_ifIRNS_8sequenceIlNS_9allocatorIlEELb0EEEZN7TreeGenIldE20generateInitialEdgesEvEUllE4_EEDaOT_OT0_EUlmE_EEmmSD_m, symObjAddr: 0x56E70, symBinAddr: 0x10005A30C, symSize: 0x1A8 }
  - { offset: 0x2900, size: 0x8, addend: 0x0, symName: __ZN6parlay8internal10sliced_forIZNS0_10filter_mapINS_5sliceIPNSt3__15tupleIJNS4_4pairIllEES7_NS5_IJlldEEEbEEESA_EEZN7TreeGenIldE21generateInterconnectsEvEUlS9_E_RZNS0_6filterISB_SE_EENS_8sequenceINT_10value_typeENS_9allocatorISI_EEXsr3std7is_sameISI_cEE5valueEEERKSH_OT0_EUlOSH_E_EEDaSN_SP_OT1_EUlmmmE_EEvmmSN_j, symObjAddr: 0x63974, symBinAddr: 0x100066E10, symSize: 0x8C }
  - { offset: 0x29B4, size: 0x8, addend: 0x0, symName: __ZN6parlay8internal10filter_mapINS_5sliceIPNSt3__15tupleIJNS3_4pairIllEES6_NS4_IJlldEEEbEEES9_EEZN7TreeGenIldE21generateInterconnectsEvEUlS8_E_RZNS0_6filterISA_SD_EENS_8sequenceINT_10value_typeENS_9allocatorISH_EEXsr3std7is_sameISH_cEE5valueEEERKSG_OT0_EUlOSG_E_EEDaSM_SO_OT1_, symObjAddr: 0x636DC, symBinAddr: 0x100066B78, symSize: 0x1F4 }
  - { offset: 0x2B8E, size: 0x8, addend: 0x0, symName: __ZN6parlay8internal10sliced_forIZNS0_10filter_mapINS_5sliceIPNSt3__15tupleIJNS4_4pairIllEES7_NS5_IJlldEEEbEEESA_EEZN7TreeGenIldE21generateInterconnectsEvEUlS9_E_RZNS0_6filterISB_SE_EENS_8sequenceINT_10value_typeENS_9allocatorISI_EEXsr3std7is_sameISI_cEE5valueEEERKSH_OT0_EUlOSH_E_EEDaSN_SP_OT1_EUlmmmE0_EEvmmSN_j, symObjAddr: 0x63A38, symBinAddr: 0x100066ED4, symSize: 0x8C }
  - { offset: 0x2C42, size: 0x8, addend: 0x0, symName: __ZN6parlay8internal6filterINS_5sliceIPNSt3__15tupleIJNS3_4pairIllEES6_NS4_IJlldEEEbEEES9_EEZN7TreeGenIldE21generateInterconnectsEvEUlS8_E_EENS_8sequenceINT_10value_typeENS_9allocatorISG_EEXsr3std7is_sameISG_cEE5valueEEERKSF_OT0_, symObjAddr: 0x63658, symBinAddr: 0x100066AF4, symSize: 0x38 }
  - { offset: 0x2CC8, size: 0x8, addend: 0x0, symName: __ZN6parlay8internal10sliced_forIZNS0_10filter_mapINS_5sliceIPNSt3__15tupleIJlldEEES7_EEZN7TreeGenIldE11getAllEdgesEvEUlS6_E_RZNS0_6filterIS8_SB_EENS_8sequenceINT_10value_typeENS_9allocatorISF_EEXsr3std7is_sameISF_cEE5valueEEERKSE_OT0_EUlOSE_E_EEDaSK_SM_OT1_EUlmmmE_EEvmmSK_j, symObjAddr: 0x68660, symBinAddr: 0x10006BAFC, symSize: 0x8C }
  - { offset: 0x2D7C, size: 0x8, addend: 0x0, symName: __ZN6parlay8internal10filter_mapINS_5sliceIPNSt3__15tupleIJlldEEES6_EEZN7TreeGenIldE11getAllEdgesEvEUlS5_E_RZNS0_6filterIS7_SA_EENS_8sequenceINT_10value_typeENS_9allocatorISE_EEXsr3std7is_sameISE_cEE5valueEEERKSD_OT0_EUlOSD_E_EEDaSJ_SL_OT1_, symObjAddr: 0x68424, symBinAddr: 0x10006B8C0, symSize: 0x1F4 }
  - { offset: 0x2F56, size: 0x8, addend: 0x0, symName: __ZN6parlay8internal10sliced_forIZNS0_10filter_mapINS_5sliceIPNSt3__15tupleIJlldEEES7_EEZN7TreeGenIldE11getAllEdgesEvEUlS6_E_RZNS0_6filterIS8_SB_EENS_8sequenceINT_10value_typeENS_9allocatorISF_EEXsr3std7is_sameISF_cEE5valueEEERKSE_OT0_EUlOSE_E_EEDaSK_SM_OT1_EUlmmmE0_EEvmmSK_j, symObjAddr: 0x68724, symBinAddr: 0x10006BBC0, symSize: 0x8C }
  - { offset: 0x300A, size: 0x8, addend: 0x0, symName: __ZN6parlay8internal6filterINS_5sliceIPNSt3__15tupleIJlldEEES6_EEZN7TreeGenIldE11getAllEdgesEvEUlS5_E_EENS_8sequenceINT_10value_typeENS_9allocatorISD_EEXsr3std7is_sameISD_cEE5valueEEERKSC_OT0_, symObjAddr: 0x683A0, symBinAddr: 0x10006B83C, symSize: 0x38 }
  - { offset: 0x3090, size: 0x8, addend: 0x0, symName: '__ZN6parlay8internal16delayed_tabulateIZ4mainE3$_0EEDamT_', symObjAddr: 0xFE8, symBinAddr: 0x100004484, symSize: 0x40 }
  - { offset: 0x30D3, size: 0x8, addend: 0x0, symName: '__ZN6parlay8internal21collect_reduce_sparseINS_16delayed_sequenceINSt3__15tupleIJlldEEES5_Z4mainE3$_0EENS_19group_by_key_helperIS5_14TupleFirstHash15TupleFirstEqualEEEEDaRKT_RKT0_', symObjAddr: 0x16F0, symBinAddr: 0x100004B8C, symSize: 0x48 }
  - { offset: 0x3268, size: 0x8, addend: 0x0, symName: '__ZN6parlay8internal25seq_collect_reduce_sparseINS_22uninitialized_copy_tagENS_5sliceINS_16delayed_sequenceINSt3__15tupleIJlldEEES7_Z4mainE3$_0E8iteratorESA_EENS_19group_by_key_helperIS7_14TupleFirstHash15TupleFirstEqualEEEEDaT0_RKT1_', symObjAddr: 0x1C58, symBinAddr: 0x1000050F4, symSize: 0x4DC }
  - { offset: 0x3407, size: 0x8, addend: 0x0, symName: '__ZN6parlay8internal16delayed_tabulateIZNS0_22collect_reduce_sparse_INS_22uninitialized_copy_tagENS_5sliceINS_16delayed_sequenceINSt3__15tupleIJlldEEES8_Z4mainE3$_0E8iteratorESB_EENS_19group_by_key_helperIS8_14TupleFirstHash15TupleFirstEqualEEEEDaT0_RKT1_EUlmE_EESH_mT_', symObjAddr: 0x22A8, symBinAddr: 0x100005744, symSize: 0x48 }
  - { offset: 0x344A, size: 0x8, addend: 0x0, symName: '__ZN6parlay8internal10count_sortINS_22uninitialized_copy_tagENS_16delayed_sequenceINSt3__15tupleIJlldEEES6_Z4mainE3$_0E8iteratorEPS6_NS3_ImmZNS0_22collect_reduce_sparse_IS2_NS_5sliceIS9_S9_EENS_19group_by_key_helperIS6_14TupleFirstHash15TupleFirstEqualEEEEDaT0_RKT1_EUlmE_E8iteratorEEESI_NSC_ISJ_SJ_EENSC_ISK_SK_EENSC_IT2_SS_EEmfb', symObjAddr: 0x22F0, symBinAddr: 0x10000578C, symSize: 0x200 }
  - { offset: 0x350B, size: 0x8, addend: 0x0, symName: '__ZN6parlay8internal8tabulateIZNS0_22collect_reduce_sparse_INS_22uninitialized_copy_tagENS_5sliceINS_16delayed_sequenceINSt3__15tupleIJlldEEES8_Z4mainE3$_0E8iteratorESB_EENS_19group_by_key_helperIS8_14TupleFirstHash15TupleFirstEqualEEEEDaT0_RKT1_EUlmE0_EESH_mOT_m', symObjAddr: 0x26E0, symBinAddr: 0x100005B7C, symSize: 0x3C }
  - { offset: 0x38BF, size: 0x8, addend: 0x0, symName: __ZN6parlay8internal23default_allocator_sizesEv, symObjAddr: 0x31FC, symBinAddr: 0x100006698, symSize: 0xFC }
  - { offset: 0x3924, size: 0x8, addend: 0x0, symName: __ZN6parlay8internal13get_thread_idEv, symObjAddr: 0x87B0, symBinAddr: 0x10000BC4C, symSize: 0x18 }
  - { offset: 0x3941, size: 0x8, addend: 0x0, symName: __ZN6parlay8internal18get_num_thread_idsEv, symObjAddr: 0xB970, symBinAddr: 0x10000EE0C, symSize: 0x20 }
  - { offset: 0x395E, size: 0x8, addend: 0x0, symName: __ZN6parlay8internal18intrusive_get_nextEPNS0_12hazptr_stackIPvE4NodeE, symObjAddr: 0xBBF4, symBinAddr: 0x10000F090, symSize: 0x18 }
  - { offset: 0x398A, size: 0x8, addend: 0x0, symName: __ZN6parlay8internal18intrusive_set_nextEPNS0_12hazptr_stackIPvE4NodeES5_, symObjAddr: 0xBC50, symBinAddr: 0x10000F0EC, symSize: 0x20 }
  - { offset: 0x39C0, size: 0x8, addend: 0x0, symName: __ZN6parlay8internal18intrusive_get_nextEPNS0_12hazptr_stackIPSt4byteE4NodeE, symObjAddr: 0xF524, symBinAddr: 0x1000129C0, symSize: 0x18 }
  - { offset: 0x39EC, size: 0x8, addend: 0x0, symName: __ZN6parlay8internal18intrusive_set_nextEPNS0_12hazptr_stackIPSt4byteE4NodeES6_, symObjAddr: 0xF580, symBinAddr: 0x100012A1C, symSize: 0x20 }
  - { offset: 0x3A22, size: 0x8, addend: 0x0, symName: __ZN6parlay8internal18intrusive_get_nextEPNS0_12hazptr_stackIPNS0_15block_allocator5blockEE4NodeE, symObjAddr: 0x12498, symBinAddr: 0x100015934, symSize: 0x18 }
  - { offset: 0x3A4E, size: 0x8, addend: 0x0, symName: __ZN6parlay8internal18intrusive_set_nextEPNS0_12hazptr_stackIPNS0_15block_allocator5blockEE4NodeES7_, symObjAddr: 0x124F4, symBinAddr: 0x100015990, symSize: 0x20 }
  - { offset: 0x3A84, size: 0x8, addend: 0x0, symName: __ZN6parlay8internal16init_num_workersEv, symObjAddr: 0x23074, symBinAddr: 0x100026510, symSize: 0xA8 }
  - { offset: 0x3AB6, size: 0x8, addend: 0x0, symName: '__ZN6parlay8internal14seq_count_sortINS_22uninitialized_copy_tagENS_16delayed_sequenceINSt3__15tupleIJlldEEES6_Z4mainE3$_0E8iteratorEPS6_NS3_ImmZNS0_22collect_reduce_sparse_IS2_NS_5sliceIS9_S9_EENS_19group_by_key_helperIS6_14TupleFirstHash15TupleFirstEqualEEEEDaT0_RKT1_EUlmE_E8iteratorEEENS_8sequenceImNS_9allocatorImEELb0EEENSC_ISJ_SJ_EENSC_ISK_SK_EENSC_IT2_SW_EEm', symObjAddr: 0x33000, symBinAddr: 0x10003649C, symSize: 0x144 }
  - { offset: 0x3B41, size: 0x8, addend: 0x0, symName: __ZN6parlay8internal12scan_inplaceIPmNS_4plusImEEEEDaNS_5sliceIT_S7_EEOT0_j, symObjAddr: 0x333F8, symBinAddr: 0x100036894, symSize: 0x54 }
  - { offset: 0x3B9F, size: 0x8, addend: 0x0, symName: '__ZN6parlay8internal15seq_count_sort_INS_22uninitialized_copy_tagENS_5sliceINS_16delayed_sequenceINSt3__15tupleIJlldEEES7_Z4mainE3$_0E8iteratorESA_EENS3_IPS7_SC_EEPmNS3_INS4_ImmZNS0_22collect_reduce_sparse_IS2_SB_NS_19group_by_key_helperIS7_14TupleFirstHash15TupleFirstEqualEEEEDaT0_RKT1_EUlmE_E8iteratorESR_EEEEvSL_SM_T3_T2_m', symObjAddr: 0x337F0, symBinAddr: 0x100036C8C, symSize: 0x128 }
  - { offset: 0x3C5A, size: 0x8, addend: 0x0, symName: '__ZN6parlay8internal10seq_count_INS_5sliceINS_16delayed_sequenceINSt3__15tupleIJlldEEES6_Z4mainE3$_0E8iteratorES9_EEPmNS2_INS3_ImmZNS0_22collect_reduce_sparse_INS_22uninitialized_copy_tagESA_NS_19group_by_key_helperIS6_14TupleFirstHash15TupleFirstEqualEEEEDaT0_RKT1_EUlmE_E8iteratorESP_EEEEvT_SK_SJ_m', symObjAddr: 0x3393C, symBinAddr: 0x100036DD8, symSize: 0x180 }
  - { offset: 0x3D2A, size: 0x8, addend: 0x0, symName: '__ZN6parlay8internal15seq_write_down_INS_22uninitialized_copy_tagENS_5sliceINS_16delayed_sequenceINSt3__15tupleIJlldEEES7_Z4mainE3$_0E8iteratorESA_EEPS7_PmNS3_INS4_ImmZNS0_22collect_reduce_sparse_IS2_SB_NS_19group_by_key_helperIS7_14TupleFirstHash15TupleFirstEqualEEEEDaT0_RKT1_EUlmE_E8iteratorESQ_EEEEvSK_SL_T3_T2_m', symObjAddr: 0x33ABC, symBinAddr: 0x100036F58, symSize: 0xD8 }
  - { offset: 0x3DED, size: 0x8, addend: 0x0, symName: '__ZN6parlay8internal10seq_count_INS_5sliceINS_16delayed_sequenceINSt3__15tupleIJlldEEES6_Z4mainE3$_0E8iteratorES9_EEPjNS2_INS3_ImmZNS0_22collect_reduce_sparse_INS_22uninitialized_copy_tagESA_NS_19group_by_key_helperIS6_14TupleFirstHash15TupleFirstEqualEEEEDaT0_RKT1_EUlmE_E8iteratorESP_EEEEvT_SK_SJ_m', symObjAddr: 0x36004, symBinAddr: 0x1000394A0, symSize: 0x180 }
  - { offset: 0x3EBD, size: 0x8, addend: 0x0, symName: __ZN6parlay8internal10num_blocksEmm, symObjAddr: 0x38C90, symBinAddr: 0x10003C12C, symSize: 0x50 }
  - { offset: 0x3EF7, size: 0x8, addend: 0x0, symName: __ZN6parlay8internal11scan_serialINS_5sliceIPmS3_EES4_RNS_4plusImEEEEDaRKT_T0_OT1_NS_13type_identityIDtsr3std18remove_reference_tISD_EE8identityEE4typeEjb, symObjAddr: 0x38CE0, symBinAddr: 0x10003C17C, symSize: 0x1EC }
  - { offset: 0x4051, size: 0x8, addend: 0x0, symName: __ZN6parlay8internal11scan_serialINS_8sequenceImNS_9allocatorImEELb0EEENS_5sliceIPmS7_EERNS_4plusImEEEEDaRKT_T0_OT1_NS_13type_identityIDtsr3std18remove_reference_tISH_EE8identityEE4typeEjb, symObjAddr: 0x38F58, symBinAddr: 0x10003C3F4, symSize: 0x1EC }
  - { offset: 0x41AB, size: 0x8, addend: 0x0, symName: __ZN6parlay8internal13reduce_serialINS_5sliceIPmS3_EERNS_4plusImEEEEDaRKT_OT0_, symObjAddr: 0x39548, symBinAddr: 0x10003C9E4, symSize: 0xD8 }
  - { offset: 0x422C, size: 0x8, addend: 0x0, symName: '__ZN6parlay8internal10seq_write_INS_22uninitialized_copy_tagENS_5sliceINS_16delayed_sequenceINSt3__15tupleIJlldEEES7_Z4mainE3$_0E8iteratorESA_EEPPS7_NS3_INS4_ImmZNS0_22collect_reduce_sparse_IS2_SB_NS_19group_by_key_helperIS7_14TupleFirstHash15TupleFirstEqualEEEEDaT0_RKT1_EUlmE_E8iteratorESQ_EEEEvSK_T2_SL_m', symObjAddr: 0x3C7CC, symBinAddr: 0x10003FC68, symSize: 0x188 }
  - { offset: 0x4313, size: 0x8, addend: 0x0, symName: __ZN6parlay8internal25seq_collect_reduce_sparseINS_26uninitialized_relocate_tagENS_5sliceIPNSt3__15tupleIJlldEEES7_EENS_19group_by_key_helperIS6_14TupleFirstHash15TupleFirstEqualEEEEDaT0_RKT1_, symObjAddr: 0x434C8, symBinAddr: 0x100046964, symSize: 0x49C }
  - { offset: 0x44B2, size: 0x8, addend: 0x0, symName: __ZN6parlay8internal8tabulateIZNS0_3mapIRNS_5sliceIPNSt3__15tupleIJlldEEES7_EEZNS_19group_by_key_helperIS6_14TupleFirstHash15TupleFirstEqualE6reduceIS8_EENS4_4pairIlNS_8sequenceIlNS_9allocatorIlEELb0EEEEERT_EUlRKS6_E_EEDaOSL_OT0_mEUlmE_EESQ_mSR_m, symObjAddr: 0x43A28, symBinAddr: 0x100046EC4, symSize: 0x3C }
  - { offset: 0x4508, size: 0x8, addend: 0x0, symName: __ZN6parlay8internal9size_impl4sizeIRNS_5sliceIPNSt3__15tupleIJlldEEES7_EEEEDaOT_, symObjAddr: 0x43A64, symBinAddr: 0x100046F00, symSize: 0x24 }
  - { offset: 0x453F, size: 0x8, addend: 0x0, symName: __ZN6parlay8internal9size_impl4sizeIRNS_8sequenceINS3_INSt3__14pairIlNS3_IlNS_9allocatorIlEELb0EEEEENS6_IS9_EELb0EEENS6_ISB_EELb0EEEEEDaOT_, symObjAddr: 0x46ED4, symBinAddr: 0x10004A370, symSize: 0x24 }
  - { offset: 0x4576, size: 0x8, addend: 0x0, symName: __ZN6parlay8internal9size_impl4sizeIRNS_8sequenceINSt3__14pairIlNS3_IlNS_9allocatorIlEELb0EEEEENS6_IS9_EELb0EEEEEDaOT_, symObjAddr: 0x474A0, symBinAddr: 0x10004A93C, symSize: 0x24 }
  - { offset: 0x45AD, size: 0x8, addend: 0x0, symName: __ZN6parlay8internal9size_impl4sizeIRNS_8sequenceIlNS_9allocatorIlEELb0EEEEEDaOT_, symObjAddr: 0x57018, symBinAddr: 0x10005A4B4, symSize: 0x24 }
  - { offset: 0x45E5, size: 0x8, addend: 0x0, symName: __ZN6parlay8internal8tabulateIZNS_7flattenINSt3__14pairIlNS_8sequenceIlNS_9allocatorIlEELb0EEEEEEEDaONS5_INS5_IT_NS6_ISB_EEXsr3std7is_sameISB_cEE5valueEEENS6_ISD_EEXsr3std7is_sameISD_cEE5valueEEEEUlmE_EESA_mOSB_m, symObjAddr: 0x46E98, symBinAddr: 0x10004A334, symSize: 0x3C }
  - { offset: 0x4636, size: 0x8, addend: 0x0, symName: __ZN6parlay8internal8tabulateIZN7TreeGenIldE20generateInitialEdgesEvEUllE_EEDamOT_m, symObjAddr: 0x4B5D4, symBinAddr: 0x10004EA70, symSize: 0x3C }
  - { offset: 0x4687, size: 0x8, addend: 0x0, symName: __ZN6parlay8internal8tabulateIZN7TreeGenIldE20generateInitialEdgesEvEUllE0_EEDamOT_m, symObjAddr: 0x4B6F0, symBinAddr: 0x10004EB8C, symSize: 0x3C }
  - { offset: 0x46D8, size: 0x8, addend: 0x0, symName: __ZN6parlay8internal8tabulateIZN7TreeGenIldE20generateInitialEdgesEvEUllE1_EEDamOT_m, symObjAddr: 0x4B760, symBinAddr: 0x10004EBFC, symSize: 0x3C }
  - { offset: 0x4729, size: 0x8, addend: 0x0, symName: __ZN6parlay8internal8tabulateIZN7TreeGenIldE20generateInitialEdgesEvEUllE2_EEDamOT_m, symObjAddr: 0x4B7D0, symBinAddr: 0x10004EC6C, symSize: 0x3C }
  - { offset: 0x477A, size: 0x8, addend: 0x0, symName: __ZN6parlay8internal8tabulateIZN7TreeGenIldE20generateInitialEdgesEvEUllE3_EEDamOT_m, symObjAddr: 0x4B8C0, symBinAddr: 0x10004ED5C, symSize: 0x3C }
  - { offset: 0x47CB, size: 0x8, addend: 0x0, symName: __ZN6parlay8internal8tabulateIZN7TreeGenIldE20generateInitialEdgesEvEUllE5_EEDamOT_m, symObjAddr: 0x4B970, symBinAddr: 0x10004EE0C, symSize: 0x3C }
  - { offset: 0x481C, size: 0x8, addend: 0x0, symName: __ZN6parlay8internal8tabulateIZN7TreeGenIldE20generateInitialEdgesEvEUllE6_EEDamOT_m, symObjAddr: 0x4B9AC, symBinAddr: 0x10004EE48, symSize: 0x3C }
  - { offset: 0x486D, size: 0x8, addend: 0x0, symName: __ZN6parlay8internal13reduce_serialINS_5sliceIPlS3_EERNS_4plusIlEEEEDaRKT_OT0_, symObjAddr: 0x4D008, symBinAddr: 0x1000504A4, symSize: 0xD8 }
  - { offset: 0x48EE, size: 0x8, addend: 0x0, symName: __ZN6parlay8internal13reduce_serialINS_8sequenceIlNS_9allocatorIlEELb0EEERNS_4plusIlEEEEDaRKT_OT0_, symObjAddr: 0x4E238, symBinAddr: 0x1000516D4, symSize: 0xD8 }
  - { offset: 0x496F, size: 0x8, addend: 0x0, symName: __ZN6parlay8internal13reduce_serialINS_5sliceIPKlS4_EERNS_4plusIlEEEEDaRKT_OT0_, symObjAddr: 0x4E74C, symBinAddr: 0x100051BE8, symSize: 0xD8 }
  - { offset: 0x49F0, size: 0x8, addend: 0x0, symName: __ZN6parlay8internal4scanINS_5sliceIPlS3_EENS_4plusIlEEEEDaRKT_OT0_j, symObjAddr: 0x53E70, symBinAddr: 0x10005730C, symSize: 0xD8 }
  - { offset: 0x4A5D, size: 0x8, addend: 0x0, symName: __ZN6parlay8internal11scan_serialINS_5sliceIPlS3_EES4_RNS_4plusIlEEEEDaRKT_T0_OT1_NS_13type_identityIDtsr3std18remove_reference_tISD_EE8identityEE4typeEjb, symObjAddr: 0x541E0, symBinAddr: 0x10005767C, symSize: 0x1EC }
  - { offset: 0x4BB7, size: 0x8, addend: 0x0, symName: __ZN6parlay8internal11scan_serialINS_8sequenceIlNS_9allocatorIlEELb0EEENS_5sliceIPlS7_EERNS_4plusIlEEEEDaRKT_T0_OT1_NS_13type_identityIDtsr3std18remove_reference_tISH_EE8identityEE4typeEjb, symObjAddr: 0x54458, symBinAddr: 0x1000578F4, symSize: 0x1EC }
  - { offset: 0x4D11, size: 0x8, addend: 0x0, symName: __ZN6parlay8internal8tabulateIZN7TreeGenIldE21generateInterconnectsEvEUllE_EEDamOT_m, symObjAddr: 0x617CC, symBinAddr: 0x100064C68, symSize: 0x3C }
  - { offset: 0x4D62, size: 0x8, addend: 0x0, symName: __ZN6parlay8internal14pack_serial_atINS_5sliceINS_16delayed_sequenceINSt3__15tupleIJNS4_4pairIllEES7_NS5_IJlldEEEbEEES9_ZNS0_10filter_mapINS2_IPS9_SB_EEZN7TreeGenIldE21generateInterconnectsEvEUlS9_E_RZNS0_6filterISC_SF_EENS_8sequenceINT_10value_typeENS_9allocatorISJ_EEXsr3std7is_sameISJ_cEE5valueEEERKSI_OT0_EUlOSI_E_EEDaSO_SQ_OT1_EUlmE_E8iteratorESZ_EENS2_IPbS11_EESC_EEmSI_SP_SV_, symObjAddr: 0x65AEC, symBinAddr: 0x100068F88, symSize: 0xE4 }
  - { offset: 0x4E1D, size: 0x8, addend: 0x0, symName: __ZN6parlay8internal8tabulateIZN7TreeGenIldE11getAllEdgesEvEUllE_EEDamOT_m, symObjAddr: 0x66FD4, symBinAddr: 0x10006A470, symSize: 0x3C }
  - { offset: 0x4E6E, size: 0x8, addend: 0x0, symName: __ZN6parlay8internal14pack_serial_atINS_5sliceINS_16delayed_sequenceINSt3__15tupleIJlldEEES6_ZNS0_10filter_mapINS2_IPS6_S8_EEZN7TreeGenIldE11getAllEdgesEvEUlS6_E_RZNS0_6filterIS9_SC_EENS_8sequenceINT_10value_typeENS_9allocatorISG_EEXsr3std7is_sameISG_cEE5valueEEERKSF_OT0_EUlOSF_E_EEDaSL_SN_OT1_EUlmE_E8iteratorESW_EENS2_IPbSY_EES9_EEmSF_SM_SS_, symObjAddr: 0x69A64, symBinAddr: 0x10006CF00, symSize: 0xEC }
  - { offset: 0x1225D, size: 0x8, addend: 0x0, symName: __ZN6parlay24uninitialized_relocate_nIPlmS1_EENSt3__14pairIT_T1_EES4_T0_S5_, symObjAddr: 0x2C414, symBinAddr: 0x10002F8B0, symSize: 0xC4 }
  - { offset: 0x17051, size: 0x8, addend: 0x0, symName: __ZN6parlay7flattenINSt3__14pairIlNS_8sequenceIlNS_9allocatorIlEELb0EEEEEEEDaONS3_INS3_IT_NS4_IS9_EEXsr3std7is_sameIS9_cEE5valueEEENS4_ISB_EEXsr3std7is_sameISB_cEE5valueEEE, symObjAddr: 0x271C, symBinAddr: 0x100005BB8, symSize: 0x17C }
  - { offset: 0x1718C, size: 0x8, addend: 0x0, symName: __ZN6parlay24uninitialized_relocate_nIPNSt3__14pairIlNS_8sequenceIlNS_9allocatorIlEELb0EEEEElS8_EENS2_IT_T1_EES9_T0_SA_, symObjAddr: 0x480E4, symBinAddr: 0x10004B580, symSize: 0xD8 }
  - { offset: 0x196C6, size: 0x8, addend: 0x0, symName: __ZN6parlay7find_ifIRNS_8sequenceIlNS_9allocatorIlEELb0EEEZN7TreeGenIldE20generateInitialEdgesEvEUllE4_EEDaOT_OT0_, symObjAddr: 0x4B8FC, symBinAddr: 0x10004ED98, symSize: 0x74 }
  - { offset: 0x1B516, size: 0x8, addend: 0x0, symName: '__ZN6parlay12group_by_keyIRNS_16delayed_sequenceINSt3__15tupleIJlldEEES4_Z4mainE3$_0EE14TupleFirstHash15TupleFirstEqualEEDaOT_OT0_OT1_', symObjAddr: 0x104C, symBinAddr: 0x1000044E8, symSize: 0x50 }
  - { offset: 0x1B587, size: 0x8, addend: 0x0, symName: '__ZN6parlay12parallel_forIZ4mainE3$_1EEvmmOT_lb', symObjAddr: 0x1104, symBinAddr: 0x1000045A0, symSize: 0x10C }
  - { offset: 0x1B60C, size: 0x8, addend: 0x0, symName: '__ZN6parlay12parallel_forIZ4mainE3$_2EEvmmOT_lb', symObjAddr: 0x12C8, symBinAddr: 0x100004764, symSize: 0x10C }
  - { offset: 0x1B691, size: 0x8, addend: 0x0, symName: '__ZN6parlay10make_sliceIRKNS_16delayed_sequenceINSt3__15tupleIJlldEEES4_Z4mainE3$_0EEEEDaOT_', symObjAddr: 0x1B58, symBinAddr: 0x100004FF4, symSize: 0x58 }
  - { offset: 0x1B71B, size: 0x8, addend: 0x0, symName: __ZN6parlay7log2_upImEEmT_, symObjAddr: 0x2134, symBinAddr: 0x1000055D0, symSize: 0x9C }
  - { offset: 0x1B770, size: 0x8, addend: 0x0, symName: '__ZN6parlay10make_sliceIRNS_5sliceINS_16delayed_sequenceINSt3__15tupleIJlldEEES5_Z4mainE3$_0E8iteratorES8_EEEEDaOT_', symObjAddr: 0x24F0, symBinAddr: 0x10000598C, symSize: 0x58 }
  - { offset: 0x1B7A5, size: 0x8, addend: 0x0, symName: __ZN6parlay10make_sliceIRNS_8internal22uninitialized_sequenceINSt3__15tupleIJlldEEENS_9allocatorIS5_EEEEEEDaOT_, symObjAddr: 0x2548, symBinAddr: 0x1000059E4, symSize: 0x4C }
  - { offset: 0x1B7DA, size: 0x8, addend: 0x0, symName: '__ZN6parlay10make_sliceIRNS_16delayed_sequenceImmZNS_8internal22collect_reduce_sparse_INS_22uninitialized_copy_tagENS_5sliceINS1_INSt3__15tupleIJlldEEES8_Z4mainE3$_0E8iteratorESB_EENS_19group_by_key_helperIS8_14TupleFirstHash15TupleFirstEqualEEEEDaT0_RKT1_EUlmE_EEEESH_OT_', symObjAddr: 0x2594, symBinAddr: 0x100005A30, symSize: 0x58 }
  - { offset: 0x1B8B9, size: 0x8, addend: 0x0, symName: __ZN6parlay15assign_dispatchIlEEvRT_RKNS_13type_identityIS1_E4typeENS_22uninitialized_copy_tagE, symObjAddr: 0x2FC4, symBinAddr: 0x100006460, symSize: 0x34 }
  - { offset: 0x1B92C, size: 0x8, addend: 0x0, symName: __ZN6parlay17make_unique_arrayINS_8internal15block_allocatorEZNS1_14pool_allocatorC1ERKNSt3__16vectorImNS4_9allocatorImEEEEEUlmE_EEDamT0_, symObjAddr: 0x5660, symBinAddr: 0x100008AFC, symSize: 0xFC }
  - { offset: 0x1B9B6, size: 0x8, addend: 0x0, symName: __ZN6parlay14num_thread_idsEv, symObjAddr: 0xB6AC, symBinAddr: 0x10000EB48, symSize: 0x14 }
  - { offset: 0x1B9F8, size: 0x8, addend: 0x0, symName: __ZN6parlay11num_workersEv, symObjAddr: 0x22E04, symBinAddr: 0x1000262A0, symSize: 0x20 }
  - { offset: 0x1BA15, size: 0x8, addend: 0x0, symName: __ZN6parlay11atomic_waitImEEvPKNSt3__16atomicIT_EENS_13type_identityIS3_E4typeE, symObjAddr: 0x2669C, symBinAddr: 0x100029B38, symSize: 0x30 }
  - { offset: 0x1BA57, size: 0x8, addend: 0x0, symName: __ZN6parlay17atomic_notify_oneImEEvPNSt3__16atomicIT_EE, symObjAddr: 0x27DA8, symBinAddr: 0x10002B244, symSize: 0x24 }
  - { offset: 0x1BA8A, size: 0x8, addend: 0x0, symName: __ZN6parlay17atomic_notify_allImEEvPNSt3__16atomicIT_EE, symObjAddr: 0x29ED8, symBinAddr: 0x10002D374, symSize: 0x24 }
  - { offset: 0x1BABD, size: 0x8, addend: 0x0, symName: __ZN6parlay12parallel_forIZNS_8sequenceIbNS_9allocatorIbEELb0EE15initialize_fillEmRKbEUlmE_EEvmmOT_lb, symObjAddr: 0x2A6BC, symBinAddr: 0x10002DB58, symSize: 0x10C }
  - { offset: 0x1BB42, size: 0x8, addend: 0x0, symName: __ZN6parlay8make_jobIZNS_19fork_join_scheduler7parfor_IZNS_8sequenceIbNS_9allocatorIbEELb0EE15initialize_fillEmRKbEUlmE_EEvRNS_9schedulerINS_15WorkStealingJobEEEmmRT_mbEUlvE0_EENS_7JobImplISE_EESF_, symObjAddr: 0x2B28C, symBinAddr: 0x10002E728, symSize: 0x38 }
  - { offset: 0x1BB77, size: 0x8, addend: 0x0, symName: __ZN6parlay12parallel_forIZNS_24uninitialized_relocate_nIPlmS2_EENSt3__14pairIT_T1_EES5_T0_S6_EUlmE_EEvmmOS5_lb, symObjAddr: 0x2C824, symBinAddr: 0x10002FCC0, symSize: 0x10C }
  - { offset: 0x1BC21, size: 0x8, addend: 0x0, symName: __ZN6parlay8make_jobIZNS_19fork_join_scheduler7parfor_IZNS_24uninitialized_relocate_nIPlmS4_EENSt3__14pairIT_T1_EES7_T0_S8_EUlmE_EEvRNS_9schedulerINS_15WorkStealingJobEEEmmRS7_mbEUlvE0_EENS_7JobImplIS7_EESG_, symObjAddr: 0x2CF30, symBinAddr: 0x1000303CC, symSize: 0x38 }
  - { offset: 0x1BC56, size: 0x8, addend: 0x0, symName: __ZN6parlay12parallel_forIZNS_8sequenceIlNS_9allocatorIlEELb0EE15initialize_fillEmRKlEUlmE_EEvmmOT_lb, symObjAddr: 0x2DB88, symBinAddr: 0x100031024, symSize: 0x10C }
  - { offset: 0x1BCDB, size: 0x8, addend: 0x0, symName: __ZN6parlay8make_jobIZNS_19fork_join_scheduler7parfor_IZNS_8sequenceIlNS_9allocatorIlEELb0EE15initialize_fillEmRKlEUlmE_EEvRNS_9schedulerINS_15WorkStealingJobEEEmmRT_mbEUlvE0_EENS_7JobImplISE_EESF_, symObjAddr: 0x2E22C, symBinAddr: 0x1000316C8, symSize: 0x38 }
  - { offset: 0x1BD10, size: 0x8, addend: 0x0, symName: __ZN6parlay12parallel_forIZNS_17sequence_internal13sequence_baseINSt3__14pairIlNS_8sequenceIlNS_9allocatorIlEELb0EEEEENS6_IS9_EELb0EE12storage_impl11destroy_allEvEUlmE_EEvmmOT_lb, symObjAddr: 0x2ED14, symBinAddr: 0x1000321B0, symSize: 0x10C }
  - { offset: 0x1BD95, size: 0x8, addend: 0x0, symName: __ZN6parlay8make_jobIZNS_19fork_join_scheduler7parfor_IZNS_17sequence_internal13sequence_baseINSt3__14pairIlNS_8sequenceIlNS_9allocatorIlEELb0EEEEENS8_ISB_EELb0EE12storage_impl11destroy_allEvEUlmE_EEvRNS_9schedulerINS_15WorkStealingJobEEEmmRT_mbEUlvE0_EENS_7JobImplISK_EESL_, symObjAddr: 0x2F4E4, symBinAddr: 0x100032980, symSize: 0x38 }
  - { offset: 0x1BDCA, size: 0x8, addend: 0x0, symName: __ZN6parlay6hash64Ey, symObjAddr: 0x30630, symBinAddr: 0x100033ACC, symSize: 0xC0 }
  - { offset: 0x1BE04, size: 0x8, addend: 0x0, symName: __ZN6parlay12parallel_forIZNS_8sequenceINSt3__14pairIliEENS_9allocatorIS4_EELb0EE15initialize_fillEmRKS4_EUlmE_EEvmmOT_lb, symObjAddr: 0x30EAC, symBinAddr: 0x100034348, symSize: 0x10C }
  - { offset: 0x1BE89, size: 0x8, addend: 0x0, symName: __ZN6parlay8make_jobIZNS_19fork_join_scheduler7parfor_IZNS_8sequenceINSt3__14pairIliEENS_9allocatorIS6_EELb0EE15initialize_fillEmRKS6_EUlmE_EEvRNS_9schedulerINS_15WorkStealingJobEEEmmRT_mbEUlvE0_EENS_7JobImplISH_EESI_, symObjAddr: 0x31958, symBinAddr: 0x100034DF4, symSize: 0x38 }
  - { offset: 0x1BEBE, size: 0x8, addend: 0x0, symName: '__ZN6parlay12parallel_forIZNS_8internal11count_sort_INS_22uninitialized_copy_tagEjNS_16delayed_sequenceINSt3__15tupleIJlldEEES7_Z4mainE3$_0E8iteratorEPS7_NS4_ImmZNS1_22collect_reduce_sparse_IS3_NS_5sliceISA_SA_EENS_19group_by_key_helperIS7_14TupleFirstHash15TupleFirstEqualEEEEDaT0_RKT1_EUlmE_E8iteratorEEENS5_4pairINS_8sequenceImNS_9allocatorImEELb0EEEbEENSD_ISL_SL_EENSD_IT2_SY_EENSD_IT3_S10_EEmfbEUlmE_EEvmmOT_lb', symObjAddr: 0x3317C, symBinAddr: 0x100036618, symSize: 0x10C }
  - { offset: 0x1BF43, size: 0x8, addend: 0x0, symName: '__ZN6parlay12parallel_forIZNS_8internal11count_sort_INS_22uninitialized_copy_tagEjNS_16delayed_sequenceINSt3__15tupleIJlldEEES7_Z4mainE3$_0E8iteratorEPS7_NS4_ImmZNS1_22collect_reduce_sparse_IS3_NS_5sliceISA_SA_EENS_19group_by_key_helperIS7_14TupleFirstHash15TupleFirstEqualEEEEDaT0_RKT1_EUlmE_E8iteratorEEENS5_4pairINS_8sequenceImNS_9allocatorImEELb0EEEbEENSD_ISL_SL_EENSD_IT2_SY_EENSD_IT3_S10_EEmfbEUlmE0_EEvmmOT_lb', symObjAddr: 0x332C0, symBinAddr: 0x10003675C, symSize: 0x10C }
  - { offset: 0x1BFC8, size: 0x8, addend: 0x0, symName: __ZN6parlay10make_sliceIRNS_8sequenceImNS_9allocatorImEELb0EEEEEDaOT_, symObjAddr: 0x3344C, symBinAddr: 0x1000368E8, symSize: 0x4C }
  - { offset: 0x1BFFD, size: 0x8, addend: 0x0, symName: '__ZN6parlay12parallel_forIZNS_8internal11count_sort_INS_22uninitialized_copy_tagEjNS_16delayed_sequenceINSt3__15tupleIJlldEEES7_Z4mainE3$_0E8iteratorEPS7_NS4_ImmZNS1_22collect_reduce_sparse_IS3_NS_5sliceISA_SA_EENS_19group_by_key_helperIS7_14TupleFirstHash15TupleFirstEqualEEEEDaT0_RKT1_EUlmE_E8iteratorEEENS5_4pairINS_8sequenceImNS_9allocatorImEELb0EEEbEENSD_ISL_SL_EENSD_IT2_SY_EENSD_IT3_S10_EEmfbEUlmE1_EEvmmOT_lb', symObjAddr: 0x334FC, symBinAddr: 0x100036998, symSize: 0x10C }
  - { offset: 0x1C082, size: 0x8, addend: 0x0, symName: '__ZN6parlay12parallel_forIZNS_8internal11count_sort_INS_22uninitialized_copy_tagEjNS_16delayed_sequenceINSt3__15tupleIJlldEEES7_Z4mainE3$_0E8iteratorEPS7_NS4_ImmZNS1_22collect_reduce_sparse_IS3_NS_5sliceISA_SA_EENS_19group_by_key_helperIS7_14TupleFirstHash15TupleFirstEqualEEEEDaT0_RKT1_EUlmE_E8iteratorEEENS5_4pairINS_8sequenceImNS_9allocatorImEELb0EEEbEENSD_ISL_SL_EENSD_IT2_SY_EENSD_IT3_S10_EEmfbEUlmE2_EEvmmOT_lb', symObjAddr: 0x33608, symBinAddr: 0x100036AA4, symSize: 0x10C }
  - { offset: 0x1C107, size: 0x8, addend: 0x0, symName: __ZN6parlay12parallel_forIZNS_8sequenceImNS_9allocatorImEELb0EE18initialize_defaultEmEUlmE_EEvmmOT_lb, symObjAddr: 0x341BC, symBinAddr: 0x100037658, symSize: 0x10C }
  - { offset: 0x1C18C, size: 0x8, addend: 0x0, symName: __ZN6parlay8make_jobIZNS_19fork_join_scheduler7parfor_IZNS_8sequenceImNS_9allocatorImEELb0EE18initialize_defaultEmEUlmE_EEvRNS_9schedulerINS_15WorkStealingJobEEEmmRT_mbEUlvE0_EENS_7JobImplISC_EESD_, symObjAddr: 0x34C54, symBinAddr: 0x1000380F0, symSize: 0x38 }
  - { offset: 0x1C216, size: 0x8, addend: 0x0, symName: __ZN6parlay15assign_dispatchINSt3__15tupleIJlldEEEEEvRT_RKNS_13type_identityIS4_E4typeENS_22uninitialized_copy_tagE, symObjAddr: 0x35514, symBinAddr: 0x1000389B0, symSize: 0x3C }
  - { offset: 0x1C289, size: 0x8, addend: 0x0, symName: '__ZN6parlay10make_sliceIRNS_5sliceINS_16delayed_sequenceImmZNS_8internal22collect_reduce_sparse_INS_22uninitialized_copy_tagENS1_INS2_INSt3__15tupleIJlldEEES8_Z4mainE3$_0E8iteratorESB_EENS_19group_by_key_helperIS8_14TupleFirstHash15TupleFirstEqualEEEEDaT0_RKT1_EUlmE_E8iteratorESO_EEEESH_OT_', symObjAddr: 0x361F4, symBinAddr: 0x100039690, symSize: 0x58 }
  - { offset: 0x1C2BE, size: 0x8, addend: 0x0, symName: __ZN6parlay12parallel_forIZNS_8sequenceIjNS_9allocatorIjEELb0EE18initialize_defaultEmEUlmE_EEvmmOT_lb, symObjAddr: 0x36454, symBinAddr: 0x1000398F0, symSize: 0x10C }
  - { offset: 0x1C343, size: 0x8, addend: 0x0, symName: __ZN6parlay8make_jobIZNS_19fork_join_scheduler7parfor_IZNS_8sequenceIjNS_9allocatorIjEELb0EE18initialize_defaultEmEUlmE_EEvRNS_9schedulerINS_15WorkStealingJobEEEmmRT_mbEUlvE0_EENS_7JobImplISC_EESD_, symObjAddr: 0x36B9C, symBinAddr: 0x10003A038, symSize: 0x38 }
  - { offset: 0x1C378, size: 0x8, addend: 0x0, symName: '__ZN6parlay10make_sliceINS_16delayed_sequenceINSt3__15tupleIJlldEEES4_Z4mainE3$_0E8iteratorES7_EEDaT_T0_', symObjAddr: 0x37104, symBinAddr: 0x10003A5A0, symSize: 0x58 }
  - { offset: 0x1C3C4, size: 0x8, addend: 0x0, symName: '__ZN6parlay10make_sliceINS_16delayed_sequenceImmZNS_8internal22collect_reduce_sparse_INS_22uninitialized_copy_tagENS_5sliceINS1_INSt3__15tupleIJlldEEES8_Z4mainE3$_0E8iteratorESB_EENS_19group_by_key_helperIS8_14TupleFirstHash15TupleFirstEqualEEEEDaT0_RKT1_EUlmE_E8iteratorESO_EESH_T_SI_', symObjAddr: 0x372D8, symBinAddr: 0x10003A774, symSize: 0x58 }
  - { offset: 0x1C410, size: 0x8, addend: 0x0, symName: '__ZN6parlay8make_jobIZNS_19fork_join_scheduler7parfor_IZNS_8internal11count_sort_INS_22uninitialized_copy_tagEjNS_16delayed_sequenceINSt3__15tupleIJlldEEES9_Z4mainE3$_0E8iteratorEPS9_NS6_ImmZNS3_22collect_reduce_sparse_IS5_NS_5sliceISC_SC_EENS_19group_by_key_helperIS9_14TupleFirstHash15TupleFirstEqualEEEEDaT0_RKT1_EUlmE_E8iteratorEEENS7_4pairINS_8sequenceImNS_9allocatorImEELb0EEEbEENSF_ISN_SN_EENSF_IT2_S10_EENSF_IT3_S12_EEmfbEUlmE_EEvRNS_9schedulerINS_15WorkStealingJobEEEmmRT_mbEUlvE0_EENS_7JobImplIS19_EES1A_', symObjAddr: 0x37978, symBinAddr: 0x10003AE14, symSize: 0x38 }
  - { offset: 0x1C445, size: 0x8, addend: 0x0, symName: '__ZN6parlay8make_jobIZNS_19fork_join_scheduler7parfor_IZNS_8internal11count_sort_INS_22uninitialized_copy_tagEjNS_16delayed_sequenceINSt3__15tupleIJlldEEES9_Z4mainE3$_0E8iteratorEPS9_NS6_ImmZNS3_22collect_reduce_sparse_IS5_NS_5sliceISC_SC_EENS_19group_by_key_helperIS9_14TupleFirstHash15TupleFirstEqualEEEEDaT0_RKT1_EUlmE_E8iteratorEEENS7_4pairINS_8sequenceImNS_9allocatorImEELb0EEEbEENSF_ISN_SN_EENSF_IT2_S10_EENSF_IT3_S12_EEmfbEUlmE0_EEvRNS_9schedulerINS_15WorkStealingJobEEEmmRT_mbEUlvE0_EENS_7JobImplIS19_EES1A_', symObjAddr: 0x38528, symBinAddr: 0x10003B9C4, symSize: 0x38 }
  - { offset: 0x1C4CF, size: 0x8, addend: 0x0, symName: __ZN6parlay12parallel_forIRZNS_8internal10sliced_forIZNS1_5scan_INS_5sliceIPmS5_EES6_NS_4plusImEEEEDaRKT_T0_OT1_jbEUlmmmE_EEvmmSC_jEUlmE_EEvmmOSA_lb, symObjAddr: 0x39220, symBinAddr: 0x10003C6BC, symSize: 0x10C }
  - { offset: 0x1C580, size: 0x8, addend: 0x0, symName: __ZN6parlay10make_sliceIRKNS_5sliceIPmS2_EEEEDaOT_, symObjAddr: 0x39620, symBinAddr: 0x10003CABC, symSize: 0x4C }
  - { offset: 0x1C5B5, size: 0x8, addend: 0x0, symName: __ZN6parlay10make_sliceIPmS1_EEDaT_T0_, symObjAddr: 0x396C0, symBinAddr: 0x10003CB5C, symSize: 0x38 }
  - { offset: 0x1C601, size: 0x8, addend: 0x0, symName: __ZN6parlay8make_jobIZNS_19fork_join_scheduler7parfor_IZNS_8internal10sliced_forIZNS3_5scan_INS_5sliceIPmS7_EES8_NS_4plusImEEEEDaRKT_T0_OT1_jbEUlmmmE_EEvmmSE_jEUlmE_EEvRNS_9schedulerINS_15WorkStealingJobEEEmmRSC_mbEUlvE0_EENS_7JobImplISC_EESO_, symObjAddr: 0x39BF4, symBinAddr: 0x10003D090, symSize: 0x38 }
  - { offset: 0x1C636, size: 0x8, addend: 0x0, symName: __ZN6parlay12parallel_forIRZNS_8internal10sliced_forIZNS1_5scan_INS_5sliceIPmS5_EES6_NS_4plusImEEEEDaRKT_T0_OT1_jbEUlmmmE0_EEvmmSC_jEUlmE_EEvmmOSA_lb, symObjAddr: 0x3A2C8, symBinAddr: 0x10003D764, symSize: 0x10C }
  - { offset: 0x1C6BB, size: 0x8, addend: 0x0, symName: __ZN6parlay10make_sliceIRNS_5sliceIPmS2_EEEEDaOT_, symObjAddr: 0x3A62C, symBinAddr: 0x10003DAC8, symSize: 0x4C }
  - { offset: 0x1C6F0, size: 0x8, addend: 0x0, symName: __ZN6parlay8make_jobIZNS_19fork_join_scheduler7parfor_IZNS_8internal10sliced_forIZNS3_5scan_INS_5sliceIPmS7_EES8_NS_4plusImEEEEDaRKT_T0_OT1_jbEUlmmmE0_EEvmmSE_jEUlmE_EEvRNS_9schedulerINS_15WorkStealingJobEEEmmRSC_mbEUlvE0_EENS_7JobImplISC_EESO_, symObjAddr: 0x3AADC, symBinAddr: 0x10003DF78, symSize: 0x38 }
  - { offset: 0x1C725, size: 0x8, addend: 0x0, symName: '__ZN6parlay8make_jobIZNS_19fork_join_scheduler7parfor_IZNS_8internal11count_sort_INS_22uninitialized_copy_tagEjNS_16delayed_sequenceINSt3__15tupleIJlldEEES9_Z4mainE3$_0E8iteratorEPS9_NS6_ImmZNS3_22collect_reduce_sparse_IS5_NS_5sliceISC_SC_EENS_19group_by_key_helperIS9_14TupleFirstHash15TupleFirstEqualEEEEDaT0_RKT1_EUlmE_E8iteratorEEENS7_4pairINS_8sequenceImNS_9allocatorImEELb0EEEbEENSF_ISN_SN_EENSF_IT2_S10_EENSF_IT3_S12_EEmfbEUlmE1_EEvRNS_9schedulerINS_15WorkStealingJobEEEmmRT_mbEUlvE0_EENS_7JobImplIS19_EES1A_', symObjAddr: 0x3C0B0, symBinAddr: 0x10003F54C, symSize: 0x38 }
  - { offset: 0x1C75A, size: 0x8, addend: 0x0, symName: '__ZN6parlay8make_jobIZNS_19fork_join_scheduler7parfor_IZNS_8internal11count_sort_INS_22uninitialized_copy_tagEjNS_16delayed_sequenceINSt3__15tupleIJlldEEES9_Z4mainE3$_0E8iteratorEPS9_NS6_ImmZNS3_22collect_reduce_sparse_IS5_NS_5sliceISC_SC_EENS_19group_by_key_helperIS9_14TupleFirstHash15TupleFirstEqualEEEEDaT0_RKT1_EUlmE_E8iteratorEEENS7_4pairINS_8sequenceImNS_9allocatorImEELb0EEEbEENSF_ISN_SN_EENSF_IT2_S10_EENSF_IT3_S12_EEmfbEUlmE2_EEvRNS_9schedulerINS_15WorkStealingJobEEEmmRT_mbEUlvE0_EENS_7JobImplIS19_EES1A_', symObjAddr: 0x3CD94, symBinAddr: 0x100040230, symSize: 0x38 }
  - { offset: 0x1C78F, size: 0x8, addend: 0x0, symName: '__ZN6parlay12parallel_forIZNS_8internal11count_sort_INS_22uninitialized_copy_tagEmNS_16delayed_sequenceINSt3__15tupleIJlldEEES7_Z4mainE3$_0E8iteratorEPS7_NS4_ImmZNS1_22collect_reduce_sparse_IS3_NS_5sliceISA_SA_EENS_19group_by_key_helperIS7_14TupleFirstHash15TupleFirstEqualEEEEDaT0_RKT1_EUlmE_E8iteratorEEENS5_4pairINS_8sequenceImNS_9allocatorImEELb0EEEbEENSD_ISL_SL_EENSD_IT2_SY_EENSD_IT3_S10_EEmfbEUlmE_EEvmmOT_lb', symObjAddr: 0x3D324, symBinAddr: 0x1000407C0, symSize: 0x10C }
  - { offset: 0x1C814, size: 0x8, addend: 0x0, symName: '__ZN6parlay12parallel_forIZNS_8internal11count_sort_INS_22uninitialized_copy_tagEmNS_16delayed_sequenceINSt3__15tupleIJlldEEES7_Z4mainE3$_0E8iteratorEPS7_NS4_ImmZNS1_22collect_reduce_sparse_IS3_NS_5sliceISA_SA_EENS_19group_by_key_helperIS7_14TupleFirstHash15TupleFirstEqualEEEEDaT0_RKT1_EUlmE_E8iteratorEEENS5_4pairINS_8sequenceImNS_9allocatorImEELb0EEEbEENSD_ISL_SL_EENSD_IT2_SY_EENSD_IT3_S10_EEmfbEUlmE0_EEvmmOT_lb', symObjAddr: 0x3D430, symBinAddr: 0x1000408CC, symSize: 0x10C }
  - { offset: 0x1C899, size: 0x8, addend: 0x0, symName: '__ZN6parlay12parallel_forIZNS_8internal11count_sort_INS_22uninitialized_copy_tagEmNS_16delayed_sequenceINSt3__15tupleIJlldEEES7_Z4mainE3$_0E8iteratorEPS7_NS4_ImmZNS1_22collect_reduce_sparse_IS3_NS_5sliceISA_SA_EENS_19group_by_key_helperIS7_14TupleFirstHash15TupleFirstEqualEEEEDaT0_RKT1_EUlmE_E8iteratorEEENS5_4pairINS_8sequenceImNS_9allocatorImEELb0EEEbEENSD_ISL_SL_EENSD_IT2_SY_EENSD_IT3_S10_EEmfbEUlmE1_EEvmmOT_lb', symObjAddr: 0x3D53C, symBinAddr: 0x1000409D8, symSize: 0x10C }
  - { offset: 0x1C91E, size: 0x8, addend: 0x0, symName: '__ZN6parlay12parallel_forIZNS_8internal11count_sort_INS_22uninitialized_copy_tagEmNS_16delayed_sequenceINSt3__15tupleIJlldEEES7_Z4mainE3$_0E8iteratorEPS7_NS4_ImmZNS1_22collect_reduce_sparse_IS3_NS_5sliceISA_SA_EENS_19group_by_key_helperIS7_14TupleFirstHash15TupleFirstEqualEEEEDaT0_RKT1_EUlmE_E8iteratorEEENS5_4pairINS_8sequenceImNS_9allocatorImEELb0EEEbEENSD_ISL_SL_EENSD_IT2_SY_EENSD_IT3_S10_EEmfbEUlmE2_EEvmmOT_lb', symObjAddr: 0x3D648, symBinAddr: 0x100040AE4, symSize: 0x10C }
  - { offset: 0x1C9A3, size: 0x8, addend: 0x0, symName: '__ZN6parlay8make_jobIZNS_19fork_join_scheduler7parfor_IZNS_8internal11count_sort_INS_22uninitialized_copy_tagEmNS_16delayed_sequenceINSt3__15tupleIJlldEEES9_Z4mainE3$_0E8iteratorEPS9_NS6_ImmZNS3_22collect_reduce_sparse_IS5_NS_5sliceISC_SC_EENS_19group_by_key_helperIS9_14TupleFirstHash15TupleFirstEqualEEEEDaT0_RKT1_EUlmE_E8iteratorEEENS7_4pairINS_8sequenceImNS_9allocatorImEELb0EEEbEENSF_ISN_SN_EENSF_IT2_S10_EENSF_IT3_S12_EEmfbEUlmE_EEvRNS_9schedulerINS_15WorkStealingJobEEEmmRT_mbEUlvE0_EENS_7JobImplIS19_EES1A_', symObjAddr: 0x3DD64, symBinAddr: 0x100041200, symSize: 0x38 }
  - { offset: 0x1C9D8, size: 0x8, addend: 0x0, symName: '__ZN6parlay8make_jobIZNS_19fork_join_scheduler7parfor_IZNS_8internal11count_sort_INS_22uninitialized_copy_tagEmNS_16delayed_sequenceINSt3__15tupleIJlldEEES9_Z4mainE3$_0E8iteratorEPS9_NS6_ImmZNS3_22collect_reduce_sparse_IS5_NS_5sliceISC_SC_EENS_19group_by_key_helperIS9_14TupleFirstHash15TupleFirstEqualEEEEDaT0_RKT1_EUlmE_E8iteratorEEENS7_4pairINS_8sequenceImNS_9allocatorImEELb0EEEbEENSF_ISN_SN_EENSF_IT2_S10_EENSF_IT3_S12_EEmfbEUlmE0_EEvRNS_9schedulerINS_15WorkStealingJobEEEmmRT_mbEUlvE0_EENS_7JobImplIS19_EES1A_', symObjAddr: 0x3E868, symBinAddr: 0x100041D04, symSize: 0x38 }
  - { offset: 0x1CA0D, size: 0x8, addend: 0x0, symName: '__ZN6parlay8make_jobIZNS_19fork_join_scheduler7parfor_IZNS_8internal11count_sort_INS_22uninitialized_copy_tagEmNS_16delayed_sequenceINSt3__15tupleIJlldEEES9_Z4mainE3$_0E8iteratorEPS9_NS6_ImmZNS3_22collect_reduce_sparse_IS5_NS_5sliceISC_SC_EENS_19group_by_key_helperIS9_14TupleFirstHash15TupleFirstEqualEEEEDaT0_RKT1_EUlmE_E8iteratorEEENS7_4pairINS_8sequenceImNS_9allocatorImEELb0EEEbEENSF_ISN_SN_EENSF_IT2_S10_EENSF_IT3_S12_EEmfbEUlmE1_EEvRNS_9schedulerINS_15WorkStealingJobEEEmmRT_mbEUlvE0_EENS_7JobImplIS19_EES1A_', symObjAddr: 0x3F3C0, symBinAddr: 0x10004285C, symSize: 0x38 }
  - { offset: 0x1CA42, size: 0x8, addend: 0x0, symName: '__ZN6parlay8make_jobIZNS_19fork_join_scheduler7parfor_IZNS_8internal11count_sort_INS_22uninitialized_copy_tagEmNS_16delayed_sequenceINSt3__15tupleIJlldEEES9_Z4mainE3$_0E8iteratorEPS9_NS6_ImmZNS3_22collect_reduce_sparse_IS5_NS_5sliceISC_SC_EENS_19group_by_key_helperIS9_14TupleFirstHash15TupleFirstEqualEEEEDaT0_RKT1_EUlmE_E8iteratorEEENS7_4pairINS_8sequenceImNS_9allocatorImEELb0EEEbEENSF_ISN_SN_EENSF_IT2_S10_EENSF_IT3_S12_EEmfbEUlmE2_EEvRNS_9schedulerINS_15WorkStealingJobEEEmmRT_mbEUlvE0_EENS_7JobImplIS19_EES1A_', symObjAddr: 0x3FEF8, symBinAddr: 0x100043394, symSize: 0x38 }
  - { offset: 0x1CA77, size: 0x8, addend: 0x0, symName: __ZN6parlay10make_sliceIPNSt3__15tupleIJlldEEES4_EEDaT_T0_, symObjAddr: 0x404E0, symBinAddr: 0x10004397C, symSize: 0x38 }
  - { offset: 0x1CAC3, size: 0x8, addend: 0x0, symName: '__ZN6parlay12parallel_forIZNS_8sequenceINS1_INSt3__14pairIlNS1_IlNS_9allocatorIlEELb0EEEEENS4_IS7_EELb0EEENS4_IS9_EELb0EEC1IZNS_8internal22collect_reduce_sparse_INS_22uninitialized_copy_tagENS_5sliceINS_16delayed_sequenceINS2_5tupleIJlldEEESJ_Z4mainE3$_0E8iteratorESM_EENS_19group_by_key_helperISJ_14TupleFirstHash15TupleFirstEqualEEEEDaT0_RKT1_EUlmE0_EEmOT_NSB_18_from_function_tagEmEUlmE_EEvmmSZ_lb', symObjAddr: 0x41BA4, symBinAddr: 0x100045040, symSize: 0x10C }
  - { offset: 0x1CB48, size: 0x8, addend: 0x0, symName: __ZN6parlay12parallel_forIZNS_17sequence_internal13sequence_baseINS_8sequenceINSt3__14pairIlNS3_IlNS_9allocatorIlEELb0EEEEENS6_IS9_EELb0EEENS6_ISB_EELb0EE12storage_impl11destroy_allEvEUlmE_EEvmmOT_lb, symObjAddr: 0x42020, symBinAddr: 0x1000454BC, symSize: 0x10C }
  - { offset: 0x1CBCD, size: 0x8, addend: 0x0, symName: __ZN6parlay8make_jobIZNS_19fork_join_scheduler7parfor_IZNS_17sequence_internal13sequence_baseINS_8sequenceINSt3__14pairIlNS5_IlNS_9allocatorIlEELb0EEEEENS8_ISB_EELb0EEENS8_ISD_EELb0EE12storage_impl11destroy_allEvEUlmE_EEvRNS_9schedulerINS_15WorkStealingJobEEEmmRT_mbEUlvE0_EENS_7JobImplISM_EESN_, symObjAddr: 0x426F8, symBinAddr: 0x100045B94, symSize: 0x38 }
  - { offset: 0x1CC02, size: 0x8, addend: 0x0, symName: __ZN6parlay12parallel_forIZNS_8sequenceIlNS_9allocatorIlEELb0EEC1IZNS_8internal3mapIRNS_5sliceIPNSt3__15tupleIJlldEEESC_EEZNS_19group_by_key_helperISB_14TupleFirstHash15TupleFirstEqualE6reduceISD_EENS9_4pairIlS4_EERT_EUlRKSB_E_EEDaOSM_OT0_mEUlmE_EEmSS_NS4_18_from_function_tagEmEUlmE_EEvmmSS_lb, symObjAddr: 0x43C04, symBinAddr: 0x1000470A0, symSize: 0x10C }
  - { offset: 0x1CC87, size: 0x8, addend: 0x0, symName: __ZN6parlay8make_jobIZNS_19fork_join_scheduler7parfor_IZNS_8sequenceIlNS_9allocatorIlEELb0EEC1IZNS_8internal3mapIRNS_5sliceIPNSt3__15tupleIJlldEEESE_EEZNS_19group_by_key_helperISD_14TupleFirstHash15TupleFirstEqualE6reduceISF_EENSB_4pairIlS6_EERT_EUlRKSD_E_EEDaOSO_OT0_mEUlmE_EEmSU_NS6_18_from_function_tagEmEUlmE_EEvRNS_9schedulerINS_15WorkStealingJobEEEmmSP_mbEUlvE0_EENS_7JobImplISO_EESP_, symObjAddr: 0x44350, symBinAddr: 0x1000477EC, symSize: 0x38 }
  - { offset: 0x1CCBC, size: 0x8, addend: 0x0, symName: __ZN6parlay12parallel_forIZNS_17sequence_internal13sequence_baseIlNS_9allocatorIlEELb0EE12storage_implC1ERKS6_EUlmE_EEvmmOT_lb, symObjAddr: 0x44B08, symBinAddr: 0x100047FA4, symSize: 0x10C }
  - { offset: 0x1CD41, size: 0x8, addend: 0x0, symName: __ZN6parlay8make_jobIZNS_19fork_join_scheduler7parfor_IZNS_17sequence_internal13sequence_baseIlNS_9allocatorIlEELb0EE12storage_implC1ERKS8_EUlmE_EEvRNS_9schedulerINS_15WorkStealingJobEEEmmRT_mbEUlvE0_EENS_7JobImplISG_EESH_, symObjAddr: 0x451EC, symBinAddr: 0x100048688, symSize: 0x38 }
  - { offset: 0x1CD76, size: 0x8, addend: 0x0, symName: __ZN6parlay12parallel_forIZNS_8sequenceINSt3__14pairIlNS1_IlNS_9allocatorIlEELb0EEEEENS4_IS7_EELb0EE15initialize_fillEmRKS7_EUlmE_EEvmmOT_lb, symObjAddr: 0x45828, symBinAddr: 0x100048CC4, symSize: 0x10C }
  - { offset: 0x1CDFB, size: 0x8, addend: 0x0, symName: __ZN6parlay8make_jobIZNS_19fork_join_scheduler7parfor_IZNS_8sequenceINSt3__14pairIlNS3_IlNS_9allocatorIlEELb0EEEEENS6_IS9_EELb0EE15initialize_fillEmRKS9_EUlmE_EEvRNS_9schedulerINS_15WorkStealingJobEEEmmRT_mbEUlvE0_EENS_7JobImplISJ_EESK_, symObjAddr: 0x45F80, symBinAddr: 0x10004941C, symSize: 0x38 }
  - { offset: 0x1CE60, size: 0x8, addend: 0x0, symName: __ZN6parlay15assign_dispatchIlEEvRT_S2_NS_26uninitialized_relocate_tagE, symObjAddr: 0x464DC, symBinAddr: 0x100049978, symSize: 0x44 }
  - { offset: 0x1CF0D, size: 0x8, addend: 0x0, symName: '__ZN6parlay8make_jobIZNS_19fork_join_scheduler7parfor_IZNS_8sequenceINS3_INSt3__14pairIlNS3_IlNS_9allocatorIlEELb0EEEEENS6_IS9_EELb0EEENS6_ISB_EELb0EEC1IZNS_8internal22collect_reduce_sparse_INS_22uninitialized_copy_tagENS_5sliceINS_16delayed_sequenceINS4_5tupleIJlldEEESL_Z4mainE3$_0E8iteratorESO_EENS_19group_by_key_helperISL_14TupleFirstHash15TupleFirstEqualEEEEDaT0_RKT1_EUlmE0_EEmOT_NSD_18_from_function_tagEmEUlmE_EEvRNS_9schedulerINS_15WorkStealingJobEEEmmRS10_mbEUlvE0_EENS_7JobImplIS10_EES18_', symObjAddr: 0x46960, symBinAddr: 0x100049DFC, symSize: 0x38 }
  - { offset: 0x1CF42, size: 0x8, addend: 0x0, symName: __ZN6parlay12parallel_forIZNS_7flattenINSt3__14pairIlNS_8sequenceIlNS_9allocatorIlEELb0EEEEEEEDaONS4_INS4_IT_NS5_ISA_EEXsr3std7is_sameISA_cEE5valueEEENS5_ISC_EEXsr3std7is_sameISC_cEE5valueEEEEUlmE0_EEvmmOSA_lb, symObjAddr: 0x46F1C, symBinAddr: 0x10004A3B8, symSize: 0x10C }
  - { offset: 0x1CFC7, size: 0x8, addend: 0x0, symName: __ZN6parlay12parallel_forIZNS_8sequenceImNS_9allocatorImEELb0EEC1IZNS_7flattenINSt3__14pairIlNS1_IlNS2_IlEELb0EEEEEEEDaONS1_INS1_IT_NS2_ISD_EEXsr3std7is_sameISD_cEE5valueEEENS2_ISF_EEXsr3std7is_sameISF_cEE5valueEEEEUlmE_EEmOSD_NS4_18_from_function_tagEmEUlmE_EEvmmSK_lb, symObjAddr: 0x471A4, symBinAddr: 0x10004A640, symSize: 0x10C }
  - { offset: 0x1D04C, size: 0x8, addend: 0x0, symName: __ZN6parlay8make_jobIZNS_19fork_join_scheduler7parfor_IZNS_8sequenceImNS_9allocatorImEELb0EEC1IZNS_7flattenINSt3__14pairIlNS3_IlNS4_IlEELb0EEEEEEEDaONS3_INS3_IT_NS4_ISF_EEXsr3std7is_sameISF_cEE5valueEEENS4_ISH_EEXsr3std7is_sameISH_cEE5valueEEEEUlmE_EEmOSF_NS6_18_from_function_tagEmEUlmE_EEvRNS_9schedulerINS_15WorkStealingJobEEEmmRSF_mbEUlvE0_EENS_7JobImplISF_EEST_, symObjAddr: 0x47904, symBinAddr: 0x10004ADA0, symSize: 0x38 }
  - { offset: 0x1D081, size: 0x8, addend: 0x0, symName: __ZN6parlay22uninitialized_relocateIPNSt3__14pairIlNS_8sequenceIlNS_9allocatorIlEELb0EEEEES8_EET0_T_SA_S9_, symObjAddr: 0x48024, symBinAddr: 0x10004B4C0, symSize: 0x54 }
  - { offset: 0x1D0DB, size: 0x8, addend: 0x0, symName: __ZN6parlay15clear_relocatedERNS_8sequenceINSt3__14pairIlNS0_IlNS_9allocatorIlEELb0EEEEENS3_IS6_EELb0EEE, symObjAddr: 0x480C0, symBinAddr: 0x10004B55C, symSize: 0x24 }
  - { offset: 0x1D105, size: 0x8, addend: 0x0, symName: __ZN6parlay12parallel_forIZNS_24uninitialized_relocate_nIPNSt3__14pairIlNS_8sequenceIlNS_9allocatorIlEELb0EEEEElS9_EENS3_IT_T1_EESA_T0_SB_EUlmE_EEvmmOSA_lb, symObjAddr: 0x481E8, symBinAddr: 0x10004B684, symSize: 0x10C }
  - { offset: 0x1D18A, size: 0x8, addend: 0x0, symName: __ZN6parlay8make_jobIZNS_19fork_join_scheduler7parfor_IZNS_24uninitialized_relocate_nIPNSt3__14pairIlNS_8sequenceIlNS_9allocatorIlEELb0EEEEElSB_EENS5_IT_T1_EESC_T0_SD_EUlmE_EEvRNS_9schedulerINS_15WorkStealingJobEEEmmRSC_mbEUlvE0_EENS_7JobImplISC_EESL_, symObjAddr: 0x48910, symBinAddr: 0x10004BDAC, symSize: 0x38 }
  - { offset: 0x1D1BF, size: 0x8, addend: 0x0, symName: __ZN6parlay8make_jobIZNS_19fork_join_scheduler7parfor_IZNS_7flattenINSt3__14pairIlNS_8sequenceIlNS_9allocatorIlEELb0EEEEEEEDaONS6_INS6_IT_NS7_ISC_EEXsr3std7is_sameISC_cEE5valueEEENS7_ISE_EEXsr3std7is_sameISE_cEE5valueEEEEUlmE0_EEvRNS_9schedulerINS_15WorkStealingJobEEEmmRSC_mbEUlvE0_EENS_7JobImplISC_EESN_, symObjAddr: 0x4935C, symBinAddr: 0x10004C7F8, symSize: 0x38 }
  - { offset: 0x1D1F4, size: 0x8, addend: 0x0, symName: __ZN6parlay6reduceIRNS_8sequenceIlNS_9allocatorIlEELb0EEEEEDaOT_, symObjAddr: 0x4B644, symBinAddr: 0x10004EAE0, symSize: 0x3C }
  - { offset: 0x1D229, size: 0x8, addend: 0x0, symName: __ZN6parlay4scanIRNS_8sequenceIlNS_9allocatorIlEELb0EEEEEDaOT_, symObjAddr: 0x4B80C, symBinAddr: 0x10004ECA8, symSize: 0x5C }
  - { offset: 0x1D25E, size: 0x8, addend: 0x0, symName: __ZN6parlay12parallel_forIZN7TreeGenIldE20generateInitialEdgesEvEUllE7_EEvmmOT_lb, symObjAddr: 0x4BA1C, symBinAddr: 0x10004EEB8, symSize: 0x10C }
  - { offset: 0x1D2E3, size: 0x8, addend: 0x0, symName: __ZN6parlay12parallel_forIZN7TreeGenIldE20generateInitialEdgesEvEUllE8_EEvmmOT_lb, symObjAddr: 0x4BC7C, symBinAddr: 0x10004F118, symSize: 0x10C }
  - { offset: 0x1D368, size: 0x8, addend: 0x0, symName: __ZN6parlay12parallel_forIZNS_8sequenceIlNS_9allocatorIlEELb0EEC1IZN7TreeGenIldE20generateInitialEdgesEvEUllE_EEmOT_NS4_18_from_function_tagEmEUlmE_EEvmmSA_lb, symObjAddr: 0x4C0F4, symBinAddr: 0x10004F590, symSize: 0x10C }
  - { offset: 0x1D3ED, size: 0x8, addend: 0x0, symName: __ZN6parlay8make_jobIZNS_19fork_join_scheduler7parfor_IZNS_8sequenceIlNS_9allocatorIlEELb0EEC1IZN7TreeGenIldE20generateInitialEdgesEvEUllE_EEmOT_NS6_18_from_function_tagEmEUlmE_EEvRNS_9schedulerINS_15WorkStealingJobEEEmmRSB_mbEUlvE0_EENS_7JobImplISB_EESJ_, symObjAddr: 0x4C7A0, symBinAddr: 0x10004FC3C, symSize: 0x38 }
  - { offset: 0x1D422, size: 0x8, addend: 0x0, symName: __ZN6parlay6reduceIRNS_8sequenceIlNS_9allocatorIlEELb0EEENS_4plusIlEELi0EEEDaOT_OT0_, symObjAddr: 0x4CDA0, symBinAddr: 0x10005023C, symSize: 0x44 }
  - { offset: 0x1D474, size: 0x8, addend: 0x0, symName: __ZN6parlay10make_sliceIRNS_8sequenceIlNS_9allocatorIlEELb0EEEEEDaOT_, symObjAddr: 0x4CF78, symBinAddr: 0x100050414, symSize: 0x4C }
  - { offset: 0x1D4A9, size: 0x8, addend: 0x0, symName: __ZN6parlay12parallel_forIRZNS_8internal10sliced_forIZNS1_6reduceINS_5sliceIPlS5_EENS_4plusIlEEEEDaRKT_OT0_jEUlmmmE_EEvmmSC_jEUlmE_EEvmmOSA_lb, symObjAddr: 0x4D404, symBinAddr: 0x1000508A0, symSize: 0x10C }
  - { offset: 0x1D55A, size: 0x8, addend: 0x0, symName: __ZN6parlay10make_sliceIRKNS_5sliceIPlS2_EEEEDaOT_, symObjAddr: 0x4D72C, symBinAddr: 0x100050BC8, symSize: 0x4C }
  - { offset: 0x1D58F, size: 0x8, addend: 0x0, symName: __ZN6parlay10make_sliceIPlS1_EEDaT_T0_, symObjAddr: 0x4D7CC, symBinAddr: 0x100050C68, symSize: 0x38 }
  - { offset: 0x1D5DB, size: 0x8, addend: 0x0, symName: __ZN6parlay8make_jobIZNS_19fork_join_scheduler7parfor_IZNS_8internal10sliced_forIZNS3_6reduceINS_5sliceIPlS7_EENS_4plusIlEEEEDaRKT_OT0_jEUlmmmE_EEvmmSE_jEUlmE_EEvRNS_9schedulerINS_15WorkStealingJobEEEmmRSC_mbEUlvE0_EENS_7JobImplISC_EESN_, symObjAddr: 0x4DD00, symBinAddr: 0x10005119C, symSize: 0x38 }
  - { offset: 0x1D610, size: 0x8, addend: 0x0, symName: __ZN6parlay12parallel_forIRZNS_8internal10sliced_forIZNS1_6reduceINS_8sequenceIlNS_9allocatorIlEELb0EEERNS_4plusIlEEEEDaRKT_OT0_jEUlmmmE_EEvmmSE_jEUlmE_EEvmmOSC_lb, symObjAddr: 0x4E424, symBinAddr: 0x1000518C0, symSize: 0x10C }
  - { offset: 0x1D695, size: 0x8, addend: 0x0, symName: __ZN6parlay10make_sliceIRKNS_8sequenceIlNS_9allocatorIlEELb0EEEEEDaOT_, symObjAddr: 0x4E824, symBinAddr: 0x100051CC0, symSize: 0x4C }
  - { offset: 0x1D7DC, size: 0x8, addend: 0x0, symName: __ZN6parlay10make_sliceIPKlS2_EEDaT_T0_, symObjAddr: 0x4E910, symBinAddr: 0x100051DAC, symSize: 0x38 }
  - { offset: 0x1D828, size: 0x8, addend: 0x0, symName: __ZN6parlay8make_jobIZNS_19fork_join_scheduler7parfor_IZNS_8internal10sliced_forIZNS3_6reduceINS_8sequenceIlNS_9allocatorIlEELb0EEERNS_4plusIlEEEEDaRKT_OT0_jEUlmmmE_EEvmmSG_jEUlmE_EEvRNS_9schedulerINS_15WorkStealingJobEEEmmRSE_mbEUlvE0_EENS_7JobImplISE_EESP_, symObjAddr: 0x4EE7C, symBinAddr: 0x100052318, symSize: 0x38 }
  - { offset: 0x1D85D, size: 0x8, addend: 0x0, symName: __ZN6parlay12parallel_forIZNS_8sequenceIlNS_9allocatorIlEELb0EEC1IZN7TreeGenIldE20generateInitialEdgesEvEUllE0_EEmOT_NS4_18_from_function_tagEmEUlmE_EEvmmSA_lb, symObjAddr: 0x4F654, symBinAddr: 0x100052AF0, symSize: 0x10C }
  - { offset: 0x1D8E2, size: 0x8, addend: 0x0, symName: __ZN6parlay8make_jobIZNS_19fork_join_scheduler7parfor_IZNS_8sequenceIlNS_9allocatorIlEELb0EEC1IZN7TreeGenIldE20generateInitialEdgesEvEUllE0_EEmOT_NS6_18_from_function_tagEmEUlmE_EEvRNS_9schedulerINS_15WorkStealingJobEEEmmRSB_mbEUlvE0_EENS_7JobImplISB_EESJ_, symObjAddr: 0x502A0, symBinAddr: 0x10005373C, symSize: 0x38 }
  - { offset: 0x1D917, size: 0x8, addend: 0x0, symName: __ZN6parlay12parallel_forIZNS_8sequenceIlNS_9allocatorIlEELb0EEC1IZN7TreeGenIldE20generateInitialEdgesEvEUllE1_EEmOT_NS4_18_from_function_tagEmEUlmE_EEvmmSA_lb, symObjAddr: 0x509B8, symBinAddr: 0x100053E54, symSize: 0x10C }
  - { offset: 0x1D99C, size: 0x8, addend: 0x0, symName: __ZN6parlay8make_jobIZNS_19fork_join_scheduler7parfor_IZNS_8sequenceIlNS_9allocatorIlEELb0EEC1IZN7TreeGenIldE20generateInitialEdgesEvEUllE1_EEmOT_NS6_18_from_function_tagEmEUlmE_EEvRNS_9schedulerINS_15WorkStealingJobEEEmmRSB_mbEUlvE0_EENS_7JobImplISB_EESJ_, symObjAddr: 0x52B3C, symBinAddr: 0x100055FD8, symSize: 0x38 }
  - { offset: 0x1D9D1, size: 0x8, addend: 0x0, symName: __ZN6parlay12parallel_forIZNS_8sequenceIlNS_9allocatorIlEELb0EEC1IZN7TreeGenIldE20generateInitialEdgesEvEUllE2_EEmOT_NS4_18_from_function_tagEmEUlmE_EEvmmSA_lb, symObjAddr: 0x53254, symBinAddr: 0x1000566F0, symSize: 0x10C }
  - { offset: 0x1DA56, size: 0x8, addend: 0x0, symName: __ZN6parlay8make_jobIZNS_19fork_join_scheduler7parfor_IZNS_8sequenceIlNS_9allocatorIlEELb0EEC1IZN7TreeGenIldE20generateInitialEdgesEvEUllE2_EEmOT_NS6_18_from_function_tagEmEUlmE_EEvRNS_9schedulerINS_15WorkStealingJobEEEmmRSB_mbEUlvE0_EENS_7JobImplISB_EESJ_, symObjAddr: 0x53938, symBinAddr: 0x100056DD4, symSize: 0x38 }
  - { offset: 0x1DA8B, size: 0x8, addend: 0x0, symName: __ZN6parlay12parallel_forIRZNS_8internal10sliced_forIZNS1_5scan_INS_5sliceIPlS5_EES6_NS_4plusIlEEEEDaRKT_T0_OT1_jbEUlmmmE_EEvmmSC_jEUlmE_EEvmmOSA_lb, symObjAddr: 0x546D0, symBinAddr: 0x100057B6C, symSize: 0x10C }
  - { offset: 0x1DB10, size: 0x8, addend: 0x0, symName: __ZN6parlay8make_jobIZNS_19fork_join_scheduler7parfor_IZNS_8internal10sliced_forIZNS3_5scan_INS_5sliceIPlS7_EES8_NS_4plusIlEEEEDaRKT_T0_OT1_jbEUlmmmE_EEvmmSE_jEUlmE_EEvRNS_9schedulerINS_15WorkStealingJobEEEmmRSC_mbEUlvE0_EENS_7JobImplISC_EESO_, symObjAddr: 0x54E14, symBinAddr: 0x1000582B0, symSize: 0x38 }
  - { offset: 0x1DB45, size: 0x8, addend: 0x0, symName: __ZN6parlay12parallel_forIRZNS_8internal10sliced_forIZNS1_5scan_INS_5sliceIPlS5_EES6_NS_4plusIlEEEEDaRKT_T0_OT1_jbEUlmmmE0_EEvmmSC_jEUlmE_EEvmmOSA_lb, symObjAddr: 0x5534C, symBinAddr: 0x1000587E8, symSize: 0x10C }
  - { offset: 0x1DBCA, size: 0x8, addend: 0x0, symName: __ZN6parlay10make_sliceIRNS_5sliceIPlS2_EEEEDaOT_, symObjAddr: 0x556B0, symBinAddr: 0x100058B4C, symSize: 0x4C }
  - { offset: 0x1DBFF, size: 0x8, addend: 0x0, symName: __ZN6parlay8make_jobIZNS_19fork_join_scheduler7parfor_IZNS_8internal10sliced_forIZNS3_5scan_INS_5sliceIPlS7_EES8_NS_4plusIlEEEEDaRKT_T0_OT1_jbEUlmmmE0_EEvmmSE_jEUlmE_EEvRNS_9schedulerINS_15WorkStealingJobEEEmmRSC_mbEUlvE0_EENS_7JobImplISC_EESO_, symObjAddr: 0x55B60, symBinAddr: 0x100058FFC, symSize: 0x38 }
  - { offset: 0x1DC34, size: 0x8, addend: 0x0, symName: __ZN6parlay12parallel_forIZNS_8sequenceIlNS_9allocatorIlEELb0EEC1IZN7TreeGenIldE20generateInitialEdgesEvEUllE3_EEmOT_NS4_18_from_function_tagEmEUlmE_EEvmmSA_lb, symObjAddr: 0x56298, symBinAddr: 0x100059734, symSize: 0x10C }
  - { offset: 0x1DCB9, size: 0x8, addend: 0x0, symName: __ZN6parlay8make_jobIZNS_19fork_join_scheduler7parfor_IZNS_8sequenceIlNS_9allocatorIlEELb0EEC1IZN7TreeGenIldE20generateInitialEdgesEvEUllE3_EEmOT_NS6_18_from_function_tagEmEUlmE_EEvRNS_9schedulerINS_15WorkStealingJobEEEmmRSB_mbEUlvE0_EENS_7JobImplISB_EESJ_, symObjAddr: 0x56938, symBinAddr: 0x100059DD4, symSize: 0x38 }
  - { offset: 0x1DCEE, size: 0x8, addend: 0x0, symName: __ZN6parlay12parallel_forIZNS_8internal13find_if_indexIZNS_7find_ifIRNS_8sequenceIlNS_9allocatorIlEELb0EEEZN7TreeGenIldE20generateInitialEdgesEvEUllE4_EEDaOT_OT0_EUlmE_EEmmSE_mEUlmE_EEvmmSE_lb, symObjAddr: 0x57078, symBinAddr: 0x10005A514, symSize: 0x10C }
  - { offset: 0x1DD73, size: 0x8, addend: 0x0, symName: __ZN6parlay9write_minImNSt3__14lessIvEEEEbPNS1_6atomicIT_EES5_T0_, symObjAddr: 0x57318, symBinAddr: 0x10005A7B4, symSize: 0x98 }
  - { offset: 0x1DDE9, size: 0x8, addend: 0x0, symName: __ZN6parlay8make_jobIZNS_19fork_join_scheduler7parfor_IZNS_8internal13find_if_indexIZNS_7find_ifIRNS_8sequenceIlNS_9allocatorIlEELb0EEEZN7TreeGenIldE20generateInitialEdgesEvEUllE4_EEDaOT_OT0_EUlmE_EEmmSG_mEUlmE_EEvRNS_9schedulerINS_15WorkStealingJobEEEmmRSF_mbEUlvE0_EENS_7JobImplISF_EESP_, symObjAddr: 0x57ED4, symBinAddr: 0x10005B370, symSize: 0x38 }
  - { offset: 0x1DE1E, size: 0x8, addend: 0x0, symName: __ZN6parlay12parallel_forIZNS_8sequenceIlNS_9allocatorIlEELb0EEC1IZN7TreeGenIldE20generateInitialEdgesEvEUllE5_EEmOT_NS4_18_from_function_tagEmEUlmE_EEvmmSA_lb, symObjAddr: 0x58564, symBinAddr: 0x10005BA00, symSize: 0x10C }
  - { offset: 0x1DEA3, size: 0x8, addend: 0x0, symName: __ZN6parlay8make_jobIZNS_19fork_join_scheduler7parfor_IZNS_8sequenceIlNS_9allocatorIlEELb0EEC1IZN7TreeGenIldE20generateInitialEdgesEvEUllE5_EEmOT_NS6_18_from_function_tagEmEUlmE_EEvRNS_9schedulerINS_15WorkStealingJobEEEmmRSB_mbEUlvE0_EENS_7JobImplISB_EESJ_, symObjAddr: 0x58C20, symBinAddr: 0x10005C0BC, symSize: 0x38 }
  - { offset: 0x1DED8, size: 0x8, addend: 0x0, symName: __ZN6parlay12parallel_forIZNS_8sequenceINSt3__14pairIllEENS_9allocatorIS4_EELb0EEC1IZN7TreeGenIldE20generateInitialEdgesEvEUllE6_EEmOT_NS7_18_from_function_tagEmEUlmE_EEvmmSD_lb, symObjAddr: 0x593F0, symBinAddr: 0x10005C88C, symSize: 0x10C }
  - { offset: 0x1DF5D, size: 0x8, addend: 0x0, symName: __ZN6parlay8make_jobIZNS_19fork_join_scheduler7parfor_IZNS_8sequenceINSt3__14pairIllEENS_9allocatorIS6_EELb0EEC1IZN7TreeGenIldE20generateInitialEdgesEvEUllE6_EEmOT_NS9_18_from_function_tagEmEUlmE_EEvRNS_9schedulerINS_15WorkStealingJobEEEmmRSE_mbEUlvE0_EENS_7JobImplISE_EESM_, symObjAddr: 0x59FA0, symBinAddr: 0x10005D43C, symSize: 0x38 }
  - { offset: 0x1DF92, size: 0x8, addend: 0x0, symName: __ZN6parlay8make_jobIZNS_19fork_join_scheduler7parfor_IZN7TreeGenIldE20generateInitialEdgesEvEUllE7_EEvRNS_9schedulerINS_15WorkStealingJobEEEmmRT_mbEUlvE0_EENS_7JobImplISA_EESB_, symObjAddr: 0x5AB2C, symBinAddr: 0x10005DFC8, symSize: 0x38 }
  - { offset: 0x1DFC7, size: 0x8, addend: 0x0, symName: __ZN6parlay12parallel_forIZNS_8sequenceINSt3__16atomicIsEENS_9allocatorIS4_EELb0EE18initialize_defaultEmEUlmE_EEvmmOT_lb, symObjAddr: 0x5B29C, symBinAddr: 0x10005E738, symSize: 0x10C }
  - { offset: 0x1E04C, size: 0x8, addend: 0x0, symName: __ZN6parlay8make_jobIZNS_19fork_join_scheduler7parfor_IZNS_8sequenceINSt3__16atomicIsEENS_9allocatorIS6_EELb0EE18initialize_defaultEmEUlmE_EEvRNS_9schedulerINS_15WorkStealingJobEEEmmRT_mbEUlvE0_EENS_7JobImplISF_EESG_, symObjAddr: 0x5BD34, symBinAddr: 0x10005F1D0, symSize: 0x38 }
  - { offset: 0x1E081, size: 0x8, addend: 0x0, symName: __ZN6parlay12parallel_forIZNS_8sequenceIlNS_9allocatorIlEELb0EE18initialize_defaultEmEUlmE_EEvmmOT_lb, symObjAddr: 0x5C450, symBinAddr: 0x10005F8EC, symSize: 0x10C }
  - { offset: 0x1E106, size: 0x8, addend: 0x0, symName: __ZN6parlay8make_jobIZNS_19fork_join_scheduler7parfor_IZNS_8sequenceIlNS_9allocatorIlEELb0EE18initialize_defaultEmEUlmE_EEvRNS_9schedulerINS_15WorkStealingJobEEEmmRT_mbEUlvE0_EENS_7JobImplISC_EESD_, symObjAddr: 0x5CB04, symBinAddr: 0x10005FFA0, symSize: 0x38 }
  - { offset: 0x1E13B, size: 0x8, addend: 0x0, symName: __ZN6parlay12parallel_forIZNS_8sequenceIdNS_9allocatorIdEELb0EE18initialize_defaultEmEUlmE_EEvmmOT_lb, symObjAddr: 0x5D1F4, symBinAddr: 0x100060690, symSize: 0x10C }
  - { offset: 0x1E1C0, size: 0x8, addend: 0x0, symName: __ZN6parlay8make_jobIZNS_19fork_join_scheduler7parfor_IZNS_8sequenceIdNS_9allocatorIdEELb0EE18initialize_defaultEmEUlmE_EEvRNS_9schedulerINS_15WorkStealingJobEEEmmRT_mbEUlvE0_EENS_7JobImplISC_EESD_, symObjAddr: 0x5DC90, symBinAddr: 0x10006112C, symSize: 0x38 }
  - { offset: 0x1E1F5, size: 0x8, addend: 0x0, symName: __ZN6parlay12parallel_forIZN7TreeGenIldE16populateSubGraphENSt3__14pairIllEEEUllE_EEvmmOT_lb, symObjAddr: 0x5E4D0, symBinAddr: 0x10006196C, symSize: 0x10C }
  - { offset: 0x1E27A, size: 0x8, addend: 0x0, symName: __ZN6parlay8make_jobIZNS_19fork_join_scheduler7parfor_IZN7TreeGenIldE16populateSubGraphENSt3__14pairIllEEEUllE_EEvRNS_9schedulerINS_15WorkStealingJobEEEmmRT_mbEUlvE0_EENS_7JobImplISD_EESE_, symObjAddr: 0x5EF50, symBinAddr: 0x1000623EC, symSize: 0x38 }
  - { offset: 0x1E2AF, size: 0x8, addend: 0x0, symName: __ZN6parlay8make_jobIZNS_19fork_join_scheduler7parfor_IZN7TreeGenIldE20generateInitialEdgesEvEUllE8_EEvRNS_9schedulerINS_15WorkStealingJobEEEmmRT_mbEUlvE0_EENS_7JobImplISA_EESB_, symObjAddr: 0x5F8A4, symBinAddr: 0x100062D40, symSize: 0x38 }
  - { offset: 0x1E2E4, size: 0x8, addend: 0x0, symName: __ZN6parlay12parallel_forIZN7TreeGenIldE13verifyParentsEvEUllE_EEvmmOT_lb, symObjAddr: 0x5FDDC, symBinAddr: 0x100063278, symSize: 0x10C }
  - { offset: 0x1E369, size: 0x8, addend: 0x0, symName: __ZN6parlay12parallel_forIZN7TreeGenIldE13verifyParentsEvEUllE0_EEvmmOT_lb, symObjAddr: 0x5FEE8, symBinAddr: 0x100063384, symSize: 0x10C }
  - { offset: 0x1E3EE, size: 0x8, addend: 0x0, symName: __ZN6parlay8make_jobIZNS_19fork_join_scheduler7parfor_IZN7TreeGenIldE13verifyParentsEvEUllE_EEvRNS_9schedulerINS_15WorkStealingJobEEEmmRT_mbEUlvE0_EENS_7JobImplISA_EESB_, symObjAddr: 0x605B8, symBinAddr: 0x100063A54, symSize: 0x38 }
  - { offset: 0x1E423, size: 0x8, addend: 0x0, symName: __ZN6parlay8make_jobIZNS_19fork_join_scheduler7parfor_IZN7TreeGenIldE13verifyParentsEvEUllE0_EEvRNS_9schedulerINS_15WorkStealingJobEEEmmRT_mbEUlvE0_EENS_7JobImplISA_EESB_, symObjAddr: 0x61294, symBinAddr: 0x100064730, symSize: 0x38 }
  - { offset: 0x1E458, size: 0x8, addend: 0x0, symName: __ZN6parlay6filterIRNS_8sequenceINSt3__15tupleIJNS2_4pairIllEES5_NS3_IJlldEEEbEEENS_9allocatorIS7_EELb0EEEZN7TreeGenIldE21generateInterconnectsEvEUlS7_E_EEDaOT_OT0_, symObjAddr: 0x6183C, symBinAddr: 0x100064CD8, symSize: 0x4C }
  - { offset: 0x1E4A7, size: 0x8, addend: 0x0, symName: __ZN6parlay12parallel_forIZNS_8sequenceINSt3__15tupleIJNS2_4pairIllEES5_NS3_IJlldEEEbEEENS_9allocatorIS7_EELb0EEC1IZN7TreeGenIldE21generateInterconnectsEvEUllE_EEmOT_NSA_18_from_function_tagEmEUlmE_EEvmmSG_lb, symObjAddr: 0x61B20, symBinAddr: 0x100064FBC, symSize: 0x10C }
  - { offset: 0x1E52C, size: 0x8, addend: 0x0, symName: __ZN6parlay8make_jobIZNS_19fork_join_scheduler7parfor_IZNS_8sequenceINSt3__15tupleIJNS4_4pairIllEES7_NS5_IJlldEEEbEEENS_9allocatorIS9_EELb0EEC1IZN7TreeGenIldE21generateInterconnectsEvEUllE_EEmOT_NSC_18_from_function_tagEmEUlmE_EEvRNS_9schedulerINS_15WorkStealingJobEEEmmRSH_mbEUlvE0_EENS_7JobImplISH_EESP_, symObjAddr: 0x63058, symBinAddr: 0x1000664F4, symSize: 0x38 }
  - { offset: 0x1E561, size: 0x8, addend: 0x0, symName: __ZN6parlay10make_sliceIRNS_8sequenceINSt3__15tupleIJNS2_4pairIllEES5_NS3_IJlldEEEbEEENS_9allocatorIS7_EELb0EEEEEDaOT_, symObjAddr: 0x63690, symBinAddr: 0x100066B2C, symSize: 0x4C }
  - { offset: 0x1E596, size: 0x8, addend: 0x0, symName: __ZN6parlay11delayed_seqINSt3__15tupleIJNS1_4pairIllEES4_NS2_IJlldEEEbEEEZNS_8internal10filter_mapINS_5sliceIPS6_SA_EEZN7TreeGenIldE21generateInterconnectsEvEUlS6_E_RZNS7_6filterISB_SE_EENS_8sequenceINT_10value_typeENS_9allocatorISI_EEXsr3std7is_sameISI_cEE5valueEEERKSH_OT0_EUlOSH_E_EEDaSN_SP_OT1_EUlmE_EENS_16delayed_sequenceISH_u11__remove_cvIu20__remove_reference_tISH_EESO_EEmSO_, symObjAddr: 0x638F8, symBinAddr: 0x100066D94, symSize: 0x48 }
  - { offset: 0x1E5E5, size: 0x8, addend: 0x0, symName: __ZN6parlay12parallel_forIZNS_8sequenceIbNS_9allocatorIbEELb0EE18initialize_defaultEmEUlmE_EEvmmOT_lb, symObjAddr: 0x63CE4, symBinAddr: 0x100067180, symSize: 0x10C }
  - { offset: 0x1E66A, size: 0x8, addend: 0x0, symName: __ZN6parlay8make_jobIZNS_19fork_join_scheduler7parfor_IZNS_8sequenceIbNS_9allocatorIbEELb0EE18initialize_defaultEmEUlmE_EEvRNS_9schedulerINS_15WorkStealingJobEEEmmRT_mbEUlvE0_EENS_7JobImplISC_EESD_, symObjAddr: 0x64398, symBinAddr: 0x100067834, symSize: 0x38 }
  - { offset: 0x1E69F, size: 0x8, addend: 0x0, symName: __ZN6parlay12parallel_forIRZNS_8internal10sliced_forIZNS1_10filter_mapINS_5sliceIPNSt3__15tupleIJNS5_4pairIllEES8_NS6_IJlldEEEbEEESB_EEZN7TreeGenIldE21generateInterconnectsEvEUlSA_E_RZNS1_6filterISC_SF_EENS_8sequenceINT_10value_typeENS_9allocatorISJ_EEXsr3std7is_sameISJ_cEE5valueEEERKSI_OT0_EUlOSI_E_EEDaSO_SQ_OT1_EUlmmmE_EEvmmSO_jEUlmE_EEvmmSR_lb, symObjAddr: 0x648D0, symBinAddr: 0x100067D6C, symSize: 0x10C }
  - { offset: 0x1E724, size: 0x8, addend: 0x0, symName: __ZN6parlay8make_jobIZNS_19fork_join_scheduler7parfor_IZNS_8internal10sliced_forIZNS3_10filter_mapINS_5sliceIPNSt3__15tupleIJNS7_4pairIllEESA_NS8_IJlldEEEbEEESD_EEZN7TreeGenIldE21generateInterconnectsEvEUlSC_E_RZNS3_6filterISE_SH_EENS_8sequenceINT_10value_typeENS_9allocatorISL_EEXsr3std7is_sameISL_cEE5valueEEERKSK_OT0_EUlOSK_E_EEDaSQ_SS_OT1_EUlmmmE_EEvmmSQ_jEUlmE_EEvRNS_9schedulerINS_15WorkStealingJobEEEmmRSK_mbEUlvE0_EENS_7JobImplISK_EES15_, symObjAddr: 0x65158, symBinAddr: 0x1000685F4, symSize: 0x38 }
  - { offset: 0x1E759, size: 0x8, addend: 0x0, symName: __ZN6parlay12parallel_forIRZNS_8internal10sliced_forIZNS1_10filter_mapINS_5sliceIPNSt3__15tupleIJNS5_4pairIllEES8_NS6_IJlldEEEbEEESB_EEZN7TreeGenIldE21generateInterconnectsEvEUlSA_E_RZNS1_6filterISC_SF_EENS_8sequenceINT_10value_typeENS_9allocatorISJ_EEXsr3std7is_sameISJ_cEE5valueEEERKSI_OT0_EUlOSI_E_EEDaSO_SQ_OT1_EUlmmmE0_EEvmmSO_jEUlmE_EEvmmSR_lb, symObjAddr: 0x65738, symBinAddr: 0x100068BD4, symSize: 0x10C }
  - { offset: 0x1E833, size: 0x8, addend: 0x0, symName: __ZN6parlay10make_sliceIRNS_16delayed_sequenceINSt3__15tupleIJNS2_4pairIllEES5_NS3_IJlldEEEbEEES7_ZNS_8internal10filter_mapINS_5sliceIPS7_SB_EEZN7TreeGenIldE21generateInterconnectsEvEUlS7_E_RZNS8_6filterISC_SF_EENS_8sequenceINT_10value_typeENS_9allocatorISJ_EEXsr3std7is_sameISJ_cEE5valueEEERKSI_OT0_EUlOSI_E_EEDaSO_SQ_OT1_EUlmE_EEEESU_SR_, symObjAddr: 0x65BD0, symBinAddr: 0x10006906C, symSize: 0x58 }
  - { offset: 0x1E97A, size: 0x8, addend: 0x0, symName: __ZN6parlay10make_sliceIRNS_8sequenceIbNS_9allocatorIbEELb0EEEEEDaOT_, symObjAddr: 0x65C98, symBinAddr: 0x100069134, symSize: 0x4C }
  - { offset: 0x1EACC, size: 0x8, addend: 0x0, symName: __ZN6parlay10make_sliceINS_16delayed_sequenceINSt3__15tupleIJNS2_4pairIllEES5_NS3_IJlldEEEbEEES7_ZNS_8internal10filter_mapINS_5sliceIPS7_SB_EEZN7TreeGenIldE21generateInterconnectsEvEUlS7_E_RZNS8_6filterISC_SF_EENS_8sequenceINT_10value_typeENS_9allocatorISJ_EEXsr3std7is_sameISJ_cEE5valueEEERKSI_OT0_EUlOSI_E_EEDaSO_SQ_OT1_EUlmE_E8iteratorESZ_EESU_SI_SP_, symObjAddr: 0x65F5C, symBinAddr: 0x1000693F8, symSize: 0x58 }
  - { offset: 0x1EB18, size: 0x8, addend: 0x0, symName: __ZN6parlay10make_sliceIPbS1_EEDaT_T0_, symObjAddr: 0x66200, symBinAddr: 0x10006969C, symSize: 0x38 }
  - { offset: 0x1EB64, size: 0x8, addend: 0x0, symName: __ZN6parlay10make_sliceIPNSt3__15tupleIJNS1_4pairIllEES4_NS2_IJlldEEEbEEES7_EEDaT_T0_, symObjAddr: 0x6637C, symBinAddr: 0x100069818, symSize: 0x38 }
  - { offset: 0x1EBB0, size: 0x8, addend: 0x0, symName: __ZN6parlay8make_jobIZNS_19fork_join_scheduler7parfor_IZNS_8internal10sliced_forIZNS3_10filter_mapINS_5sliceIPNSt3__15tupleIJNS7_4pairIllEESA_NS8_IJlldEEEbEEESD_EEZN7TreeGenIldE21generateInterconnectsEvEUlSC_E_RZNS3_6filterISE_SH_EENS_8sequenceINT_10value_typeENS_9allocatorISL_EEXsr3std7is_sameISL_cEE5valueEEERKSK_OT0_EUlOSK_E_EEDaSQ_SS_OT1_EUlmmmE0_EEvmmSQ_jEUlmE_EEvRNS_9schedulerINS_15WorkStealingJobEEEmmRSK_mbEUlvE0_EENS_7JobImplISK_EES15_, symObjAddr: 0x66838, symBinAddr: 0x100069CD4, symSize: 0x38 }
  - { offset: 0x1EBE5, size: 0x8, addend: 0x0, symName: __ZN6parlay6filterIRNS_8sequenceINSt3__15tupleIJlldEEENS_9allocatorIS4_EELb0EEEZN7TreeGenIldE11getAllEdgesEvEUlS4_E_EEDaOT_OT0_, symObjAddr: 0x67010, symBinAddr: 0x10006A4AC, symSize: 0x4C }
  - { offset: 0x1EC34, size: 0x8, addend: 0x0, symName: __ZN6parlay12parallel_forIZNS_8sequenceINSt3__15tupleIJlldEEENS_9allocatorIS4_EELb0EEC1IZN7TreeGenIldE11getAllEdgesEvEUllE_EEmOT_NS7_18_from_function_tagEmEUlmE_EEvmmSD_lb, symObjAddr: 0x6735C, symBinAddr: 0x10006A7F8, symSize: 0x10C }
  - { offset: 0x1ECB9, size: 0x8, addend: 0x0, symName: __ZN6parlay8make_jobIZNS_19fork_join_scheduler7parfor_IZNS_8sequenceINSt3__15tupleIJlldEEENS_9allocatorIS6_EELb0EEC1IZN7TreeGenIldE11getAllEdgesEvEUllE_EEmOT_NS9_18_from_function_tagEmEUlmE_EEvRNS_9schedulerINS_15WorkStealingJobEEEmmRSE_mbEUlvE0_EENS_7JobImplISE_EESM_, symObjAddr: 0x67E68, symBinAddr: 0x10006B304, symSize: 0x38 }
  - { offset: 0x1ECEE, size: 0x8, addend: 0x0, symName: __ZN6parlay10make_sliceIRNS_8sequenceINSt3__15tupleIJlldEEENS_9allocatorIS4_EELb0EEEEEDaOT_, symObjAddr: 0x683D8, symBinAddr: 0x10006B874, symSize: 0x4C }
  - { offset: 0x1ED23, size: 0x8, addend: 0x0, symName: __ZN6parlay11delayed_seqINSt3__15tupleIJlldEEEZNS_8internal10filter_mapINS_5sliceIPS3_S7_EEZN7TreeGenIldE11getAllEdgesEvEUlS3_E_RZNS4_6filterIS8_SB_EENS_8sequenceINT_10value_typeENS_9allocatorISF_EEXsr3std7is_sameISF_cEE5valueEEERKSE_OT0_EUlOSE_E_EEDaSK_SM_OT1_EUlmE_EENS_16delayed_sequenceISE_u11__remove_cvIu20__remove_reference_tISE_EESL_EEmSL_, symObjAddr: 0x68618, symBinAddr: 0x10006BAB4, symSize: 0x48 }
  - { offset: 0x1ED72, size: 0x8, addend: 0x0, symName: __ZN6parlay12parallel_forIRZNS_8internal10sliced_forIZNS1_10filter_mapINS_5sliceIPNSt3__15tupleIJlldEEES8_EEZN7TreeGenIldE11getAllEdgesEvEUlS7_E_RZNS1_6filterIS9_SC_EENS_8sequenceINT_10value_typeENS_9allocatorISG_EEXsr3std7is_sameISG_cEE5valueEEERKSF_OT0_EUlOSF_E_EEDaSL_SN_OT1_EUlmmmE_EEvmmSL_jEUlmE_EEvmmSO_lb, symObjAddr: 0x688E0, symBinAddr: 0x10006BD7C, symSize: 0x10C }
  - { offset: 0x1EDF7, size: 0x8, addend: 0x0, symName: __ZN6parlay8make_jobIZNS_19fork_join_scheduler7parfor_IZNS_8internal10sliced_forIZNS3_10filter_mapINS_5sliceIPNSt3__15tupleIJlldEEESA_EEZN7TreeGenIldE11getAllEdgesEvEUlS9_E_RZNS3_6filterISB_SE_EENS_8sequenceINT_10value_typeENS_9allocatorISI_EEXsr3std7is_sameISI_cEE5valueEEERKSH_OT0_EUlOSH_E_EEDaSN_SP_OT1_EUlmmmE_EEvmmSN_jEUlmE_EEvRNS_9schedulerINS_15WorkStealingJobEEEmmRSH_mbEUlvE0_EENS_7JobImplISH_EES12_, symObjAddr: 0x690D0, symBinAddr: 0x10006C56C, symSize: 0x38 }
  - { offset: 0x1EE2C, size: 0x8, addend: 0x0, symName: __ZN6parlay12parallel_forIRZNS_8internal10sliced_forIZNS1_10filter_mapINS_5sliceIPNSt3__15tupleIJlldEEES8_EEZN7TreeGenIldE11getAllEdgesEvEUlS7_E_RZNS1_6filterIS9_SC_EENS_8sequenceINT_10value_typeENS_9allocatorISG_EEXsr3std7is_sameISG_cEE5valueEEERKSF_OT0_EUlOSF_E_EEDaSL_SN_OT1_EUlmmmE0_EEvmmSL_jEUlmE_EEvmmSO_lb, symObjAddr: 0x696B0, symBinAddr: 0x10006CB4C, symSize: 0x10C }
  - { offset: 0x1EEDD, size: 0x8, addend: 0x0, symName: __ZN6parlay10make_sliceIRNS_16delayed_sequenceINSt3__15tupleIJlldEEES4_ZNS_8internal10filter_mapINS_5sliceIPS4_S8_EEZN7TreeGenIldE11getAllEdgesEvEUlS4_E_RZNS5_6filterIS9_SC_EENS_8sequenceINT_10value_typeENS_9allocatorISG_EEXsr3std7is_sameISG_cEE5valueEEERKSF_OT0_EUlOSF_E_EEDaSL_SN_OT1_EUlmE_EEEESR_SO_, symObjAddr: 0x69B50, symBinAddr: 0x10006CFEC, symSize: 0x58 }
  - { offset: 0x1F02F, size: 0x8, addend: 0x0, symName: __ZN6parlay10make_sliceINS_16delayed_sequenceINSt3__15tupleIJlldEEES4_ZNS_8internal10filter_mapINS_5sliceIPS4_S8_EEZN7TreeGenIldE11getAllEdgesEvEUlS4_E_RZNS5_6filterIS9_SC_EENS_8sequenceINT_10value_typeENS_9allocatorISG_EEXsr3std7is_sameISG_cEE5valueEEERKSF_OT0_EUlOSF_E_EEDaSL_SN_OT1_EUlmE_E8iteratorESW_EESR_SF_SM_, symObjAddr: 0x69DB8, symBinAddr: 0x10006D254, symSize: 0x58 }
  - { offset: 0x1F07B, size: 0x8, addend: 0x0, symName: __ZN6parlay8make_jobIZNS_19fork_join_scheduler7parfor_IZNS_8internal10sliced_forIZNS3_10filter_mapINS_5sliceIPNSt3__15tupleIJlldEEESA_EEZN7TreeGenIldE11getAllEdgesEvEUlS9_E_RZNS3_6filterISB_SE_EENS_8sequenceINT_10value_typeENS_9allocatorISI_EEXsr3std7is_sameISI_cEE5valueEEERKSH_OT0_EUlOSH_E_EEDaSN_SP_OT1_EUlmmmE0_EEvmmSN_jEUlmE_EEvRNS_9schedulerINS_15WorkStealingJobEEEmmRSH_mbEUlvE0_EENS_7JobImplISH_EES12_, symObjAddr: 0x6A478, symBinAddr: 0x10006D914, symSize: 0x38 }
  - { offset: 0x1F0B0, size: 0x8, addend: 0x0, symName: __ZN6parlay12parallel_forIZNS_8sequenceIPvNS_9allocatorIS2_EELb0EE15initialize_fillEmRKS2_EUlmE_EEvmmOT_lb, symObjAddr: 0x6B338, symBinAddr: 0x10006E7D4, symSize: 0x10C }
  - { offset: 0x1F135, size: 0x8, addend: 0x0, symName: __ZN6parlay8make_jobIZNS_19fork_join_scheduler7parfor_IZNS_8sequenceIPvNS_9allocatorIS4_EELb0EE15initialize_fillEmRKS4_EUlmE_EEvRNS_9schedulerINS_15WorkStealingJobEEEmmRT_mbEUlvE0_EENS_7JobImplISF_EESG_, symObjAddr: 0x6BDE8, symBinAddr: 0x10006F284, symSize: 0x38 }
  - { offset: 0x1F16A, size: 0x8, addend: 0x0, symName: '__ZN6parlay8make_jobIZNS_19fork_join_scheduler7parfor_IZ4mainE3$_1EEvRNS_9schedulerINS_15WorkStealingJobEEEmmRT_mbEUlvE0_EENS_7JobImplIS8_EES9_', symObjAddr: 0x6CAC4, symBinAddr: 0x10006FF60, symSize: 0x38 }
  - { offset: 0x1F19F, size: 0x8, addend: 0x0, symName: '__ZN6parlay8make_jobIZNS_19fork_join_scheduler7parfor_IZ4mainE3$_2EEvRNS_9schedulerINS_15WorkStealingJobEEEmmRT_mbEUlvE0_EENS_7JobImplIS8_EES9_', symObjAddr: 0x6E714, symBinAddr: 0x100071BB0, symSize: 0x38 }
  - { offset: 0x1F269, size: 0x8, addend: 0x0, symName: __ZN6parlay9schedulerINS_15WorkStealingJobEE11worker_infoE, symObjAddr: 0x7943F, symBinAddr: 0x100090480, symSize: 0x0 }
  - { offset: 0x1FDAD, size: 0x8, addend: 0x0, symName: __ZNSt3__16chronomiB8ue170006IxNS_5ratioILl1ELl1000000EEExS3_EENS_11common_typeIJNS0_8durationIT_T0_EENS5_IT1_T2_EEEE4typeERKS8_RKSB_, symObjAddr: 0x41824, symBinAddr: 0x100044CC0, symSize: 0x70 }
  - { offset: 0x20053, size: 0x8, addend: 0x0, symName: __ZNSt3__16chronomiB8ue170006IxNS_5ratioILl1ELl1000000000EEExS3_EENS_11common_typeIJNS0_8durationIT_T0_EENS5_IT1_T2_EEEE4typeERKS8_RKSB_, symObjAddr: 0x49CFC, symBinAddr: 0x10004D198, symSize: 0x70 }
  - { offset: 0x200C0, size: 0x8, addend: 0x0, symName: __ZNSt3__16chrono13duration_castB8ue170006INS0_8durationIxNS_5ratioILl1ELl1000EEEEExNS3_ILl1ELl1000000000EEEEENS_9enable_ifIXsr13__is_durationIT_EE5valueES8_E4typeERKNS2_IT0_T1_EE, symObjAddr: 0x13D4, symBinAddr: 0x100004870, symSize: 0x30 }
  - { offset: 0x20107, size: 0x8, addend: 0x0, symName: __ZNSt3__16chronomiB8ue170006INS0_12steady_clockENS0_8durationIxNS_5ratioILl1ELl1000000000EEEEES6_EENS_11common_typeIJT0_T1_EE4typeERKNS0_10time_pointIT_S8_EERKNSC_ISD_S9_EE, symObjAddr: 0x1404, symBinAddr: 0x1000048A0, symSize: 0x58 }
  - { offset: 0x2019F, size: 0x8, addend: 0x0, symName: __ZNSt3__16chronoltB8ue170006IxNS_5ratioILl1ELl1000000000EEExNS2_ILl1ELl1000000EEEEEbRKNS0_8durationIT_T0_EERKNS5_IT1_T2_EE, symObjAddr: 0x279C4, symBinAddr: 0x10002AE60, symSize: 0x34 }
  - { offset: 0x20200, size: 0x8, addend: 0x0, symName: __ZNSt3__16chrono13duration_castB8ue170006INS0_8durationIxNS_5ratioILl1ELl1000000000EEEEExNS3_ILl1ELl1000000EEEEENS_9enable_ifIXsr13__is_durationIT_EE5valueES8_E4typeERKNS2_IT0_T1_EE, symObjAddr: 0x27FD0, symBinAddr: 0x10002B46C, symSize: 0x30 }
  - { offset: 0x20247, size: 0x8, addend: 0x0, symName: __ZNSt3__16chrono13duration_castB8ue170006INS0_8durationIxNS_5ratioILl1ELl1000000000EEEEExS4_EENS_9enable_ifIXsr13__is_durationIT_EE5valueES7_E4typeERKNS2_IT0_T1_EE, symObjAddr: 0x2B0B4, symBinAddr: 0x10002E550, symSize: 0x30 }
  - { offset: 0x202DB, size: 0x8, addend: 0x0, symName: __ZNSt3__16chrono13duration_castB8ue170006INS0_8durationIxNS_5ratioILl1ELl1000000EEEEExS4_EENS_9enable_ifIXsr13__is_durationIT_EE5valueES7_E4typeERKNS2_IT0_T1_EE, symObjAddr: 0x4175C, symBinAddr: 0x100044BF8, symSize: 0x30 }
  - { offset: 0x20322, size: 0x8, addend: 0x0, symName: __ZNSt3__16chronomiB8ue170006INS0_12system_clockENS0_8durationIxNS_5ratioILl1ELl1000000EEEEES6_EENS_11common_typeIJT0_T1_EE4typeERKNS0_10time_pointIT_S8_EERKNSC_ISD_S9_EE, symObjAddr: 0x4178C, symBinAddr: 0x100044C28, symSize: 0x58 }
  - { offset: 0x28B0F, size: 0x8, addend: 0x0, symName: __ZNSt3__110__function10__not_nullB8ue170006IZN6parlay14ThreadSpecificINS2_8internal24intrusive_acquire_retireINS4_12hazptr_stackIPvE4NodeENS_14default_deleteIS9_EELm1EE10ThreadDataEEC1EvEUlmE_EEbRKT_, symObjAddr: 0x6D18, symBinAddr: 0x10000A1B4, symSize: 0x18 }
  - { offset: 0x28B40, size: 0x8, addend: 0x0, symName: __ZNSt3__110__function10__not_nullB8ue170006IZN6parlay14ThreadSpecificINS2_8internal24intrusive_acquire_retireINS4_12hazptr_stackIPSt4byteE4NodeENS_14default_deleteISA_EELm1EE10ThreadDataEEC1EvEUlmE_EEbRKT_, symObjAddr: 0xCFE0, symBinAddr: 0x10001047C, symSize: 0x18 }
  - { offset: 0x28B71, size: 0x8, addend: 0x0, symName: __ZNSt3__110__function10__not_nullB8ue170006IZN6parlay14ThreadSpecificINS2_8internal24intrusive_acquire_retireINS4_12hazptr_stackIPNS4_15block_allocator5blockEE4NodeENS_14default_deleteISB_EELm1EE10ThreadDataEEC1EvEUlmE_EEbRKT_, symObjAddr: 0xFF54, symBinAddr: 0x1000133F0, symSize: 0x18 }
  - { offset: 0x28BA2, size: 0x8, addend: 0x0, symName: __ZNSt3__110__function10__not_nullB8ue170006IZN6parlay14ThreadSpecificINS2_8internal15block_allocator10local_listEEC1EvEUlmE_EEbRKT_, symObjAddr: 0x12C04, symBinAddr: 0x1000160A0, symSize: 0x18 }
  - { offset: 0x2EA2A, size: 0x8, addend: 0x0, symName: __ZNSt3__119piecewise_constructE, symObjAddr: 0x7A887, symBinAddr: 0x100078C27, symSize: 0x0 }
  - { offset: 0x2F6D2, size: 0x8, addend: 0x0, symName: __ZNSt3__18in_placeE, symObjAddr: 0x7AF10, symBinAddr: 0x1000792B0, symSize: 0x0 }
  - { offset: 0x342BF, size: 0x8, addend: 0x0, symName: __ZNSt3__117__cxx_atomic_loadB8ue170006IPN6parlay8internal12ThreadIdPool8ThreadIdEEET_PKNS_22__cxx_atomic_base_implIS6_EENS_12memory_orderE, symObjAddr: 0x9558, symBinAddr: 0x10000C9F4, symSize: 0x80 }
  - { offset: 0x3431D, size: 0x8, addend: 0x0, symName: __ZNSt3__117__cxx_atomic_loadB8ue170006ImEET_PKNS_22__cxx_atomic_base_implIS1_EENS_12memory_orderE, symObjAddr: 0x95D8, symBinAddr: 0x10000CA74, symSize: 0x80 }
  - { offset: 0x34386, size: 0x8, addend: 0x0, symName: __ZNSt3__117__cxx_atomic_loadB8ue170006IPN6parlay8internal13UninitializedINS2_24intrusive_acquire_retireINS2_12hazptr_stackIPvE4NodeENS_14default_deleteIS8_EELm1EE10ThreadDataEEEEET_PKNS_22__cxx_atomic_base_implISF_EENS_12memory_orderE, symObjAddr: 0xB00C, symBinAddr: 0x10000E4A8, symSize: 0x80 }
  - { offset: 0x343E4, size: 0x8, addend: 0x0, symName: __ZNSt3__117__cxx_atomic_loadB8ue170006IPN6parlay8internal12hazptr_stackIPvE4NodeEEET_PKNS_22__cxx_atomic_base_implIS8_EENS_12memory_orderE, symObjAddr: 0xBFDC, symBinAddr: 0x10000F478, symSize: 0x80 }
  - { offset: 0x353F1, size: 0x8, addend: 0x0, symName: __ZNSt3__117__cxx_atomic_loadB8ue170006IPN6parlay8internal13UninitializedINS2_24intrusive_acquire_retireINS2_12hazptr_stackIPSt4byteE4NodeENS_14default_deleteIS9_EELm1EE10ThreadDataEEEEET_PKNS_22__cxx_atomic_base_implISG_EENS_12memory_orderE, symObjAddr: 0xEA98, symBinAddr: 0x100011F34, symSize: 0x80 }
  - { offset: 0x363FE, size: 0x8, addend: 0x0, symName: __ZNSt3__117__cxx_atomic_loadB8ue170006IPN6parlay8internal13UninitializedINS2_24intrusive_acquire_retireINS2_12hazptr_stackIPNS2_15block_allocator5blockEE4NodeENS_14default_deleteISA_EELm1EE10ThreadDataEEEEET_PKNS_22__cxx_atomic_base_implISH_EENS_12memory_orderE, symObjAddr: 0x11A0C, symBinAddr: 0x100014EA8, symSize: 0x80 }
  - { offset: 0x3740B, size: 0x8, addend: 0x0, symName: __ZNSt3__117__cxx_atomic_loadB8ue170006IPN6parlay8internal13UninitializedINS2_15block_allocator10local_listEEEEET_PKNS_22__cxx_atomic_base_implIS8_EENS_12memory_orderE, symObjAddr: 0x14674, symBinAddr: 0x100017B10, symSize: 0x80 }
  - { offset: 0x37469, size: 0x8, addend: 0x0, symName: __ZNSt3__117__cxx_atomic_loadB8ue170006IPN6parlay8internal12hazptr_stackIPNS2_15block_allocator5blockEE4NodeEEET_PKNS_22__cxx_atomic_base_implISA_EENS_12memory_orderE, symObjAddr: 0x14A78, symBinAddr: 0x100017F14, symSize: 0x80 }
  - { offset: 0x374C7, size: 0x8, addend: 0x0, symName: __ZNSt3__117__cxx_atomic_loadB8ue170006IPN6parlay8internal12hazptr_stackIPSt4byteE4NodeEEET_PKNS_22__cxx_atomic_base_implIS9_EENS_12memory_orderE, symObjAddr: 0x14BB0, symBinAddr: 0x10001804C, symSize: 0x80 }
  - { offset: 0x3F3C4, size: 0x8, addend: 0x0, symName: __ZNSt3__117__cxx_atomic_loadB8ue170006IiEET_PKNS_22__cxx_atomic_base_implIS1_EENS_12memory_orderE, symObjAddr: 0x26A3C, symBinAddr: 0x100029ED8, symSize: 0x80 }
  - { offset: 0x3F422, size: 0x8, addend: 0x0, symName: __ZNSt3__117__cxx_atomic_loadB8ue170006IjEET_PKNS_22__cxx_atomic_base_implIS1_EENS_12memory_orderE, symObjAddr: 0x26FB0, symBinAddr: 0x10002A44C, symSize: 0x80 }
  - { offset: 0x3F480, size: 0x8, addend: 0x0, symName: __ZNSt3__117__cxx_atomic_loadB8ue170006IPN6parlay15WorkStealingJobEEET_PKNS_22__cxx_atomic_base_implIS4_EENS_12memory_orderE, symObjAddr: 0x270B4, symBinAddr: 0x10002A550, symSize: 0x80 }
  - { offset: 0x3F4DE, size: 0x8, addend: 0x0, symName: __ZNSt3__117__cxx_atomic_loadB8ue170006IN6parlay8internal5DequeINS1_15WorkStealingJobEE5age_tEEET_PKNS_22__cxx_atomic_base_implIS7_EENS_12memory_orderE, symObjAddr: 0x27134, symBinAddr: 0x10002A5D0, symSize: 0x88 }
  - { offset: 0x3F5FB, size: 0x8, addend: 0x0, symName: __ZNSt3__117__cxx_atomic_loadB8ue170006IbEET_PKNS_22__cxx_atomic_base_implIS1_EENS_12memory_orderE, symObjAddr: 0x28134, symBinAddr: 0x10002B5D0, symSize: 0x84 }
  - { offset: 0x4138B, size: 0x8, addend: 0x0, symName: __ZNSt3__124__put_character_sequenceB8ue170006IcNS_11char_traitsIcEEEERNS_13basic_ostreamIT_T0_EES7_PKS4_m, symObjAddr: 0x40BB0, symBinAddr: 0x10004404C, symSize: 0x1E0 }
  - { offset: 0x4547E, size: 0x8, addend: 0x0, symName: __ZNSt3__117__cxx_atomic_loadB8ue170006IsEET_PKNS_22__cxx_atomic_base_implIS1_EENS_12memory_orderE, symObjAddr: 0x60DF8, symBinAddr: 0x100064294, symSize: 0x80 }
  - { offset: 0x4654C, size: 0x8, addend: 0x0, symName: __ZNSt3__1lsB8ue170006INS_11char_traitsIcEEEERNS_13basic_ostreamIcT_EES6_PKc, symObjAddr: 0x1280, symBinAddr: 0x10000471C, symSize: 0x48 }
  - { offset: 0x46592, size: 0x8, addend: 0x0, symName: __ZNSt3__14endlB8ue170006IcNS_11char_traitsIcEEEERNS_13basic_ostreamIT_T0_EES7_, symObjAddr: 0x14A0, symBinAddr: 0x10000493C, symSize: 0x58 }
  - { offset: 0x465D2, size: 0x8, addend: 0x0, symName: __ZNSt3__13maxB8ue170006ImEERKT_S3_S3_, symObjAddr: 0x21D0, symBinAddr: 0x10000566C, symSize: 0x2C }
  - { offset: 0x466F5, size: 0x8, addend: 0x0, symName: __ZNSt3__118__constexpr_strlenB8ue170006EPKc, symObjAddr: 0x2AF8, symBinAddr: 0x100005F94, symSize: 0x24 }
  - { offset: 0x46740, size: 0x8, addend: 0x0, symName: __ZNSt3__112__to_addressB8ue170006ImEEPT_S2_, symObjAddr: 0x37CC, symBinAddr: 0x100006C68, symSize: 0x14 }
  - { offset: 0x46775, size: 0x8, addend: 0x0, symName: __ZNSt3__13minB8ue170006ImEERKT_S3_S3_, symObjAddr: 0x3BE8, symBinAddr: 0x100007084, symSize: 0x2C }
  - { offset: 0x469C3, size: 0x8, addend: 0x0, symName: __ZNSt3__13minB8ue170006ImNS_6__lessIvvEEEERKT_S5_S5_T0_, symObjAddr: 0x3C74, symBinAddr: 0x100007110, symSize: 0x54 }
  - { offset: 0x46A65, size: 0x8, addend: 0x0, symName: __ZNSt3__120__throw_length_errorB8ue170006EPKc, symObjAddr: 0x3D50, symBinAddr: 0x1000071EC, symSize: 0x64 }
  - { offset: 0x46A8F, size: 0x8, addend: 0x0, symName: __ZNSt3__119__allocate_at_leastB8ue170006INS_9allocatorImEEEENS_19__allocation_resultINS_16allocator_traitsIT_E7pointerEEERS5_m, symObjAddr: 0x3F9C, symBinAddr: 0x100007438, symSize: 0x40 }
  - { offset: 0x46AD2, size: 0x8, addend: 0x0, symName: __ZNSt3__117__libcpp_allocateB8ue170006Emm, symObjAddr: 0x4120, symBinAddr: 0x1000075BC, symSize: 0x60 }
  - { offset: 0x46B2D, size: 0x8, addend: 0x0, symName: __ZNSt3__124__is_overaligned_for_newB8ue170006Em, symObjAddr: 0x4180, symBinAddr: 0x10000761C, symSize: 0x20 }
  - { offset: 0x46B5B, size: 0x8, addend: 0x0, symName: __ZNSt3__121__libcpp_operator_newB8ue170006IJmSt11align_val_tEEEPvDpT_, symObjAddr: 0x41A0, symBinAddr: 0x10000763C, symSize: 0x2C }
  - { offset: 0x46BA8, size: 0x8, addend: 0x0, symName: __ZNSt3__121__libcpp_operator_newB8ue170006IJmEEEPvDpT_, symObjAddr: 0x41CC, symBinAddr: 0x100007668, symSize: 0x24 }
  - { offset: 0x46BE1, size: 0x8, addend: 0x0, symName: __ZNSt3__142__uninitialized_allocator_move_if_noexceptB8ue170006INS_9allocatorImEENS_16reverse_iteratorIPmEES5_mvEET1_RT_T0_S9_S6_, symObjAddr: 0x430C, symBinAddr: 0x1000077A8, symSize: 0x78 }
  - { offset: 0x46C5F, size: 0x8, addend: 0x0, symName: __ZNSt3__14swapB8ue170006IPmEENS_9enable_ifIXaasr21is_move_constructibleIT_EE5valuesr18is_move_assignableIS3_EE5valueEvE4typeERS3_S6_, symObjAddr: 0x43D0, symBinAddr: 0x10000786C, symSize: 0x3C }
  - { offset: 0x46CB0, size: 0x8, addend: 0x0, symName: __ZNSt3__14moveB8ue170006INS_16reverse_iteratorIPmEES3_EET0_T_S5_S4_, symObjAddr: 0x4500, symBinAddr: 0x10000799C, symSize: 0x78 }
  - { offset: 0x46D0A, size: 0x8, addend: 0x0, symName: __ZNSt3__16__moveB8ue170006INS_17_ClassicAlgPolicyENS_16reverse_iteratorIPmEES4_S4_EENS_4pairIT0_T2_EES6_T1_S7_, symObjAddr: 0x4578, symBinAddr: 0x100007A14, symSize: 0x64 }
  - { offset: 0x46D76, size: 0x8, addend: 0x0, symName: __ZNSt3__123__dispatch_copy_or_moveB8ue170006INS_17_ClassicAlgPolicyENS_11__move_loopIS1_EENS_14__move_trivialENS_16reverse_iteratorIPmEES7_S7_EENS_4pairIT2_T4_EES9_T3_SA_, symObjAddr: 0x45DC, symBinAddr: 0x100007A78, symSize: 0x64 }
  - { offset: 0x46DF4, size: 0x8, addend: 0x0, symName: __ZNSt3__121__unwrap_and_dispatchB8ue170006INS_10__overloadINS_11__move_loopINS_17_ClassicAlgPolicyEEENS_14__move_trivialEEENS_16reverse_iteratorIPmEES9_S9_Li0EEENS_4pairIT0_T2_EESB_T1_SC_, symObjAddr: 0x4640, symBinAddr: 0x100007ADC, symSize: 0x12C }
  - { offset: 0x46E84, size: 0x8, addend: 0x0, symName: __ZNSt3__114__unwrap_rangeB8ue170006INS_16reverse_iteratorIPmEES3_EENS_4pairIT0_S5_EET_S7_, symObjAddr: 0x476C, symBinAddr: 0x100007C08, symSize: 0x84 }
  - { offset: 0x47001, size: 0x8, addend: 0x0, symName: __ZNSt3__113__unwrap_iterB8ue170006INS_16reverse_iteratorIPmEENS_18__unwrap_iter_implIS3_Lb0EEELi0EEEDTclsrT0_8__unwrapclsr3stdE7declvalIT_EEEES7_, symObjAddr: 0x4890, symBinAddr: 0x100007D2C, symSize: 0x44 }
  - { offset: 0x47045, size: 0x8, addend: 0x0, symName: __ZNSt3__19make_pairB8ue170006INS_16reverse_iteratorIPmEES3_EENS_4pairINS_18__unwrap_ref_decayIT_E4typeENS5_IT0_E4typeEEEOS6_OS9_, symObjAddr: 0x48D4, symBinAddr: 0x100007D70, symSize: 0x38 }
  - { offset: 0x47094, size: 0x8, addend: 0x0, symName: __ZNSt3__114__rewrap_rangeB8ue170006INS_16reverse_iteratorIPmEES3_EET_S4_T0_, symObjAddr: 0x490C, symBinAddr: 0x100007DA8, symSize: 0x5C }
  - { offset: 0x470E0, size: 0x8, addend: 0x0, symName: __ZNSt3__113__rewrap_iterB8ue170006INS_16reverse_iteratorIPmEES3_NS_18__unwrap_iter_implIS3_Lb0EEEEET_S6_T0_, symObjAddr: 0x4968, symBinAddr: 0x100007E04, symSize: 0x74 }
  - { offset: 0x47135, size: 0x8, addend: 0x0, symName: __ZNSt3__1neB8ue170006IPmS1_EEbRKNS_16reverse_iteratorIT_EERKNS2_IT0_EE, symObjAddr: 0x49DC, symBinAddr: 0x100007E78, symSize: 0x48 }
  - { offset: 0x47235, size: 0x8, addend: 0x0, symName: __ZNSt3__119__libcpp_deallocateB8ue170006EPvmm, symObjAddr: 0x4DD4, symBinAddr: 0x100008270, symSize: 0x60 }
  - { offset: 0x4729A, size: 0x8, addend: 0x0, symName: __ZNSt3__127__do_deallocate_handle_sizeB8ue170006IJSt11align_val_tEEEvPvmDpT_, symObjAddr: 0x4E34, symBinAddr: 0x1000082D0, symSize: 0x30 }
  - { offset: 0x472ED, size: 0x8, addend: 0x0, symName: __ZNSt3__127__do_deallocate_handle_sizeB8ue170006IJEEEvPvmDpT_, symObjAddr: 0x4E64, symBinAddr: 0x100008300, symSize: 0x28 }
  - { offset: 0x4732B, size: 0x8, addend: 0x0, symName: __ZNSt3__124__libcpp_operator_deleteB8ue170006IJPvSt11align_val_tEEEvDpT_, symObjAddr: 0x4E8C, symBinAddr: 0x100008328, symSize: 0x2C }
  - { offset: 0x47374, size: 0x8, addend: 0x0, symName: __ZNSt3__124__libcpp_operator_deleteB8ue170006IJPvEEEvDpT_, symObjAddr: 0x4EB8, symBinAddr: 0x100008354, symSize: 0x24 }
  - { offset: 0x473A9, size: 0x8, addend: 0x0, symName: __ZNSt3__111make_uniqueB8ue170006IA_mEENS_11__unique_ifIT_E28__unique_array_unknown_boundEm, symObjAddr: 0x52CC, symBinAddr: 0x100008768, symSize: 0x68 }
  - { offset: 0x473E0, size: 0x8, addend: 0x0, symName: __ZNSt3__14copyB8ue170006INS_11__wrap_iterIPKmEEPmEET0_T_S7_S6_, symObjAddr: 0x538C, symBinAddr: 0x100008828, symSize: 0x50 }
  - { offset: 0x4743A, size: 0x8, addend: 0x0, symName: __ZNSt3__15beginB8ue170006INS_6vectorImNS_9allocatorImEEEEEEDTcldtfp_5beginEERKT_, symObjAddr: 0x53DC, symBinAddr: 0x100008878, symSize: 0x2C }
  - { offset: 0x4746F, size: 0x8, addend: 0x0, symName: __ZNSt3__13endB8ue170006INS_6vectorImNS_9allocatorImEEEEEEDTcldtfp_3endEERKT_, symObjAddr: 0x5408, symBinAddr: 0x1000088A4, symSize: 0x2C }
  - { offset: 0x474A4, size: 0x8, addend: 0x0, symName: __ZNSt3__111make_uniqueB8ue170006IA_N6parlay8internal12hazptr_stackIPvEEEENS_11__unique_ifIT_E28__unique_array_unknown_boundEm, symObjAddr: 0x5490, symBinAddr: 0x10000892C, symSize: 0x154 }
  - { offset: 0x474DB, size: 0x8, addend: 0x0, symName: __ZNSt3__16__copyB8ue170006INS_17_ClassicAlgPolicyENS_11__wrap_iterIPKmEES5_PmEENS_4pairIT0_T2_EES8_T1_S9_, symObjAddr: 0x5C34, symBinAddr: 0x1000090D0, symSize: 0x54 }
  - { offset: 0x47547, size: 0x8, addend: 0x0, symName: __ZNSt3__123__dispatch_copy_or_moveB8ue170006INS_17_ClassicAlgPolicyENS_11__copy_loopIS1_EENS_14__copy_trivialENS_11__wrap_iterIPKmEES8_PmEENS_4pairIT2_T4_EESB_T3_SC_, symObjAddr: 0x5C88, symBinAddr: 0x100009124, symSize: 0x54 }
  - { offset: 0x475C5, size: 0x8, addend: 0x0, symName: __ZNSt3__121__unwrap_and_dispatchB8ue170006INS_10__overloadINS_11__copy_loopINS_17_ClassicAlgPolicyEEENS_14__copy_trivialEEENS_11__wrap_iterIPKmEESA_PmLi0EEENS_4pairIT0_T2_EESD_T1_SE_, symObjAddr: 0x5CDC, symBinAddr: 0x100009178, symSize: 0xCC }
  - { offset: 0x47653, size: 0x8, addend: 0x0, symName: __ZNSt3__114__unwrap_rangeB8ue170006INS_11__wrap_iterIPKmEES3_EENS_4pairIT0_S6_EET_S8_, symObjAddr: 0x5DA8, symBinAddr: 0x100009244, symSize: 0x70 }
  - { offset: 0x477BA, size: 0x8, addend: 0x0, symName: __ZNSt3__113__unwrap_iterB8ue170006IPmNS_18__unwrap_iter_implIS1_Lb1EEELi0EEEDTclsrT0_8__unwrapclsr3stdE7declvalIT_EEEES5_, symObjAddr: 0x5E60, symBinAddr: 0x1000092FC, symSize: 0x24 }
  - { offset: 0x477FE, size: 0x8, addend: 0x0, symName: __ZNSt3__19make_pairB8ue170006INS_11__wrap_iterIPKmEEPmEENS_4pairINS_18__unwrap_ref_decayIT_E4typeENS7_IT0_E4typeEEEOS8_OSB_, symObjAddr: 0x5E84, symBinAddr: 0x100009320, symSize: 0x38 }
  - { offset: 0x4784D, size: 0x8, addend: 0x0, symName: __ZNSt3__114__rewrap_rangeB8ue170006INS_11__wrap_iterIPKmEES3_EET_S5_T0_, symObjAddr: 0x5EBC, symBinAddr: 0x100009358, symSize: 0x3C }
  - { offset: 0x47899, size: 0x8, addend: 0x0, symName: __ZNSt3__113__rewrap_iterB8ue170006IPmS1_NS_18__unwrap_iter_implIS1_Lb1EEEEET_S4_T0_, symObjAddr: 0x5EF8, symBinAddr: 0x100009394, symSize: 0x3C }
  - { offset: 0x478EE, size: 0x8, addend: 0x0, symName: __ZNSt3__19make_pairB8ue170006IPKmS2_EENS_4pairINS_18__unwrap_ref_decayIT_E4typeENS4_IT0_E4typeEEEOS5_OS8_, symObjAddr: 0x5F34, symBinAddr: 0x1000093D0, symSize: 0x38 }
  - { offset: 0x4793D, size: 0x8, addend: 0x0, symName: __ZNSt3__113__unwrap_iterB8ue170006INS_11__wrap_iterIPKmEENS_18__unwrap_iter_implIS4_Lb1EEELi0EEEDTclsrT0_8__unwrapclsr3stdE7declvalIT_EEEES8_, symObjAddr: 0x5F6C, symBinAddr: 0x100009408, symSize: 0x2C }
  - { offset: 0x47AAA, size: 0x8, addend: 0x0, symName: __ZNSt3__112__to_addressB8ue170006INS_11__wrap_iterIPKmEEvEEu7__decayIDTclsr19__to_address_helperIT_EE6__callclsr3stdE7declvalIRKS5_EEEEES7_, symObjAddr: 0x6030, symBinAddr: 0x1000094CC, symSize: 0x24 }
  - { offset: 0x47B87, size: 0x8, addend: 0x0, symName: __ZNSt3__112__to_addressB8ue170006IKmEEPT_S3_, symObjAddr: 0x60B0, symBinAddr: 0x10000954C, symSize: 0x14 }
  - { offset: 0x47BBC, size: 0x8, addend: 0x0, symName: __ZNSt3__119__copy_trivial_implB8ue170006IKmmEENS_4pairIPT_PT0_EES4_S4_S6_, symObjAddr: 0x60DC, symBinAddr: 0x100009578, symSize: 0x80 }
  - { offset: 0x47C24, size: 0x8, addend: 0x0, symName: __ZNSt3__119__constexpr_memmoveB8ue170006ImKmLi0EEEPT_S3_PT0_NS_15__element_countE, symObjAddr: 0x615C, symBinAddr: 0x1000095F8, symSize: 0x64 }
  - { offset: 0x47C92, size: 0x8, addend: 0x0, symName: __ZNSt3__19make_pairB8ue170006IRPKmPmEENS_4pairINS_18__unwrap_ref_decayIT_E4typeENS6_IT0_E4typeEEEOS7_OSA_, symObjAddr: 0x61C0, symBinAddr: 0x10000965C, symSize: 0x38 }
  - { offset: 0x47E0A, size: 0x8, addend: 0x0, symName: __ZNSt3__113__rewrap_iterB8ue170006INS_11__wrap_iterIPKmEES3_NS_18__unwrap_iter_implIS4_Lb1EEEEET_S7_T0_, symObjAddr: 0x62FC, symBinAddr: 0x100009798, symSize: 0x4C }
  - { offset: 0x47FC2, size: 0x8, addend: 0x0, symName: __ZNSt3__116forward_as_tupleB8ue170006IJZN6parlay14ThreadSpecificINS1_8internal24intrusive_acquire_retireINS3_12hazptr_stackIPvE4NodeENS_14default_deleteIS8_EELm1EE10ThreadDataEEC1EvEUlmE_EEENS_5tupleIJDpOT_EEESI_, symObjAddr: 0x7298, symBinAddr: 0x10000A734, symSize: 0x2C }
  - { offset: 0x47FFB, size: 0x8, addend: 0x0, symName: __ZNSt3__116forward_as_tupleB8ue170006IJNS_9allocatorIZN6parlay14ThreadSpecificINS2_8internal24intrusive_acquire_retireINS4_12hazptr_stackIPvE4NodeENS_14default_deleteIS9_EELm1EE10ThreadDataEEC1EvEUlmE_EEEEENS_5tupleIJDpOT_EEESK_, symObjAddr: 0x72C4, symBinAddr: 0x10000A760, symSize: 0x2C }
  - { offset: 0x48079, size: 0x8, addend: 0x0, symName: __ZNSt3__13getB8ue170006ILm0EJOZN6parlay14ThreadSpecificINS1_8internal24intrusive_acquire_retireINS3_12hazptr_stackIPvE4NodeENS_14default_deleteIS8_EELm1EE10ThreadDataEEC1EvEUlmE_EEERNS_13tuple_elementIXT_ENS_5tupleIJDpT0_EEEE4typeERSK_, symObjAddr: 0x75D0, symBinAddr: 0x10000AA6C, symSize: 0x24 }
  - { offset: 0x480BB, size: 0x8, addend: 0x0, symName: __ZNSt3__13getB8ue170006ILm0EJONS_9allocatorIZN6parlay14ThreadSpecificINS2_8internal24intrusive_acquire_retireINS4_12hazptr_stackIPvE4NodeENS_14default_deleteIS9_EELm1EE10ThreadDataEEC1EvEUlmE_EEEEERNS_13tuple_elementIXT_ENS_5tupleIJDpT0_EEEE4typeERSM_, symObjAddr: 0x760C, symBinAddr: 0x10000AAA8, symSize: 0x24 }
  - { offset: 0x485E8, size: 0x8, addend: 0x0, symName: __ZNSt3__116forward_as_tupleB8ue170006IJRKZN6parlay14ThreadSpecificINS1_8internal24intrusive_acquire_retireINS3_12hazptr_stackIPvE4NodeENS_14default_deleteIS8_EELm1EE10ThreadDataEEC1EvEUlmE_EEENS_5tupleIJDpOT_EEESK_, symObjAddr: 0x7B98, symBinAddr: 0x10000B034, symSize: 0x2C }
  - { offset: 0x48636, size: 0x8, addend: 0x0, symName: __ZNSt3__13getB8ue170006ILm0EJRKZN6parlay14ThreadSpecificINS1_8internal24intrusive_acquire_retireINS3_12hazptr_stackIPvE4NodeENS_14default_deleteIS8_EELm1EE10ThreadDataEEC1EvEUlmE_EEERNS_13tuple_elementIXT_ENS_5tupleIJDpT0_EEEE4typeERSL_, symObjAddr: 0x7D7C, symBinAddr: 0x10000B218, symSize: 0x24 }
  - { offset: 0x48678, size: 0x8, addend: 0x0, symName: __ZNSt3__116forward_as_tupleB8ue170006IJRKNS_9allocatorIZN6parlay14ThreadSpecificINS2_8internal24intrusive_acquire_retireINS4_12hazptr_stackIPvE4NodeENS_14default_deleteIS9_EELm1EE10ThreadDataEEC1EvEUlmE_EEEEENS_5tupleIJDpOT_EEESM_, symObjAddr: 0x80D0, symBinAddr: 0x10000B56C, symSize: 0x2C }
  - { offset: 0x486C6, size: 0x8, addend: 0x0, symName: __ZNSt3__13getB8ue170006ILm0EJRKNS_9allocatorIZN6parlay14ThreadSpecificINS2_8internal24intrusive_acquire_retireINS4_12hazptr_stackIPvE4NodeENS_14default_deleteIS9_EELm1EE10ThreadDataEEC1EvEUlmE_EEEEERNS_13tuple_elementIXT_ENS_5tupleIJDpT0_EEEE4typeERSN_, symObjAddr: 0x82B4, symBinAddr: 0x10000B750, symSize: 0x24 }
  - { offset: 0x4874E, size: 0x8, addend: 0x0, symName: __ZNSt3__18__invokeB8ue170006IRZN6parlay14ThreadSpecificINS1_8internal24intrusive_acquire_retireINS3_12hazptr_stackIPvE4NodeENS_14default_deleteIS8_EELm1EE10ThreadDataEEC1EvEUlmE_JjEEEDTclclsr3stdE7declvalIT_EEspclsr3stdE7declvalIT0_EEEEOSG_DpOSH_, symObjAddr: 0x8394, symBinAddr: 0x10000B830, symSize: 0x3C }
  - { offset: 0x4879F, size: 0x8, addend: 0x0, symName: __ZNSt3__14fillB8ue170006IPNS_6atomicIPN6parlay8internal13UninitializedINS3_24intrusive_acquire_retireINS3_12hazptr_stackIPvE4NodeENS_14default_deleteIS9_EELm1EE10ThreadDataEEEEEDnEEvT_SI_RKT0_, symObjAddr: 0x86B8, symBinAddr: 0x10000BB54, symSize: 0x34 }
  - { offset: 0x487F5, size: 0x8, addend: 0x0, symName: __ZNSt3__111make_sharedB8ue170006IN6parlay8internal12ThreadIdPoolEJNS3_19private_constructorEEvEENS_10shared_ptrIT_EEDpOT0_, symObjAddr: 0x89B8, symBinAddr: 0x10000BE54, symSize: 0x40 }
  - { offset: 0x48839, size: 0x8, addend: 0x0, symName: __ZNSt3__115allocate_sharedB8ue170006IN6parlay8internal12ThreadIdPoolENS_9allocatorIS3_EEJNS3_19private_constructorEEvEENS_10shared_ptrIT_EERKT0_DpOT1_, symObjAddr: 0x8A3C, symBinAddr: 0x10000BED8, symSize: 0x98 }
  - { offset: 0x48BB3, size: 0x8, addend: 0x0, symName: __ZNSt3__18exchangeB8ue170006IPN6parlay8internal12ThreadIdPool8ThreadIdERS5_EET_RS7_OT0_, symObjAddr: 0x94CC, symBinAddr: 0x10000C968, symSize: 0x34 }
  - { offset: 0x48C65, size: 0x8, addend: 0x0, symName: __ZNSt3__121__libcpp_relaxed_loadB8ue170006IlEET_PKS1_, symObjAddr: 0x99A4, symBinAddr: 0x10000CE40, symSize: 0x20 }
  - { offset: 0x48C9A, size: 0x8, addend: 0x0, symName: __ZNSt3__134__libcpp_atomic_refcount_incrementB8ue170006IlEET_RS1_, symObjAddr: 0x9A80, symBinAddr: 0x10000CF1C, symSize: 0x30 }
  - { offset: 0x48CF4, size: 0x8, addend: 0x0, symName: __ZNSt3__14swapB8ue170006IPN6parlay8internal12ThreadIdPoolEEENS_9enable_ifIXaasr21is_move_constructibleIT_EE5valuesr18is_move_assignableIS6_EE5valueEvE4typeERS6_S9_, symObjAddr: 0x9BCC, symBinAddr: 0x10000D068, symSize: 0x3C }
  - { offset: 0x48D45, size: 0x8, addend: 0x0, symName: __ZNSt3__14swapB8ue170006IPNS_19__shared_weak_countEEENS_9enable_ifIXaasr21is_move_constructibleIT_EE5valuesr18is_move_assignableIS4_EE5valueEvE4typeERS4_S7_, symObjAddr: 0x9C08, symBinAddr: 0x10000D0A4, symSize: 0x3C }
  - { offset: 0x48D96, size: 0x8, addend: 0x0, symName: __ZNSt3__134__libcpp_atomic_refcount_decrementB8ue170006IlEET_RS1_, symObjAddr: 0x9E58, symBinAddr: 0x10000D2F4, symSize: 0x30 }
  - { offset: 0x48DCC, size: 0x8, addend: 0x0, symName: __ZNSt3__120__throw_bad_weak_ptrB8ue170006Ev, symObjAddr: 0xA1E8, symBinAddr: 0x10000D684, symSize: 0x38 }
  - { offset: 0x48EE2, size: 0x8, addend: 0x0, symName: __ZNSt3__134__cxx_atomic_compare_exchange_weakB8ue170006IPN6parlay8internal12ThreadIdPool8ThreadIdEEEbPNS_22__cxx_atomic_base_implIT_EEPS7_S7_NS_12memory_orderESB_, symObjAddr: 0xA3F8, symBinAddr: 0x10000D894, symSize: 0x648 }
  - { offset: 0x48F56, size: 0x8, addend: 0x0, symName: __ZNSt3__118__to_failure_orderB8ue170006ENS_12memory_orderE, symObjAddr: 0xAA54, symBinAddr: 0x10000DEF0, symSize: 0x6C }
  - { offset: 0x48F85, size: 0x8, addend: 0x0, symName: __ZNSt3__122__cxx_atomic_fetch_addB8ue170006ImEET_PNS_22__cxx_atomic_base_implIS1_EES1_NS_12memory_orderE, symObjAddr: 0xAAF0, symBinAddr: 0x10000DF8C, symSize: 0xC8 }
  - { offset: 0x48FDA, size: 0x8, addend: 0x0, symName: __ZNSt3__118__cxx_atomic_storeB8ue170006IPN6parlay8internal13UninitializedINS2_24intrusive_acquire_retireINS2_12hazptr_stackIPvE4NodeENS_14default_deleteIS8_EELm1EE10ThreadDataEEEEEvPNS_22__cxx_atomic_base_implIT_EESG_NS_12memory_orderE, symObjAddr: 0xAE24, symBinAddr: 0x10000E2C0, symSize: 0x84 }
  - { offset: 0x4902B, size: 0x8, addend: 0x0, symName: __ZNSt3__16__fillB8ue170006IPNS_6atomicIPN6parlay8internal13UninitializedINS3_24intrusive_acquire_retireINS3_12hazptr_stackIPvE4NodeENS_14default_deleteIS9_EELm1EE10ThreadDataEEEEEDnEEvT_SI_RKT0_NS_26random_access_iterator_tagE, symObjAddr: 0xAEBC, symBinAddr: 0x10000E358, symSize: 0x44 }
  - { offset: 0x4908B, size: 0x8, addend: 0x0, symName: __ZNSt3__16fill_nB8ue170006IPNS_6atomicIPN6parlay8internal13UninitializedINS3_24intrusive_acquire_retireINS3_12hazptr_stackIPvE4NodeENS_14default_deleteIS9_EELm1EE10ThreadDataEEEEElDnEET_SI_T0_RKT1_, symObjAddr: 0xAF00, symBinAddr: 0x10000E39C, symSize: 0x44 }
  - { offset: 0x490EE, size: 0x8, addend: 0x0, symName: __ZNSt3__18__fill_nB8ue170006IPNS_6atomicIPN6parlay8internal13UninitializedINS3_24intrusive_acquire_retireINS3_12hazptr_stackIPvE4NodeENS_14default_deleteIS9_EELm1EE10ThreadDataEEEEElDnEET_SI_T0_RKT1_, symObjAddr: 0xAF44, symBinAddr: 0x10000E3E0, symSize: 0x6C }
  - { offset: 0x49151, size: 0x8, addend: 0x0, symName: __ZNSt3__121__convert_to_integralB8ue170006El, symObjAddr: 0xAFB0, symBinAddr: 0x10000E44C, symSize: 0x14 }
  - { offset: 0x4917E, size: 0x8, addend: 0x0, symName: __ZNSt3__125__throw_bad_function_callB8ue170006Ev, symObjAddr: 0xB0F0, symBinAddr: 0x10000E58C, symSize: 0x38 }
  - { offset: 0x491D0, size: 0x8, addend: 0x0, symName: __ZNSt3__18exchangeB8ue170006IPN6parlay8internal12hazptr_stackIPvE4NodeES7_EET_RS8_OT0_, symObjAddr: 0xBBC0, symBinAddr: 0x10000F05C, symSize: 0x34 }
  - { offset: 0x493AB, size: 0x8, addend: 0x0, symName: __ZNSt3__116forward_as_tupleB8ue170006IJZN6parlay14ThreadSpecificINS1_8internal24intrusive_acquire_retireINS3_12hazptr_stackIPSt4byteE4NodeENS_14default_deleteIS9_EELm1EE10ThreadDataEEC1EvEUlmE_EEENS_5tupleIJDpOT_EEESJ_, symObjAddr: 0xD560, symBinAddr: 0x1000109FC, symSize: 0x2C }
  - { offset: 0x493E4, size: 0x8, addend: 0x0, symName: __ZNSt3__116forward_as_tupleB8ue170006IJNS_9allocatorIZN6parlay14ThreadSpecificINS2_8internal24intrusive_acquire_retireINS4_12hazptr_stackIPSt4byteE4NodeENS_14default_deleteISA_EELm1EE10ThreadDataEEC1EvEUlmE_EEEEENS_5tupleIJDpOT_EEESL_, symObjAddr: 0xD58C, symBinAddr: 0x100010A28, symSize: 0x2C }
  - { offset: 0x49447, size: 0x8, addend: 0x0, symName: __ZNSt3__13getB8ue170006ILm0EJOZN6parlay14ThreadSpecificINS1_8internal24intrusive_acquire_retireINS3_12hazptr_stackIPSt4byteE4NodeENS_14default_deleteIS9_EELm1EE10ThreadDataEEC1EvEUlmE_EEERNS_13tuple_elementIXT_ENS_5tupleIJDpT0_EEEE4typeERSL_, symObjAddr: 0xD898, symBinAddr: 0x100010D34, symSize: 0x24 }
  - { offset: 0x49489, size: 0x8, addend: 0x0, symName: __ZNSt3__13getB8ue170006ILm0EJONS_9allocatorIZN6parlay14ThreadSpecificINS2_8internal24intrusive_acquire_retireINS4_12hazptr_stackIPSt4byteE4NodeENS_14default_deleteISA_EELm1EE10ThreadDataEEC1EvEUlmE_EEEEERNS_13tuple_elementIXT_ENS_5tupleIJDpT0_EEEE4typeERSN_, symObjAddr: 0xD8D4, symBinAddr: 0x100010D70, symSize: 0x24 }
  - { offset: 0x499B6, size: 0x8, addend: 0x0, symName: __ZNSt3__116forward_as_tupleB8ue170006IJRKZN6parlay14ThreadSpecificINS1_8internal24intrusive_acquire_retireINS3_12hazptr_stackIPSt4byteE4NodeENS_14default_deleteIS9_EELm1EE10ThreadDataEEC1EvEUlmE_EEENS_5tupleIJDpOT_EEESL_, symObjAddr: 0xDE60, symBinAddr: 0x1000112FC, symSize: 0x2C }
  - { offset: 0x49A04, size: 0x8, addend: 0x0, symName: __ZNSt3__13getB8ue170006ILm0EJRKZN6parlay14ThreadSpecificINS1_8internal24intrusive_acquire_retireINS3_12hazptr_stackIPSt4byteE4NodeENS_14default_deleteIS9_EELm1EE10ThreadDataEEC1EvEUlmE_EEERNS_13tuple_elementIXT_ENS_5tupleIJDpT0_EEEE4typeERSM_, symObjAddr: 0xE044, symBinAddr: 0x1000114E0, symSize: 0x24 }
  - { offset: 0x49A46, size: 0x8, addend: 0x0, symName: __ZNSt3__116forward_as_tupleB8ue170006IJRKNS_9allocatorIZN6parlay14ThreadSpecificINS2_8internal24intrusive_acquire_retireINS4_12hazptr_stackIPSt4byteE4NodeENS_14default_deleteISA_EELm1EE10ThreadDataEEC1EvEUlmE_EEEEENS_5tupleIJDpOT_EEESN_, symObjAddr: 0xE398, symBinAddr: 0x100011834, symSize: 0x2C }
  - { offset: 0x49A94, size: 0x8, addend: 0x0, symName: __ZNSt3__13getB8ue170006ILm0EJRKNS_9allocatorIZN6parlay14ThreadSpecificINS2_8internal24intrusive_acquire_retireINS4_12hazptr_stackIPSt4byteE4NodeENS_14default_deleteISA_EELm1EE10ThreadDataEEC1EvEUlmE_EEEEERNS_13tuple_elementIXT_ENS_5tupleIJDpT0_EEEE4typeERSO_, symObjAddr: 0xE57C, symBinAddr: 0x100011A18, symSize: 0x24 }
  - { offset: 0x49B1C, size: 0x8, addend: 0x0, symName: __ZNSt3__18__invokeB8ue170006IRZN6parlay14ThreadSpecificINS1_8internal24intrusive_acquire_retireINS3_12hazptr_stackIPSt4byteE4NodeENS_14default_deleteIS9_EELm1EE10ThreadDataEEC1EvEUlmE_JjEEEDTclclsr3stdE7declvalIT_EEspclsr3stdE7declvalIT0_EEEEOSH_DpOSI_, symObjAddr: 0xE65C, symBinAddr: 0x100011AF8, symSize: 0x3C }
  - { offset: 0x49B6D, size: 0x8, addend: 0x0, symName: __ZNSt3__14fillB8ue170006IPNS_6atomicIPN6parlay8internal13UninitializedINS3_24intrusive_acquire_retireINS3_12hazptr_stackIPSt4byteE4NodeENS_14default_deleteISA_EELm1EE10ThreadDataEEEEEDnEEvT_SJ_RKT0_, symObjAddr: 0xE7CC, symBinAddr: 0x100011C68, symSize: 0x34 }
  - { offset: 0x49BC3, size: 0x8, addend: 0x0, symName: __ZNSt3__118__cxx_atomic_storeB8ue170006IPN6parlay8internal13UninitializedINS2_24intrusive_acquire_retireINS2_12hazptr_stackIPSt4byteE4NodeENS_14default_deleteIS9_EELm1EE10ThreadDataEEEEEvPNS_22__cxx_atomic_base_implIT_EESH_NS_12memory_orderE, symObjAddr: 0xE8C4, symBinAddr: 0x100011D60, symSize: 0x84 }
  - { offset: 0x49C14, size: 0x8, addend: 0x0, symName: __ZNSt3__16__fillB8ue170006IPNS_6atomicIPN6parlay8internal13UninitializedINS3_24intrusive_acquire_retireINS3_12hazptr_stackIPSt4byteE4NodeENS_14default_deleteISA_EELm1EE10ThreadDataEEEEEDnEEvT_SJ_RKT0_NS_26random_access_iterator_tagE, symObjAddr: 0xE95C, symBinAddr: 0x100011DF8, symSize: 0x44 }
  - { offset: 0x49C74, size: 0x8, addend: 0x0, symName: __ZNSt3__16fill_nB8ue170006IPNS_6atomicIPN6parlay8internal13UninitializedINS3_24intrusive_acquire_retireINS3_12hazptr_stackIPSt4byteE4NodeENS_14default_deleteISA_EELm1EE10ThreadDataEEEEElDnEET_SJ_T0_RKT1_, symObjAddr: 0xE9A0, symBinAddr: 0x100011E3C, symSize: 0x44 }
  - { offset: 0x49CD7, size: 0x8, addend: 0x0, symName: __ZNSt3__18__fill_nB8ue170006IPNS_6atomicIPN6parlay8internal13UninitializedINS3_24intrusive_acquire_retireINS3_12hazptr_stackIPSt4byteE4NodeENS_14default_deleteISA_EELm1EE10ThreadDataEEEEElDnEET_SJ_T0_RKT1_, symObjAddr: 0xE9E4, symBinAddr: 0x100011E80, symSize: 0x6C }
  - { offset: 0x49D3A, size: 0x8, addend: 0x0, symName: __ZNSt3__18exchangeB8ue170006IPN6parlay8internal12hazptr_stackIPSt4byteE4NodeES8_EET_RS9_OT0_, symObjAddr: 0xF4F0, symBinAddr: 0x10001298C, symSize: 0x34 }
  - { offset: 0x49EF7, size: 0x8, addend: 0x0, symName: __ZNSt3__116forward_as_tupleB8ue170006IJZN6parlay14ThreadSpecificINS1_8internal24intrusive_acquire_retireINS3_12hazptr_stackIPNS3_15block_allocator5blockEE4NodeENS_14default_deleteISA_EELm1EE10ThreadDataEEC1EvEUlmE_EEENS_5tupleIJDpOT_EEESK_, symObjAddr: 0x104D4, symBinAddr: 0x100013970, symSize: 0x2C }
  - { offset: 0x49F30, size: 0x8, addend: 0x0, symName: __ZNSt3__116forward_as_tupleB8ue170006IJNS_9allocatorIZN6parlay14ThreadSpecificINS2_8internal24intrusive_acquire_retireINS4_12hazptr_stackIPNS4_15block_allocator5blockEE4NodeENS_14default_deleteISB_EELm1EE10ThreadDataEEC1EvEUlmE_EEEEENS_5tupleIJDpOT_EEESM_, symObjAddr: 0x10500, symBinAddr: 0x10001399C, symSize: 0x2C }
  - { offset: 0x49F93, size: 0x8, addend: 0x0, symName: __ZNSt3__13getB8ue170006ILm0EJOZN6parlay14ThreadSpecificINS1_8internal24intrusive_acquire_retireINS3_12hazptr_stackIPNS3_15block_allocator5blockEE4NodeENS_14default_deleteISA_EELm1EE10ThreadDataEEC1EvEUlmE_EEERNS_13tuple_elementIXT_ENS_5tupleIJDpT0_EEEE4typeERSM_, symObjAddr: 0x1080C, symBinAddr: 0x100013CA8, symSize: 0x24 }
  - { offset: 0x49FD5, size: 0x8, addend: 0x0, symName: __ZNSt3__13getB8ue170006ILm0EJONS_9allocatorIZN6parlay14ThreadSpecificINS2_8internal24intrusive_acquire_retireINS4_12hazptr_stackIPNS4_15block_allocator5blockEE4NodeENS_14default_deleteISB_EELm1EE10ThreadDataEEC1EvEUlmE_EEEEERNS_13tuple_elementIXT_ENS_5tupleIJDpT0_EEEE4typeERSO_, symObjAddr: 0x10848, symBinAddr: 0x100013CE4, symSize: 0x24 }
  - { offset: 0x4A502, size: 0x8, addend: 0x0, symName: __ZNSt3__116forward_as_tupleB8ue170006IJRKZN6parlay14ThreadSpecificINS1_8internal24intrusive_acquire_retireINS3_12hazptr_stackIPNS3_15block_allocator5blockEE4NodeENS_14default_deleteISA_EELm1EE10ThreadDataEEC1EvEUlmE_EEENS_5tupleIJDpOT_EEESM_, symObjAddr: 0x10DD4, symBinAddr: 0x100014270, symSize: 0x2C }
  - { offset: 0x4A550, size: 0x8, addend: 0x0, symName: __ZNSt3__13getB8ue170006ILm0EJRKZN6parlay14ThreadSpecificINS1_8internal24intrusive_acquire_retireINS3_12hazptr_stackIPNS3_15block_allocator5blockEE4NodeENS_14default_deleteISA_EELm1EE10ThreadDataEEC1EvEUlmE_EEERNS_13tuple_elementIXT_ENS_5tupleIJDpT0_EEEE4typeERSN_, symObjAddr: 0x10FB8, symBinAddr: 0x100014454, symSize: 0x24 }
  - { offset: 0x4A592, size: 0x8, addend: 0x0, symName: __ZNSt3__116forward_as_tupleB8ue170006IJRKNS_9allocatorIZN6parlay14ThreadSpecificINS2_8internal24intrusive_acquire_retireINS4_12hazptr_stackIPNS4_15block_allocator5blockEE4NodeENS_14default_deleteISB_EELm1EE10ThreadDataEEC1EvEUlmE_EEEEENS_5tupleIJDpOT_EEESO_, symObjAddr: 0x1130C, symBinAddr: 0x1000147A8, symSize: 0x2C }
  - { offset: 0x4A5E0, size: 0x8, addend: 0x0, symName: __ZNSt3__13getB8ue170006ILm0EJRKNS_9allocatorIZN6parlay14ThreadSpecificINS2_8internal24intrusive_acquire_retireINS4_12hazptr_stackIPNS4_15block_allocator5blockEE4NodeENS_14default_deleteISB_EELm1EE10ThreadDataEEC1EvEUlmE_EEEEERNS_13tuple_elementIXT_ENS_5tupleIJDpT0_EEEE4typeERSP_, symObjAddr: 0x114F0, symBinAddr: 0x10001498C, symSize: 0x24 }
  - { offset: 0x4A668, size: 0x8, addend: 0x0, symName: __ZNSt3__18__invokeB8ue170006IRZN6parlay14ThreadSpecificINS1_8internal24intrusive_acquire_retireINS3_12hazptr_stackIPNS3_15block_allocator5blockEE4NodeENS_14default_deleteISA_EELm1EE10ThreadDataEEC1EvEUlmE_JjEEEDTclclsr3stdE7declvalIT_EEspclsr3stdE7declvalIT0_EEEEOSI_DpOSJ_, symObjAddr: 0x115D0, symBinAddr: 0x100014A6C, symSize: 0x3C }
  - { offset: 0x4A6B9, size: 0x8, addend: 0x0, symName: __ZNSt3__14fillB8ue170006IPNS_6atomicIPN6parlay8internal13UninitializedINS3_24intrusive_acquire_retireINS3_12hazptr_stackIPNS3_15block_allocator5blockEE4NodeENS_14default_deleteISB_EELm1EE10ThreadDataEEEEEDnEEvT_SK_RKT0_, symObjAddr: 0x11740, symBinAddr: 0x100014BDC, symSize: 0x34 }
  - { offset: 0x4A70F, size: 0x8, addend: 0x0, symName: __ZNSt3__118__cxx_atomic_storeB8ue170006IPN6parlay8internal13UninitializedINS2_24intrusive_acquire_retireINS2_12hazptr_stackIPNS2_15block_allocator5blockEE4NodeENS_14default_deleteISA_EELm1EE10ThreadDataEEEEEvPNS_22__cxx_atomic_base_implIT_EESI_NS_12memory_orderE, symObjAddr: 0x11838, symBinAddr: 0x100014CD4, symSize: 0x84 }
  - { offset: 0x4A760, size: 0x8, addend: 0x0, symName: __ZNSt3__16__fillB8ue170006IPNS_6atomicIPN6parlay8internal13UninitializedINS3_24intrusive_acquire_retireINS3_12hazptr_stackIPNS3_15block_allocator5blockEE4NodeENS_14default_deleteISB_EELm1EE10ThreadDataEEEEEDnEEvT_SK_RKT0_NS_26random_access_iterator_tagE, symObjAddr: 0x118D0, symBinAddr: 0x100014D6C, symSize: 0x44 }
  - { offset: 0x4A7C0, size: 0x8, addend: 0x0, symName: __ZNSt3__16fill_nB8ue170006IPNS_6atomicIPN6parlay8internal13UninitializedINS3_24intrusive_acquire_retireINS3_12hazptr_stackIPNS3_15block_allocator5blockEE4NodeENS_14default_deleteISB_EELm1EE10ThreadDataEEEEElDnEET_SK_T0_RKT1_, symObjAddr: 0x11914, symBinAddr: 0x100014DB0, symSize: 0x44 }
  - { offset: 0x4A823, size: 0x8, addend: 0x0, symName: __ZNSt3__18__fill_nB8ue170006IPNS_6atomicIPN6parlay8internal13UninitializedINS3_24intrusive_acquire_retireINS3_12hazptr_stackIPNS3_15block_allocator5blockEE4NodeENS_14default_deleteISB_EELm1EE10ThreadDataEEEEElDnEET_SK_T0_RKT1_, symObjAddr: 0x11958, symBinAddr: 0x100014DF4, symSize: 0x6C }
  - { offset: 0x4A886, size: 0x8, addend: 0x0, symName: __ZNSt3__18exchangeB8ue170006IPN6parlay8internal12hazptr_stackIPNS2_15block_allocator5blockEE4NodeES9_EET_RSA_OT0_, symObjAddr: 0x12464, symBinAddr: 0x100015900, symSize: 0x34 }
  - { offset: 0x4AA43, size: 0x8, addend: 0x0, symName: __ZNSt3__116forward_as_tupleB8ue170006IJZN6parlay14ThreadSpecificINS1_8internal15block_allocator10local_listEEC1EvEUlmE_EEENS_5tupleIJDpOT_EEESB_, symObjAddr: 0x1317C, symBinAddr: 0x100016618, symSize: 0x2C }
  - { offset: 0x4AA7C, size: 0x8, addend: 0x0, symName: __ZNSt3__116forward_as_tupleB8ue170006IJNS_9allocatorIZN6parlay14ThreadSpecificINS2_8internal15block_allocator10local_listEEC1EvEUlmE_EEEEENS_5tupleIJDpOT_EEESD_, symObjAddr: 0x131A8, symBinAddr: 0x100016644, symSize: 0x2C }
  - { offset: 0x4AADF, size: 0x8, addend: 0x0, symName: __ZNSt3__13getB8ue170006ILm0EJOZN6parlay14ThreadSpecificINS1_8internal15block_allocator10local_listEEC1EvEUlmE_EEERNS_13tuple_elementIXT_ENS_5tupleIJDpT0_EEEE4typeERSD_, symObjAddr: 0x134B4, symBinAddr: 0x100016950, symSize: 0x24 }
  - { offset: 0x4AB21, size: 0x8, addend: 0x0, symName: __ZNSt3__13getB8ue170006ILm0EJONS_9allocatorIZN6parlay14ThreadSpecificINS2_8internal15block_allocator10local_listEEC1EvEUlmE_EEEEERNS_13tuple_elementIXT_ENS_5tupleIJDpT0_EEEE4typeERSF_, symObjAddr: 0x134F0, symBinAddr: 0x10001698C, symSize: 0x24 }
  - { offset: 0x4B04E, size: 0x8, addend: 0x0, symName: __ZNSt3__116forward_as_tupleB8ue170006IJRKZN6parlay14ThreadSpecificINS1_8internal15block_allocator10local_listEEC1EvEUlmE_EEENS_5tupleIJDpOT_EEESD_, symObjAddr: 0x13A7C, symBinAddr: 0x100016F18, symSize: 0x2C }
  - { offset: 0x4B09C, size: 0x8, addend: 0x0, symName: __ZNSt3__13getB8ue170006ILm0EJRKZN6parlay14ThreadSpecificINS1_8internal15block_allocator10local_listEEC1EvEUlmE_EEERNS_13tuple_elementIXT_ENS_5tupleIJDpT0_EEEE4typeERSE_, symObjAddr: 0x13C60, symBinAddr: 0x1000170FC, symSize: 0x24 }
  - { offset: 0x4B0DE, size: 0x8, addend: 0x0, symName: __ZNSt3__116forward_as_tupleB8ue170006IJRKNS_9allocatorIZN6parlay14ThreadSpecificINS2_8internal15block_allocator10local_listEEC1EvEUlmE_EEEEENS_5tupleIJDpOT_EEESF_, symObjAddr: 0x13FB4, symBinAddr: 0x100017450, symSize: 0x2C }
  - { offset: 0x4B12C, size: 0x8, addend: 0x0, symName: __ZNSt3__13getB8ue170006ILm0EJRKNS_9allocatorIZN6parlay14ThreadSpecificINS2_8internal15block_allocator10local_listEEC1EvEUlmE_EEEEERNS_13tuple_elementIXT_ENS_5tupleIJDpT0_EEEE4typeERSG_, symObjAddr: 0x14198, symBinAddr: 0x100017634, symSize: 0x24 }
  - { offset: 0x4B1B4, size: 0x8, addend: 0x0, symName: __ZNSt3__18__invokeB8ue170006IRZN6parlay14ThreadSpecificINS1_8internal15block_allocator10local_listEEC1EvEUlmE_JjEEEDTclclsr3stdE7declvalIT_EEspclsr3stdE7declvalIT0_EEEEOS9_DpOSA_, symObjAddr: 0x1426C, symBinAddr: 0x100017708, symSize: 0x34 }
  - { offset: 0x4B205, size: 0x8, addend: 0x0, symName: __ZNSt3__14fillB8ue170006IPNS_6atomicIPN6parlay8internal13UninitializedINS3_15block_allocator10local_listEEEEEDnEEvT_SB_RKT0_, symObjAddr: 0x143B0, symBinAddr: 0x10001784C, symSize: 0x34 }
  - { offset: 0x4B25B, size: 0x8, addend: 0x0, symName: __ZNSt3__118__cxx_atomic_storeB8ue170006IPN6parlay8internal13UninitializedINS2_15block_allocator10local_listEEEEEvPNS_22__cxx_atomic_base_implIT_EES9_NS_12memory_orderE, symObjAddr: 0x144A0, symBinAddr: 0x10001793C, symSize: 0x84 }
  - { offset: 0x4B2AC, size: 0x8, addend: 0x0, symName: __ZNSt3__16__fillB8ue170006IPNS_6atomicIPN6parlay8internal13UninitializedINS3_15block_allocator10local_listEEEEEDnEEvT_SB_RKT0_NS_26random_access_iterator_tagE, symObjAddr: 0x14538, symBinAddr: 0x1000179D4, symSize: 0x44 }
  - { offset: 0x4B30C, size: 0x8, addend: 0x0, symName: __ZNSt3__16fill_nB8ue170006IPNS_6atomicIPN6parlay8internal13UninitializedINS3_15block_allocator10local_listEEEEElDnEET_SB_T0_RKT1_, symObjAddr: 0x1457C, symBinAddr: 0x100017A18, symSize: 0x44 }
  - { offset: 0x4B36F, size: 0x8, addend: 0x0, symName: __ZNSt3__18__fill_nB8ue170006IPNS_6atomicIPN6parlay8internal13UninitializedINS3_15block_allocator10local_listEEEEElDnEET_SB_T0_RKT1_, symObjAddr: 0x145C0, symBinAddr: 0x100017A5C, symSize: 0x6C }
  - { offset: 0x4B3D2, size: 0x8, addend: 0x0, symName: __ZNSt3__118__cxx_atomic_storeB8ue170006IPN6parlay8internal12hazptr_stackIPNS2_15block_allocator5blockEE4NodeEEEvPNS_22__cxx_atomic_base_implIT_EESB_NS_12memory_orderE, symObjAddr: 0x158E0, symBinAddr: 0x100018D7C, symSize: 0x84 }
  - { offset: 0x4B423, size: 0x8, addend: 0x0, symName: __ZNSt3__113make_optionalB8ue170006IPSt4byteEENS_8optionalIu7__decayIT_EEEOS4_, symObjAddr: 0x15E2C, symBinAddr: 0x1000192C8, symSize: 0x30 }
  - { offset: 0x4B45A, size: 0x8, addend: 0x0, symName: __ZNSt3__118__cxx_atomic_storeB8ue170006IPN6parlay8internal12hazptr_stackIPSt4byteE4NodeEEEvPNS_22__cxx_atomic_base_implIT_EESA_NS_12memory_orderE, symObjAddr: 0x16094, symBinAddr: 0x100019530, symSize: 0x84 }
  - { offset: 0x4B4AB, size: 0x8, addend: 0x0, symName: __ZNSt3__134__cxx_atomic_compare_exchange_weakB8ue170006IPN6parlay8internal12hazptr_stackIPSt4byteE4NodeEEEbPNS_22__cxx_atomic_base_implIT_EEPSA_SA_NS_12memory_orderESE_, symObjAddr: 0x16118, symBinAddr: 0x1000195B4, symSize: 0x640 }
  - { offset: 0x4B51E, size: 0x8, addend: 0x0, symName: __ZNSt3__18exchangeB8ue170006IPN6parlay8internal12hazptr_stackIPSt4byteE4NodeERS8_EET_RSA_OT0_, symObjAddr: 0x16B08, symBinAddr: 0x100019FA4, symSize: 0x34 }
  - { offset: 0x4C39A, size: 0x8, addend: 0x0, symName: __ZNSt3__119atomic_thread_fenceB8ue170006ENS_12memory_orderE, symObjAddr: 0x17358, symBinAddr: 0x10001A7F4, symSize: 0x24 }
  - { offset: 0x4C3C2, size: 0x8, addend: 0x0, symName: __ZNSt3__125__cxx_atomic_thread_fenceB8ue170006ENS_12memory_orderE, symObjAddr: 0x174FC, symBinAddr: 0x10001A998, symSize: 0x68 }
  - { offset: 0x4C3EC, size: 0x8, addend: 0x0, symName: __ZNSt3__116__constrain_hashB8ue170006Emm, symObjAddr: 0x17C6C, symBinAddr: 0x10001B108, symSize: 0x98 }
  - { offset: 0x4C426, size: 0x8, addend: 0x0, symName: __ZNSt3__116__is_hash_power2B8ue170006Em, symObjAddr: 0x17F8C, symBinAddr: 0x10001B428, symSize: 0x50 }
  - { offset: 0x4C452, size: 0x8, addend: 0x0, symName: __ZNSt3__110__loadwordB8ue170006ImEET_PKv, symObjAddr: 0x18B64, symBinAddr: 0x10001C000, symSize: 0x20 }
  - { offset: 0x4C495, size: 0x8, addend: 0x0, symName: __ZNSt3__14swapB8ue170006ImEENS_9enable_ifIXaasr21is_move_constructibleIT_EE5valuesr18is_move_assignableIS2_EE5valueEvE4typeERS2_S5_, symObjAddr: 0x18D20, symBinAddr: 0x10001C1BC, symSize: 0x3C }
  - { offset: 0x4C4E6, size: 0x8, addend: 0x0, symName: __ZNSt3__110__loadwordB8ue170006IjEET_PKv, symObjAddr: 0x18DB0, symBinAddr: 0x10001C24C, symSize: 0x20 }
  - { offset: 0x4C57A, size: 0x8, addend: 0x0, symName: __ZNSt3__116__next_hash_pow2B8ue170006Em, symObjAddr: 0x198C0, symBinAddr: 0x10001CD5C, symSize: 0x6C }
  - { offset: 0x4C5A6, size: 0x8, addend: 0x0, symName: __ZNSt3__112__libcpp_clzB8ue170006Em, symObjAddr: 0x19C68, symBinAddr: 0x10001D104, symSize: 0x1C }
  - { offset: 0x4C5D2, size: 0x8, addend: 0x0, symName: __ZNSt3__1neB8ue170006ERKNS_21__hash_const_iteratorIPNS_11__hash_nodeIPN6parlay8internal12hazptr_stackIPSt4byteE4NodeEPvEEEESF_, symObjAddr: 0x1A090, symBinAddr: 0x10001D52C, symSize: 0x34 }
  - { offset: 0x4C610, size: 0x8, addend: 0x0, symName: __ZNSt3__1eqB8ue170006ERKNS_21__hash_const_iteratorIPNS_11__hash_nodeIPN6parlay8internal12hazptr_stackIPSt4byteE4NodeEPvEEEESF_, symObjAddr: 0x1A2AC, symBinAddr: 0x10001D748, symSize: 0x30 }
  - { offset: 0x4C64D, size: 0x8, addend: 0x0, symName: __ZNSt3__113make_optionalB8ue170006IPN6parlay8internal15block_allocator5blockEEENS_8optionalIu7__decayIT_EEEOS7_, symObjAddr: 0x1A764, symBinAddr: 0x10001DC00, symSize: 0x30 }
  - { offset: 0x4C684, size: 0x8, addend: 0x0, symName: __ZNSt3__134__cxx_atomic_compare_exchange_weakB8ue170006IPN6parlay8internal12hazptr_stackIPNS2_15block_allocator5blockEE4NodeEEEbPNS_22__cxx_atomic_base_implIT_EEPSB_SB_NS_12memory_orderESF_, symObjAddr: 0x1A8FC, symBinAddr: 0x10001DD98, symSize: 0x640 }
  - { offset: 0x4C6F7, size: 0x8, addend: 0x0, symName: __ZNSt3__18exchangeB8ue170006IPN6parlay8internal12hazptr_stackIPNS2_15block_allocator5blockEE4NodeERS9_EET_RSB_OT0_, symObjAddr: 0x1B2EC, symBinAddr: 0x10001E788, symSize: 0x34 }
  - { offset: 0x4D5C4, size: 0x8, addend: 0x0, symName: __ZNSt3__1neB8ue170006ERKNS_21__hash_const_iteratorIPNS_11__hash_nodeIPN6parlay8internal12hazptr_stackIPNS3_15block_allocator5blockEE4NodeEPvEEEESG_, symObjAddr: 0x1D838, symBinAddr: 0x100020CD4, symSize: 0x34 }
  - { offset: 0x4D602, size: 0x8, addend: 0x0, symName: __ZNSt3__1eqB8ue170006ERKNS_21__hash_const_iteratorIPNS_11__hash_nodeIPN6parlay8internal12hazptr_stackIPNS3_15block_allocator5blockEE4NodeEPvEEEESG_, symObjAddr: 0x1DA54, symBinAddr: 0x100020EF0, symSize: 0x30 }
  - { offset: 0x4D63F, size: 0x8, addend: 0x0, symName: __ZNSt3__118__cxx_atomic_storeB8ue170006ImEEvPNS_22__cxx_atomic_base_implIT_EES2_NS_12memory_orderE, symObjAddr: 0x1DDB4, symBinAddr: 0x100021250, symSize: 0x84 }
  - { offset: 0x4D690, size: 0x8, addend: 0x0, symName: __ZNSt3__113make_optionalB8ue170006IPvEENS_8optionalIu7__decayIT_EEEOS3_, symObjAddr: 0x1E5EC, symBinAddr: 0x100021A88, symSize: 0x30 }
  - { offset: 0x4D6C7, size: 0x8, addend: 0x0, symName: __ZNSt3__118__cxx_atomic_storeB8ue170006IPN6parlay8internal12hazptr_stackIPvE4NodeEEEvPNS_22__cxx_atomic_base_implIT_EES9_NS_12memory_orderE, symObjAddr: 0x1E854, symBinAddr: 0x100021CF0, symSize: 0x84 }
  - { offset: 0x4D718, size: 0x8, addend: 0x0, symName: __ZNSt3__134__cxx_atomic_compare_exchange_weakB8ue170006IPN6parlay8internal12hazptr_stackIPvE4NodeEEEbPNS_22__cxx_atomic_base_implIT_EEPS9_S9_NS_12memory_orderESD_, symObjAddr: 0x1E9FC, symBinAddr: 0x100021E98, symSize: 0x640 }
  - { offset: 0x4D78B, size: 0x8, addend: 0x0, symName: __ZNSt3__18exchangeB8ue170006IPN6parlay8internal12hazptr_stackIPvE4NodeERS7_EET_RS9_OT0_, symObjAddr: 0x1F3EC, symBinAddr: 0x100022888, symSize: 0x34 }
  - { offset: 0x4E658, size: 0x8, addend: 0x0, symName: __ZNSt3__1neB8ue170006ERKNS_21__hash_const_iteratorIPNS_11__hash_nodeIPN6parlay8internal12hazptr_stackIPvE4NodeES5_EEEESD_, symObjAddr: 0x21938, symBinAddr: 0x100024DD4, symSize: 0x34 }
  - { offset: 0x4E696, size: 0x8, addend: 0x0, symName: __ZNSt3__1eqB8ue170006ERKNS_21__hash_const_iteratorIPNS_11__hash_nodeIPN6parlay8internal12hazptr_stackIPvE4NodeES5_EEEESD_, symObjAddr: 0x21B54, symBinAddr: 0x100024FF0, symSize: 0x30 }
  - { offset: 0x4E6D4, size: 0x8, addend: 0x0, symName: __ZNSt3__122__cxx_atomic_fetch_subB8ue170006ImEET_PNS_22__cxx_atomic_base_implIS1_EES1_NS_12memory_orderE, symObjAddr: 0x21EE8, symBinAddr: 0x100025384, symSize: 0xDC }
  - { offset: 0x4E729, size: 0x8, addend: 0x0, symName: __ZNSt3__17launderB8ue170006IN6parlay8internal15block_allocator5blockEEEPT_S6_, symObjAddr: 0x22BB8, symBinAddr: 0x100026054, symSize: 0x24 }
  - { offset: 0x4E761, size: 0x8, addend: 0x0, symName: __ZNSt3__19__launderB8ue170006IN6parlay8internal15block_allocator5blockEEEPT_S6_, symObjAddr: 0x22BDC, symBinAddr: 0x100026078, symSize: 0x14 }
  - { offset: 0x4E798, size: 0x8, addend: 0x0, symName: __ZNSt3__18exchangeB8ue170006IN6parlay9schedulerINS1_15WorkStealingJobEE10workerInfoES5_EET_RS6_OT0_, symObjAddr: 0x23338, symBinAddr: 0x1000267D4, symSize: 0x40 }
  - { offset: 0x4E7F2, size: 0x8, addend: 0x0, symName: __ZNSt3__18exchangeB8ue170006IjRKjEET_RS3_OT0_, symObjAddr: 0x23654, symBinAddr: 0x100026AF0, symSize: 0x34 }
  - { offset: 0x4E84C, size: 0x8, addend: 0x0, symName: __ZNSt3__18exchangeB8ue170006IPN6parlay9schedulerINS1_15WorkStealingJobEEEDnEET_RS6_OT0_, symObjAddr: 0x23688, symBinAddr: 0x100026B24, symSize: 0x2C }
  - { offset: 0x4E8A6, size: 0x8, addend: 0x0, symName: __ZNSt3__122__make_exception_guardB8ue170006INS_6vectorIN6parlay8internal5DequeINS2_15WorkStealingJobEEENS_9allocatorIS6_EEE16__destroy_vectorEEENS_28__exception_guard_exceptionsIT_EESC_, symObjAddr: 0x237F0, symBinAddr: 0x100026C8C, symSize: 0x40 }
  - { offset: 0x4E8DB, size: 0x8, addend: 0x0, symName: __ZNSt3__119__allocate_at_leastB8ue170006INS_9allocatorIN6parlay8internal5DequeINS2_15WorkStealingJobEEEEEEENS_19__allocation_resultINS_16allocator_traitsIT_E7pointerEEERSA_m, symObjAddr: 0x23BE4, symBinAddr: 0x100027080, symSize: 0x40 }
  - { offset: 0x4E91E, size: 0x8, addend: 0x0, symName: __ZNSt3__112__to_addressB8ue170006IN6parlay8internal5DequeINS1_15WorkStealingJobEEEEEPT_S7_, symObjAddr: 0x23F34, symBinAddr: 0x1000273D0, symSize: 0x14 }
  - { offset: 0x4E953, size: 0x8, addend: 0x0, symName: __ZNSt3__122__make_exception_guardB8ue170006INS_6vectorIN6parlay9schedulerINS2_15WorkStealingJobEE7attemptENS_9allocatorIS6_EEE16__destroy_vectorEEENS_28__exception_guard_exceptionsIT_EESC_, symObjAddr: 0x24834, symBinAddr: 0x100027CD0, symSize: 0x40 }
  - { offset: 0x4E988, size: 0x8, addend: 0x0, symName: __ZNSt3__119__allocate_at_leastB8ue170006INS_9allocatorIN6parlay9schedulerINS2_15WorkStealingJobEE7attemptEEEEENS_19__allocation_resultINS_16allocator_traitsIT_E7pointerEEERSA_m, symObjAddr: 0x24C20, symBinAddr: 0x1000280BC, symSize: 0x40 }
  - { offset: 0x4E9CB, size: 0x8, addend: 0x0, symName: __ZNSt3__112__to_addressB8ue170006IN6parlay9schedulerINS1_15WorkStealingJobEE7attemptEEEPT_S7_, symObjAddr: 0x24F44, symBinAddr: 0x1000283E0, symSize: 0x14 }
  - { offset: 0x4EA00, size: 0x8, addend: 0x0, symName: __ZNSt3__112__to_addressB8ue170006INS_6threadEEEPT_S3_, symObjAddr: 0x258F8, symBinAddr: 0x100028D94, symSize: 0x14 }
  - { offset: 0x4EE37, size: 0x8, addend: 0x0, symName: __ZNSt3__122__libcpp_thread_createB8ue170006EPP17_opaque_pthread_tPFPvS3_ES3_, symObjAddr: 0x25BCC, symBinAddr: 0x100029068, symSize: 0x38 }
  - { offset: 0x4EE83, size: 0x8, addend: 0x0, symName: __ZNSt3__114__thread_proxyB8ue170006INS_5tupleIJNS_10unique_ptrINS_15__thread_structENS_14default_deleteIS3_EEEEZN6parlay9schedulerINS7_15WorkStealingJobEEC1EmEUlvE_EEEEEPvSD_, symObjAddr: 0x25C04, symBinAddr: 0x1000290A0, symSize: 0x90 }
  - { offset: 0x4EFC7, size: 0x8, addend: 0x0, symName: __ZNSt3__13getB8ue170006ILm0EJNS_10unique_ptrINS_15__thread_structENS_14default_deleteIS2_EEEEZN6parlay9schedulerINS6_15WorkStealingJobEEC1EmEUlvE_EEERNS_13tuple_elementIXT_ENS_5tupleIJDpT0_EEEE4typeERSF_, symObjAddr: 0x262B8, symBinAddr: 0x100029754, symSize: 0x24 }
  - { offset: 0x4F00F, size: 0x8, addend: 0x0, symName: __ZNSt3__116__thread_executeB8ue170006INS_10unique_ptrINS_15__thread_structENS_14default_deleteIS2_EEEEZN6parlay9schedulerINS6_15WorkStealingJobEEC1EmEUlvE_JEJEEEvRNS_5tupleIJT_T0_DpT1_EEENS_15__tuple_indicesIJXspT2_EEEE, symObjAddr: 0x262DC, symBinAddr: 0x100029778, symSize: 0x28 }
  - { offset: 0x4F05D, size: 0x8, addend: 0x0, symName: __ZNSt3__116__libcpp_tls_setB8ue170006EmPv, symObjAddr: 0x26304, symBinAddr: 0x1000297A0, symSize: 0x2C }
  - { offset: 0x4F09A, size: 0x8, addend: 0x0, symName: __ZNSt3__18__invokeB8ue170006IZN6parlay9schedulerINS1_15WorkStealingJobEEC1EmEUlvE_JEEEDTclclsr3stdE7declvalIT_EEspclsr3stdE7declvalIT0_EEEEOS6_DpOS7_, symObjAddr: 0x26344, symBinAddr: 0x1000297E0, symSize: 0x24 }
  - { offset: 0x4F0D2, size: 0x8, addend: 0x0, symName: __ZNSt3__13getB8ue170006ILm1EJNS_10unique_ptrINS_15__thread_structENS_14default_deleteIS2_EEEEZN6parlay9schedulerINS6_15WorkStealingJobEEC1EmEUlvE_EEERNS_13tuple_elementIXT_ENS_5tupleIJDpT0_EEEE4typeERSF_, symObjAddr: 0x26368, symBinAddr: 0x100029804, symSize: 0x28 }
  - { offset: 0x4F11A, size: 0x8, addend: 0x0, symName: __ZNSt3__118__cxx_atomic_storeB8ue170006IjEEvPNS_22__cxx_atomic_base_implIT_EES2_NS_12memory_orderE, symObjAddr: 0x27030, symBinAddr: 0x10002A4CC, symSize: 0x84 }
  - { offset: 0x4F16B, size: 0x8, addend: 0x0, symName: __ZNSt3__136__cxx_atomic_compare_exchange_strongB8ue170006IN6parlay8internal5DequeINS1_15WorkStealingJobEE5age_tEEEbPNS_22__cxx_atomic_base_implIT_EEPS8_S8_NS_12memory_orderESC_, symObjAddr: 0x271BC, symBinAddr: 0x10002A658, symSize: 0x640 }
  - { offset: 0x4F1DE, size: 0x8, addend: 0x0, symName: __ZNSt3__118__cxx_atomic_storeB8ue170006IN6parlay8internal5DequeINS1_15WorkStealingJobEE5age_tEEEvPNS_22__cxx_atomic_base_implIT_EES8_NS_12memory_orderE, symObjAddr: 0x27810, symBinAddr: 0x10002ACAC, symSize: 0x84 }
  - { offset: 0x4F22F, size: 0x8, addend: 0x0, symName: __ZNSt3__13getB8ue170006ILm0EPN6parlay15WorkStealingJobEbEEONS_13tuple_elementIXT_ENS_4pairIT0_T1_EEE4typeEOS8_, symObjAddr: 0x27BE8, symBinAddr: 0x10002B084, symSize: 0x24 }
  - { offset: 0x4F279, size: 0x8, addend: 0x0, symName: __ZNSt3__13getB8ue170006ILm1EPN6parlay15WorkStealingJobEbEEONS_13tuple_elementIXT_ENS_4pairIT0_T1_EEE4typeEOS8_, symObjAddr: 0x27C0C, symBinAddr: 0x10002B0A8, symSize: 0x24 }
  - { offset: 0x4F38D, size: 0x8, addend: 0x0, symName: __ZNSt3__118__cxx_atomic_storeB8ue170006IbEEvPNS_22__cxx_atomic_base_implIT_EES2_NS_12memory_orderE, symObjAddr: 0x281B8, symBinAddr: 0x10002B654, symSize: 0x90 }
  - { offset: 0x4F3DE, size: 0x8, addend: 0x0, symName: __ZNSt3__119__allocate_at_leastB8ue170006INS_9allocatorINS_6threadEEEEENS_19__allocation_resultINS_16allocator_traitsIT_E7pointerEEERS6_m, symObjAddr: 0x28B40, symBinAddr: 0x10002BFDC, symSize: 0x40 }
  - { offset: 0x4F421, size: 0x8, addend: 0x0, symName: __ZNSt3__142__uninitialized_allocator_move_if_noexceptB8ue170006INS_9allocatorINS_6threadEEENS_16reverse_iteratorIPS2_EES6_S6_EET2_RT_T0_T1_S7_, symObjAddr: 0x28DAC, symBinAddr: 0x10002C248, symSize: 0x12C }
  - { offset: 0x4F4C1, size: 0x8, addend: 0x0, symName: __ZNSt3__14swapB8ue170006IPNS_6threadEEENS_9enable_ifIXaasr21is_move_constructibleIT_EE5valuesr18is_move_assignableIS4_EE5valueEvE4typeERS4_S7_, symObjAddr: 0x28F24, symBinAddr: 0x10002C3C0, symSize: 0x3C }
  - { offset: 0x4F512, size: 0x8, addend: 0x0, symName: __ZNSt3__122__make_exception_guardB8ue170006INS_29_AllocatorDestroyRangeReverseINS_9allocatorINS_6threadEEENS_16reverse_iteratorIPS3_EEEEEENS_28__exception_guard_exceptionsIT_EESA_, symObjAddr: 0x29054, symBinAddr: 0x10002C4F0, symSize: 0x4C }
  - { offset: 0x4F548, size: 0x8, addend: 0x0, symName: __ZNSt3__1neB8ue170006IPNS_6threadES2_EEbRKNS_16reverse_iteratorIT_EERKNS3_IT0_EE, symObjAddr: 0x290E4, symBinAddr: 0x10002C580, symSize: 0x48 }
  - { offset: 0x4F594, size: 0x8, addend: 0x0, symName: __ZNSt3__112__to_addressB8ue170006INS_16reverse_iteratorIPNS_6threadEEEvEEu7__decayIDTclsr19__to_address_helperIT_EE6__callclsr3stdE7declvalIRKS5_EEEEES7_, symObjAddr: 0x29160, symBinAddr: 0x10002C5FC, symSize: 0x24 }
  - { offset: 0x4F5F5, size: 0x8, addend: 0x0, symName: __ZNSt3__119__allocator_destroyB8ue170006INS_9allocatorINS_6threadEEENS_16reverse_iteratorINS4_IPS2_EEEES7_EEvRT_T0_T1_, symObjAddr: 0x294A0, symBinAddr: 0x10002C93C, symSize: 0x70 }
  - { offset: 0x4F65A, size: 0x8, addend: 0x0, symName: __ZNSt3__1neB8ue170006INS_16reverse_iteratorIPNS_6threadEEES4_EEbRKNS1_IT_EERKNS1_IT0_EE, symObjAddr: 0x2954C, symBinAddr: 0x10002C9E8, symSize: 0x60 }
  - { offset: 0x4F6A6, size: 0x8, addend: 0x0, symName: __ZNSt3__112__to_addressB8ue170006INS_16reverse_iteratorINS1_IPNS_6threadEEEEEvEEu7__decayIDTclsr19__to_address_helperIT_EE6__callclsr3stdE7declvalIRKS6_EEEEES8_, symObjAddr: 0x295D8, symBinAddr: 0x10002CA74, symSize: 0x24 }
  - { offset: 0x4F70D, size: 0x8, addend: 0x0, symName: __ZNSt3__111this_thread5yieldB8ue170006Ev, symObjAddr: 0x29E14, symBinAddr: 0x10002D2B0, symSize: 0x1C }
  - { offset: 0x4F727, size: 0x8, addend: 0x0, symName: __ZNSt3__118__cxx_atomic_storeB8ue170006IiEEvPNS_22__cxx_atomic_base_implIT_EES2_NS_12memory_orderE, symObjAddr: 0x29E54, symBinAddr: 0x10002D2F0, symSize: 0x84 }
  - { offset: 0x4F779, size: 0x8, addend: 0x0, symName: __ZNSt3__121__libcpp_thread_yieldB8ue170006Ev, symObjAddr: 0x29EFC, symBinAddr: 0x10002D398, symSize: 0x14 }
  - { offset: 0x4F874, size: 0x8, addend: 0x0, symName: __ZNSt3__118__cxx_atomic_storeB8ue170006IPN6parlay15WorkStealingJobEEEvPNS_22__cxx_atomic_base_implIT_EES5_NS_12memory_orderE, symObjAddr: 0x2B84C, symBinAddr: 0x10002ECE8, symSize: 0x84 }
  - { offset: 0x4F8F6, size: 0x8, addend: 0x0, symName: '__ZNSt3__16invokeB8ue170006IRKZ4mainE3$_0JRmEEENS_13invoke_resultIT_JDpT0_EE4typeEOS6_DpOS7_', symObjAddr: 0x2BC24, symBinAddr: 0x10002F0C0, symSize: 0x2C }
  - { offset: 0x4F944, size: 0x8, addend: 0x0, symName: '__ZNSt3__18__invokeB8ue170006IRKZ4mainE3$_0JRmEEEDTclclsr3stdE7declvalIT_EEspclsr3stdE7declvalIT0_EEEEOS5_DpOS6_', symObjAddr: 0x2BC50, symBinAddr: 0x10002F0EC, symSize: 0x30 }
  - { offset: 0x4F995, size: 0x8, addend: 0x0, symName: __ZNSt3__14swapB8ue170006IlEENS_9enable_ifIXaasr21is_move_constructibleIT_EE5valuesr18is_move_assignableIS2_EE5valueEvE4typeERS2_S5_, symObjAddr: 0x2BD18, symBinAddr: 0x10002F1B4, symSize: 0x3C }
  - { offset: 0x4F9E6, size: 0x8, addend: 0x0, symName: __ZNSt3__13getB8ue170006ILm0EJlldEEERNS_13tuple_elementIXT_ENS_5tupleIJDpT0_EEEE4typeERS5_, symObjAddr: 0x2BD54, symBinAddr: 0x10002F1F0, symSize: 0x24 }
  - { offset: 0x4FA33, size: 0x8, addend: 0x0, symName: __ZNSt3__13getB8ue170006ILm1EJlldEEERNS_13tuple_elementIXT_ENS_5tupleIJDpT0_EEEE4typeERS5_, symObjAddr: 0x2BD78, symBinAddr: 0x10002F214, symSize: 0x28 }
  - { offset: 0x4FA80, size: 0x8, addend: 0x0, symName: __ZNSt3__13getB8ue170006ILm0EJlldEEERKNS_13tuple_elementIXT_ENS_5tupleIJDpT0_EEEE4typeERKS5_, symObjAddr: 0x2BEB8, symBinAddr: 0x10002F354, symSize: 0x24 }
  - { offset: 0x4FACD, size: 0x8, addend: 0x0, symName: __ZNSt3__13getB8ue170006ILm0ElN6parlay8sequenceIlNS1_9allocatorIlEELb0EEEEERNS_13tuple_elementIXT_ENS_4pairIT0_T1_EEE4typeERSA_, symObjAddr: 0x2BEF0, symBinAddr: 0x10002F38C, symSize: 0x24 }
  - { offset: 0x4FB17, size: 0x8, addend: 0x0, symName: __ZNSt3__13getB8ue170006ILm1ElN6parlay8sequenceIlNS1_9allocatorIlEELb0EEEEERNS_13tuple_elementIXT_ENS_4pairIT0_T1_EEE4typeERSA_, symObjAddr: 0x2BF28, symBinAddr: 0x10002F3C4, symSize: 0x24 }
  - { offset: 0x4FB61, size: 0x8, addend: 0x0, symName: __ZNSt3__13getB8ue170006ILm1EJlldEEERKNS_13tuple_elementIXT_ENS_5tupleIJDpT0_EEEE4typeERKS5_, symObjAddr: 0x2BF78, symBinAddr: 0x10002F414, symSize: 0x28 }
  - { offset: 0x4FC83, size: 0x8, addend: 0x0, symName: __ZNSt3__13maxB8ue170006ImNS_6__lessIvvEEEERKT_S5_S5_T0_, symObjAddr: 0x30080, symBinAddr: 0x10003351C, symSize: 0x54 }
  - { offset: 0x4FCDD, size: 0x8, addend: 0x0, symName: __ZNSt3__19make_pairB8ue170006IliEENS_4pairINS_18__unwrap_ref_decayIT_E4typeENS2_IT0_E4typeEEEOS3_OS6_, symObjAddr: 0x305BC, symBinAddr: 0x100033A58, symSize: 0x38 }
  - { offset: 0x4FD2C, size: 0x8, addend: 0x0, symName: __ZNSt3__19make_pairB8ue170006IRKliEENS_4pairINS_18__unwrap_ref_decayIT_E4typeENS4_IT0_E4typeEEEOS5_OS8_, symObjAddr: 0x3071C, symBinAddr: 0x100033BB8, symSize: 0x38 }
  - { offset: 0x4FD7B, size: 0x8, addend: 0x0, symName: __ZNSt3__19make_pairB8ue170006IRlmEENS_4pairINS_18__unwrap_ref_decayIT_E4typeENS3_IT0_E4typeEEEOS4_OS7_, symObjAddr: 0x307E4, symBinAddr: 0x100033C80, symSize: 0x38 }
  - { offset: 0x500AA, size: 0x8, addend: 0x0, symName: __ZNSt3__19make_pairB8ue170006IN6parlay8sequenceImNS1_9allocatorImEELb0EEEbEENS_4pairINS_18__unwrap_ref_decayIT_E4typeENS7_IT0_E4typeEEEOS8_OSB_, symObjAddr: 0x32FC0, symBinAddr: 0x10003645C, symSize: 0x40 }
  - { offset: 0x5012A, size: 0x8, addend: 0x0, symName: '__ZNSt3__16invokeB8ue170006IRKZN6parlay8internal22collect_reduce_sparse_INS1_22uninitialized_copy_tagENS1_5sliceINS1_16delayed_sequenceINS_5tupleIJlldEEES8_Z4mainE3$_0E8iteratorESB_EENS1_19group_by_key_helperIS8_14TupleFirstHash15TupleFirstEqualEEEEDaT0_RKT1_EUlmE_JRmEEENS_13invoke_resultIT_JDpT0_EE4typeEOSR_DpOSS_', symObjAddr: 0x35204, symBinAddr: 0x1000386A0, symSize: 0x2C }
  - { offset: 0x50178, size: 0x8, addend: 0x0, symName: '__ZNSt3__18__invokeB8ue170006IRKZN6parlay8internal22collect_reduce_sparse_INS1_22uninitialized_copy_tagENS1_5sliceINS1_16delayed_sequenceINS_5tupleIJlldEEES8_Z4mainE3$_0E8iteratorESB_EENS1_19group_by_key_helperIS8_14TupleFirstHash15TupleFirstEqualEEEEDaT0_RKT1_EUlmE_JRmEEEDTclclsr3stdE7declvalIT_EEspclsr3stdE7declvalIT0_EEEEOSQ_DpOSR_', symObjAddr: 0x35230, symBinAddr: 0x1000386CC, symSize: 0x30 }
  - { offset: 0x501C9, size: 0x8, addend: 0x0, symName: '__ZNSt3__15beginB8ue170006IN6parlay5sliceINS1_16delayed_sequenceImmZNS1_8internal22collect_reduce_sparse_INS1_22uninitialized_copy_tagENS2_INS3_INS_5tupleIJlldEEES8_Z4mainE3$_0E8iteratorESB_EENS1_19group_by_key_helperIS8_14TupleFirstHash15TupleFirstEqualEEEEDaT0_RKT1_EUlmE_E8iteratorESO_EEEEDTcldtfp_5beginEERT_', symObjAddr: 0x37330, symBinAddr: 0x10003A7CC, symSize: 0x34 }
  - { offset: 0x501FE, size: 0x8, addend: 0x0, symName: '__ZNSt3__13endB8ue170006IN6parlay5sliceINS1_16delayed_sequenceImmZNS1_8internal22collect_reduce_sparse_INS1_22uninitialized_copy_tagENS2_INS3_INS_5tupleIJlldEEES8_Z4mainE3$_0E8iteratorESB_EENS1_19group_by_key_helperIS8_14TupleFirstHash15TupleFirstEqualEEEEDaT0_RKT1_EUlmE_E8iteratorESO_EEEEDTcldtfp_3endEERT_', symObjAddr: 0x37364, symBinAddr: 0x10003A800, symSize: 0x34 }
  - { offset: 0x50233, size: 0x8, addend: 0x0, symName: __ZNSt3__15beginB8ue170006IN6parlay5sliceIPmS3_EEEEDTcldtfp_5beginEERKT_, symObjAddr: 0x396F8, symBinAddr: 0x10003CB94, symSize: 0x24 }
  - { offset: 0x50268, size: 0x8, addend: 0x0, symName: __ZNSt3__13endB8ue170006IN6parlay5sliceIPmS3_EEEEDTcldtfp_3endEERKT_, symObjAddr: 0x3971C, symBinAddr: 0x10003CBB8, symSize: 0x24 }
  - { offset: 0x5029D, size: 0x8, addend: 0x0, symName: __ZNSt3__15beginB8ue170006IN6parlay5sliceIPmS3_EEEEDTcldtfp_5beginEERT_, symObjAddr: 0x3A678, symBinAddr: 0x10003DB14, symSize: 0x24 }
  - { offset: 0x502D2, size: 0x8, addend: 0x0, symName: __ZNSt3__13endB8ue170006IN6parlay5sliceIPmS3_EEEEDTcldtfp_3endEERT_, symObjAddr: 0x3A69C, symBinAddr: 0x10003DB38, symSize: 0x24 }
  - { offset: 0x50307, size: 0x8, addend: 0x0, symName: __ZNSt3__15beginB8ue170006IN6parlay8sequenceImNS1_9allocatorImEELb0EEEEEDTcldtfp_5beginEERT_, symObjAddr: 0x3B014, symBinAddr: 0x10003E4B0, symSize: 0x24 }
  - { offset: 0x5033C, size: 0x8, addend: 0x0, symName: __ZNSt3__13endB8ue170006IN6parlay8sequenceImNS1_9allocatorImEELb0EEEEEDTcldtfp_3endEERT_, symObjAddr: 0x3B038, symBinAddr: 0x10003E4D4, symSize: 0x24 }
  - { offset: 0x50371, size: 0x8, addend: 0x0, symName: '__ZNSt3__15beginB8ue170006IN6parlay5sliceINS1_16delayed_sequenceINS_5tupleIJlldEEES5_Z4mainE3$_0E8iteratorES8_EEEEDTcldtfp_5beginEERT_', symObjAddr: 0x40430, symBinAddr: 0x1000438CC, symSize: 0x34 }
  - { offset: 0x503A6, size: 0x8, addend: 0x0, symName: '__ZNSt3__13endB8ue170006IN6parlay5sliceINS1_16delayed_sequenceINS_5tupleIJlldEEES5_Z4mainE3$_0E8iteratorES8_EEEEDTcldtfp_3endEERT_', symObjAddr: 0x40464, symBinAddr: 0x100043900, symSize: 0x34 }
  - { offset: 0x503DB, size: 0x8, addend: 0x0, symName: __ZNSt3__15beginB8ue170006IN6parlay8internal22uninitialized_sequenceINS_5tupleIJlldEEENS1_9allocatorIS5_EEEEEEDTcldtfp_5beginEERT_, symObjAddr: 0x40518, symBinAddr: 0x1000439B4, symSize: 0x24 }
  - { offset: 0x50410, size: 0x8, addend: 0x0, symName: __ZNSt3__13endB8ue170006IN6parlay8internal22uninitialized_sequenceINS_5tupleIJlldEEENS1_9allocatorIS5_EEEEEEDTcldtfp_3endEERT_, symObjAddr: 0x4053C, symBinAddr: 0x1000439D8, symSize: 0x24 }
  - { offset: 0x50445, size: 0x8, addend: 0x0, symName: '__ZNSt3__15beginB8ue170006IN6parlay16delayed_sequenceImmZNS1_8internal22collect_reduce_sparse_INS1_22uninitialized_copy_tagENS1_5sliceINS2_INS_5tupleIJlldEEES8_Z4mainE3$_0E8iteratorESB_EENS1_19group_by_key_helperIS8_14TupleFirstHash15TupleFirstEqualEEEEDaT0_RKT1_EUlmE_EEEEDTcldtfp_5beginEERT_', symObjAddr: 0x40608, symBinAddr: 0x100043AA4, symSize: 0x34 }
  - { offset: 0x5047A, size: 0x8, addend: 0x0, symName: '__ZNSt3__13endB8ue170006IN6parlay16delayed_sequenceImmZNS1_8internal22collect_reduce_sparse_INS1_22uninitialized_copy_tagENS1_5sliceINS2_INS_5tupleIJlldEEES8_Z4mainE3$_0E8iteratorESB_EENS1_19group_by_key_helperIS8_14TupleFirstHash15TupleFirstEqualEEEEDaT0_RKT1_EUlmE_EEEEDTcldtfp_3endEERT_', symObjAddr: 0x4063C, symBinAddr: 0x100043AD8, symSize: 0x34 }
  - { offset: 0x504AF, size: 0x8, addend: 0x0, symName: __ZNSt3__15fixedB8ue170006ERNS_8ios_baseE, symObjAddr: 0x40A60, symBinAddr: 0x100043EFC, symSize: 0x30 }
  - { offset: 0x504DD, size: 0x8, addend: 0x0, symName: __ZNSt3__1lsB8ue170006IcNS_11char_traitsIcEENS_9allocatorIcEEEERNS_13basic_ostreamIT_T0_EES9_RKNS_12basic_stringIS6_S7_T1_EE, symObjAddr: 0x40A90, symBinAddr: 0x100043F2C, symSize: 0x4C }
  - { offset: 0x50535, size: 0x8, addend: 0x0, symName: __ZNSt3__116__pad_and_outputB8ue170006IcNS_11char_traitsIcEEEENS_19ostreambuf_iteratorIT_T0_EES6_PKS4_S8_S8_RNS_8ios_baseES4_, symObjAddr: 0x40E28, symBinAddr: 0x1000442C4, symSize: 0x240 }
  - { offset: 0x50604, size: 0x8, addend: 0x0, symName: __ZNSt3__112__to_addressB8ue170006IcEEPT_S2_, symObjAddr: 0x41280, symBinAddr: 0x10004471C, symSize: 0x14 }
  - { offset: 0x5066C, size: 0x8, addend: 0x0, symName: __ZNSt3__19use_facetB8ue170006INS_5ctypeIcEEEERKT_RKNS_6localeE, symObjAddr: 0x41538, symBinAddr: 0x1000449D4, symSize: 0x2C }
  - { offset: 0x50B54, size: 0x8, addend: 0x0, symName: __ZNSt3__112__to_addressB8ue170006IKcEEPT_S3_, symObjAddr: 0x415D0, symBinAddr: 0x100044A6C, symSize: 0x14 }
  - { offset: 0x50BBC, size: 0x8, addend: 0x0, symName: __ZNSt3__15beginB8ue170006IN6parlay5sliceIPNS_5tupleIJlldEEES5_EEEEDTcldtfp_5beginEERT_, symObjAddr: 0x43A88, symBinAddr: 0x100046F24, symSize: 0x24 }
  - { offset: 0x50BF1, size: 0x8, addend: 0x0, symName: __ZNSt3__15beginB8ue170006IN6parlay8sequenceINS2_INS_4pairIlNS2_IlNS1_9allocatorIlEELb0EEEEENS4_IS7_EELb0EEENS4_IS9_EELb0EEEEEDTcldtfp_5beginEERT_, symObjAddr: 0x46EF8, symBinAddr: 0x10004A394, symSize: 0x24 }
  - { offset: 0x50C26, size: 0x8, addend: 0x0, symName: __ZNSt3__15beginB8ue170006IN6parlay8sequenceINS_4pairIlNS2_IlNS1_9allocatorIlEELb0EEEEENS4_IS7_EELb0EEEEEDTcldtfp_5beginEERT_, symObjAddr: 0x48078, symBinAddr: 0x10004B514, symSize: 0x24 }
  - { offset: 0x50C5B, size: 0x8, addend: 0x0, symName: __ZNSt3__13endB8ue170006IN6parlay8sequenceINS_4pairIlNS2_IlNS1_9allocatorIlEELb0EEEEENS4_IS7_EELb0EEEEEDTcldtfp_3endEERT_, symObjAddr: 0x4809C, symBinAddr: 0x10004B538, symSize: 0x24 }
  - { offset: 0x50C90, size: 0x8, addend: 0x0, symName: __ZNSt3__18distanceB8ue170006IPNS_4pairIlN6parlay8sequenceIlNS2_9allocatorIlEELb0EEEEEEENS_15iterator_traitsIT_E15difference_typeESA_SA_, symObjAddr: 0x481BC, symBinAddr: 0x10004B658, symSize: 0x2C }
  - { offset: 0x50DA8, size: 0x8, addend: 0x0, symName: __ZNSt3__110__distanceB8ue170006IPNS_4pairIlN6parlay8sequenceIlNS2_9allocatorIlEELb0EEEEEEENS_15iterator_traitsIT_E15difference_typeESA_SA_NS_26random_access_iterator_tagE, symObjAddr: 0x48E7C, symBinAddr: 0x10004C318, symSize: 0x28 }
  - { offset: 0x50DF5, size: 0x8, addend: 0x0, symName: '__ZNSt3__15beginB8ue170006IN6parlay16delayed_sequenceINS_5tupleIJlldEEES4_Z4mainE3$_0EEEEDTcldtfp_5beginEERKT_', symObjAddr: 0x49A94, symBinAddr: 0x10004CF30, symSize: 0x34 }
  - { offset: 0x50E2A, size: 0x8, addend: 0x0, symName: '__ZNSt3__13endB8ue170006IN6parlay16delayed_sequenceINS_5tupleIJlldEEES4_Z4mainE3$_0EEEEDTcldtfp_3endEERKT_', symObjAddr: 0x49AC8, symBinAddr: 0x10004CF64, symSize: 0x34 }
  - { offset: 0x50F3F, size: 0x8, addend: 0x0, symName: __ZNSt3__15beginB8ue170006IN6parlay5sliceIPlS3_EEEEDTcldtfp_5beginEERKT_, symObjAddr: 0x4D804, symBinAddr: 0x100050CA0, symSize: 0x24 }
  - { offset: 0x50F74, size: 0x8, addend: 0x0, symName: __ZNSt3__13endB8ue170006IN6parlay5sliceIPlS3_EEEEDTcldtfp_3endEERKT_, symObjAddr: 0x4D828, symBinAddr: 0x100050CC4, symSize: 0x24 }
  - { offset: 0x50FC9, size: 0x8, addend: 0x0, symName: __ZNSt3__15beginB8ue170006IN6parlay8sequenceIlNS1_9allocatorIlEELb0EEEEEDTcldtfp_5beginEERKT_, symObjAddr: 0x4E948, symBinAddr: 0x100051DE4, symSize: 0x24 }
  - { offset: 0x50FFE, size: 0x8, addend: 0x0, symName: __ZNSt3__13endB8ue170006IN6parlay8sequenceIlNS1_9allocatorIlEELb0EEEEEDTcldtfp_3endEERKT_, symObjAddr: 0x4E96C, symBinAddr: 0x100051E08, symSize: 0x24 }
  - { offset: 0x51033, size: 0x8, addend: 0x0, symName: __ZNSt3__15beginB8ue170006IN6parlay8sequenceIlNS1_9allocatorIlEELb0EEEEEDTcldtfp_5beginEERT_, symObjAddr: 0x4F3B4, symBinAddr: 0x100052850, symSize: 0x24 }
  - { offset: 0x51068, size: 0x8, addend: 0x0, symName: __ZNSt3__13endB8ue170006IN6parlay8sequenceIlNS1_9allocatorIlEELb0EEEEEDTcldtfp_3endEERT_, symObjAddr: 0x4F3D8, symBinAddr: 0x100052874, symSize: 0x24 }
  - { offset: 0x5109D, size: 0x8, addend: 0x0, symName: __ZNSt3__113__countl_zeroB8ue170006ImEEiT_, symObjAddr: 0x4FB8C, symBinAddr: 0x100053028, symSize: 0x54 }
  - { offset: 0x51281, size: 0x8, addend: 0x0, symName: __ZNSt3__118generate_canonicalB8ue170006IdLm53EN6parlay16random_generatorEEET_RT1_, symObjAddr: 0x513B0, symBinAddr: 0x10005484C, symSize: 0x118 }
  - { offset: 0x51942, size: 0x8, addend: 0x0, symName: __ZNSt3__119__clamp_to_integralB8ue170006IldEET_T0_, symObjAddr: 0x52370, symBinAddr: 0x10005580C, symSize: 0xAC }
  - { offset: 0x5198E, size: 0x8, addend: 0x0, symName: __ZNSt3__19make_pairB8ue170006IN6parlay8sequenceIlNS1_9allocatorIlEELb0EEElEENS_4pairINS_18__unwrap_ref_decayIT_E4typeENS7_IT0_E4typeEEEOS8_OSB_, symObjAddr: 0x53F48, symBinAddr: 0x1000573E4, symSize: 0x40 }
  - { offset: 0x519DD, size: 0x8, addend: 0x0, symName: __ZNSt3__15beginB8ue170006IN6parlay5sliceIPlS3_EEEEDTcldtfp_5beginEERT_, symObjAddr: 0x556FC, symBinAddr: 0x100058B98, symSize: 0x24 }
  - { offset: 0x51A12, size: 0x8, addend: 0x0, symName: __ZNSt3__13endB8ue170006IN6parlay5sliceIPlS3_EEEEDTcldtfp_3endEERT_, symObjAddr: 0x55720, symBinAddr: 0x100058BBC, symSize: 0x24 }
  - { offset: 0x51A8A, size: 0x8, addend: 0x0, symName: __ZNSt3__128atomic_compare_exchange_weakB8ue170006ImEEbPNS_6atomicIT_EEPNS3_10value_typeES5_, symObjAddr: 0x573E4, symBinAddr: 0x10005A880, symSize: 0x3C }
  - { offset: 0x51ADF, size: 0x8, addend: 0x0, symName: __ZNSt3__134__cxx_atomic_compare_exchange_weakB8ue170006ImEEbPNS_22__cxx_atomic_base_implIT_EEPS2_S2_NS_12memory_orderES6_, symObjAddr: 0x57464, symBinAddr: 0x10005A900, symSize: 0x640 }
  - { offset: 0x51B53, size: 0x8, addend: 0x0, symName: __ZNSt3__122__cxx_atomic_fetch_addB8ue170006IsEET_PNS_22__cxx_atomic_base_implIS1_EES1_NS_12memory_orderE, symObjAddr: 0x5EA28, symBinAddr: 0x100061EC4, symSize: 0xC8 }
  - { offset: 0x51BEB, size: 0x8, addend: 0x0, symName: __ZNSt3__13getB8ue170006ILm3EJNS_4pairIllEES2_NS_5tupleIJlldEEEbEEERNS_13tuple_elementIXT_ENS3_IJDpT0_EEEE4typeERS8_, symObjAddr: 0x64CD0, symBinAddr: 0x10006816C, symSize: 0x28 }
  - { offset: 0x51CB5, size: 0x8, addend: 0x0, symName: __ZNSt3__16invokeB8ue170006IRKZN6parlay8internal10filter_mapINS1_5sliceIPNS_5tupleIJNS_4pairIllEES7_NS5_IJlldEEEbEEESA_EEZN7TreeGenIldE21generateInterconnectsEvEUlS9_E_RZNS2_6filterISB_SE_EENS1_8sequenceINT_10value_typeENS1_9allocatorISI_EEXsr3std7is_sameISI_cEE5valueEEERKSH_OT0_EUlOSH_E_EEDaSN_SP_OT1_EUlmE_JRmEEENS_13invoke_resultISH_JDpT0_EE4typeESQ_DpOS11_, symObjAddr: 0x65E7C, symBinAddr: 0x100069318, symSize: 0x2C }
  - { offset: 0x51D03, size: 0x8, addend: 0x0, symName: __ZNSt3__18__invokeB8ue170006IRKZN6parlay8internal10filter_mapINS1_5sliceIPNS_5tupleIJNS_4pairIllEES7_NS5_IJlldEEEbEEESA_EEZN7TreeGenIldE21generateInterconnectsEvEUlS9_E_RZNS2_6filterISB_SE_EENS1_8sequenceINT_10value_typeENS1_9allocatorISI_EEXsr3std7is_sameISI_cEE5valueEEERKSH_OT0_EUlOSH_E_EEDaSN_SP_OT1_EUlmE_JRmEEEDTclclsr3stdE7declvalISH_EEspclsr3stdE7declvalIT0_EEEESQ_DpOS10_, symObjAddr: 0x65EA8, symBinAddr: 0x100069344, symSize: 0x30 }
  - { offset: 0x51D54, size: 0x8, addend: 0x0, symName: __ZNSt3__15beginB8ue170006IN6parlay16delayed_sequenceINS_5tupleIJNS_4pairIllEES5_NS3_IJlldEEEbEEES7_ZNS1_8internal10filter_mapINS1_5sliceIPS7_SB_EEZN7TreeGenIldE21generateInterconnectsEvEUlS7_E_RZNS8_6filterISC_SF_EENS1_8sequenceINT_10value_typeENS1_9allocatorISJ_EEXsr3std7is_sameISJ_cEE5valueEEERKSI_OT0_EUlOSI_E_EEDaSO_SQ_OT1_EUlmE_EEEEDTcldtfp_5beginEERSI_, symObjAddr: 0x65FB4, symBinAddr: 0x100069450, symSize: 0x34 }
  - { offset: 0x51D89, size: 0x8, addend: 0x0, symName: __ZNSt3__13endB8ue170006IN6parlay16delayed_sequenceINS_5tupleIJNS_4pairIllEES5_NS3_IJlldEEEbEEES7_ZNS1_8internal10filter_mapINS1_5sliceIPS7_SB_EEZN7TreeGenIldE21generateInterconnectsEvEUlS7_E_RZNS8_6filterISC_SF_EENS1_8sequenceINT_10value_typeENS1_9allocatorISJ_EEXsr3std7is_sameISJ_cEE5valueEEERKSI_OT0_EUlOSI_E_EEDaSO_SQ_OT1_EUlmE_EEEEDTcldtfp_3endEERSI_, symObjAddr: 0x65FE8, symBinAddr: 0x100069484, symSize: 0x34 }
  - { offset: 0x51DBE, size: 0x8, addend: 0x0, symName: __ZNSt3__15beginB8ue170006IN6parlay8sequenceIbNS1_9allocatorIbEELb0EEEEEDTcldtfp_5beginEERT_, symObjAddr: 0x66238, symBinAddr: 0x1000696D4, symSize: 0x24 }
  - { offset: 0x51DF3, size: 0x8, addend: 0x0, symName: __ZNSt3__13endB8ue170006IN6parlay8sequenceIbNS1_9allocatorIbEELb0EEEEEDTcldtfp_3endEERT_, symObjAddr: 0x6625C, symBinAddr: 0x1000696F8, symSize: 0x24 }
  - { offset: 0x51E28, size: 0x8, addend: 0x0, symName: __ZNSt3__15beginB8ue170006IN6parlay8sequenceINS_5tupleIJNS_4pairIllEES5_NS3_IJlldEEEbEEENS1_9allocatorIS7_EELb0EEEEEDTcldtfp_5beginEERT_, symObjAddr: 0x66EA8, symBinAddr: 0x10006A344, symSize: 0x24 }
  - { offset: 0x51E5D, size: 0x8, addend: 0x0, symName: __ZNSt3__13endB8ue170006IN6parlay8sequenceINS_5tupleIJNS_4pairIllEES5_NS3_IJlldEEEbEEENS1_9allocatorIS7_EELb0EEEEEDTcldtfp_3endEERT_, symObjAddr: 0x66ECC, symBinAddr: 0x10006A368, symSize: 0x24 }
  - { offset: 0x51EC5, size: 0x8, addend: 0x0, symName: __ZNSt3__16invokeB8ue170006IRKZN6parlay8internal10filter_mapINS1_5sliceIPNS_5tupleIJlldEEES7_EEZN7TreeGenIldE11getAllEdgesEvEUlS6_E_RZNS2_6filterIS8_SB_EENS1_8sequenceINT_10value_typeENS1_9allocatorISF_EEXsr3std7is_sameISF_cEE5valueEEERKSE_OT0_EUlOSE_E_EEDaSK_SM_OT1_EUlmE_JRmEEENS_13invoke_resultISE_JDpT0_EE4typeESN_DpOSY_, symObjAddr: 0x69CE4, symBinAddr: 0x10006D180, symSize: 0x2C }
  - { offset: 0x51F13, size: 0x8, addend: 0x0, symName: __ZNSt3__18__invokeB8ue170006IRKZN6parlay8internal10filter_mapINS1_5sliceIPNS_5tupleIJlldEEES7_EEZN7TreeGenIldE11getAllEdgesEvEUlS6_E_RZNS2_6filterIS8_SB_EENS1_8sequenceINT_10value_typeENS1_9allocatorISF_EEXsr3std7is_sameISF_cEE5valueEEERKSE_OT0_EUlOSE_E_EEDaSK_SM_OT1_EUlmE_JRmEEEDTclclsr3stdE7declvalISE_EEspclsr3stdE7declvalIT0_EEEESN_DpOSX_, symObjAddr: 0x69D10, symBinAddr: 0x10006D1AC, symSize: 0x30 }
  - { offset: 0x51F64, size: 0x8, addend: 0x0, symName: __ZNSt3__15beginB8ue170006IN6parlay16delayed_sequenceINS_5tupleIJlldEEES4_ZNS1_8internal10filter_mapINS1_5sliceIPS4_S8_EEZN7TreeGenIldE11getAllEdgesEvEUlS4_E_RZNS5_6filterIS9_SC_EENS1_8sequenceINT_10value_typeENS1_9allocatorISG_EEXsr3std7is_sameISG_cEE5valueEEERKSF_OT0_EUlOSF_E_EEDaSL_SN_OT1_EUlmE_EEEEDTcldtfp_5beginEERSF_, symObjAddr: 0x69E10, symBinAddr: 0x10006D2AC, symSize: 0x34 }
  - { offset: 0x51F99, size: 0x8, addend: 0x0, symName: __ZNSt3__13endB8ue170006IN6parlay16delayed_sequenceINS_5tupleIJlldEEES4_ZNS1_8internal10filter_mapINS1_5sliceIPS4_S8_EEZN7TreeGenIldE11getAllEdgesEvEUlS4_E_RZNS5_6filterIS9_SC_EENS1_8sequenceINT_10value_typeENS1_9allocatorISG_EEXsr3std7is_sameISG_cEE5valueEEERKSF_OT0_EUlOSF_E_EEDaSL_SN_OT1_EUlmE_EEEEDTcldtfp_3endEERSF_, symObjAddr: 0x69E44, symBinAddr: 0x10006D2E0, symSize: 0x34 }
  - { offset: 0x51FCE, size: 0x8, addend: 0x0, symName: __ZNSt3__15beginB8ue170006IN6parlay8sequenceINS_5tupleIJlldEEENS1_9allocatorIS4_EELb0EEEEEDTcldtfp_5beginEERT_, symObjAddr: 0x6AAE8, symBinAddr: 0x10006DF84, symSize: 0x24 }
  - { offset: 0x52003, size: 0x8, addend: 0x0, symName: __ZNSt3__13endB8ue170006IN6parlay8sequenceINS_5tupleIJlldEEENS1_9allocatorIS4_EELb0EEEEEDTcldtfp_3endEERT_, symObjAddr: 0x6AB0C, symBinAddr: 0x10006DFA8, symSize: 0x24 }
  - { offset: 0x52038, size: 0x8, addend: 0x0, symName: __ZNSt3__127__memberwise_forward_assignB8ue170006INS_5tupleIJlldEEES2_JlldEJLm0ELm1ELm2EEEEvRT_OT0_NS_13__tuple_typesIJDpT1_EEENS_15__tuple_indicesIJXspT2_EEEE, symObjAddr: 0x6C5A4, symBinAddr: 0x10006FA40, symSize: 0xB0 }
  - { offset: 0x520C9, size: 0x8, addend: 0x0, symName: __ZNSt3__19__swallowB8ue170006IJiiiEEEvDpOT_, symObjAddr: 0x6C654, symBinAddr: 0x10006FAF0, symSize: 0x18 }
  - { offset: 0x5211A, size: 0x8, addend: 0x0, symName: __ZNSt3__13getB8ue170006ILm2EJlldEEERNS_13tuple_elementIXT_ENS_5tupleIJDpT0_EEEE4typeERS5_, symObjAddr: 0x6C66C, symBinAddr: 0x10006FB08, symSize: 0x28 }
  - { offset: 0x52253, size: 0x8, addend: 0x0, symName: __ZNSt3__139atomic_compare_exchange_strong_explicitB8ue170006IPvEEbPNS_6atomicIT_EEPNS4_10value_typeES6_NS_12memory_orderES8_, symObjAddr: 0x6D6FC, symBinAddr: 0x100070B98, symSize: 0x48 }
  - { offset: 0x522C6, size: 0x8, addend: 0x0, symName: __ZNSt3__136__cxx_atomic_compare_exchange_strongB8ue170006IPvEEbPNS_22__cxx_atomic_base_implIT_EEPS3_S3_NS_12memory_orderES7_, symObjAddr: 0x6D78C, symBinAddr: 0x100070C28, symSize: 0x640 }
  - { offset: 0x52339, size: 0x8, addend: 0x0, symName: __ZNSt3__1gtB8ue170006IJlldEJlldEEEbRKNS_5tupleIJDpT_EEERKNS1_IJDpT0_EEE, symObjAddr: 0x6DDE0, symBinAddr: 0x10007127C, symSize: 0x30 }
  - { offset: 0x523A0, size: 0x8, addend: 0x0, symName: __ZNSt3__1eqB8ue170006IJlldEJlldEEEbRKNS_5tupleIJDpT_EEERKNS1_IJDpT0_EEE, symObjAddr: 0x6DE10, symBinAddr: 0x1000712AC, symSize: 0x34 }
  - { offset: 0x52407, size: 0x8, addend: 0x0, symName: __ZNSt3__1ltB8ue170006IJlldEJlldEEEbRKNS_5tupleIJDpT_EEERKNS1_IJDpT0_EEE, symObjAddr: 0x6DE44, symBinAddr: 0x1000712E0, symSize: 0x34 }
  - { offset: 0x52543, size: 0x8, addend: 0x0, symName: __ZNSt3__13getB8ue170006ILm2EJlldEEERKNS_13tuple_elementIXT_ENS_5tupleIJDpT0_EEEE4typeERKS5_, symObjAddr: 0x6E108, symBinAddr: 0x1000715A4, symSize: 0x28 }
  - { offset: 0x54274, size: 0x8, addend: 0x0, symName: __ZSt28__throw_bad_array_new_lengthB8ue170006v, symObjAddr: 0x40EC, symBinAddr: 0x100007588, symSize: 0x34 }
  - { offset: 0x55ABE, size: 0x8, addend: 0x0, symName: __ZN6parlay8internal12hazptr_stackIPvE15hazptr_instanceEv, symObjAddr: 0x6654, symBinAddr: 0x100009AF0, symSize: 0xBC }
  - { offset: 0x55ADD, size: 0x8, addend: 0x0, symName: __ZZN6parlay8internal12hazptr_stackIPvE15hazptr_instanceEvE8instance, symObjAddr: 0x70838, symBinAddr: 0x100088078, symSize: 0x0 }
  - { offset: 0x55C22, size: 0x8, addend: 0x0, symName: __ZN6parlay8internal12ThreadIdPool19get_local_thread_idEv, symObjAddr: 0x87FC, symBinAddr: 0x10000BC98, symSize: 0x98 }
  - { offset: 0x55C41, size: 0x8, addend: 0x0, symName: __ZZN6parlay8internal12ThreadIdPool19get_local_thread_idEvE5my_id, symObjAddr: 0x7949F, symBinAddr: 0x1000904E0, symSize: 0x0 }
  - { offset: 0x55C4D, size: 0x8, addend: 0x0, symName: __ZN6parlay8internal12ThreadIdPool8instanceEv, symObjAddr: 0x8894, symBinAddr: 0x10000BD30, symSize: 0xC4 }
  - { offset: 0x55C6C, size: 0x8, addend: 0x0, symName: __ZZN6parlay8internal12ThreadIdPool8instanceEvE4pool, symObjAddr: 0x70968, symBinAddr: 0x1000881A8, symSize: 0x0 }
  - { offset: 0x55C77, size: 0x8, addend: 0x0, symName: __ZN6parlay8internal12ThreadIdPool7acquireEv, symObjAddr: 0x9F58, symBinAddr: 0x10000D3F4, symSize: 0x1BC }
  - { offset: 0x55C9A, size: 0x8, addend: 0x0, symName: __ZZN6parlay8internal12ThreadIdPool7acquireEvE2m_, symObjAddr: 0x70980, symBinAddr: 0x1000881C0, symSize: 0x0 }
  - { offset: 0x55CD4, size: 0x8, addend: 0x0, symName: __ZN6parlay8internal12hazptr_stackIPSt4byteE15hazptr_instanceEv, symObjAddr: 0xC948, symBinAddr: 0x10000FDE4, symSize: 0xBC }
  - { offset: 0x55CF3, size: 0x8, addend: 0x0, symName: __ZZN6parlay8internal12hazptr_stackIPSt4byteE15hazptr_instanceEvE8instance, symObjAddr: 0x709C8, symBinAddr: 0x100088208, symSize: 0x0 }
  - { offset: 0x55CFE, size: 0x8, addend: 0x0, symName: __ZN6parlay8internal12hazptr_stackIPNS0_15block_allocator5blockEE15hazptr_instanceEv, symObjAddr: 0xF8BC, symBinAddr: 0x100012D58, symSize: 0xBC }
  - { offset: 0x55D1D, size: 0x8, addend: 0x0, symName: __ZZN6parlay8internal12hazptr_stackIPNS0_15block_allocator5blockEE15hazptr_instanceEvE8instance, symObjAddr: 0x70AF8, symBinAddr: 0x100088338, symSize: 0x0 }
  - { offset: 0x55D2D, size: 0x8, addend: 0x0, symName: __ZN6parlay8internal15block_allocator13min_alignmentE, symObjAddr: 0x7A990, symBinAddr: 0x100078D30, symSize: 0x0 }
  - { offset: 0x55D4A, size: 0x8, addend: 0x0, symName: __ZN6parlay9schedulerINS_15WorkStealingJobEE10workerInfo13UNINITIALIZEDE, symObjAddr: 0x7AF14, symBinAddr: 0x1000792B4, symSize: 0x0 }
  - { offset: 0x55D58, size: 0x8, addend: 0x0, symName: __Z12__contentionPVKv, symObjAddr: 0x269EC, symBinAddr: 0x100029E88, symSize: 0x24 }
  - { offset: 0x55D84, size: 0x8, addend: 0x0, symName: __ZZ12__contentionPVKvE10contention, symObjAddr: 0x70C40, symBinAddr: 0x100088480, symSize: 0x0 }
  - { offset: 0x55E27, size: 0x8, addend: 0x0, symName: __ZN6parlay9schedulerINS_15WorkStealingJobEE13STEAL_TIMEOUTE, symObjAddr: 0x7AF18, symBinAddr: 0x1000792B8, symSize: 0x0 }
  - { offset: 0x56012, size: 0x8, addend: 0x0, symName: __ZN11hash_tuplic4hashENSt3__15tupleIJlldEEE, symObjAddr: 0x6D58C, symBinAddr: 0x100070A28, symSize: 0xAC }
  - { offset: 0x56035, size: 0x8, addend: 0x0, symName: __ZZN11hash_tuplic4hashENSt3__15tupleIJlldEEEE13random_prime1, symObjAddr: 0x7E968, symBinAddr: 0x10007CD08, symSize: 0x0 }
  - { offset: 0x5604A, size: 0x8, addend: 0x0, symName: __ZZN11hash_tuplic4hashENSt3__15tupleIJlldEEEE13random_prime2, symObjAddr: 0x7E970, symBinAddr: 0x10007CD10, symSize: 0x0 }
  - { offset: 0x5605F, size: 0x8, addend: 0x0, symName: __ZZN11hash_tuplic4hashENSt3__15tupleIJlldEEEE13random_prime3, symObjAddr: 0x7E978, symBinAddr: 0x10007CD18, symSize: 0x0 }
  - { offset: 0x5636D, size: 0x8, addend: 0x0, symName: __ZNSt3__16vectorImNS_9allocatorImEEE26__swap_out_circular_bufferERNS_14__split_bufferImRS2_EE, symObjAddr: 0x39F0, symBinAddr: 0x100006E8C, symSize: 0x110 }
  - { offset: 0x563C5, size: 0x8, addend: 0x0, symName: __ZN6parlay14ThreadSpecificINS_8internal24intrusive_acquire_retireINS1_12hazptr_stackIPvE4NodeENSt3__114default_deleteIS6_EELm1EE10ThreadDataEEC2Ev, symObjAddr: 0x68B0, symBinAddr: 0x100009D4C, symSize: 0x70 }
  - { offset: 0x566F9, size: 0x8, addend: 0x0, symName: __ZNSt3__110shared_ptrIN6parlay8internal12ThreadIdPoolEE18__enable_weak_thisB8ue170006IS3_S3_vEEvPKNS_23enable_shared_from_thisIT_EEPT0_, symObjAddr: 0x97B8, symBinAddr: 0x10000CC54, symSize: 0x7C }
  - { offset: 0x56767, size: 0x8, addend: 0x0, symName: __ZN6parlay14ThreadSpecificINS_8internal24intrusive_acquire_retireINS1_12hazptr_stackIPSt4byteE4NodeENSt3__114default_deleteIS7_EELm1EE10ThreadDataEEC2Ev, symObjAddr: 0xCBA4, symBinAddr: 0x100010040, symSize: 0x70 }
  - { offset: 0x569DC, size: 0x8, addend: 0x0, symName: __ZN6parlay14ThreadSpecificINS_8internal24intrusive_acquire_retireINS1_12hazptr_stackIPNS1_15block_allocator5blockEE4NodeENSt3__114default_deleteIS8_EELm1EE10ThreadDataEEC2Ev, symObjAddr: 0xFB18, symBinAddr: 0x100012FB4, symSize: 0x70 }
  - { offset: 0x56C51, size: 0x8, addend: 0x0, symName: __ZN6parlay14ThreadSpecificINS_8internal15block_allocator10local_listEEC2Ev, symObjAddr: 0x127C8, symBinAddr: 0x100015C64, symSize: 0x70 }
  - { offset: 0x57EFB, size: 0x8, addend: 0x0, symName: __ZN6parlay9schedulerINS_15WorkStealingJobEEC2Em, symObjAddr: 0x231A0, symBinAddr: 0x10002663C, symSize: 0x198 }
  - { offset: 0x58027, size: 0x8, addend: 0x0, symName: __ZNKSt3__16chrono13__duration_ltINS0_8durationIxNS_5ratioILl1ELl1000000000EEEEENS2_IxNS3_ILl1ELl1000000EEEEEEclB8ue170006ERKS5_RKS7_, symObjAddr: 0x27EC0, symBinAddr: 0x10002B35C, symSize: 0x6C }
  - { offset: 0x58081, size: 0x8, addend: 0x0, symName: __ZNKSt3__16chrono15__duration_castINS0_8durationIxNS_5ratioILl1ELl1000000EEEEENS2_IxNS3_ILl1ELl1000000000EEEEENS3_ILl1000ELl1EEELb0ELb1EEclB8ue170006ERKS5_, symObjAddr: 0x28000, symBinAddr: 0x10002B49C, symSize: 0x48 }
  - { offset: 0x580C5, size: 0x8, addend: 0x0, symName: __ZNSt3__16vectorINS_6threadENS_9allocatorIS1_EEE26__swap_out_circular_bufferERNS_14__split_bufferIS1_RS3_EE, symObjAddr: 0x28740, symBinAddr: 0x10002BBDC, symSize: 0x110 }
  - { offset: 0x58262, size: 0x8, addend: 0x0, symName: __ZN6parlay8sequenceIbNS_9allocatorIbEELb0EE15initialize_fillEmRKb, symObjAddr: 0x22D14, symBinAddr: 0x1000261B0, symSize: 0x98 }
  - { offset: 0x5830E, size: 0x8, addend: 0x0, symName: __ZN6parlay19fork_join_scheduler7parfor_IZNS_8sequenceIbNS_9allocatorIbEELb0EE15initialize_fillEmRKbEUlmE_EEvRNS_9schedulerINS_15WorkStealingJobEEEmmRT_mb, symObjAddr: 0x2AF64, symBinAddr: 0x10002E400, symSize: 0x150 }
  - { offset: 0x5856C, size: 0x8, addend: 0x0, symName: __ZN6parlay19fork_join_scheduler7parfor_IZNS_24uninitialized_relocate_nIPlmS3_EENSt3__14pairIT_T1_EES6_T0_S7_EUlmE_EEvRNS_9schedulerINS_15WorkStealingJobEEEmmRS6_mb, symObjAddr: 0x2CC78, symBinAddr: 0x100030114, symSize: 0x150 }
  - { offset: 0x58706, size: 0x8, addend: 0x0, symName: __ZN6parlay8sequenceIlNS_9allocatorIlEELb0EE15initialize_fillEmRKl, symObjAddr: 0x2D8A8, symBinAddr: 0x100030D44, symSize: 0x98 }
  - { offset: 0x587A7, size: 0x8, addend: 0x0, symName: __ZN6parlay19fork_join_scheduler7parfor_IZNS_8sequenceIlNS_9allocatorIlEELb0EE15initialize_fillEmRKlEUlmE_EEvRNS_9schedulerINS_15WorkStealingJobEEEmmRT_mb, symObjAddr: 0x2DF74, symBinAddr: 0x100031410, symSize: 0x150 }
  - { offset: 0x58A37, size: 0x8, addend: 0x0, symName: __ZN6parlay17sequence_internal13sequence_baseINSt3__14pairIlNS_8sequenceIlNS_9allocatorIlEELb0EEEEENS5_IS8_EELb0EE12storage_impl11destroy_allEv, symObjAddr: 0x2EBDC, symBinAddr: 0x100032078, symSize: 0x68 }
  - { offset: 0x58AC9, size: 0x8, addend: 0x0, symName: __ZN6parlay19fork_join_scheduler7parfor_IZNS_17sequence_internal13sequence_baseINSt3__14pairIlNS_8sequenceIlNS_9allocatorIlEELb0EEEEENS7_ISA_EELb0EE12storage_impl11destroy_allEvEUlmE_EEvRNS_9schedulerINS_15WorkStealingJobEEEmmRT_mb, symObjAddr: 0x2F22C, symBinAddr: 0x1000326C8, symSize: 0x150 }
  - { offset: 0x58D7A, size: 0x8, addend: 0x0, symName: __ZN6parlay8sequenceINSt3__14pairIliEENS_9allocatorIS3_EELb0EE15initialize_fillEmRKS3_, symObjAddr: 0x30D20, symBinAddr: 0x1000341BC, symSize: 0x98 }
  - { offset: 0x58E20, size: 0x8, addend: 0x0, symName: __ZN6parlay19fork_join_scheduler7parfor_IZNS_8sequenceINSt3__14pairIliEENS_9allocatorIS5_EELb0EE15initialize_fillEmRKS5_EUlmE_EEvRNS_9schedulerINS_15WorkStealingJobEEEmmRT_mb, symObjAddr: 0x316A0, symBinAddr: 0x100034B3C, symSize: 0x150 }
  - { offset: 0x5909C, size: 0x8, addend: 0x0, symName: __ZN6parlay8sequenceImNS_9allocatorImEELb0EE18initialize_defaultEm, symObjAddr: 0x33CC8, symBinAddr: 0x100037164, symSize: 0x8C }
  - { offset: 0x59126, size: 0x8, addend: 0x0, symName: __ZN6parlay19fork_join_scheduler7parfor_IZNS_8sequenceImNS_9allocatorImEELb0EE18initialize_defaultEmEUlmE_EEvRNS_9schedulerINS_15WorkStealingJobEEEmmRT_mb, symObjAddr: 0x3499C, symBinAddr: 0x100037E38, symSize: 0x150 }
  - { offset: 0x594C9, size: 0x8, addend: 0x0, symName: __ZN6parlay8sequenceIjNS_9allocatorIjEELb0EE18initialize_defaultEm, symObjAddr: 0x363A4, symBinAddr: 0x100039840, symSize: 0x8C }
  - { offset: 0x59553, size: 0x8, addend: 0x0, symName: __ZN6parlay19fork_join_scheduler7parfor_IZNS_8sequenceIjNS_9allocatorIjEELb0EE18initialize_defaultEmEUlmE_EEvRNS_9schedulerINS_15WorkStealingJobEEEmmRT_mb, symObjAddr: 0x368E4, symBinAddr: 0x100039D80, symSize: 0x150 }
  - { offset: 0x596EE, size: 0x8, addend: 0x0, symName: _main, symObjAddr: 0x110, symBinAddr: 0x1000035AC, symSize: 0x360 }
  - { offset: 0x59A87, size: 0x8, addend: 0x0, symName: '__ZN6parlay19fork_join_scheduler7parfor_IZNS_8internal11count_sort_INS_22uninitialized_copy_tagEjNS_16delayed_sequenceINSt3__15tupleIJlldEEES8_Z4mainE3$_0E8iteratorEPS8_NS5_ImmZNS2_22collect_reduce_sparse_IS4_NS_5sliceISB_SB_EENS_19group_by_key_helperIS8_14TupleFirstHash15TupleFirstEqualEEEEDaT0_RKT1_EUlmE_E8iteratorEEENS6_4pairINS_8sequenceImNS_9allocatorImEELb0EEEbEENSE_ISM_SM_EENSE_IT2_SZ_EENSE_IT3_S11_EEmfbEUlmE_EEvRNS_9schedulerINS_15WorkStealingJobEEEmmRT_mb', symObjAddr: 0x376C0, symBinAddr: 0x10003AB5C, symSize: 0x150 }
  - { offset: 0x59C24, size: 0x8, addend: 0x0, symName: '__ZN6parlay19fork_join_scheduler7parfor_IZNS_8internal11count_sort_INS_22uninitialized_copy_tagEjNS_16delayed_sequenceINSt3__15tupleIJlldEEES8_Z4mainE3$_0E8iteratorEPS8_NS5_ImmZNS2_22collect_reduce_sparse_IS4_NS_5sliceISB_SB_EENS_19group_by_key_helperIS8_14TupleFirstHash15TupleFirstEqualEEEEDaT0_RKT1_EUlmE_E8iteratorEEENS6_4pairINS_8sequenceImNS_9allocatorImEELb0EEEbEENSE_ISM_SM_EENSE_IT2_SZ_EENSE_IT3_S11_EEmfbEUlmE0_EEvRNS_9schedulerINS_15WorkStealingJobEEEmmRT_mb', symObjAddr: 0x38270, symBinAddr: 0x10003B70C, symSize: 0x150 }
  - { offset: 0x59DF2, size: 0x8, addend: 0x0, symName: __ZN6parlay19fork_join_scheduler7parfor_IZNS_8internal10sliced_forIZNS2_5scan_INS_5sliceIPmS6_EES7_NS_4plusImEEEEDaRKT_T0_OT1_jbEUlmmmE_EEvmmSD_jEUlmE_EEvRNS_9schedulerINS_15WorkStealingJobEEEmmRSB_mb, symObjAddr: 0x3993C, symBinAddr: 0x10003CDD8, symSize: 0x150 }
  - { offset: 0x59F9E, size: 0x8, addend: 0x0, symName: __ZN6parlay19fork_join_scheduler7parfor_IZNS_8internal10sliced_forIZNS2_5scan_INS_5sliceIPmS6_EES7_NS_4plusImEEEEDaRKT_T0_OT1_jbEUlmmmE0_EEvmmSD_jEUlmE_EEvRNS_9schedulerINS_15WorkStealingJobEEEmmRSB_mb, symObjAddr: 0x3A824, symBinAddr: 0x10003DCC0, symSize: 0x150 }
  - { offset: 0x5A24A, size: 0x8, addend: 0x0, symName: '__ZN6parlay19fork_join_scheduler7parfor_IZNS_8internal11count_sort_INS_22uninitialized_copy_tagEjNS_16delayed_sequenceINSt3__15tupleIJlldEEES8_Z4mainE3$_0E8iteratorEPS8_NS5_ImmZNS2_22collect_reduce_sparse_IS4_NS_5sliceISB_SB_EENS_19group_by_key_helperIS8_14TupleFirstHash15TupleFirstEqualEEEEDaT0_RKT1_EUlmE_E8iteratorEEENS6_4pairINS_8sequenceImNS_9allocatorImEELb0EEEbEENSE_ISM_SM_EENSE_IT2_SZ_EENSE_IT3_S11_EEmfbEUlmE1_EEvRNS_9schedulerINS_15WorkStealingJobEEEmmRT_mb', symObjAddr: 0x3BDF8, symBinAddr: 0x10003F294, symSize: 0x150 }
  - { offset: 0x5A3E7, size: 0x8, addend: 0x0, symName: '__ZN6parlay19fork_join_scheduler7parfor_IZNS_8internal11count_sort_INS_22uninitialized_copy_tagEjNS_16delayed_sequenceINSt3__15tupleIJlldEEES8_Z4mainE3$_0E8iteratorEPS8_NS5_ImmZNS2_22collect_reduce_sparse_IS4_NS_5sliceISB_SB_EENS_19group_by_key_helperIS8_14TupleFirstHash15TupleFirstEqualEEEEDaT0_RKT1_EUlmE_E8iteratorEEENS6_4pairINS_8sequenceImNS_9allocatorImEELb0EEEbEENSE_ISM_SM_EENSE_IT2_SZ_EENSE_IT3_S11_EEmfbEUlmE2_EEvRNS_9schedulerINS_15WorkStealingJobEEEmmRT_mb', symObjAddr: 0x3CADC, symBinAddr: 0x10003FF78, symSize: 0x150 }
  - { offset: 0x5A584, size: 0x8, addend: 0x0, symName: '__ZN6parlay19fork_join_scheduler7parfor_IZNS_8internal11count_sort_INS_22uninitialized_copy_tagEmNS_16delayed_sequenceINSt3__15tupleIJlldEEES8_Z4mainE3$_0E8iteratorEPS8_NS5_ImmZNS2_22collect_reduce_sparse_IS4_NS_5sliceISB_SB_EENS_19group_by_key_helperIS8_14TupleFirstHash15TupleFirstEqualEEEEDaT0_RKT1_EUlmE_E8iteratorEEENS6_4pairINS_8sequenceImNS_9allocatorImEELb0EEEbEENSE_ISM_SM_EENSE_IT2_SZ_EENSE_IT3_S11_EEmfbEUlmE_EEvRNS_9schedulerINS_15WorkStealingJobEEEmmRT_mb', symObjAddr: 0x3DAAC, symBinAddr: 0x100040F48, symSize: 0x150 }
  - { offset: 0x5A721, size: 0x8, addend: 0x0, symName: '__ZN6parlay19fork_join_scheduler7parfor_IZNS_8internal11count_sort_INS_22uninitialized_copy_tagEmNS_16delayed_sequenceINSt3__15tupleIJlldEEES8_Z4mainE3$_0E8iteratorEPS8_NS5_ImmZNS2_22collect_reduce_sparse_IS4_NS_5sliceISB_SB_EENS_19group_by_key_helperIS8_14TupleFirstHash15TupleFirstEqualEEEEDaT0_RKT1_EUlmE_E8iteratorEEENS6_4pairINS_8sequenceImNS_9allocatorImEELb0EEEbEENSE_ISM_SM_EENSE_IT2_SZ_EENSE_IT3_S11_EEmfbEUlmE0_EEvRNS_9schedulerINS_15WorkStealingJobEEEmmRT_mb', symObjAddr: 0x3E5B0, symBinAddr: 0x100041A4C, symSize: 0x150 }
  - { offset: 0x5A8BE, size: 0x8, addend: 0x0, symName: '__ZN6parlay19fork_join_scheduler7parfor_IZNS_8internal11count_sort_INS_22uninitialized_copy_tagEmNS_16delayed_sequenceINSt3__15tupleIJlldEEES8_Z4mainE3$_0E8iteratorEPS8_NS5_ImmZNS2_22collect_reduce_sparse_IS4_NS_5sliceISB_SB_EENS_19group_by_key_helperIS8_14TupleFirstHash15TupleFirstEqualEEEEDaT0_RKT1_EUlmE_E8iteratorEEENS6_4pairINS_8sequenceImNS_9allocatorImEELb0EEEbEENSE_ISM_SM_EENSE_IT2_SZ_EENSE_IT3_S11_EEmfbEUlmE1_EEvRNS_9schedulerINS_15WorkStealingJobEEEmmRT_mb', symObjAddr: 0x3F108, symBinAddr: 0x1000425A4, symSize: 0x150 }
  - { offset: 0x5AA5B, size: 0x8, addend: 0x0, symName: '__ZN6parlay19fork_join_scheduler7parfor_IZNS_8internal11count_sort_INS_22uninitialized_copy_tagEmNS_16delayed_sequenceINSt3__15tupleIJlldEEES8_Z4mainE3$_0E8iteratorEPS8_NS5_ImmZNS2_22collect_reduce_sparse_IS4_NS_5sliceISB_SB_EENS_19group_by_key_helperIS8_14TupleFirstHash15TupleFirstEqualEEEEDaT0_RKT1_EUlmE_E8iteratorEEENS6_4pairINS_8sequenceImNS_9allocatorImEELb0EEEbEENSE_ISM_SM_EENSE_IT2_SZ_EENSE_IT3_S11_EEmfbEUlmE2_EEvRNS_9schedulerINS_15WorkStealingJobEEEmmRT_mb', symObjAddr: 0x3FC40, symBinAddr: 0x1000430DC, symSize: 0x150 }
  - { offset: 0x5AD85, size: 0x8, addend: 0x0, symName: __ZN6parlay17sequence_internal13sequence_baseINS_8sequenceINSt3__14pairIlNS2_IlNS_9allocatorIlEELb0EEEEENS5_IS8_EELb0EEENS5_ISA_EELb0EE12storage_impl11destroy_allEv, symObjAddr: 0x41F0C, symBinAddr: 0x1000453A8, symSize: 0x68 }
  - { offset: 0x5AE17, size: 0x8, addend: 0x0, symName: __ZN6parlay19fork_join_scheduler7parfor_IZNS_17sequence_internal13sequence_baseINS_8sequenceINSt3__14pairIlNS4_IlNS_9allocatorIlEELb0EEEEENS7_ISA_EELb0EEENS7_ISC_EELb0EE12storage_impl11destroy_allEvEUlmE_EEvRNS_9schedulerINS_15WorkStealingJobEEEmmRT_mb, symObjAddr: 0x42440, symBinAddr: 0x1000458DC, symSize: 0x150 }
  - { offset: 0x5AFAC, size: 0x8, addend: 0x0, symName: __ZN6parlay19group_by_key_helperINSt3__15tupleIJlldEEE14TupleFirstHash15TupleFirstEqualE6reduceINS_5sliceIPS3_S9_EEEENS1_4pairIlNS_8sequenceIlNS_9allocatorIlEELb0EEEEERT_, symObjAddr: 0x433FC, symBinAddr: 0x100046898, symSize: 0x90 }
  - { offset: 0x5B017, size: 0x8, addend: 0x0, symName: __ZN6parlay8sequenceIlNS_9allocatorIlEELb0EEC2IZNS_8internal3mapIRNS_5sliceIPNSt3__15tupleIJlldEEESB_EEZNS_19group_by_key_helperISA_14TupleFirstHash15TupleFirstEqualE6reduceISC_EENS8_4pairIlS3_EERT_EUlRKSA_E_EEDaOSL_OT0_mEUlmE_EEmSR_NS3_18_from_function_tagEm, symObjAddr: 0x43B38, symBinAddr: 0x100046FD4, symSize: 0xCC }
  - { offset: 0x5B0E5, size: 0x8, addend: 0x0, symName: __ZN6parlay19fork_join_scheduler7parfor_IZNS_8sequenceIlNS_9allocatorIlEELb0EEC1IZNS_8internal3mapIRNS_5sliceIPNSt3__15tupleIJlldEEESD_EEZNS_19group_by_key_helperISC_14TupleFirstHash15TupleFirstEqualE6reduceISE_EENSA_4pairIlS5_EERT_EUlRKSC_E_EEDaOSN_OT0_mEUlmE_EEmST_NS5_18_from_function_tagEmEUlmE_EEvRNS_9schedulerINS_15WorkStealingJobEEEmmSO_mb, symObjAddr: 0x44098, symBinAddr: 0x100047534, symSize: 0x150 }
  - { offset: 0x5B27A, size: 0x8, addend: 0x0, symName: __ZN6parlay17sequence_internal13sequence_baseIlNS_9allocatorIlEELb0EE12storage_implC2ERKS5_, symObjAddr: 0x449A0, symBinAddr: 0x100047E3C, symSize: 0x144 }
  - { offset: 0x5B338, size: 0x8, addend: 0x0, symName: __ZN6parlay19fork_join_scheduler7parfor_IZNS_17sequence_internal13sequence_baseIlNS_9allocatorIlEELb0EE12storage_implC1ERKS7_EUlmE_EEvRNS_9schedulerINS_15WorkStealingJobEEEmmRT_mb, symObjAddr: 0x44F34, symBinAddr: 0x1000483D0, symSize: 0x150 }
  - { offset: 0x5B4CD, size: 0x8, addend: 0x0, symName: __ZN6parlay8sequenceINSt3__14pairIlNS0_IlNS_9allocatorIlEELb0EEEEENS3_IS6_EELb0EE15initialize_fillEmRKS6_, symObjAddr: 0x45790, symBinAddr: 0x100048C2C, symSize: 0x98 }
  - { offset: 0x5B568, size: 0x8, addend: 0x0, symName: __ZN6parlay19fork_join_scheduler7parfor_IZNS_8sequenceINSt3__14pairIlNS2_IlNS_9allocatorIlEELb0EEEEENS5_IS8_EELb0EE15initialize_fillEmRKS8_EUlmE_EEvRNS_9schedulerINS_15WorkStealingJobEEEmmRT_mb, symObjAddr: 0x45CC8, symBinAddr: 0x100049164, symSize: 0x150 }
  - { offset: 0x5B7CA, size: 0x8, addend: 0x0, symName: '__ZN6parlay8sequenceINS0_INSt3__14pairIlNS0_IlNS_9allocatorIlEELb0EEEEENS3_IS6_EELb0EEENS3_IS8_EELb0EEC2IZNS_8internal22collect_reduce_sparse_INS_22uninitialized_copy_tagENS_5sliceINS_16delayed_sequenceINS1_5tupleIJlldEEESI_Z4mainE3$_0E8iteratorESL_EENS_19group_by_key_helperISI_14TupleFirstHash15TupleFirstEqualEEEEDaT0_RKT1_EUlmE0_EEmOT_NSA_18_from_function_tagEm', symObjAddr: 0x41940, symBinAddr: 0x100044DDC, symSize: 0xCC }
  - { offset: 0x5B89E, size: 0x8, addend: 0x0, symName: '__ZN6parlay19fork_join_scheduler7parfor_IZNS_8sequenceINS2_INSt3__14pairIlNS2_IlNS_9allocatorIlEELb0EEEEENS5_IS8_EELb0EEENS5_ISA_EELb0EEC1IZNS_8internal22collect_reduce_sparse_INS_22uninitialized_copy_tagENS_5sliceINS_16delayed_sequenceINS3_5tupleIJlldEEESK_Z4mainE3$_0E8iteratorESN_EENS_19group_by_key_helperISK_14TupleFirstHash15TupleFirstEqualEEEEDaT0_RKT1_EUlmE0_EEmOT_NSC_18_from_function_tagEmEUlmE_EEvRNS_9schedulerINS_15WorkStealingJobEEEmmRSZ_mb', symObjAddr: 0x466A8, symBinAddr: 0x100049B44, symSize: 0x150 }
  - { offset: 0x5BA3B, size: 0x8, addend: 0x0, symName: __ZN6parlay8sequenceImNS_9allocatorImEELb0EEC2IZNS_7flattenINSt3__14pairIlNS0_IlNS1_IlEELb0EEEEEEEDaONS0_INS0_IT_NS1_ISC_EEXsr3std7is_sameISC_cEE5valueEEENS1_ISE_EEXsr3std7is_sameISE_cEE5valueEEEEUlmE_EEmOSC_NS3_18_from_function_tagEm, symObjAddr: 0x470D8, symBinAddr: 0x10004A574, symSize: 0xCC }
  - { offset: 0x5BB09, size: 0x8, addend: 0x0, symName: __ZN6parlay19fork_join_scheduler7parfor_IZNS_8sequenceImNS_9allocatorImEELb0EEC1IZNS_7flattenINSt3__14pairIlNS2_IlNS3_IlEELb0EEEEEEEDaONS2_INS2_IT_NS3_ISE_EEXsr3std7is_sameISE_cEE5valueEEENS3_ISG_EEXsr3std7is_sameISG_cEE5valueEEEEUlmE_EEmOSE_NS5_18_from_function_tagEmEUlmE_EEvRNS_9schedulerINS_15WorkStealingJobEEEmmRSE_mb, symObjAddr: 0x4764C, symBinAddr: 0x10004AAE8, symSize: 0x150 }
  - { offset: 0x5BCAA, size: 0x8, addend: 0x0, symName: __ZN6parlay19fork_join_scheduler7parfor_IZNS_24uninitialized_relocate_nIPNSt3__14pairIlNS_8sequenceIlNS_9allocatorIlEELb0EEEEElSA_EENS4_IT_T1_EESB_T0_SC_EUlmE_EEvRNS_9schedulerINS_15WorkStealingJobEEEmmRSB_mb, symObjAddr: 0x48658, symBinAddr: 0x10004BAF4, symSize: 0x150 }
  - { offset: 0x5BE45, size: 0x8, addend: 0x0, symName: __ZN6parlay19fork_join_scheduler7parfor_IZNS_7flattenINSt3__14pairIlNS_8sequenceIlNS_9allocatorIlEELb0EEEEEEEDaONS5_INS5_IT_NS6_ISB_EEXsr3std7is_sameISB_cEE5valueEEENS6_ISD_EEXsr3std7is_sameISD_cEE5valueEEEEUlmE0_EEvRNS_9schedulerINS_15WorkStealingJobEEEmmRSB_mb, symObjAddr: 0x490A4, symBinAddr: 0x10004C540, symSize: 0x150 }
  - { offset: 0x5C00A, size: 0x8, addend: 0x0, symName: __ZNKSt3__16chrono15__duration_castINS0_8durationIxNS_5ratioILl1ELl1000000000EEEEENS2_IxNS3_ILl1ELl1000EEEEENS3_ILl1ELl1000000EEELb1ELb0EEclB8ue170006ERKS5_, symObjAddr: 0x49C4C, symBinAddr: 0x10004D0E8, symSize: 0x4C }
  - { offset: 0x5C86F, size: 0x8, addend: 0x0, symName: __ZN7TreeGenIldE20generateInitialEdgesEv, symObjAddr: 0x4CC, symBinAddr: 0x100003968, symSize: 0xA3C }
  - { offset: 0x5CBB2, size: 0x8, addend: 0x0, symName: __ZN6parlay8sequenceIlNS_9allocatorIlEELb0EEC2IZN7TreeGenIldE20generateInitialEdgesEvEUllE_EEmOT_NS3_18_from_function_tagEm, symObjAddr: 0x4C028, symBinAddr: 0x10004F4C4, symSize: 0xCC }
  - { offset: 0x5CC80, size: 0x8, addend: 0x0, symName: __ZN6parlay19fork_join_scheduler7parfor_IZNS_8sequenceIlNS_9allocatorIlEELb0EEC1IZN7TreeGenIldE20generateInitialEdgesEvEUllE_EEmOT_NS5_18_from_function_tagEmEUlmE_EEvRNS_9schedulerINS_15WorkStealingJobEEEmmRSA_mb, symObjAddr: 0x4C4E8, symBinAddr: 0x10004F984, symSize: 0x150 }
  - { offset: 0x5CE4C, size: 0x8, addend: 0x0, symName: __ZN6parlay19fork_join_scheduler7parfor_IZNS_8internal10sliced_forIZNS2_6reduceINS_5sliceIPlS6_EENS_4plusIlEEEEDaRKT_OT0_jEUlmmmE_EEvmmSD_jEUlmE_EEvRNS_9schedulerINS_15WorkStealingJobEEEmmRSB_mb, symObjAddr: 0x4DA48, symBinAddr: 0x100050EE4, symSize: 0x150 }
  - { offset: 0x5CFF8, size: 0x8, addend: 0x0, symName: __ZN6parlay19fork_join_scheduler7parfor_IZNS_8internal10sliced_forIZNS2_6reduceINS_8sequenceIlNS_9allocatorIlEELb0EEERNS_4plusIlEEEEDaRKT_OT0_jEUlmmmE_EEvmmSF_jEUlmE_EEvRNS_9schedulerINS_15WorkStealingJobEEEmmRSD_mb, symObjAddr: 0x4EBC4, symBinAddr: 0x100052060, symSize: 0x150 }
  - { offset: 0x5D1C6, size: 0x8, addend: 0x0, symName: __ZNSt3__124uniform_int_distributionIlEclIN6parlay16random_generatorEEElRT_RKNS1_10param_typeE, symObjAddr: 0x4F988, symBinAddr: 0x100052E24, symSize: 0x174 }
  - { offset: 0x5D285, size: 0x8, addend: 0x0, symName: __ZN6parlay8sequenceIlNS_9allocatorIlEELb0EEC2IZN7TreeGenIldE20generateInitialEdgesEvEUllE0_EEmOT_NS3_18_from_function_tagEm, symObjAddr: 0x4F588, symBinAddr: 0x100052A24, symSize: 0xCC }
  - { offset: 0x5D353, size: 0x8, addend: 0x0, symName: __ZN6parlay19fork_join_scheduler7parfor_IZNS_8sequenceIlNS_9allocatorIlEELb0EEC1IZN7TreeGenIldE20generateInitialEdgesEvEUllE0_EEmOT_NS5_18_from_function_tagEmEUlmE_EEvRNS_9schedulerINS_15WorkStealingJobEEEmmRSA_mb, symObjAddr: 0x4FFE8, symBinAddr: 0x100053484, symSize: 0x150 }
  - { offset: 0x5D577, size: 0x8, addend: 0x0, symName: __Z9nextafterB8ue170006IdfENSt3__19enable_ifIXaasr3std13is_arithmeticIT_EE5valuesr3std13is_arithmeticIT0_EE5valueENS0_9__promoteIS2_S3_vEEE4type4typeES2_S3_, symObjAddr: 0x526AC, symBinAddr: 0x100055B48, symSize: 0x30 }
  - { offset: 0x5D625, size: 0x8, addend: 0x0, symName: __ZN6parlay8sequenceIlNS_9allocatorIlEELb0EEC2IZN7TreeGenIldE20generateInitialEdgesEvEUllE1_EEmOT_NS3_18_from_function_tagEm, symObjAddr: 0x508EC, symBinAddr: 0x100053D88, symSize: 0xCC }
  - { offset: 0x5D6F3, size: 0x8, addend: 0x0, symName: __ZN6parlay19fork_join_scheduler7parfor_IZNS_8sequenceIlNS_9allocatorIlEELb0EEC1IZN7TreeGenIldE20generateInitialEdgesEvEUllE1_EEmOT_NS5_18_from_function_tagEmEUlmE_EEvRNS_9schedulerINS_15WorkStealingJobEEEmmRSA_mb, symObjAddr: 0x52884, symBinAddr: 0x100055D20, symSize: 0x150 }
  - { offset: 0x5D894, size: 0x8, addend: 0x0, symName: __ZN6parlay8sequenceIlNS_9allocatorIlEELb0EEC2IZN7TreeGenIldE20generateInitialEdgesEvEUllE2_EEmOT_NS3_18_from_function_tagEm, symObjAddr: 0x53188, symBinAddr: 0x100056624, symSize: 0xCC }
  - { offset: 0x5D962, size: 0x8, addend: 0x0, symName: __ZN6parlay19fork_join_scheduler7parfor_IZNS_8sequenceIlNS_9allocatorIlEELb0EEC1IZN7TreeGenIldE20generateInitialEdgesEvEUllE2_EEmOT_NS5_18_from_function_tagEmEUlmE_EEvRNS_9schedulerINS_15WorkStealingJobEEEmmRSA_mb, symObjAddr: 0x53680, symBinAddr: 0x100056B1C, symSize: 0x150 }
  - { offset: 0x5DB08, size: 0x8, addend: 0x0, symName: __ZN6parlay19fork_join_scheduler7parfor_IZNS_8internal10sliced_forIZNS2_5scan_INS_5sliceIPlS6_EES7_NS_4plusIlEEEEDaRKT_T0_OT1_jbEUlmmmE_EEvmmSD_jEUlmE_EEvRNS_9schedulerINS_15WorkStealingJobEEEmmRSB_mb, symObjAddr: 0x54B5C, symBinAddr: 0x100057FF8, symSize: 0x150 }
  - { offset: 0x5DCAE, size: 0x8, addend: 0x0, symName: __ZN6parlay19fork_join_scheduler7parfor_IZNS_8internal10sliced_forIZNS2_5scan_INS_5sliceIPlS6_EES7_NS_4plusIlEEEEDaRKT_T0_OT1_jbEUlmmmE0_EEvmmSD_jEUlmE_EEvRNS_9schedulerINS_15WorkStealingJobEEEmmRSB_mb, symObjAddr: 0x558A8, symBinAddr: 0x100058D44, symSize: 0x150 }
  - { offset: 0x5DE49, size: 0x8, addend: 0x0, symName: __ZN6parlay8sequenceIlNS_9allocatorIlEELb0EEC2IZN7TreeGenIldE20generateInitialEdgesEvEUllE3_EEmOT_NS3_18_from_function_tagEm, symObjAddr: 0x561CC, symBinAddr: 0x100059668, symSize: 0xCC }
  - { offset: 0x5DF17, size: 0x8, addend: 0x0, symName: __ZN6parlay19fork_join_scheduler7parfor_IZNS_8sequenceIlNS_9allocatorIlEELb0EEC1IZN7TreeGenIldE20generateInitialEdgesEvEUllE3_EEmOT_NS5_18_from_function_tagEmEUlmE_EEvRNS_9schedulerINS_15WorkStealingJobEEEmmRSA_mb, symObjAddr: 0x56680, symBinAddr: 0x100059B1C, symSize: 0x150 }
  - { offset: 0x5E0C4, size: 0x8, addend: 0x0, symName: __ZN6parlay19fork_join_scheduler7parfor_IZNS_8internal13find_if_indexIZNS_7find_ifIRNS_8sequenceIlNS_9allocatorIlEELb0EEEZN7TreeGenIldE20generateInitialEdgesEvEUllE4_EEDaOT_OT0_EUlmE_EEmmSF_mEUlmE_EEvRNS_9schedulerINS_15WorkStealingJobEEEmmRSE_mb, symObjAddr: 0x57C1C, symBinAddr: 0x10005B0B8, symSize: 0x150 }
  - { offset: 0x5E25F, size: 0x8, addend: 0x0, symName: __ZN6parlay8sequenceIlNS_9allocatorIlEELb0EEC2IZN7TreeGenIldE20generateInitialEdgesEvEUllE5_EEmOT_NS3_18_from_function_tagEm, symObjAddr: 0x58498, symBinAddr: 0x10005B934, symSize: 0xCC }
  - { offset: 0x5E32D, size: 0x8, addend: 0x0, symName: __ZN6parlay19fork_join_scheduler7parfor_IZNS_8sequenceIlNS_9allocatorIlEELb0EEC1IZN7TreeGenIldE20generateInitialEdgesEvEUllE5_EEmOT_NS5_18_from_function_tagEmEUlmE_EEvRNS_9schedulerINS_15WorkStealingJobEEEmmRSA_mb, symObjAddr: 0x58968, symBinAddr: 0x10005BE04, symSize: 0x150 }
  - { offset: 0x5E4C8, size: 0x8, addend: 0x0, symName: __ZN6parlay8sequenceINSt3__14pairIllEENS_9allocatorIS3_EELb0EEC2IZN7TreeGenIldE20generateInitialEdgesEvEUllE6_EEmOT_NS6_18_from_function_tagEm, symObjAddr: 0x591E4, symBinAddr: 0x10005C680, symSize: 0xCC }
  - { offset: 0x5E5A1, size: 0x8, addend: 0x0, symName: __ZN6parlay19fork_join_scheduler7parfor_IZNS_8sequenceINSt3__14pairIllEENS_9allocatorIS5_EELb0EEC1IZN7TreeGenIldE20generateInitialEdgesEvEUllE6_EEmOT_NS8_18_from_function_tagEmEUlmE_EEvRNS_9schedulerINS_15WorkStealingJobEEEmmRSD_mb, symObjAddr: 0x59CE8, symBinAddr: 0x10005D184, symSize: 0x150 }
  - { offset: 0x5E73C, size: 0x8, addend: 0x0, symName: __ZN6parlay19fork_join_scheduler7parfor_IZN7TreeGenIldE20generateInitialEdgesEvEUllE7_EEvRNS_9schedulerINS_15WorkStealingJobEEEmmRT_mb, symObjAddr: 0x5A874, symBinAddr: 0x10005DD10, symSize: 0x150 }
  - { offset: 0x5E8D1, size: 0x8, addend: 0x0, symName: __ZN6parlay8sequenceINSt3__16atomicIsEENS_9allocatorIS3_EELb0EE18initialize_defaultEm, symObjAddr: 0x5B148, symBinAddr: 0x10005E5E4, symSize: 0x8C }
  - { offset: 0x5E95B, size: 0x8, addend: 0x0, symName: __ZN6parlay19fork_join_scheduler7parfor_IZNS_8sequenceINSt3__16atomicIsEENS_9allocatorIS5_EELb0EE18initialize_defaultEmEUlmE_EEvRNS_9schedulerINS_15WorkStealingJobEEEmmRT_mb, symObjAddr: 0x5BA7C, symBinAddr: 0x10005EF18, symSize: 0x150 }
  - { offset: 0x5EAF0, size: 0x8, addend: 0x0, symName: __ZN6parlay8sequenceIlNS_9allocatorIlEELb0EE18initialize_defaultEm, symObjAddr: 0x5C3C4, symBinAddr: 0x10005F860, symSize: 0x8C }
  - { offset: 0x5EB6F, size: 0x8, addend: 0x0, symName: __ZN6parlay19fork_join_scheduler7parfor_IZNS_8sequenceIlNS_9allocatorIlEELb0EE18initialize_defaultEmEUlmE_EEvRNS_9schedulerINS_15WorkStealingJobEEEmmRT_mb, symObjAddr: 0x5C84C, symBinAddr: 0x10005FCE8, symSize: 0x150 }
  - { offset: 0x5ED04, size: 0x8, addend: 0x0, symName: __ZN6parlay8sequenceIdNS_9allocatorIdEELb0EE18initialize_defaultEm, symObjAddr: 0x5D0A0, symBinAddr: 0x10006053C, symSize: 0x8C }
  - { offset: 0x5ED8E, size: 0x8, addend: 0x0, symName: __ZN6parlay19fork_join_scheduler7parfor_IZNS_8sequenceIdNS_9allocatorIdEELb0EE18initialize_defaultEmEUlmE_EEvRNS_9schedulerINS_15WorkStealingJobEEEmmRT_mb, symObjAddr: 0x5D9D8, symBinAddr: 0x100060E74, symSize: 0x150 }
  - { offset: 0x5EF23, size: 0x8, addend: 0x0, symName: __ZN7TreeGenIldE16populateSubGraphENSt3__14pairIllEE, symObjAddr: 0x5E404, symBinAddr: 0x1000618A0, symSize: 0xCC }
  - { offset: 0x5EFF2, size: 0x8, addend: 0x0, symName: __ZN6parlay19fork_join_scheduler7parfor_IZN7TreeGenIldE16populateSubGraphENSt3__14pairIllEEEUllE_EEvRNS_9schedulerINS_15WorkStealingJobEEEmmRT_mb, symObjAddr: 0x5EC98, symBinAddr: 0x100062134, symSize: 0x150 }
  - { offset: 0x5F18D, size: 0x8, addend: 0x0, symName: __ZN6parlay19fork_join_scheduler7parfor_IZN7TreeGenIldE20generateInitialEdgesEvEUllE8_EEvRNS_9schedulerINS_15WorkStealingJobEEEmmRT_mb, symObjAddr: 0x5F5EC, symBinAddr: 0x100062A88, symSize: 0x150 }
  - { offset: 0x5F322, size: 0x8, addend: 0x0, symName: __ZN7TreeGenIldE13verifyParentsEv, symObjAddr: 0x4BD88, symBinAddr: 0x10004F224, symSize: 0xE0 }
  - { offset: 0x5F3C4, size: 0x8, addend: 0x0, symName: __ZN6parlay19fork_join_scheduler7parfor_IZN7TreeGenIldE13verifyParentsEvEUllE_EEvRNS_9schedulerINS_15WorkStealingJobEEEmmRT_mb, symObjAddr: 0x60300, symBinAddr: 0x10006379C, symSize: 0x150 }
  - { offset: 0x5F564, size: 0x8, addend: 0x0, symName: __ZN6parlay19fork_join_scheduler7parfor_IZN7TreeGenIldE13verifyParentsEvEUllE0_EEvRNS_9schedulerINS_15WorkStealingJobEEEmmRT_mb, symObjAddr: 0x60FDC, symBinAddr: 0x100064478, symSize: 0x150 }
  - { offset: 0x5F6F9, size: 0x8, addend: 0x0, symName: __ZN7TreeGenIldE21generateInterconnectsEv, symObjAddr: 0x4BE68, symBinAddr: 0x10004F304, symSize: 0x108 }
  - { offset: 0x5F79F, size: 0x8, addend: 0x0, symName: __ZN6parlay8sequenceINSt3__15tupleIJNS1_4pairIllEES4_NS2_IJlldEEEbEEENS_9allocatorIS6_EELb0EEC2IZN7TreeGenIldE21generateInterconnectsEvEUllE_EEmOT_NS9_18_from_function_tagEm, symObjAddr: 0x61914, symBinAddr: 0x100064DB0, symSize: 0xCC }
  - { offset: 0x5F878, size: 0x8, addend: 0x0, symName: __ZN6parlay19fork_join_scheduler7parfor_IZNS_8sequenceINSt3__15tupleIJNS3_4pairIllEES6_NS4_IJlldEEEbEEENS_9allocatorIS8_EELb0EEC1IZN7TreeGenIldE21generateInterconnectsEvEUllE_EEmOT_NSB_18_from_function_tagEmEUlmE_EEvRNS_9schedulerINS_15WorkStealingJobEEEmmRSG_mb, symObjAddr: 0x62DA0, symBinAddr: 0x10006623C, symSize: 0x150 }
  - { offset: 0x5FA0D, size: 0x8, addend: 0x0, symName: __ZN6parlay8sequenceIbNS_9allocatorIbEELb0EE18initialize_defaultEm, symObjAddr: 0x63C58, symBinAddr: 0x1000670F4, symSize: 0x8C }
  - { offset: 0x5FA8C, size: 0x8, addend: 0x0, symName: __ZN6parlay19fork_join_scheduler7parfor_IZNS_8sequenceIbNS_9allocatorIbEELb0EE18initialize_defaultEmEUlmE_EEvRNS_9schedulerINS_15WorkStealingJobEEEmmRT_mb, symObjAddr: 0x640E0, symBinAddr: 0x10006757C, symSize: 0x150 }
  - { offset: 0x5FC59, size: 0x8, addend: 0x0, symName: __ZN6parlay19fork_join_scheduler7parfor_IZNS_8internal10sliced_forIZNS2_10filter_mapINS_5sliceIPNSt3__15tupleIJNS6_4pairIllEES9_NS7_IJlldEEEbEEESC_EEZN7TreeGenIldE21generateInterconnectsEvEUlSB_E_RZNS2_6filterISD_SG_EENS_8sequenceINT_10value_typeENS_9allocatorISK_EEXsr3std7is_sameISK_cEE5valueEEERKSJ_OT0_EUlOSJ_E_EEDaSP_SR_OT1_EUlmmmE_EEvmmSP_jEUlmE_EEvRNS_9schedulerINS_15WorkStealingJobEEEmmRSJ_mb, symObjAddr: 0x64EA0, symBinAddr: 0x10006833C, symSize: 0x150 }
  - { offset: 0x5FE7C, size: 0x8, addend: 0x0, symName: __ZN6parlay19fork_join_scheduler7parfor_IZNS_8internal10sliced_forIZNS2_10filter_mapINS_5sliceIPNSt3__15tupleIJNS6_4pairIllEES9_NS7_IJlldEEEbEEESC_EEZN7TreeGenIldE21generateInterconnectsEvEUlSB_E_RZNS2_6filterISD_SG_EENS_8sequenceINT_10value_typeENS_9allocatorISK_EEXsr3std7is_sameISK_cEE5valueEEERKSJ_OT0_EUlOSJ_E_EEDaSP_SR_OT1_EUlmmmE0_EEvmmSP_jEUlmE_EEvRNS_9schedulerINS_15WorkStealingJobEEEmmRSJ_mb, symObjAddr: 0x66580, symBinAddr: 0x100069A1C, symSize: 0x150 }
  - { offset: 0x60011, size: 0x8, addend: 0x0, symName: __ZN7TreeGenIldE11getAllEdgesEv, symObjAddr: 0xF08, symBinAddr: 0x1000043A4, symSize: 0xE0 }
  - { offset: 0x60098, size: 0x8, addend: 0x0, symName: __ZN6parlay8sequenceINSt3__15tupleIJlldEEENS_9allocatorIS3_EELb0EEC2IZN7TreeGenIldE11getAllEdgesEvEUllE_EEmOT_NS6_18_from_function_tagEm, symObjAddr: 0x6711C, symBinAddr: 0x10006A5B8, symSize: 0xCC }
  - { offset: 0x60171, size: 0x8, addend: 0x0, symName: __ZN6parlay19fork_join_scheduler7parfor_IZNS_8sequenceINSt3__15tupleIJlldEEENS_9allocatorIS5_EELb0EEC1IZN7TreeGenIldE11getAllEdgesEvEUllE_EEmOT_NS8_18_from_function_tagEmEUlmE_EEvRNS_9schedulerINS_15WorkStealingJobEEEmmRSD_mb, symObjAddr: 0x67BB0, symBinAddr: 0x10006B04C, symSize: 0x150 }
  - { offset: 0x6031D, size: 0x8, addend: 0x0, symName: __ZN6parlay19fork_join_scheduler7parfor_IZNS_8internal10sliced_forIZNS2_10filter_mapINS_5sliceIPNSt3__15tupleIJlldEEES9_EEZN7TreeGenIldE11getAllEdgesEvEUlS8_E_RZNS2_6filterISA_SD_EENS_8sequenceINT_10value_typeENS_9allocatorISH_EEXsr3std7is_sameISH_cEE5valueEEERKSG_OT0_EUlOSG_E_EEDaSM_SO_OT1_EUlmmmE_EEvmmSM_jEUlmE_EEvRNS_9schedulerINS_15WorkStealingJobEEEmmRSG_mb, symObjAddr: 0x68E18, symBinAddr: 0x10006C2B4, symSize: 0x150 }
  - { offset: 0x6053A, size: 0x8, addend: 0x0, symName: __ZN6parlay19fork_join_scheduler7parfor_IZNS_8internal10sliced_forIZNS2_10filter_mapINS_5sliceIPNSt3__15tupleIJlldEEES9_EEZN7TreeGenIldE11getAllEdgesEvEUlS8_E_RZNS2_6filterISA_SD_EENS_8sequenceINT_10value_typeENS_9allocatorISH_EEXsr3std7is_sameISH_cEE5valueEEERKSG_OT0_EUlOSG_E_EEDaSM_SO_OT1_EUlmmmE0_EEvmmSM_jEUlmE_EEvRNS_9schedulerINS_15WorkStealingJobEEEmmRSG_mb, symObjAddr: 0x6A1C0, symBinAddr: 0x10006D65C, symSize: 0x150 }
  - { offset: 0x607B6, size: 0x8, addend: 0x0, symName: __ZN6parlay8sequenceIPvNS_9allocatorIS1_EELb0EE15initialize_fillEmRKS1_, symObjAddr: 0x6AE38, symBinAddr: 0x10006E2D4, symSize: 0x98 }
  - { offset: 0x6085C, size: 0x8, addend: 0x0, symName: __ZN6parlay19fork_join_scheduler7parfor_IZNS_8sequenceIPvNS_9allocatorIS3_EELb0EE15initialize_fillEmRKS3_EUlmE_EEvRNS_9schedulerINS_15WorkStealingJobEEEmmRT_mb, symObjAddr: 0x6BB30, symBinAddr: 0x10006EFCC, symSize: 0x150 }
  - { offset: 0x60A0D, size: 0x8, addend: 0x0, symName: '__ZN6parlay19fork_join_scheduler7parfor_IZ4mainE3$_1EEvRNS_9schedulerINS_15WorkStealingJobEEEmmRT_mb', symObjAddr: 0x6C80C, symBinAddr: 0x10006FCA8, symSize: 0x150 }
  - { offset: 0x60C1F, size: 0x8, addend: 0x0, symName: '__ZN6parlay19fork_join_scheduler7parfor_IZ4mainE3$_2EEvRNS_9schedulerINS_15WorkStealingJobEEEmmRT_mb', symObjAddr: 0x6E45C, symBinAddr: 0x1000718F8, symSize: 0x150 }
  - { offset: 0x60DE3, size: 0x8, addend: 0x0, symName: __ZNK6parlay8internal19ThreadListChunkData22thread_list_chunk_sizeMUlvE_clEv, symObjAddr: 0x0, symBinAddr: 0x10000349C, symSize: 0x5C }
  - { offset: 0x60E16, size: 0x8, addend: 0x0, symName: __ZL13getMemorySizev, symObjAddr: 0x5C, symBinAddr: 0x1000034F8, symSize: 0xB4 }
  - { offset: 0x60E5F, size: 0x8, addend: 0x0, symName: __ZN7TreeGenIldEC1Eldddd12distribution, symObjAddr: 0x470, symBinAddr: 0x10000390C, symSize: 0x5C }
  - { offset: 0x60EDD, size: 0x8, addend: 0x0, symName: __ZNK6parlay8sequenceINSt3__15tupleIJlldEEENS_9allocatorIS3_EELb0EE4sizeEv, symObjAddr: 0x1028, symBinAddr: 0x1000044C4, symSize: 0x24 }
  - { offset: 0x60F03, size: 0x8, addend: 0x0, symName: __ZN6parlay9hashtableI11hash_tuplicEC1EmS1_d, symObjAddr: 0x109C, symBinAddr: 0x100004538, symSize: 0x3C }
  - { offset: 0x60F57, size: 0x8, addend: 0x0, symName: __ZNSt3__15tupleIJlldEEC1B8ue170006INS_37__is_implicitly_default_constructibleELi0EEEv, symObjAddr: 0x10D8, symBinAddr: 0x100004574, symSize: 0x2C }
  - { offset: 0x60F91, size: 0x8, addend: 0x0, symName: '__ZNK6parlay16delayed_sequenceINSt3__15tupleIJlldEEES3_Z4mainE3$_0E4sizeEv', symObjAddr: 0x1210, symBinAddr: 0x1000046AC, symSize: 0x70 }
  - { offset: 0x60FB7, size: 0x8, addend: 0x0, symName: __ZNKSt3__16chrono8durationIxNS_5ratioILl1ELl1000EEEE5countB8ue170006Ev, symObjAddr: 0x145C, symBinAddr: 0x1000048F8, symSize: 0x18 }
  - { offset: 0x60FDD, size: 0x8, addend: 0x0, symName: __ZNSt3__113basic_ostreamIcNS_11char_traitsIcEEElsB8ue170006EPFRS3_S4_E, symObjAddr: 0x1474, symBinAddr: 0x100004910, symSize: 0x2C }
  - { offset: 0x61011, size: 0x8, addend: 0x0, symName: __ZN6parlay9hashtableI11hash_tuplicED1Ev, symObjAddr: 0x14F8, symBinAddr: 0x100004994, symSize: 0x2C }
  - { offset: 0x6103B, size: 0x8, addend: 0x0, symName: __ZN6parlay8sequenceINSt3__14pairIlNS0_IlNS_9allocatorIlEELb0EEEEENS3_IS6_EELb0EED1Ev, symObjAddr: 0x1524, symBinAddr: 0x1000049C0, symSize: 0x2C }
  - { offset: 0x61067, size: 0x8, addend: 0x0, symName: __ZN6parlay8sequenceINSt3__15tupleIJlldEEENS_9allocatorIS3_EELb0EED1Ev, symObjAddr: 0x1550, symBinAddr: 0x1000049EC, symSize: 0x2C }
  - { offset: 0x61093, size: 0x8, addend: 0x0, symName: __ZN7TreeGenIldED1Ev, symObjAddr: 0x157C, symBinAddr: 0x100004A18, symSize: 0x2C }
  - { offset: 0x610BF, size: 0x8, addend: 0x0, symName: __ZN6parlay9schedulerINS_15WorkStealingJobEE10workerInfoC1Ev, symObjAddr: 0x15A8, symBinAddr: 0x100004A44, symSize: 0x2C }
  - { offset: 0x610E9, size: 0x8, addend: 0x0, symName: '__ZN6parlay16delayed_sequenceINSt3__15tupleIJlldEEES3_Z4mainE3$_0EC1EmS4_', symObjAddr: 0x15D4, symBinAddr: 0x100004A70, symSize: 0x3C }
  - { offset: 0x6112F, size: 0x8, addend: 0x0, symName: '__ZN6parlay16delayed_sequenceINSt3__15tupleIJlldEEES3_Z4mainE3$_0EC2EmS4_', symObjAddr: 0x1610, symBinAddr: 0x100004AAC, symSize: 0x50 }
  - { offset: 0x61175, size: 0x8, addend: 0x0, symName: '__ZN6parlay25copyable_function_wrapperIZ4mainE3$_0EC1ES1_', symObjAddr: 0x1660, symBinAddr: 0x100004AFC, symSize: 0x34 }
  - { offset: 0x611AE, size: 0x8, addend: 0x0, symName: '__ZN6parlay25copyable_function_wrapperIZ4mainE3$_0EC2ES1_', symObjAddr: 0x1694, symBinAddr: 0x100004B30, symSize: 0x20 }
  - { offset: 0x611E7, size: 0x8, addend: 0x0, symName: __ZN6parlay19group_by_key_helperINSt3__15tupleIJlldEEE14TupleFirstHash15TupleFirstEqualEC1ERKS4_RKS5_, symObjAddr: 0x16B4, symBinAddr: 0x100004B50, symSize: 0x3C }
  - { offset: 0x6122D, size: 0x8, addend: 0x0, symName: __ZN6parlay19group_by_key_helperINSt3__15tupleIJlldEEE14TupleFirstHash15TupleFirstEqualEC2ERKS4_RKS5_, symObjAddr: 0x1738, symBinAddr: 0x100004BD4, symSize: 0x1C }
  - { offset: 0x61278, size: 0x8, addend: 0x0, symName: __ZNSt3__112basic_stringIcNS_11char_traitsIcEENS_9allocatorIcEEEC1B8ue170006ILi0EEEPKc, symObjAddr: 0x1BB0, symBinAddr: 0x10000504C, symSize: 0x34 }
  - { offset: 0x612BC, size: 0x8, addend: 0x0, symName: __ZN6parlay8internal5timerC1ENSt3__112basic_stringIcNS2_11char_traitsIcEENS2_9allocatorIcEEEEb, symObjAddr: 0x1BE4, symBinAddr: 0x100005080, symSize: 0x48 }
  - { offset: 0x61303, size: 0x8, addend: 0x0, symName: '__ZNK6parlay5sliceINS_16delayed_sequenceINSt3__15tupleIJlldEEES4_Z4mainE3$_0E8iteratorES7_E4sizeEv', symObjAddr: 0x1C2C, symBinAddr: 0x1000050C8, symSize: 0x2C }
  - { offset: 0x6132E, size: 0x8, addend: 0x0, symName: '__ZN6parlay8internal10get_bucketINS_19group_by_key_helperINSt3__15tupleIJlldEEE14TupleFirstHash15TupleFirstEqualEEEC1INS_5sliceINS_16delayed_sequenceIS5_S5_Z4mainE3$_0E8iteratorESF_EEEERKT_RKS8_m', symObjAddr: 0x21FC, symBinAddr: 0x100005698, symSize: 0x44 }
  - { offset: 0x6138B, size: 0x8, addend: 0x0, symName: __ZN6parlay9allocatorINSt3__15tupleIJlldEEEEC1Ev, symObjAddr: 0x2240, symBinAddr: 0x1000056DC, symSize: 0x2C }
  - { offset: 0x613B5, size: 0x8, addend: 0x0, symName: __ZN6parlay8internal22uninitialized_sequenceINSt3__15tupleIJlldEEENS_9allocatorIS4_EEEC1EmRKS6_, symObjAddr: 0x226C, symBinAddr: 0x100005708, symSize: 0x3C }
  - { offset: 0x613FB, size: 0x8, addend: 0x0, symName: __ZN6parlay8sequenceImNS_9allocatorImEELb0EEC1EOS3_, symObjAddr: 0x25EC, symBinAddr: 0x100005A88, symSize: 0x34 }
  - { offset: 0x6144F, size: 0x8, addend: 0x0, symName: __ZNSt3__14pairIN6parlay8sequenceImNS1_9allocatorImEELb0EEEbED1Ev, symObjAddr: 0x2620, symBinAddr: 0x100005ABC, symSize: 0x2C }
  - { offset: 0x6147B, size: 0x8, addend: 0x0, symName: __ZN6parlay8internal5timer4nextENSt3__112basic_stringIcNS2_11char_traitsIcEENS2_9allocatorIcEEEE, symObjAddr: 0x264C, symBinAddr: 0x100005AE8, symSize: 0x94 }
  - { offset: 0x614B0, size: 0x8, addend: 0x0, symName: __ZN6parlay8sequenceINS0_INSt3__14pairIlNS0_IlNS_9allocatorIlEELb0EEEEENS3_IS6_EELb0EEENS3_IS8_EELb0EED1Ev, symObjAddr: 0x2898, symBinAddr: 0x100005D34, symSize: 0x2C }
  - { offset: 0x614DC, size: 0x8, addend: 0x0, symName: __ZN6parlay8sequenceImNS_9allocatorImEELb0EED1Ev, symObjAddr: 0x28C4, symBinAddr: 0x100005D60, symSize: 0x2C }
  - { offset: 0x61508, size: 0x8, addend: 0x0, symName: __ZN6parlay8internal22uninitialized_sequenceINSt3__15tupleIJlldEEENS_9allocatorIS4_EEED1Ev, symObjAddr: 0x28F0, symBinAddr: 0x100005D8C, symSize: 0x2C }
  - { offset: 0x61532, size: 0x8, addend: 0x0, symName: __ZN6parlay8internal10get_bucketINS_19group_by_key_helperINSt3__15tupleIJlldEEE14TupleFirstHash15TupleFirstEqualEEED1Ev, symObjAddr: 0x291C, symBinAddr: 0x100005DB8, symSize: 0x2C }
  - { offset: 0x6155E, size: 0x8, addend: 0x0, symName: __ZN6parlay8internal5timerD1Ev, symObjAddr: 0x2948, symBinAddr: 0x100005DE4, symSize: 0x2C }
  - { offset: 0x6158A, size: 0x8, addend: 0x0, symName: __ZNSt3__112basic_stringIcNS_11char_traitsIcEENS_9allocatorIcEEEC2B8ue170006ILi0EEEPKc, symObjAddr: 0x2974, symBinAddr: 0x100005E10, symSize: 0x58 }
  - { offset: 0x615CF, size: 0x8, addend: 0x0, symName: __ZNSt3__117__compressed_pairINS_12basic_stringIcNS_11char_traitsIcEENS_9allocatorIcEEE5__repES5_EC1B8ue170006INS_18__default_init_tagESA_EEOT_OT0_, symObjAddr: 0x29CC, symBinAddr: 0x100005E68, symSize: 0x3C }
  - { offset: 0x61627, size: 0x8, addend: 0x0, symName: __ZNSt3__111char_traitsIcE6lengthB8ue170006EPKc, symObjAddr: 0x2A08, symBinAddr: 0x100005EA4, symSize: 0x34 }
  - { offset: 0x6164A, size: 0x8, addend: 0x0, symName: __ZNSt3__117__compressed_pairINS_12basic_stringIcNS_11char_traitsIcEENS_9allocatorIcEEE5__repES5_EC2B8ue170006INS_18__default_init_tagESA_EEOT_OT0_, symObjAddr: 0x2A3C, symBinAddr: 0x100005ED8, symSize: 0x3C }
  - { offset: 0x616A2, size: 0x8, addend: 0x0, symName: __ZNSt3__122__compressed_pair_elemINS_12basic_stringIcNS_11char_traitsIcEENS_9allocatorIcEEE5__repELi0ELb0EEC2B8ue170006ENS_18__default_init_tagE, symObjAddr: 0x2A78, symBinAddr: 0x100005F14, symSize: 0x14 }
  - { offset: 0x616D6, size: 0x8, addend: 0x0, symName: __ZNSt3__122__compressed_pair_elemINS_9allocatorIcEELi1ELb1EEC2B8ue170006ENS_18__default_init_tagE, symObjAddr: 0x2A8C, symBinAddr: 0x100005F28, symSize: 0x2C }
  - { offset: 0x6170A, size: 0x8, addend: 0x0, symName: __ZNSt3__19allocatorIcEC2B8ue170006Ev, symObjAddr: 0x2AB8, symBinAddr: 0x100005F54, symSize: 0x2C }
  - { offset: 0x61734, size: 0x8, addend: 0x0, symName: __ZNSt3__116__non_trivial_ifILb1ENS_9allocatorIcEEEC2B8ue170006Ev, symObjAddr: 0x2AE4, symBinAddr: 0x100005F80, symSize: 0x14 }
  - { offset: 0x6175E, size: 0x8, addend: 0x0, symName: __ZN6parlay8internal5timerC2ENSt3__112basic_stringIcNS2_11char_traitsIcEENS2_9allocatorIcEEEEb, symObjAddr: 0x2B2C, symBinAddr: 0x100005FC8, symSize: 0xA8 }
  - { offset: 0x617A5, size: 0x8, addend: 0x0, symName: __ZNSt3__16chrono10time_pointINS0_12system_clockENS0_8durationIxNS_5ratioILl1ELl1000000EEEEEEC1B8ue170006Ev, symObjAddr: 0x2BD4, symBinAddr: 0x100006070, symSize: 0x2C }
  - { offset: 0x617CF, size: 0x8, addend: 0x0, symName: __ZN6parlay8internal5timer5startEv, symObjAddr: 0x2C00, symBinAddr: 0x10000609C, symSize: 0x40 }
  - { offset: 0x617F5, size: 0x8, addend: 0x0, symName: __ZNSt3__16chrono10time_pointINS0_12system_clockENS0_8durationIxNS_5ratioILl1ELl1000000EEEEEEC2B8ue170006Ev, symObjAddr: 0x2C40, symBinAddr: 0x1000060DC, symSize: 0x34 }
  - { offset: 0x6181F, size: 0x8, addend: 0x0, symName: __ZNSt3__16chrono8durationIxNS_5ratioILl1ELl1000000EEEE4zeroB8ue170006Ev, symObjAddr: 0x2C74, symBinAddr: 0x100006110, symSize: 0x3C }
  - { offset: 0x61833, size: 0x8, addend: 0x0, symName: __ZNSt3__16chrono15duration_valuesIxE4zeroB8ue170006Ev, symObjAddr: 0x2CB0, symBinAddr: 0x10000614C, symSize: 0x8 }
  - { offset: 0x61857, size: 0x8, addend: 0x0, symName: __ZNSt3__16chrono8durationIxNS_5ratioILl1ELl1000000EEEEC1B8ue170006IxEERKT_PNS_9enable_ifIXaasr14is_convertibleIS8_xEE5valueooL_ZNS_17integral_constantIbLb0EE5valueEEntsr23treat_as_floating_pointIS6_EE5valueEvE4typeE, symObjAddr: 0x2CB8, symBinAddr: 0x100006154, symSize: 0x3C }
  - { offset: 0x618A3, size: 0x8, addend: 0x0, symName: __ZNSt3__16chrono8durationIxNS_5ratioILl1ELl1000000EEEEC2B8ue170006IxEERKT_PNS_9enable_ifIXaasr14is_convertibleIS8_xEE5valueooL_ZNS_17integral_constantIbLb0EE5valueEEntsr23treat_as_floating_pointIS6_EE5valueEvE4typeE, symObjAddr: 0x2CF4, symBinAddr: 0x100006190, symSize: 0x28 }
  - { offset: 0x618EF, size: 0x8, addend: 0x0, symName: __ZN6parlay8internal5timer8get_timeEv, symObjAddr: 0x2D1C, symBinAddr: 0x1000061B8, symSize: 0x28 }
  - { offset: 0x61915, size: 0x8, addend: 0x0, symName: '__ZNK6parlay16delayed_sequenceINSt3__15tupleIJlldEEES3_Z4mainE3$_0E8iteratormiERKS6_', symObjAddr: 0x2D44, symBinAddr: 0x1000061E0, symSize: 0x28 }
  - { offset: 0x61949, size: 0x8, addend: 0x0, symName: __ZN6parlay9allocatorINSt3__14pairIlNS_8sequenceIlNS0_IlEELb0EEEEEEC1Ev, symObjAddr: 0x2D6C, symBinAddr: 0x100006208, symSize: 0x2C }
  - { offset: 0x619D6, size: 0x8, addend: 0x0, symName: __ZN6parlay8internal22uninitialized_sequenceINSt3__14pairIlNS_8sequenceIlNS_9allocatorIlEELb0EEEEENS5_IS8_EEEC1EmRKS9_, symObjAddr: 0x2D98, symBinAddr: 0x100006234, symSize: 0x3C }
  - { offset: 0x61A1C, size: 0x8, addend: 0x0, symName: __ZN6parlay8sequenceIbNS_9allocatorIbEELb0EEC1EmRKb, symObjAddr: 0x2DD4, symBinAddr: 0x100006270, symSize: 0x3C }
  - { offset: 0x61A62, size: 0x8, addend: 0x0, symName: __ZN6parlay8internal22uninitialized_sequenceINSt3__14pairIlNS_8sequenceIlNS_9allocatorIlEELb0EEEEENS5_IS8_EEE5beginEv, symObjAddr: 0x2E10, symBinAddr: 0x1000062AC, symSize: 0x18 }
  - { offset: 0x61A88, size: 0x8, addend: 0x0, symName: __ZN6parlay8sequenceIbNS_9allocatorIbEELb0EE5beginEv, symObjAddr: 0x2E28, symBinAddr: 0x1000062C4, symSize: 0x24 }
  - { offset: 0x61AAE, size: 0x8, addend: 0x0, symName: '__ZNK6parlay5sliceINS_16delayed_sequenceINSt3__15tupleIJlldEEES4_Z4mainE3$_0E8iteratorES7_EixEm', symObjAddr: 0x2E4C, symBinAddr: 0x1000062E8, symSize: 0x2C }
  - { offset: 0x61AE2, size: 0x8, addend: 0x0, symName: __ZN6parlay19group_by_key_helperINSt3__15tupleIJlldEEE14TupleFirstHash15TupleFirstEqualE7get_keyERKS3_, symObjAddr: 0x2E78, symBinAddr: 0x100006314, symSize: 0x24 }
  - { offset: 0x61B05, size: 0x8, addend: 0x0, symName: __ZNK14TupleFirstHashclERKl, symObjAddr: 0x2E9C, symBinAddr: 0x100006338, symSize: 0x20 }
  - { offset: 0x61B39, size: 0x8, addend: 0x0, symName: __ZNK15TupleFirstEqualclERKlS1_, symObjAddr: 0x2EBC, symBinAddr: 0x100006358, symSize: 0x34 }
  - { offset: 0x61B7B, size: 0x8, addend: 0x0, symName: __ZN6parlay19group_by_key_helperINSt3__15tupleIJlldEEE14TupleFirstHash15TupleFirstEqualE7get_keyERNS1_4pairIlNS_8sequenceIlNS_9allocatorIlEELb0EEEEE, symObjAddr: 0x2EF0, symBinAddr: 0x10000638C, symSize: 0x24 }
  - { offset: 0x61B9E, size: 0x8, addend: 0x0, symName: __ZN6parlay19group_by_key_helperINSt3__15tupleIJlldEEE14TupleFirstHash15TupleFirstEqualE6updateERNS1_4pairIlNS_8sequenceIlNS_9allocatorIlEELb0EEEEERKS3_, symObjAddr: 0x2F14, symBinAddr: 0x1000063B0, symSize: 0x40 }
  - { offset: 0x61BD5, size: 0x8, addend: 0x0, symName: __ZN6parlay19group_by_key_helperINSt3__15tupleIJlldEEE14TupleFirstHash15TupleFirstEqualE4initERNS1_4pairIlNS_8sequenceIlNS_9allocatorIlEELb0EEEEERKS3_, symObjAddr: 0x2F54, symBinAddr: 0x1000063F0, symSize: 0x70 }
  - { offset: 0x61C36, size: 0x8, addend: 0x0, symName: __ZN6parlay8sequenceINSt3__14pairIlNS0_IlNS_9allocatorIlEELb0EEEEENS3_IS6_EELb0EE13uninitializedEm, symObjAddr: 0x2FF8, symBinAddr: 0x100006494, symSize: 0x38 }
  - { offset: 0x61C5A, size: 0x8, addend: 0x0, symName: __ZN6parlay8sequenceINSt3__14pairIlNS0_IlNS_9allocatorIlEELb0EEEEENS3_IS6_EELb0EE5beginEv, symObjAddr: 0x3030, symBinAddr: 0x1000064CC, symSize: 0x24 }
  - { offset: 0x61C80, size: 0x8, addend: 0x0, symName: __ZN6parlay8sequenceINSt3__14pairIlNS0_IlNS_9allocatorIlEELb0EEEEENS3_IS6_EELb0EEC1EOS8_, symObjAddr: 0x3054, symBinAddr: 0x1000064F0, symSize: 0x34 }
  - { offset: 0x61CB8, size: 0x8, addend: 0x0, symName: __ZN6parlay8sequenceIbNS_9allocatorIbEELb0EED1Ev, symObjAddr: 0x3088, symBinAddr: 0x100006524, symSize: 0x2C }
  - { offset: 0x61CE4, size: 0x8, addend: 0x0, symName: __ZN6parlay8internal22uninitialized_sequenceINSt3__14pairIlNS_8sequenceIlNS_9allocatorIlEELb0EEEEENS5_IS8_EEED1Ev, symObjAddr: 0x30B4, symBinAddr: 0x100006550, symSize: 0x2C }
  - { offset: 0x61D0E, size: 0x8, addend: 0x0, symName: __ZN6parlay9allocatorINSt3__14pairIlNS_8sequenceIlNS0_IlEELb0EEEEEEC2Ev, symObjAddr: 0x30E0, symBinAddr: 0x10000657C, symSize: 0x2C }
  - { offset: 0x61D38, size: 0x8, addend: 0x0, symName: __ZN6parlay8internal14pool_allocatorC1ERKNSt3__16vectorImNS2_9allocatorImEEEE, symObjAddr: 0x32F8, symBinAddr: 0x100006794, symSize: 0x34 }
  - { offset: 0x61D70, size: 0x8, addend: 0x0, symName: __ZNSt3__16vectorImNS_9allocatorImEEED1B8ue170006Ev, symObjAddr: 0x332C, symBinAddr: 0x1000067C8, symSize: 0x2C }
  - { offset: 0x61D9A, size: 0x8, addend: 0x0, symName: __ZN6parlay8internal14pool_allocatorD1Ev, symObjAddr: 0x3358, symBinAddr: 0x1000067F4, symSize: 0x2C }
  - { offset: 0x61DC4, size: 0x8, addend: 0x0, symName: __ZNSt3__16vectorImNS_9allocatorImEEEC1B8ue170006Ev, symObjAddr: 0x3384, symBinAddr: 0x100006820, symSize: 0x2C }
  - { offset: 0x61DEE, size: 0x8, addend: 0x0, symName: __ZNSt3__16vectorImNS_9allocatorImEEE9push_backB8ue170006EOm, symObjAddr: 0x33B0, symBinAddr: 0x10000684C, symSize: 0x6C }
  - { offset: 0x61E25, size: 0x8, addend: 0x0, symName: __ZNSt3__16vectorImNS_9allocatorImEEEC2B8ue170006Ev, symObjAddr: 0x341C, symBinAddr: 0x1000068B8, symSize: 0x4C }
  - { offset: 0x61E55, size: 0x8, addend: 0x0, symName: __ZNSt3__117__compressed_pairIPmNS_9allocatorImEEEC1B8ue170006IDnNS_18__default_init_tagEEEOT_OT0_, symObjAddr: 0x3468, symBinAddr: 0x100006904, symSize: 0x3C }
  - { offset: 0x61EAD, size: 0x8, addend: 0x0, symName: __ZNSt3__117__compressed_pairIPmNS_9allocatorImEEEC2B8ue170006IDnNS_18__default_init_tagEEEOT_OT0_, symObjAddr: 0x34A4, symBinAddr: 0x100006940, symSize: 0x40 }
  - { offset: 0x61F05, size: 0x8, addend: 0x0, symName: __ZNSt3__122__compressed_pair_elemIPmLi0ELb0EEC2B8ue170006IDnvEEOT_, symObjAddr: 0x34E4, symBinAddr: 0x100006980, symSize: 0x1C }
  - { offset: 0x61F48, size: 0x8, addend: 0x0, symName: __ZNSt3__122__compressed_pair_elemINS_9allocatorImEELi1ELb1EEC2B8ue170006ENS_18__default_init_tagE, symObjAddr: 0x3500, symBinAddr: 0x10000699C, symSize: 0x2C }
  - { offset: 0x61F7C, size: 0x8, addend: 0x0, symName: __ZNSt3__19allocatorImEC2B8ue170006Ev, symObjAddr: 0x352C, symBinAddr: 0x1000069C8, symSize: 0x2C }
  - { offset: 0x61FA6, size: 0x8, addend: 0x0, symName: __ZNSt3__116__non_trivial_ifILb1ENS_9allocatorImEEEC2B8ue170006Ev, symObjAddr: 0x3558, symBinAddr: 0x1000069F4, symSize: 0x14 }
  - { offset: 0x61FD0, size: 0x8, addend: 0x0, symName: __ZNSt3__16vectorImNS_9allocatorImEEE9__end_capB8ue170006Ev, symObjAddr: 0x356C, symBinAddr: 0x100006A08, symSize: 0x28 }
  - { offset: 0x61FFC, size: 0x8, addend: 0x0, symName: __ZNSt3__16vectorImNS_9allocatorImEEE22__construct_one_at_endB8ue170006IJmEEEvDpOT_, symObjAddr: 0x3594, symBinAddr: 0x100006A30, symSize: 0x90 }
  - { offset: 0x6204B, size: 0x8, addend: 0x0, symName: __ZNSt3__16vectorImNS_9allocatorImEEE21__push_back_slow_pathImEEvOT_, symObjAddr: 0x3624, symBinAddr: 0x100006AC0, symSize: 0xD8 }
  - { offset: 0x620A9, size: 0x8, addend: 0x0, symName: __ZNSt3__117__compressed_pairIPmNS_9allocatorImEEE5firstB8ue170006Ev, symObjAddr: 0x36FC, symBinAddr: 0x100006B98, symSize: 0x24 }
  - { offset: 0x620CF, size: 0x8, addend: 0x0, symName: __ZNSt3__122__compressed_pair_elemIPmLi0ELb0EE5__getB8ue170006Ev, symObjAddr: 0x3720, symBinAddr: 0x100006BBC, symSize: 0x14 }
  - { offset: 0x62110, size: 0x8, addend: 0x0, symName: __ZNSt3__16vectorImNS_9allocatorImEEE21_ConstructTransactionC1B8ue170006ERS3_m, symObjAddr: 0x3734, symBinAddr: 0x100006BD0, symSize: 0x3C }
  - { offset: 0x62158, size: 0x8, addend: 0x0, symName: __ZNSt3__116allocator_traitsINS_9allocatorImEEE9constructB8ue170006ImJmEvEEvRS2_PT_DpOT0_, symObjAddr: 0x3770, symBinAddr: 0x100006C0C, symSize: 0x34 }
  - { offset: 0x621B0, size: 0x8, addend: 0x0, symName: __ZNSt3__16vectorImNS_9allocatorImEEE7__allocB8ue170006Ev, symObjAddr: 0x37A4, symBinAddr: 0x100006C40, symSize: 0x28 }
  - { offset: 0x621D6, size: 0x8, addend: 0x0, symName: __ZNSt3__16vectorImNS_9allocatorImEEE21_ConstructTransactionD1B8ue170006Ev, symObjAddr: 0x37E0, symBinAddr: 0x100006C7C, symSize: 0x2C }
  - { offset: 0x62200, size: 0x8, addend: 0x0, symName: __ZNSt3__16vectorImNS_9allocatorImEEE21_ConstructTransactionC2B8ue170006ERS3_m, symObjAddr: 0x380C, symBinAddr: 0x100006CA8, symSize: 0x44 }
  - { offset: 0x62248, size: 0x8, addend: 0x0, symName: __ZNSt3__19allocatorImE9constructB8ue170006ImJmEEEvPT_DpOT0_, symObjAddr: 0x3850, symBinAddr: 0x100006CEC, symSize: 0x28 }
  - { offset: 0x6229E, size: 0x8, addend: 0x0, symName: __ZNSt3__117__compressed_pairIPmNS_9allocatorImEEE6secondB8ue170006Ev, symObjAddr: 0x3878, symBinAddr: 0x100006D14, symSize: 0x24 }
  - { offset: 0x622C4, size: 0x8, addend: 0x0, symName: __ZNSt3__122__compressed_pair_elemINS_9allocatorImEELi1ELb1EE5__getB8ue170006Ev, symObjAddr: 0x389C, symBinAddr: 0x100006D38, symSize: 0x14 }
  - { offset: 0x622EA, size: 0x8, addend: 0x0, symName: __ZNSt3__16vectorImNS_9allocatorImEEE21_ConstructTransactionD2B8ue170006Ev, symObjAddr: 0x38B0, symBinAddr: 0x100006D4C, symSize: 0x20 }
  - { offset: 0x62314, size: 0x8, addend: 0x0, symName: __ZNKSt3__16vectorImNS_9allocatorImEEE11__recommendB8ue170006Em, symObjAddr: 0x38D0, symBinAddr: 0x100006D6C, symSize: 0xB4 }
  - { offset: 0x62369, size: 0x8, addend: 0x0, symName: __ZNKSt3__16vectorImNS_9allocatorImEEE4sizeB8ue170006Ev, symObjAddr: 0x3984, symBinAddr: 0x100006E20, symSize: 0x28 }
  - { offset: 0x6238F, size: 0x8, addend: 0x0, symName: __ZNSt3__114__split_bufferImRNS_9allocatorImEEEC1EmmS3_, symObjAddr: 0x39AC, symBinAddr: 0x100006E48, symSize: 0x44 }
  - { offset: 0x623E5, size: 0x8, addend: 0x0, symName: __ZNSt3__114__split_bufferImRNS_9allocatorImEEED1Ev, symObjAddr: 0x3B00, symBinAddr: 0x100006F9C, symSize: 0x2C }
  - { offset: 0x62411, size: 0x8, addend: 0x0, symName: __ZNKSt3__16vectorImNS_9allocatorImEEE8max_sizeEv, symObjAddr: 0x3B2C, symBinAddr: 0x100006FC8, symSize: 0x60 }
  - { offset: 0x62439, size: 0x8, addend: 0x0, symName: __ZNKSt3__16vectorImNS_9allocatorImEEE20__throw_length_errorB8ue170006Ev, symObjAddr: 0x3B8C, symBinAddr: 0x100007028, symSize: 0x1C }
  - { offset: 0x6245F, size: 0x8, addend: 0x0, symName: __ZNKSt3__16vectorImNS_9allocatorImEEE8capacityB8ue170006Ev, symObjAddr: 0x3BA8, symBinAddr: 0x100007044, symSize: 0x40 }
  - { offset: 0x62490, size: 0x8, addend: 0x0, symName: __ZNSt3__116allocator_traitsINS_9allocatorImEEE8max_sizeB8ue170006IS2_vEEmRKS2_, symObjAddr: 0x3C14, symBinAddr: 0x1000070B0, symSize: 0x24 }
  - { offset: 0x624BF, size: 0x8, addend: 0x0, symName: __ZNKSt3__16vectorImNS_9allocatorImEEE7__allocB8ue170006Ev, symObjAddr: 0x3C38, symBinAddr: 0x1000070D4, symSize: 0x28 }
  - { offset: 0x624E5, size: 0x8, addend: 0x0, symName: __ZNSt3__114numeric_limitsIlE3maxB8ue170006Ev, symObjAddr: 0x3C60, symBinAddr: 0x1000070FC, symSize: 0x14 }
  - { offset: 0x62503, size: 0x8, addend: 0x0, symName: __ZNKSt3__16__lessIvvEclB8ue170006ImmEEbRKT_RKT0_, symObjAddr: 0x3CC8, symBinAddr: 0x100007164, symSize: 0x34 }
  - { offset: 0x62557, size: 0x8, addend: 0x0, symName: __ZNKSt3__19allocatorImE8max_sizeB8ue170006Ev, symObjAddr: 0x3CFC, symBinAddr: 0x100007198, symSize: 0x14 }
  - { offset: 0x6257D, size: 0x8, addend: 0x0, symName: __ZNKSt3__117__compressed_pairIPmNS_9allocatorImEEE6secondB8ue170006Ev, symObjAddr: 0x3D10, symBinAddr: 0x1000071AC, symSize: 0x24 }
  - { offset: 0x625A3, size: 0x8, addend: 0x0, symName: __ZNKSt3__122__compressed_pair_elemINS_9allocatorImEELi1ELb1EE5__getB8ue170006Ev, symObjAddr: 0x3D34, symBinAddr: 0x1000071D0, symSize: 0x14 }
  - { offset: 0x625C9, size: 0x8, addend: 0x0, symName: __ZNSt3__123__libcpp_numeric_limitsIlLb1EE3maxB8ue170006Ev, symObjAddr: 0x3D48, symBinAddr: 0x1000071E4, symSize: 0x8 }
  - { offset: 0x625DD, size: 0x8, addend: 0x0, symName: __ZNSt12length_errorC1B8ue170006EPKc, symObjAddr: 0x3DB4, symBinAddr: 0x100007250, symSize: 0x34 }
  - { offset: 0x62615, size: 0x8, addend: 0x0, symName: __ZNSt12length_errorC2B8ue170006EPKc, symObjAddr: 0x3DE8, symBinAddr: 0x100007284, symSize: 0x44 }
  - { offset: 0x6264D, size: 0x8, addend: 0x0, symName: __ZNKSt3__16vectorImNS_9allocatorImEEE9__end_capB8ue170006Ev, symObjAddr: 0x3E2C, symBinAddr: 0x1000072C8, symSize: 0x28 }
  - { offset: 0x62673, size: 0x8, addend: 0x0, symName: __ZNKSt3__117__compressed_pairIPmNS_9allocatorImEEE5firstB8ue170006Ev, symObjAddr: 0x3E54, symBinAddr: 0x1000072F0, symSize: 0x24 }
  - { offset: 0x62699, size: 0x8, addend: 0x0, symName: __ZNKSt3__122__compressed_pair_elemIPmLi0ELb0EE5__getB8ue170006Ev, symObjAddr: 0x3E78, symBinAddr: 0x100007314, symSize: 0x14 }
  - { offset: 0x626BF, size: 0x8, addend: 0x0, symName: __ZNSt3__114__split_bufferImRNS_9allocatorImEEEC2EmmS3_, symObjAddr: 0x3E8C, symBinAddr: 0x100007328, symSize: 0xD4 }
  - { offset: 0x62732, size: 0x8, addend: 0x0, symName: __ZNSt3__117__compressed_pairIPmRNS_9allocatorImEEEC1B8ue170006IDnS4_EEOT_OT0_, symObjAddr: 0x3F60, symBinAddr: 0x1000073FC, symSize: 0x3C }
  - { offset: 0x6278A, size: 0x8, addend: 0x0, symName: __ZNSt3__114__split_bufferImRNS_9allocatorImEEE7__allocB8ue170006Ev, symObjAddr: 0x3FDC, symBinAddr: 0x100007478, symSize: 0x28 }
  - { offset: 0x627B0, size: 0x8, addend: 0x0, symName: __ZNSt3__114__split_bufferImRNS_9allocatorImEEE9__end_capB8ue170006Ev, symObjAddr: 0x4004, symBinAddr: 0x1000074A0, symSize: 0x28 }
  - { offset: 0x627D6, size: 0x8, addend: 0x0, symName: __ZNSt3__117__compressed_pairIPmRNS_9allocatorImEEEC2B8ue170006IDnS4_EEOT_OT0_, symObjAddr: 0x402C, symBinAddr: 0x1000074C8, symSize: 0x48 }
  - { offset: 0x6282E, size: 0x8, addend: 0x0, symName: __ZNSt3__122__compressed_pair_elemIRNS_9allocatorImEELi1ELb0EEC2B8ue170006IS3_vEEOT_, symObjAddr: 0x4074, symBinAddr: 0x100007510, symSize: 0x20 }
  - { offset: 0x62871, size: 0x8, addend: 0x0, symName: __ZNSt3__19allocatorImE8allocateB8ue170006Em, symObjAddr: 0x4094, symBinAddr: 0x100007530, symSize: 0x58 }
  - { offset: 0x628A5, size: 0x8, addend: 0x0, symName: __ZNSt3__117__compressed_pairIPmRNS_9allocatorImEEE6secondB8ue170006Ev, symObjAddr: 0x41F0, symBinAddr: 0x10000768C, symSize: 0x28 }
  - { offset: 0x628CB, size: 0x8, addend: 0x0, symName: __ZNSt3__122__compressed_pair_elemIRNS_9allocatorImEELi1ELb0EE5__getB8ue170006Ev, symObjAddr: 0x4218, symBinAddr: 0x1000076B4, symSize: 0x18 }
  - { offset: 0x628F1, size: 0x8, addend: 0x0, symName: __ZNSt3__117__compressed_pairIPmRNS_9allocatorImEEE5firstB8ue170006Ev, symObjAddr: 0x4230, symBinAddr: 0x1000076CC, symSize: 0x24 }
  - { offset: 0x62917, size: 0x8, addend: 0x0, symName: __ZNKSt3__16vectorImNS_9allocatorImEEE17__annotate_deleteB8ue170006Ev, symObjAddr: 0x4254, symBinAddr: 0x1000076F0, symSize: 0xB8 }
  - { offset: 0x6293D, size: 0x8, addend: 0x0, symName: __ZNSt3__116reverse_iteratorIPmEC1B8ue170006ES1_, symObjAddr: 0x4384, symBinAddr: 0x100007820, symSize: 0x34 }
  - { offset: 0x62975, size: 0x8, addend: 0x0, symName: __ZNKSt3__116reverse_iteratorIPmE4baseB8ue170006Ev, symObjAddr: 0x43B8, symBinAddr: 0x100007854, symSize: 0x18 }
  - { offset: 0x6299B, size: 0x8, addend: 0x0, symName: __ZNKSt3__16vectorImNS_9allocatorImEEE14__annotate_newB8ue170006Em, symObjAddr: 0x440C, symBinAddr: 0x1000078A8, symSize: 0xAC }
  - { offset: 0x629D0, size: 0x8, addend: 0x0, symName: __ZNKSt3__16vectorImNS_9allocatorImEEE31__annotate_contiguous_containerB8ue170006EPKvS5_S5_S5_, symObjAddr: 0x44B8, symBinAddr: 0x100007954, symSize: 0x20 }
  - { offset: 0x62A22, size: 0x8, addend: 0x0, symName: __ZNKSt3__16vectorImNS_9allocatorImEEE4dataB8ue170006Ev, symObjAddr: 0x44D8, symBinAddr: 0x100007974, symSize: 0x28 }
  - { offset: 0x62A6E, size: 0x8, addend: 0x0, symName: __ZNKSt3__111__move_loopINS_17_ClassicAlgPolicyEEclB8ue170006INS_16reverse_iteratorIPmEES6_S6_EENS_4pairIT_T1_EES8_T0_S9_, symObjAddr: 0x47F0, symBinAddr: 0x100007C8C, symSize: 0xA0 }
  - { offset: 0x62AD9, size: 0x8, addend: 0x0, symName: __ZNSt3__18_IterOpsINS_17_ClassicAlgPolicyEE11__iter_moveB8ue170006IRNS_16reverse_iteratorIPmEEEENS_9enable_ifIXsr12is_referenceIDTdeclsr3stdE7declvalIRT_EEEEE5valueEDTclsr3stdE4movedeclsr3stdE7declvalISA_EEEEE4typeEOS9_, symObjAddr: 0x4A24, symBinAddr: 0x100007EC0, symSize: 0x28 }
  - { offset: 0x62B05, size: 0x8, addend: 0x0, symName: __ZNKSt3__116reverse_iteratorIPmEdeB8ue170006Ev, symObjAddr: 0x4A4C, symBinAddr: 0x100007EE8, symSize: 0x28 }
  - { offset: 0x62B39, size: 0x8, addend: 0x0, symName: __ZNSt3__116reverse_iteratorIPmEppB8ue170006Ev, symObjAddr: 0x4A74, symBinAddr: 0x100007F10, symSize: 0x20 }
  - { offset: 0x62B5F, size: 0x8, addend: 0x0, symName: __ZNSt3__18_IterOpsINS_17_ClassicAlgPolicyEE25__validate_iter_referenceB8ue170006IRNS_16reverse_iteratorIPmEEEEvv, symObjAddr: 0x4A94, symBinAddr: 0x100007F30, symSize: 0x4 }
  - { offset: 0x62B7D, size: 0x8, addend: 0x0, symName: __ZNSt3__118__unwrap_iter_implINS_16reverse_iteratorIPmEELb0EE8__unwrapB8ue170006ES3_, symObjAddr: 0x4A98, symBinAddr: 0x100007F34, symSize: 0x24 }
  - { offset: 0x62BA6, size: 0x8, addend: 0x0, symName: __ZNSt3__14pairINS_16reverse_iteratorIPmEES3_EC1B8ue170006IS3_S3_LPv0EEEOT_OT0_, symObjAddr: 0x4ABC, symBinAddr: 0x100007F58, symSize: 0x3C }
  - { offset: 0x62C05, size: 0x8, addend: 0x0, symName: __ZNSt3__14pairINS_16reverse_iteratorIPmEES3_EC2B8ue170006IS3_S3_LPv0EEEOT_OT0_, symObjAddr: 0x4AF8, symBinAddr: 0x100007F94, symSize: 0x34 }
  - { offset: 0x62C64, size: 0x8, addend: 0x0, symName: __ZNSt3__118__unwrap_iter_implINS_16reverse_iteratorIPmEELb0EE8__rewrapB8ue170006ES3_S3_, symObjAddr: 0x4B2C, symBinAddr: 0x100007FC8, symSize: 0x2C }
  - { offset: 0x62C91, size: 0x8, addend: 0x0, symName: __ZNSt3__116reverse_iteratorIPmEC2B8ue170006ES1_, symObjAddr: 0x4B58, symBinAddr: 0x100007FF4, symSize: 0x28 }
  - { offset: 0x62CC9, size: 0x8, addend: 0x0, symName: __ZNSt3__114__split_bufferImRNS_9allocatorImEEED2Ev, symObjAddr: 0x4B80, symBinAddr: 0x10000801C, symSize: 0x8C }
  - { offset: 0x62CF5, size: 0x8, addend: 0x0, symName: __ZNSt3__114__split_bufferImRNS_9allocatorImEEE5clearB8ue170006Ev, symObjAddr: 0x4C0C, symBinAddr: 0x1000080A8, symSize: 0x28 }
  - { offset: 0x62D1B, size: 0x8, addend: 0x0, symName: __ZNSt3__116allocator_traitsINS_9allocatorImEEE10deallocateB8ue170006ERS2_Pmm, symObjAddr: 0x4C34, symBinAddr: 0x1000080D0, symSize: 0x34 }
  - { offset: 0x62D5D, size: 0x8, addend: 0x0, symName: __ZNKSt3__114__split_bufferImRNS_9allocatorImEEE8capacityB8ue170006Ev, symObjAddr: 0x4C68, symBinAddr: 0x100008104, symSize: 0x40 }
  - { offset: 0x62D83, size: 0x8, addend: 0x0, symName: __ZNSt3__114__split_bufferImRNS_9allocatorImEEE17__destruct_at_endB8ue170006EPm, symObjAddr: 0x4CA8, symBinAddr: 0x100008144, symSize: 0x2C }
  - { offset: 0x62DB7, size: 0x8, addend: 0x0, symName: __ZNSt3__114__split_bufferImRNS_9allocatorImEEE17__destruct_at_endB8ue170006EPmNS_17integral_constantIbLb0EEE, symObjAddr: 0x4CD4, symBinAddr: 0x100008170, symSize: 0x80 }
  - { offset: 0x62DF7, size: 0x8, addend: 0x0, symName: __ZNSt3__116allocator_traitsINS_9allocatorImEEE7destroyB8ue170006ImvEEvRS2_PT_, symObjAddr: 0x4D54, symBinAddr: 0x1000081F0, symSize: 0x2C }
  - { offset: 0x62E35, size: 0x8, addend: 0x0, symName: __ZNSt3__19allocatorImE7destroyB8ue170006EPm, symObjAddr: 0x4D80, symBinAddr: 0x10000821C, symSize: 0x14 }
  - { offset: 0x62E69, size: 0x8, addend: 0x0, symName: __ZNSt3__19allocatorImE10deallocateB8ue170006EPmm, symObjAddr: 0x4D94, symBinAddr: 0x100008230, symSize: 0x40 }
  - { offset: 0x62EAB, size: 0x8, addend: 0x0, symName: __ZNKSt3__114__split_bufferImRNS_9allocatorImEEE9__end_capB8ue170006Ev, symObjAddr: 0x4EDC, symBinAddr: 0x100008378, symSize: 0x28 }
  - { offset: 0x62ED1, size: 0x8, addend: 0x0, symName: __ZNKSt3__117__compressed_pairIPmRNS_9allocatorImEEE5firstB8ue170006Ev, symObjAddr: 0x4F04, symBinAddr: 0x1000083A0, symSize: 0x24 }
  - { offset: 0x62EF7, size: 0x8, addend: 0x0, symName: __ZN6parlay8internal14pool_allocatorC2ERKNSt3__16vectorImNS2_9allocatorImEEEE, symObjAddr: 0x4F28, symBinAddr: 0x1000083C4, symSize: 0x370 }
  - { offset: 0x62FA7, size: 0x8, addend: 0x0, symName: __ZNSt3__16atomicImEC1B8ue170006Em, symObjAddr: 0x5298, symBinAddr: 0x100008734, symSize: 0x34 }
  - { offset: 0x62FDF, size: 0x8, addend: 0x0, symName: __ZNSt3__110unique_ptrIA_N6parlay8internal12hazptr_stackIPvEENS_14default_deleteIS6_EEEC1B8ue170006ILb1EvEEv, symObjAddr: 0x5334, symBinAddr: 0x1000087D0, symSize: 0x2C }
  - { offset: 0x63015, size: 0x8, addend: 0x0, symName: __ZNSt3__110unique_ptrIA_N6parlay8internal15block_allocatorENS2_20unique_array_deleterIS3_EEEC1B8ue170006ILb1EvEEv, symObjAddr: 0x5360, symBinAddr: 0x1000087FC, symSize: 0x2C }
  - { offset: 0x6304B, size: 0x8, addend: 0x0, symName: __ZNKSt3__110unique_ptrIA_mNS_14default_deleteIS1_EEE3getB8ue170006Ev, symObjAddr: 0x5434, symBinAddr: 0x1000088D0, symSize: 0x28 }
  - { offset: 0x63071, size: 0x8, addend: 0x0, symName: __ZNKSt3__110unique_ptrIA_mNS_14default_deleteIS1_EEEixB8ue170006Em, symObjAddr: 0x545C, symBinAddr: 0x1000088F8, symSize: 0x34 }
  - { offset: 0x630A6, size: 0x8, addend: 0x0, symName: __ZNSt3__110unique_ptrIA_N6parlay8internal12hazptr_stackIPvEENS_14default_deleteIS6_EEEaSB8ue170006EOS9_, symObjAddr: 0x55E4, symBinAddr: 0x100008A80, symSize: 0x50 }
  - { offset: 0x630DB, size: 0x8, addend: 0x0, symName: __ZNSt3__110unique_ptrIA_N6parlay8internal12hazptr_stackIPvEENS_14default_deleteIS6_EEED1B8ue170006Ev, symObjAddr: 0x5634, symBinAddr: 0x100008AD0, symSize: 0x2C }
  - { offset: 0x63105, size: 0x8, addend: 0x0, symName: __ZNSt3__110unique_ptrIA_N6parlay8internal15block_allocatorENS2_20unique_array_deleterIS3_EEEaSB8ue170006EOS7_, symObjAddr: 0x575C, symBinAddr: 0x100008BF8, symSize: 0x68 }
  - { offset: 0x6313A, size: 0x8, addend: 0x0, symName: __ZNSt3__110unique_ptrIA_N6parlay8internal15block_allocatorENS2_20unique_array_deleterIS3_EEED1B8ue170006Ev, symObjAddr: 0x57C4, symBinAddr: 0x100008C60, symSize: 0x2C }
  - { offset: 0x63164, size: 0x8, addend: 0x0, symName: __ZNSt3__110unique_ptrIA_mNS_14default_deleteIS1_EEED1B8ue170006Ev, symObjAddr: 0x57F0, symBinAddr: 0x100008C8C, symSize: 0x2C }
  - { offset: 0x6318E, size: 0x8, addend: 0x0, symName: __ZNSt3__16atomicImEC2B8ue170006Em, symObjAddr: 0x581C, symBinAddr: 0x100008CB8, symSize: 0x34 }
  - { offset: 0x631C6, size: 0x8, addend: 0x0, symName: __ZNSt3__113__atomic_baseImLb1EEC2B8ue170006Em, symObjAddr: 0x5850, symBinAddr: 0x100008CEC, symSize: 0x34 }
  - { offset: 0x631FE, size: 0x8, addend: 0x0, symName: __ZNSt3__113__atomic_baseImLb0EEC2B8ue170006Em, symObjAddr: 0x5884, symBinAddr: 0x100008D20, symSize: 0x34 }
  - { offset: 0x63236, size: 0x8, addend: 0x0, symName: __ZNSt3__117__cxx_atomic_implImNS_22__cxx_atomic_base_implImEEEC1B8ue170006Em, symObjAddr: 0x58B8, symBinAddr: 0x100008D54, symSize: 0x34 }
  - { offset: 0x6326F, size: 0x8, addend: 0x0, symName: __ZNSt3__117__cxx_atomic_implImNS_22__cxx_atomic_base_implImEEEC2B8ue170006Em, symObjAddr: 0x58EC, symBinAddr: 0x100008D88, symSize: 0x34 }
  - { offset: 0x632A8, size: 0x8, addend: 0x0, symName: __ZNSt3__122__cxx_atomic_base_implImEC2Em, symObjAddr: 0x5920, symBinAddr: 0x100008DBC, symSize: 0x20 }
  - { offset: 0x632E1, size: 0x8, addend: 0x0, symName: __ZNSt3__110unique_ptrIA_mNS_14default_deleteIS1_EEEC1B8ue170006IPmLb1EvvEET_, symObjAddr: 0x5940, symBinAddr: 0x100008DDC, symSize: 0x34 }
  - { offset: 0x63331, size: 0x8, addend: 0x0, symName: __ZNSt3__110unique_ptrIA_mNS_14default_deleteIS1_EEEC2B8ue170006IPmLb1EvvEET_, symObjAddr: 0x5974, symBinAddr: 0x100008E10, symSize: 0x44 }
  - { offset: 0x63387, size: 0x8, addend: 0x0, symName: __ZNSt3__117__compressed_pairIPmNS_14default_deleteIA_mEEEC1B8ue170006IRS1_NS_16__value_init_tagEEEOT_OT0_, symObjAddr: 0x59B8, symBinAddr: 0x100008E54, symSize: 0x3C }
  - { offset: 0x633DF, size: 0x8, addend: 0x0, symName: __ZNSt3__117__compressed_pairIPmNS_14default_deleteIA_mEEEC2B8ue170006IRS1_NS_16__value_init_tagEEEOT_OT0_, symObjAddr: 0x59F4, symBinAddr: 0x100008E90, symSize: 0x40 }
  - { offset: 0x63437, size: 0x8, addend: 0x0, symName: __ZNSt3__122__compressed_pair_elemIPmLi0ELb0EEC2B8ue170006IRS1_vEEOT_, symObjAddr: 0x5A34, symBinAddr: 0x100008ED0, symSize: 0x24 }
  - { offset: 0x6347A, size: 0x8, addend: 0x0, symName: __ZNSt3__122__compressed_pair_elemINS_14default_deleteIA_mEELi1ELb1EEC2B8ue170006ENS_16__value_init_tagE, symObjAddr: 0x5A58, symBinAddr: 0x100008EF4, symSize: 0x14 }
  - { offset: 0x634AE, size: 0x8, addend: 0x0, symName: __ZNSt3__110unique_ptrIA_N6parlay8internal12hazptr_stackIPvEENS_14default_deleteIS6_EEEC2B8ue170006ILb1EvEEv, symObjAddr: 0x5A6C, symBinAddr: 0x100008F08, symSize: 0x3C }
  - { offset: 0x634E4, size: 0x8, addend: 0x0, symName: __ZNSt3__117__compressed_pairIPN6parlay8internal12hazptr_stackIPvEENS_14default_deleteIA_S5_EEEC1B8ue170006INS_16__value_init_tagESC_EEOT_OT0_, symObjAddr: 0x5AA8, symBinAddr: 0x100008F44, symSize: 0x3C }
  - { offset: 0x6353C, size: 0x8, addend: 0x0, symName: __ZNSt3__117__compressed_pairIPN6parlay8internal12hazptr_stackIPvEENS_14default_deleteIA_S5_EEEC2B8ue170006INS_16__value_init_tagESC_EEOT_OT0_, symObjAddr: 0x5AE4, symBinAddr: 0x100008F80, symSize: 0x3C }
  - { offset: 0x63594, size: 0x8, addend: 0x0, symName: __ZNSt3__122__compressed_pair_elemIPN6parlay8internal12hazptr_stackIPvEELi0ELb0EEC2B8ue170006ENS_16__value_init_tagE, symObjAddr: 0x5B20, symBinAddr: 0x100008FBC, symSize: 0x18 }
  - { offset: 0x635C8, size: 0x8, addend: 0x0, symName: __ZNSt3__122__compressed_pair_elemINS_14default_deleteIA_N6parlay8internal12hazptr_stackIPvEEEELi1ELb1EEC2B8ue170006ENS_16__value_init_tagE, symObjAddr: 0x5B38, symBinAddr: 0x100008FD4, symSize: 0x14 }
  - { offset: 0x635FC, size: 0x8, addend: 0x0, symName: __ZNSt3__110unique_ptrIA_N6parlay8internal15block_allocatorENS2_20unique_array_deleterIS3_EEEC2B8ue170006ILb1EvEEv, symObjAddr: 0x5B4C, symBinAddr: 0x100008FE8, symSize: 0x3C }
  - { offset: 0x63632, size: 0x8, addend: 0x0, symName: __ZNSt3__117__compressed_pairIPN6parlay8internal15block_allocatorENS2_20unique_array_deleterIS3_EEEC1B8ue170006INS_16__value_init_tagES9_EEOT_OT0_, symObjAddr: 0x5B88, symBinAddr: 0x100009024, symSize: 0x3C }
  - { offset: 0x6368A, size: 0x8, addend: 0x0, symName: __ZNSt3__117__compressed_pairIPN6parlay8internal15block_allocatorENS2_20unique_array_deleterIS3_EEEC2B8ue170006INS_16__value_init_tagES9_EEOT_OT0_, symObjAddr: 0x5BC4, symBinAddr: 0x100009060, symSize: 0x40 }
  - { offset: 0x636E2, size: 0x8, addend: 0x0, symName: __ZNSt3__122__compressed_pair_elemIPN6parlay8internal15block_allocatorELi0ELb0EEC2B8ue170006ENS_16__value_init_tagE, symObjAddr: 0x5C04, symBinAddr: 0x1000090A0, symSize: 0x18 }
  - { offset: 0x63716, size: 0x8, addend: 0x0, symName: __ZNSt3__122__compressed_pair_elemIN6parlay8internal20unique_array_deleterINS2_15block_allocatorEEELi1ELb0EEC2B8ue170006ENS_16__value_init_tagE, symObjAddr: 0x5C1C, symBinAddr: 0x1000090B8, symSize: 0x18 }
  - { offset: 0x63770, size: 0x8, addend: 0x0, symName: __ZNKSt3__114__copy_trivialclB8ue170006IKmmLi0EEENS_4pairIPT_PT0_EES5_S5_S7_, symObjAddr: 0x5E18, symBinAddr: 0x1000092B4, symSize: 0x48 }
  - { offset: 0x637FA, size: 0x8, addend: 0x0, symName: __ZNSt3__14pairIPKmS2_EC1B8ue170006IS2_S2_LPv0EEEOT_OT0_, symObjAddr: 0x5F98, symBinAddr: 0x100009434, symSize: 0x3C }
  - { offset: 0x63859, size: 0x8, addend: 0x0, symName: __ZNSt3__14pairIPKmS2_EC2B8ue170006IS2_S2_LPv0EEEOT_OT0_, symObjAddr: 0x5FD4, symBinAddr: 0x100009470, symSize: 0x34 }
  - { offset: 0x638B8, size: 0x8, addend: 0x0, symName: __ZNSt3__118__unwrap_iter_implINS_11__wrap_iterIPKmEELb1EE8__unwrapB8ue170006ES4_, symObjAddr: 0x6008, symBinAddr: 0x1000094A4, symSize: 0x28 }
  - { offset: 0x638E6, size: 0x8, addend: 0x0, symName: __ZNSt3__119__to_address_helperINS_11__wrap_iterIPKmEEvE6__callB8ue170006ERKS4_, symObjAddr: 0x6054, symBinAddr: 0x1000094F0, symSize: 0x30 }
  - { offset: 0x63909, size: 0x8, addend: 0x0, symName: __ZNSt3__114pointer_traitsINS_11__wrap_iterIPKmEEE10to_addressB8ue170006ES4_, symObjAddr: 0x6084, symBinAddr: 0x100009520, symSize: 0x2C }
  - { offset: 0x6392C, size: 0x8, addend: 0x0, symName: __ZNKSt3__111__wrap_iterIPKmE4baseB8ue170006Ev, symObjAddr: 0x60C4, symBinAddr: 0x100009560, symSize: 0x18 }
  - { offset: 0x6395E, size: 0x8, addend: 0x0, symName: __ZNSt3__14pairIPKmPmEC1B8ue170006IRS2_S3_LPv0EEEOT_OT0_, symObjAddr: 0x61F8, symBinAddr: 0x100009694, symSize: 0x3C }
  - { offset: 0x639BD, size: 0x8, addend: 0x0, symName: __ZNSt3__14pairIPKmPmEC2B8ue170006IRS2_S3_LPv0EEEOT_OT0_, symObjAddr: 0x6234, symBinAddr: 0x1000096D0, symSize: 0x34 }
  - { offset: 0x63A1C, size: 0x8, addend: 0x0, symName: __ZNSt3__118__unwrap_iter_implIPmLb1EE8__unwrapB8ue170006ES1_, symObjAddr: 0x6268, symBinAddr: 0x100009704, symSize: 0x24 }
  - { offset: 0x63A61, size: 0x8, addend: 0x0, symName: __ZNSt3__14pairINS_11__wrap_iterIPKmEEPmEC1B8ue170006IS4_S5_LPv0EEEOT_OT0_, symObjAddr: 0x628C, symBinAddr: 0x100009728, symSize: 0x3C }
  - { offset: 0x63AC0, size: 0x8, addend: 0x0, symName: __ZNSt3__14pairINS_11__wrap_iterIPKmEEPmEC2B8ue170006IS4_S5_LPv0EEEOT_OT0_, symObjAddr: 0x62C8, symBinAddr: 0x100009764, symSize: 0x34 }
  - { offset: 0x63B1F, size: 0x8, addend: 0x0, symName: __ZNSt3__118__unwrap_iter_implINS_11__wrap_iterIPKmEELb1EE8__rewrapB8ue170006ES4_S3_, symObjAddr: 0x6348, symBinAddr: 0x1000097E4, symSize: 0x5C }
  - { offset: 0x63B50, size: 0x8, addend: 0x0, symName: __ZNKSt3__111__wrap_iterIPKmEplB8ue170006El, symObjAddr: 0x63A4, symBinAddr: 0x100009840, symSize: 0x3C }
  - { offset: 0x63B92, size: 0x8, addend: 0x0, symName: __ZNSt3__111__wrap_iterIPKmEpLB8ue170006El, symObjAddr: 0x63E0, symBinAddr: 0x10000987C, symSize: 0x28 }
  - { offset: 0x63BC6, size: 0x8, addend: 0x0, symName: __ZNSt3__118__unwrap_iter_implIPmLb1EE8__rewrapB8ue170006ES1_S1_, symObjAddr: 0x6408, symBinAddr: 0x1000098A4, symSize: 0x50 }
  - { offset: 0x63BF7, size: 0x8, addend: 0x0, symName: __ZNKSt3__16vectorImNS_9allocatorImEEE5beginB8ue170006Ev, symObjAddr: 0x6458, symBinAddr: 0x1000098F4, symSize: 0x30 }
  - { offset: 0x63C1F, size: 0x8, addend: 0x0, symName: __ZNKSt3__16vectorImNS_9allocatorImEEE11__make_iterB8ue170006EPKm, symObjAddr: 0x6488, symBinAddr: 0x100009924, symSize: 0x30 }
  - { offset: 0x63C54, size: 0x8, addend: 0x0, symName: __ZNSt3__111__wrap_iterIPKmEC1B8ue170006ES2_, symObjAddr: 0x64B8, symBinAddr: 0x100009954, symSize: 0x34 }
  - { offset: 0x63C8C, size: 0x8, addend: 0x0, symName: __ZNSt3__111__wrap_iterIPKmEC2B8ue170006ES2_, symObjAddr: 0x64EC, symBinAddr: 0x100009988, symSize: 0x20 }
  - { offset: 0x63CC4, size: 0x8, addend: 0x0, symName: __ZNKSt3__16vectorImNS_9allocatorImEEE3endB8ue170006Ev, symObjAddr: 0x650C, symBinAddr: 0x1000099A8, symSize: 0x30 }
  - { offset: 0x63CEC, size: 0x8, addend: 0x0, symName: __ZNKSt3__117__compressed_pairIPmNS_14default_deleteIA_mEEE5firstB8ue170006Ev, symObjAddr: 0x653C, symBinAddr: 0x1000099D8, symSize: 0x24 }
  - { offset: 0x63D12, size: 0x8, addend: 0x0, symName: __ZN6parlay8internal12hazptr_stackIPvEC1Ev, symObjAddr: 0x6560, symBinAddr: 0x1000099FC, symSize: 0x2C }
  - { offset: 0x63D3C, size: 0x8, addend: 0x0, symName: __ZN6parlay8internal12hazptr_stackIPvED1Ev, symObjAddr: 0x658C, symBinAddr: 0x100009A28, symSize: 0x2C }
  - { offset: 0x63D66, size: 0x8, addend: 0x0, symName: __ZNSt3__110unique_ptrIA_N6parlay8internal12hazptr_stackIPvEENS_14default_deleteIS6_EEEC1B8ue170006IPS5_Lb1EvvEET_, symObjAddr: 0x65B8, symBinAddr: 0x100009A54, symSize: 0x34 }
  - { offset: 0x63DB6, size: 0x8, addend: 0x0, symName: __ZN6parlay8internal12hazptr_stackIPvEC2Ev, symObjAddr: 0x65EC, symBinAddr: 0x100009A88, symSize: 0x34 }
  - { offset: 0x63DE0, size: 0x8, addend: 0x0, symName: __ZNSt3__16atomicIPN6parlay8internal12hazptr_stackIPvE4NodeEEC1B8ue170006ES7_, symObjAddr: 0x6620, symBinAddr: 0x100009ABC, symSize: 0x34 }
  - { offset: 0x63E18, size: 0x8, addend: 0x0, symName: __ZNSt3__16atomicIPN6parlay8internal12hazptr_stackIPvE4NodeEEC2B8ue170006ES7_, symObjAddr: 0x6710, symBinAddr: 0x100009BAC, symSize: 0x34 }
  - { offset: 0x63E50, size: 0x8, addend: 0x0, symName: __ZNSt3__113__atomic_baseIPN6parlay8internal12hazptr_stackIPvE4NodeELb0EEC2B8ue170006ES7_, symObjAddr: 0x6744, symBinAddr: 0x100009BE0, symSize: 0x34 }
  - { offset: 0x63E88, size: 0x8, addend: 0x0, symName: __ZNSt3__117__cxx_atomic_implIPN6parlay8internal12hazptr_stackIPvE4NodeENS_22__cxx_atomic_base_implIS7_EEEC1B8ue170006ES7_, symObjAddr: 0x6778, symBinAddr: 0x100009C14, symSize: 0x34 }
  - { offset: 0x63EC1, size: 0x8, addend: 0x0, symName: __ZNSt3__117__cxx_atomic_implIPN6parlay8internal12hazptr_stackIPvE4NodeENS_22__cxx_atomic_base_implIS7_EEEC2B8ue170006ES7_, symObjAddr: 0x67AC, symBinAddr: 0x100009C48, symSize: 0x34 }
  - { offset: 0x63EFA, size: 0x8, addend: 0x0, symName: __ZNSt3__122__cxx_atomic_base_implIPN6parlay8internal12hazptr_stackIPvE4NodeEEC2ES7_, symObjAddr: 0x67E0, symBinAddr: 0x100009C7C, symSize: 0x20 }
  - { offset: 0x63F33, size: 0x8, addend: 0x0, symName: __ZN6parlay8internal24intrusive_acquire_retireINS0_12hazptr_stackIPvE4NodeENSt3__114default_deleteIS5_EELm1EEC1ES8_, symObjAddr: 0x6800, symBinAddr: 0x100009C9C, symSize: 0x2C }
  - { offset: 0x63F6B, size: 0x8, addend: 0x0, symName: __ZN6parlay8internal24intrusive_acquire_retireINS0_12hazptr_stackIPvE4NodeENSt3__114default_deleteIS5_EELm1EED1Ev, symObjAddr: 0x682C, symBinAddr: 0x100009CC8, symSize: 0x2C }
  - { offset: 0x63F95, size: 0x8, addend: 0x0, symName: __ZN6parlay8internal24intrusive_acquire_retireINS0_12hazptr_stackIPvE4NodeENSt3__114default_deleteIS5_EELm1EEC2ES8_, symObjAddr: 0x6858, symBinAddr: 0x100009CF4, symSize: 0x2C }
  - { offset: 0x63FCD, size: 0x8, addend: 0x0, symName: __ZN6parlay14ThreadSpecificINS_8internal24intrusive_acquire_retireINS1_12hazptr_stackIPvE4NodeENSt3__114default_deleteIS6_EELm1EE10ThreadDataEEC1Ev, symObjAddr: 0x6884, symBinAddr: 0x100009D20, symSize: 0x2C }
  - { offset: 0x63FF7, size: 0x8, addend: 0x0, symName: __ZNSt3__18functionIFN6parlay8internal24intrusive_acquire_retireINS2_12hazptr_stackIPvE4NodeENS_14default_deleteIS7_EELm1EE10ThreadDataEjEEC1IZNS1_14ThreadSpecificISB_EC1EvEUlmE_vEET_, symObjAddr: 0x6920, symBinAddr: 0x100009DBC, symSize: 0x2C }
  - { offset: 0x6403D, size: 0x8, addend: 0x0, symName: __ZNSt3__15mutexC1B8ue170006Ev, symObjAddr: 0x694C, symBinAddr: 0x100009DE8, symSize: 0x2C }
  - { offset: 0x64067, size: 0x8, addend: 0x0, symName: __ZN6parlay14ThreadSpecificINS_8internal24intrusive_acquire_retireINS1_12hazptr_stackIPvE4NodeENSt3__114default_deleteIS6_EELm1EE10ThreadDataEE10initializeEv, symObjAddr: 0x6978, symBinAddr: 0x100009E14, symSize: 0x1B8 }
  - { offset: 0x640B9, size: 0x8, addend: 0x0, symName: __ZNSt3__18functionIFN6parlay8internal24intrusive_acquire_retireINS2_12hazptr_stackIPvE4NodeENS_14default_deleteIS7_EELm1EE10ThreadDataEjEED1Ev, symObjAddr: 0x6B30, symBinAddr: 0x100009FCC, symSize: 0x2C }
  - { offset: 0x640E5, size: 0x8, addend: 0x0, symName: __ZNSt3__18functionIFN6parlay8internal24intrusive_acquire_retireINS2_12hazptr_stackIPvE4NodeENS_14default_deleteIS7_EELm1EE10ThreadDataEjEEC2IZNS1_14ThreadSpecificISB_EC1EvEUlmE_vEET_, symObjAddr: 0x6B5C, symBinAddr: 0x100009FF8, symSize: 0x30 }
  - { offset: 0x6412B, size: 0x8, addend: 0x0, symName: __ZNSt3__110__function12__value_funcIFN6parlay8internal24intrusive_acquire_retireINS3_12hazptr_stackIPvE4NodeENS_14default_deleteIS8_EELm1EE10ThreadDataEjEEC1B8ue170006IZNS2_14ThreadSpecificISC_EC1EvEUlmE_vEEOT_, symObjAddr: 0x6B8C, symBinAddr: 0x10000A028, symSize: 0x50 }
  - { offset: 0x6416F, size: 0x8, addend: 0x0, symName: __ZNSt3__19allocatorIZN6parlay14ThreadSpecificINS1_8internal24intrusive_acquire_retireINS3_12hazptr_stackIPvE4NodeENS_14default_deleteIS8_EELm1EE10ThreadDataEEC1EvEUlmE_EC1B8ue170006Ev, symObjAddr: 0x6BDC, symBinAddr: 0x10000A078, symSize: 0x2C }
  - { offset: 0x64199, size: 0x8, addend: 0x0, symName: __ZNSt3__110__function12__value_funcIFN6parlay8internal24intrusive_acquire_retireINS3_12hazptr_stackIPvE4NodeENS_14default_deleteIS8_EELm1EE10ThreadDataEjEEC1B8ue170006IZNS2_14ThreadSpecificISC_EC1EvEUlmE_NS_9allocatorISI_EEEEOT_RKT0_, symObjAddr: 0x6C08, symBinAddr: 0x10000A0A4, symSize: 0x3C }
  - { offset: 0x641F3, size: 0x8, addend: 0x0, symName: __ZNSt3__19allocatorIZN6parlay14ThreadSpecificINS1_8internal24intrusive_acquire_retireINS3_12hazptr_stackIPvE4NodeENS_14default_deleteIS8_EELm1EE10ThreadDataEEC1EvEUlmE_EC2B8ue170006Ev, symObjAddr: 0x6C44, symBinAddr: 0x10000A0E0, symSize: 0x2C }
  - { offset: 0x6421D, size: 0x8, addend: 0x0, symName: __ZNSt3__116__non_trivial_ifILb1ENS_9allocatorIZN6parlay14ThreadSpecificINS2_8internal24intrusive_acquire_retireINS4_12hazptr_stackIPvE4NodeENS_14default_deleteIS9_EELm1EE10ThreadDataEEC1EvEUlmE_EEEC2B8ue170006Ev, symObjAddr: 0x6C70, symBinAddr: 0x10000A10C, symSize: 0x14 }
  - { offset: 0x64247, size: 0x8, addend: 0x0, symName: __ZNSt3__110__function12__value_funcIFN6parlay8internal24intrusive_acquire_retireINS3_12hazptr_stackIPvE4NodeENS_14default_deleteIS8_EELm1EE10ThreadDataEjEEC2B8ue170006IZNS2_14ThreadSpecificISC_EC1EvEUlmE_NS_9allocatorISI_EEEEOT_RKT0_, symObjAddr: 0x6C84, symBinAddr: 0x10000A120, symSize: 0x94 }
  - { offset: 0x642EF, size: 0x8, addend: 0x0, symName: __ZNSt3__19allocatorINS_10__function6__funcIZN6parlay14ThreadSpecificINS3_8internal24intrusive_acquire_retireINS5_12hazptr_stackIPvE4NodeENS_14default_deleteISA_EELm1EE10ThreadDataEEC1EvEUlmE_NS0_ISG_EEFSE_jEEEEC1B8ue170006ISG_EERKNS0_IT_EE, symObjAddr: 0x6D30, symBinAddr: 0x10000A1CC, symSize: 0x34 }
  - { offset: 0x64332, size: 0x8, addend: 0x0, symName: __ZNSt3__19allocatorIZN6parlay14ThreadSpecificINS1_8internal24intrusive_acquire_retireINS3_12hazptr_stackIPvE4NodeENS_14default_deleteIS8_EELm1EE10ThreadDataEEC1EvEUlmE_EC1B8ue170006INS_10__function6__funcISE_SF_FSC_jEEEEERKNS0_IT_EE, symObjAddr: 0x6D64, symBinAddr: 0x10000A200, symSize: 0x34 }
  - { offset: 0x6436F, size: 0x8, addend: 0x0, symName: __ZNSt3__110__function6__funcIZN6parlay14ThreadSpecificINS2_8internal24intrusive_acquire_retireINS4_12hazptr_stackIPvE4NodeENS_14default_deleteIS9_EELm1EE10ThreadDataEEC1EvEUlmE_NS_9allocatorISF_EEFSD_jEEC1B8ue170006EOSF_OSH_, symObjAddr: 0x6D98, symBinAddr: 0x10000A234, symSize: 0x3C }
  - { offset: 0x643B7, size: 0x8, addend: 0x0, symName: __ZNSt3__19allocatorINS_10__function6__funcIZN6parlay14ThreadSpecificINS3_8internal24intrusive_acquire_retireINS5_12hazptr_stackIPvE4NodeENS_14default_deleteISA_EELm1EE10ThreadDataEEC1EvEUlmE_NS0_ISG_EEFSE_jEEEEC2B8ue170006ISG_EERKNS0_IT_EE, symObjAddr: 0x6DD4, symBinAddr: 0x10000A270, symSize: 0x30 }
  - { offset: 0x643F4, size: 0x8, addend: 0x0, symName: __ZNSt3__116__non_trivial_ifILb1ENS_9allocatorINS_10__function6__funcIZN6parlay14ThreadSpecificINS4_8internal24intrusive_acquire_retireINS6_12hazptr_stackIPvE4NodeENS_14default_deleteISB_EELm1EE10ThreadDataEEC1EvEUlmE_NS1_ISH_EEFSF_jEEEEEEC2B8ue170006Ev, symObjAddr: 0x6E04, symBinAddr: 0x10000A2A0, symSize: 0x14 }
  - { offset: 0x6441E, size: 0x8, addend: 0x0, symName: __ZNSt3__19allocatorIZN6parlay14ThreadSpecificINS1_8internal24intrusive_acquire_retireINS3_12hazptr_stackIPvE4NodeENS_14default_deleteIS8_EELm1EE10ThreadDataEEC1EvEUlmE_EC2B8ue170006INS_10__function6__funcISE_SF_FSC_jEEEEERKNS0_IT_EE, symObjAddr: 0x6E18, symBinAddr: 0x10000A2B4, symSize: 0x30 }
  - { offset: 0x6445B, size: 0x8, addend: 0x0, symName: __ZNSt3__110__function6__funcIZN6parlay14ThreadSpecificINS2_8internal24intrusive_acquire_retireINS4_12hazptr_stackIPvE4NodeENS_14default_deleteIS9_EELm1EE10ThreadDataEEC1EvEUlmE_NS_9allocatorISF_EEFSD_jEEC2B8ue170006EOSF_OSH_, symObjAddr: 0x6E48, symBinAddr: 0x10000A2E4, symSize: 0x80 }
  - { offset: 0x644A3, size: 0x8, addend: 0x0, symName: __ZNSt3__110__function6__baseIFN6parlay8internal24intrusive_acquire_retireINS3_12hazptr_stackIPvE4NodeENS_14default_deleteIS8_EELm1EE10ThreadDataEjEEC2B8ue170006Ev, symObjAddr: 0x6EC8, symBinAddr: 0x10000A364, symSize: 0x24 }
  - { offset: 0x644CD, size: 0x8, addend: 0x0, symName: __ZNSt3__110__function12__alloc_funcIZN6parlay14ThreadSpecificINS2_8internal24intrusive_acquire_retireINS4_12hazptr_stackIPvE4NodeENS_14default_deleteIS9_EELm1EE10ThreadDataEEC1EvEUlmE_NS_9allocatorISF_EEFSD_jEEC1B8ue170006EOSF_OSH_, symObjAddr: 0x6EEC, symBinAddr: 0x10000A388, symSize: 0x3C }
  - { offset: 0x64513, size: 0x8, addend: 0x0, symName: __ZNSt3__110__function6__baseIFN6parlay8internal24intrusive_acquire_retireINS3_12hazptr_stackIPvE4NodeENS_14default_deleteIS8_EELm1EE10ThreadDataEjEED2Ev, symObjAddr: 0x6F28, symBinAddr: 0x10000A3C4, symSize: 0x14 }
  - { offset: 0x6453D, size: 0x8, addend: 0x0, symName: __ZNSt3__110__function6__funcIZN6parlay14ThreadSpecificINS2_8internal24intrusive_acquire_retireINS4_12hazptr_stackIPvE4NodeENS_14default_deleteIS9_EELm1EE10ThreadDataEEC1EvEUlmE_NS_9allocatorISF_EEFSD_jEED1Ev, symObjAddr: 0x6F3C, symBinAddr: 0x10000A3D8, symSize: 0x2C }
  - { offset: 0x6456A, size: 0x8, addend: 0x0, symName: __ZNSt3__110__function6__funcIZN6parlay14ThreadSpecificINS2_8internal24intrusive_acquire_retireINS4_12hazptr_stackIPvE4NodeENS_14default_deleteIS9_EELm1EE10ThreadDataEEC1EvEUlmE_NS_9allocatorISF_EEFSD_jEED0Ev, symObjAddr: 0x6F68, symBinAddr: 0x10000A404, symSize: 0x30 }
  - { offset: 0x64597, size: 0x8, addend: 0x0, symName: __ZNKSt3__110__function6__funcIZN6parlay14ThreadSpecificINS2_8internal24intrusive_acquire_retireINS4_12hazptr_stackIPvE4NodeENS_14default_deleteIS9_EELm1EE10ThreadDataEEC1EvEUlmE_NS_9allocatorISF_EEFSD_jEE7__cloneEv, symObjAddr: 0x6F98, symBinAddr: 0x10000A434, symSize: 0xFC }
  - { offset: 0x645E9, size: 0x8, addend: 0x0, symName: __ZNKSt3__110__function6__funcIZN6parlay14ThreadSpecificINS2_8internal24intrusive_acquire_retireINS4_12hazptr_stackIPvE4NodeENS_14default_deleteIS9_EELm1EE10ThreadDataEEC1EvEUlmE_NS_9allocatorISF_EEFSD_jEE7__cloneEPNS0_6__baseISI_EE, symObjAddr: 0x7094, symBinAddr: 0x10000A530, symSize: 0x58 }
  - { offset: 0x64620, size: 0x8, addend: 0x0, symName: __ZNSt3__110__function6__funcIZN6parlay14ThreadSpecificINS2_8internal24intrusive_acquire_retireINS4_12hazptr_stackIPvE4NodeENS_14default_deleteIS9_EELm1EE10ThreadDataEEC1EvEUlmE_NS_9allocatorISF_EEFSD_jEE7destroyEv, symObjAddr: 0x70EC, symBinAddr: 0x10000A588, symSize: 0x28 }
  - { offset: 0x64648, size: 0x8, addend: 0x0, symName: __ZNSt3__110__function6__funcIZN6parlay14ThreadSpecificINS2_8internal24intrusive_acquire_retireINS4_12hazptr_stackIPvE4NodeENS_14default_deleteIS9_EELm1EE10ThreadDataEEC1EvEUlmE_NS_9allocatorISF_EEFSD_jEE18destroy_deallocateEv, symObjAddr: 0x7114, symBinAddr: 0x10000A5B0, symSize: 0x58 }
  - { offset: 0x6468B, size: 0x8, addend: 0x0, symName: __ZNSt3__110__function6__funcIZN6parlay14ThreadSpecificINS2_8internal24intrusive_acquire_retireINS4_12hazptr_stackIPvE4NodeENS_14default_deleteIS9_EELm1EE10ThreadDataEEC1EvEUlmE_NS_9allocatorISF_EEFSD_jEEclEOj, symObjAddr: 0x716C, symBinAddr: 0x10000A608, symSize: 0x38 }
  - { offset: 0x646C2, size: 0x8, addend: 0x0, symName: __ZNKSt3__110__function6__funcIZN6parlay14ThreadSpecificINS2_8internal24intrusive_acquire_retireINS4_12hazptr_stackIPvE4NodeENS_14default_deleteIS9_EELm1EE10ThreadDataEEC1EvEUlmE_NS_9allocatorISF_EEFSD_jEE6targetERKSt9type_info, symObjAddr: 0x71A4, symBinAddr: 0x10000A640, symSize: 0x60 }
  - { offset: 0x646F9, size: 0x8, addend: 0x0, symName: __ZNKSt3__110__function6__funcIZN6parlay14ThreadSpecificINS2_8internal24intrusive_acquire_retireINS4_12hazptr_stackIPvE4NodeENS_14default_deleteIS9_EELm1EE10ThreadDataEEC1EvEUlmE_NS_9allocatorISF_EEFSD_jEE11target_typeEv, symObjAddr: 0x7204, symBinAddr: 0x10000A6A0, symSize: 0x18 }
  - { offset: 0x64721, size: 0x8, addend: 0x0, symName: __ZNSt3__110__function6__baseIFN6parlay8internal24intrusive_acquire_retireINS3_12hazptr_stackIPvE4NodeENS_14default_deleteIS8_EELm1EE10ThreadDataEjEED1Ev, symObjAddr: 0x721C, symBinAddr: 0x10000A6B8, symSize: 0x14 }
  - { offset: 0x6474B, size: 0x8, addend: 0x0, symName: __ZNSt3__110__function6__baseIFN6parlay8internal24intrusive_acquire_retireINS3_12hazptr_stackIPvE4NodeENS_14default_deleteIS8_EELm1EE10ThreadDataEjEED0Ev, symObjAddr: 0x7230, symBinAddr: 0x10000A6CC, symSize: 0xC }
  - { offset: 0x64775, size: 0x8, addend: 0x0, symName: __ZNSt3__110__function12__alloc_funcIZN6parlay14ThreadSpecificINS2_8internal24intrusive_acquire_retireINS4_12hazptr_stackIPvE4NodeENS_14default_deleteIS9_EELm1EE10ThreadDataEEC1EvEUlmE_NS_9allocatorISF_EEFSD_jEEC2B8ue170006EOSF_OSH_, symObjAddr: 0x723C, symBinAddr: 0x10000A6D8, symSize: 0x5C }
  - { offset: 0x647BB, size: 0x8, addend: 0x0, symName: __ZNSt3__117__compressed_pairIZN6parlay14ThreadSpecificINS1_8internal24intrusive_acquire_retireINS3_12hazptr_stackIPvE4NodeENS_14default_deleteIS8_EELm1EE10ThreadDataEEC1EvEUlmE_NS_9allocatorISE_EEEC1B8ue170006IJOSE_EJOSG_EEENS_21piecewise_construct_tENS_5tupleIJDpT_EEENSM_IJDpT0_EEE, symObjAddr: 0x72F0, symBinAddr: 0x10000A78C, symSize: 0x3C }
  - { offset: 0x64825, size: 0x8, addend: 0x0, symName: __ZNSt3__15tupleIJOZN6parlay14ThreadSpecificINS1_8internal24intrusive_acquire_retireINS3_12hazptr_stackIPvE4NodeENS_14default_deleteIS8_EELm1EE10ThreadDataEEC1EvEUlmE_EEC1B8ue170006IJSE_ELi0EEEDpOT_, symObjAddr: 0x732C, symBinAddr: 0x10000A7C8, symSize: 0x34 }
  - { offset: 0x6486F, size: 0x8, addend: 0x0, symName: __ZNSt3__15tupleIJOZN6parlay14ThreadSpecificINS1_8internal24intrusive_acquire_retireINS3_12hazptr_stackIPvE4NodeENS_14default_deleteIS8_EELm1EE10ThreadDataEEC1EvEUlmE_EEC2B8ue170006IJSE_ELi0EEEDpOT_, symObjAddr: 0x7360, symBinAddr: 0x10000A7FC, symSize: 0x34 }
  - { offset: 0x648B9, size: 0x8, addend: 0x0, symName: __ZNSt3__112__tuple_implINS_15__tuple_indicesIJLm0EEEEJOZN6parlay14ThreadSpecificINS3_8internal24intrusive_acquire_retireINS5_12hazptr_stackIPvE4NodeENS_14default_deleteISA_EELm1EE10ThreadDataEEC1EvEUlmE_EEC1B8ue170006IJLm0EEJSH_EJEJEJSG_EEENS1_IJXspT_EEEENS_13__tuple_typesIJDpT0_EEENS1_IJXspT1_EEEENSL_IJDpT2_EEEDpOT3_, symObjAddr: 0x7394, symBinAddr: 0x10000A830, symSize: 0x34 }
  - { offset: 0x6494B, size: 0x8, addend: 0x0, symName: __ZNSt3__112__tuple_implINS_15__tuple_indicesIJLm0EEEEJOZN6parlay14ThreadSpecificINS3_8internal24intrusive_acquire_retireINS5_12hazptr_stackIPvE4NodeENS_14default_deleteISA_EELm1EE10ThreadDataEEC1EvEUlmE_EEC2B8ue170006IJLm0EEJSH_EJEJEJSG_EEENS1_IJXspT_EEEENS_13__tuple_typesIJDpT0_EEENS1_IJXspT1_EEEENSL_IJDpT2_EEEDpOT3_, symObjAddr: 0x73C8, symBinAddr: 0x10000A864, symSize: 0x34 }
  - { offset: 0x649DD, size: 0x8, addend: 0x0, symName: __ZNSt3__112__tuple_leafILm0EOZN6parlay14ThreadSpecificINS1_8internal24intrusive_acquire_retireINS3_12hazptr_stackIPvE4NodeENS_14default_deleteIS8_EELm1EE10ThreadDataEEC1EvEUlmE_Lb0EEC2B8ue170006ISE_vEEOT_, symObjAddr: 0x73FC, symBinAddr: 0x10000A898, symSize: 0x20 }
  - { offset: 0x64A21, size: 0x8, addend: 0x0, symName: __ZNSt3__15tupleIJONS_9allocatorIZN6parlay14ThreadSpecificINS2_8internal24intrusive_acquire_retireINS4_12hazptr_stackIPvE4NodeENS_14default_deleteIS9_EELm1EE10ThreadDataEEC1EvEUlmE_EEEEC1B8ue170006IJSG_ELi0EEEDpOT_, symObjAddr: 0x741C, symBinAddr: 0x10000A8B8, symSize: 0x34 }
  - { offset: 0x64A6B, size: 0x8, addend: 0x0, symName: __ZNSt3__15tupleIJONS_9allocatorIZN6parlay14ThreadSpecificINS2_8internal24intrusive_acquire_retireINS4_12hazptr_stackIPvE4NodeENS_14default_deleteIS9_EELm1EE10ThreadDataEEC1EvEUlmE_EEEEC2B8ue170006IJSG_ELi0EEEDpOT_, symObjAddr: 0x7450, symBinAddr: 0x10000A8EC, symSize: 0x34 }
  - { offset: 0x64AB5, size: 0x8, addend: 0x0, symName: __ZNSt3__112__tuple_implINS_15__tuple_indicesIJLm0EEEEJONS_9allocatorIZN6parlay14ThreadSpecificINS4_8internal24intrusive_acquire_retireINS6_12hazptr_stackIPvE4NodeENS_14default_deleteISB_EELm1EE10ThreadDataEEC1EvEUlmE_EEEEC1B8ue170006IJLm0EEJSJ_EJEJEJSI_EEENS1_IJXspT_EEEENS_13__tuple_typesIJDpT0_EEENS1_IJXspT1_EEEENSN_IJDpT2_EEEDpOT3_, symObjAddr: 0x7484, symBinAddr: 0x10000A920, symSize: 0x34 }
  - { offset: 0x64B47, size: 0x8, addend: 0x0, symName: __ZNSt3__112__tuple_implINS_15__tuple_indicesIJLm0EEEEJONS_9allocatorIZN6parlay14ThreadSpecificINS4_8internal24intrusive_acquire_retireINS6_12hazptr_stackIPvE4NodeENS_14default_deleteISB_EELm1EE10ThreadDataEEC1EvEUlmE_EEEEC2B8ue170006IJLm0EEJSJ_EJEJEJSI_EEENS1_IJXspT_EEEENS_13__tuple_typesIJDpT0_EEENS1_IJXspT1_EEEENSN_IJDpT2_EEEDpOT3_, symObjAddr: 0x74B8, symBinAddr: 0x10000A954, symSize: 0x34 }
  - { offset: 0x64BD9, size: 0x8, addend: 0x0, symName: __ZNSt3__112__tuple_leafILm0EONS_9allocatorIZN6parlay14ThreadSpecificINS2_8internal24intrusive_acquire_retireINS4_12hazptr_stackIPvE4NodeENS_14default_deleteIS9_EELm1EE10ThreadDataEEC1EvEUlmE_EELb0EEC2B8ue170006ISG_vEEOT_, symObjAddr: 0x74EC, symBinAddr: 0x10000A988, symSize: 0x20 }
  - { offset: 0x64C1D, size: 0x8, addend: 0x0, symName: __ZNSt3__117__compressed_pairIZN6parlay14ThreadSpecificINS1_8internal24intrusive_acquire_retireINS3_12hazptr_stackIPvE4NodeENS_14default_deleteIS8_EELm1EE10ThreadDataEEC1EvEUlmE_NS_9allocatorISE_EEEC2B8ue170006IJOSE_EJOSG_EEENS_21piecewise_construct_tENS_5tupleIJDpT_EEENSM_IJDpT0_EEE, symObjAddr: 0x750C, symBinAddr: 0x10000A9A8, symSize: 0x54 }
  - { offset: 0x64C87, size: 0x8, addend: 0x0, symName: __ZNSt3__122__compressed_pair_elemIZN6parlay14ThreadSpecificINS1_8internal24intrusive_acquire_retireINS3_12hazptr_stackIPvE4NodeENS_14default_deleteIS8_EELm1EE10ThreadDataEEC1EvEUlmE_Li0ELb1EEC2B8ue170006IJOSE_EJLm0EEEENS_21piecewise_construct_tENS_5tupleIJDpT_EEENS_15__tuple_indicesIJXspT0_EEEE, symObjAddr: 0x7560, symBinAddr: 0x10000A9FC, symSize: 0x38 }
  - { offset: 0x64CEB, size: 0x8, addend: 0x0, symName: __ZNSt3__122__compressed_pair_elemINS_9allocatorIZN6parlay14ThreadSpecificINS2_8internal24intrusive_acquire_retireINS4_12hazptr_stackIPvE4NodeENS_14default_deleteIS9_EELm1EE10ThreadDataEEC1EvEUlmE_EELi1ELb1EEC2B8ue170006IJOSG_EJLm0EEEENS_21piecewise_construct_tENS_5tupleIJDpT_EEENS_15__tuple_indicesIJXspT0_EEEE, symObjAddr: 0x7598, symBinAddr: 0x10000AA34, symSize: 0x38 }
  - { offset: 0x64D4F, size: 0x8, addend: 0x0, symName: __ZNSt3__112__tuple_leafILm0EOZN6parlay14ThreadSpecificINS1_8internal24intrusive_acquire_retireINS3_12hazptr_stackIPvE4NodeENS_14default_deleteIS8_EELm1EE10ThreadDataEEC1EvEUlmE_Lb0EE3getB8ue170006Ev, symObjAddr: 0x75F4, symBinAddr: 0x10000AA90, symSize: 0x18 }
  - { offset: 0x64D75, size: 0x8, addend: 0x0, symName: __ZNSt3__112__tuple_leafILm0EONS_9allocatorIZN6parlay14ThreadSpecificINS2_8internal24intrusive_acquire_retireINS4_12hazptr_stackIPvE4NodeENS_14default_deleteIS9_EELm1EE10ThreadDataEEC1EvEUlmE_EELb0EE3getB8ue170006Ev, symObjAddr: 0x7630, symBinAddr: 0x10000AACC, symSize: 0x18 }
  - { offset: 0x64D9B, size: 0x8, addend: 0x0, symName: __ZNSt3__110__function6__funcIZN6parlay14ThreadSpecificINS2_8internal24intrusive_acquire_retireINS4_12hazptr_stackIPvE4NodeENS_14default_deleteIS9_EELm1EE10ThreadDataEEC1EvEUlmE_NS_9allocatorISF_EEFSD_jEED2Ev, symObjAddr: 0x7648, symBinAddr: 0x10000AAE4, symSize: 0x2C }
  - { offset: 0x64DC8, size: 0x8, addend: 0x0, symName: __ZNKSt3__110__function12__alloc_funcIZN6parlay14ThreadSpecificINS2_8internal24intrusive_acquire_retireINS4_12hazptr_stackIPvE4NodeENS_14default_deleteIS9_EELm1EE10ThreadDataEEC1EvEUlmE_NS_9allocatorISF_EEFSD_jEE15__get_allocatorB8ue170006Ev, symObjAddr: 0x7674, symBinAddr: 0x10000AB10, symSize: 0x24 }
  - { offset: 0x64DEE, size: 0x8, addend: 0x0, symName: __ZNSt3__19allocatorINS_10__function6__funcIZN6parlay14ThreadSpecificINS3_8internal24intrusive_acquire_retireINS5_12hazptr_stackIPvE4NodeENS_14default_deleteISA_EELm1EE10ThreadDataEEC1EvEUlmE_NS0_ISG_EEFSE_jEEEE8allocateB8ue170006Em, symObjAddr: 0x7698, symBinAddr: 0x10000AB34, symSize: 0x58 }
  - { offset: 0x64E33, size: 0x8, addend: 0x0, symName: __ZNSt3__122__allocator_destructorINS_9allocatorINS_10__function6__funcIZN6parlay14ThreadSpecificINS4_8internal24intrusive_acquire_retireINS6_12hazptr_stackIPvE4NodeENS_14default_deleteISB_EELm1EE10ThreadDataEEC1EvEUlmE_NS1_ISH_EEFSF_jEEEEEEC1B8ue170006ERSL_m, symObjAddr: 0x76F0, symBinAddr: 0x10000AB8C, symSize: 0x3C }
  - { offset: 0x64F0F, size: 0x8, addend: 0x0, symName: __ZNSt3__110unique_ptrINS_10__function6__funcIZN6parlay14ThreadSpecificINS3_8internal24intrusive_acquire_retireINS5_12hazptr_stackIPvE4NodeENS_14default_deleteISA_EELm1EE10ThreadDataEEC1EvEUlmE_NS_9allocatorISG_EEFSE_jEEENS_22__allocator_destructorINSH_ISK_EEEEEC1B8ue170006ILb1EvEEPSK_NS_16__dependent_typeINS_27__unique_ptr_deleter_sfinaeISN_EEXT_EE20__good_rval_ref_typeE, symObjAddr: 0x772C, symBinAddr: 0x10000ABC8, symSize: 0x3C }
  - { offset: 0x64F61, size: 0x8, addend: 0x0, symName: __ZNKSt3__110unique_ptrINS_10__function6__funcIZN6parlay14ThreadSpecificINS3_8internal24intrusive_acquire_retireINS5_12hazptr_stackIPvE4NodeENS_14default_deleteISA_EELm1EE10ThreadDataEEC1EvEUlmE_NS_9allocatorISG_EEFSE_jEEENS_22__allocator_destructorINSH_ISK_EEEEE3getB8ue170006Ev, symObjAddr: 0x7768, symBinAddr: 0x10000AC04, symSize: 0x28 }
  - { offset: 0x64F87, size: 0x8, addend: 0x0, symName: __ZNKSt3__110__function12__alloc_funcIZN6parlay14ThreadSpecificINS2_8internal24intrusive_acquire_retireINS4_12hazptr_stackIPvE4NodeENS_14default_deleteIS9_EELm1EE10ThreadDataEEC1EvEUlmE_NS_9allocatorISF_EEFSD_jEE8__targetB8ue170006Ev, symObjAddr: 0x7790, symBinAddr: 0x10000AC2C, symSize: 0x24 }
  - { offset: 0x64FAD, size: 0x8, addend: 0x0, symName: __ZNSt3__110__function6__funcIZN6parlay14ThreadSpecificINS2_8internal24intrusive_acquire_retireINS4_12hazptr_stackIPvE4NodeENS_14default_deleteIS9_EELm1EE10ThreadDataEEC1EvEUlmE_NS_9allocatorISF_EEFSD_jEEC1B8ue170006ERKSF_OSH_, symObjAddr: 0x77B4, symBinAddr: 0x10000AC50, symSize: 0x3C }
  - { offset: 0x64FF5, size: 0x8, addend: 0x0, symName: __ZNSt3__110unique_ptrINS_10__function6__funcIZN6parlay14ThreadSpecificINS3_8internal24intrusive_acquire_retireINS5_12hazptr_stackIPvE4NodeENS_14default_deleteISA_EELm1EE10ThreadDataEEC1EvEUlmE_NS_9allocatorISG_EEFSE_jEEENS_22__allocator_destructorINSH_ISK_EEEEE7releaseB8ue170006Ev, symObjAddr: 0x77F0, symBinAddr: 0x10000AC8C, symSize: 0x44 }
  - { offset: 0x6502A, size: 0x8, addend: 0x0, symName: __ZNSt3__110unique_ptrINS_10__function6__funcIZN6parlay14ThreadSpecificINS3_8internal24intrusive_acquire_retireINS5_12hazptr_stackIPvE4NodeENS_14default_deleteISA_EELm1EE10ThreadDataEEC1EvEUlmE_NS_9allocatorISG_EEFSE_jEEENS_22__allocator_destructorINSH_ISK_EEEEED1B8ue170006Ev, symObjAddr: 0x7834, symBinAddr: 0x10000ACD0, symSize: 0x2C }
  - { offset: 0x65054, size: 0x8, addend: 0x0, symName: __ZNKSt3__117__compressed_pairIZN6parlay14ThreadSpecificINS1_8internal24intrusive_acquire_retireINS3_12hazptr_stackIPvE4NodeENS_14default_deleteIS8_EELm1EE10ThreadDataEEC1EvEUlmE_NS_9allocatorISE_EEE6secondB8ue170006Ev, symObjAddr: 0x7860, symBinAddr: 0x10000ACFC, symSize: 0x24 }
  - { offset: 0x6507A, size: 0x8, addend: 0x0, symName: __ZNKSt3__122__compressed_pair_elemINS_9allocatorIZN6parlay14ThreadSpecificINS2_8internal24intrusive_acquire_retireINS4_12hazptr_stackIPvE4NodeENS_14default_deleteIS9_EELm1EE10ThreadDataEEC1EvEUlmE_EELi1ELb1EE5__getB8ue170006Ev, symObjAddr: 0x7884, symBinAddr: 0x10000AD20, symSize: 0x14 }
  - { offset: 0x650AB, size: 0x8, addend: 0x0, symName: __ZNSt3__116allocator_traitsINS_9allocatorINS_10__function6__funcIZN6parlay14ThreadSpecificINS4_8internal24intrusive_acquire_retireINS6_12hazptr_stackIPvE4NodeENS_14default_deleteISB_EELm1EE10ThreadDataEEC1EvEUlmE_NS1_ISH_EEFSF_jEEEEEE8max_sizeB8ue170006ISL_vEEmRKSL_, symObjAddr: 0x7898, symBinAddr: 0x10000AD34, symSize: 0x24 }
  - { offset: 0x650DA, size: 0x8, addend: 0x0, symName: __ZNKSt3__19allocatorINS_10__function6__funcIZN6parlay14ThreadSpecificINS3_8internal24intrusive_acquire_retireINS5_12hazptr_stackIPvE4NodeENS_14default_deleteISA_EELm1EE10ThreadDataEEC1EvEUlmE_NS0_ISG_EEFSE_jEEEE8max_sizeB8ue170006Ev, symObjAddr: 0x78BC, symBinAddr: 0x10000AD58, symSize: 0x14 }
  - { offset: 0x65100, size: 0x8, addend: 0x0, symName: __ZNSt3__122__allocator_destructorINS_9allocatorINS_10__function6__funcIZN6parlay14ThreadSpecificINS4_8internal24intrusive_acquire_retireINS6_12hazptr_stackIPvE4NodeENS_14default_deleteISB_EELm1EE10ThreadDataEEC1EvEUlmE_NS1_ISH_EEFSF_jEEEEEEC2B8ue170006ERSL_m, symObjAddr: 0x78D0, symBinAddr: 0x10000AD6C, symSize: 0x2C }
  - { offset: 0x65146, size: 0x8, addend: 0x0, symName: __ZNSt3__110unique_ptrINS_10__function6__funcIZN6parlay14ThreadSpecificINS3_8internal24intrusive_acquire_retireINS5_12hazptr_stackIPvE4NodeENS_14default_deleteISA_EELm1EE10ThreadDataEEC1EvEUlmE_NS_9allocatorISG_EEFSE_jEEENS_22__allocator_destructorINSH_ISK_EEEEEC2B8ue170006ILb1EvEEPSK_NS_16__dependent_typeINS_27__unique_ptr_deleter_sfinaeISN_EEXT_EE20__good_rval_ref_typeE, symObjAddr: 0x78FC, symBinAddr: 0x10000AD98, symSize: 0x48 }
  - { offset: 0x65198, size: 0x8, addend: 0x0, symName: __ZNSt3__117__compressed_pairIPNS_10__function6__funcIZN6parlay14ThreadSpecificINS3_8internal24intrusive_acquire_retireINS5_12hazptr_stackIPvE4NodeENS_14default_deleteISA_EELm1EE10ThreadDataEEC1EvEUlmE_NS_9allocatorISG_EEFSE_jEEENS_22__allocator_destructorINSH_ISK_EEEEEC1B8ue170006IRSL_SO_EEOT_OT0_, symObjAddr: 0x7944, symBinAddr: 0x10000ADE0, symSize: 0x3C }
  - { offset: 0x651F0, size: 0x8, addend: 0x0, symName: __ZNSt3__117__compressed_pairIPNS_10__function6__funcIZN6parlay14ThreadSpecificINS3_8internal24intrusive_acquire_retireINS5_12hazptr_stackIPvE4NodeENS_14default_deleteISA_EELm1EE10ThreadDataEEC1EvEUlmE_NS_9allocatorISG_EEFSE_jEEENS_22__allocator_destructorINSH_ISK_EEEEEC2B8ue170006IRSL_SO_EEOT_OT0_, symObjAddr: 0x7980, symBinAddr: 0x10000AE1C, symSize: 0x48 }
  - { offset: 0x65248, size: 0x8, addend: 0x0, symName: __ZNSt3__122__compressed_pair_elemIPNS_10__function6__funcIZN6parlay14ThreadSpecificINS3_8internal24intrusive_acquire_retireINS5_12hazptr_stackIPvE4NodeENS_14default_deleteISA_EELm1EE10ThreadDataEEC1EvEUlmE_NS_9allocatorISG_EEFSE_jEEELi0ELb0EEC2B8ue170006IRSL_vEEOT_, symObjAddr: 0x79C8, symBinAddr: 0x10000AE64, symSize: 0x24 }
  - { offset: 0x6528B, size: 0x8, addend: 0x0, symName: __ZNSt3__122__compressed_pair_elemINS_22__allocator_destructorINS_9allocatorINS_10__function6__funcIZN6parlay14ThreadSpecificINS5_8internal24intrusive_acquire_retireINS7_12hazptr_stackIPvE4NodeENS_14default_deleteISC_EELm1EE10ThreadDataEEC1EvEUlmE_NS2_ISI_EEFSG_jEEEEEEELi1ELb0EEC2B8ue170006ISN_vEEOT_, symObjAddr: 0x79EC, symBinAddr: 0x10000AE88, symSize: 0x24 }
  - { offset: 0x652CE, size: 0x8, addend: 0x0, symName: __ZNKSt3__117__compressed_pairIPNS_10__function6__funcIZN6parlay14ThreadSpecificINS3_8internal24intrusive_acquire_retireINS5_12hazptr_stackIPvE4NodeENS_14default_deleteISA_EELm1EE10ThreadDataEEC1EvEUlmE_NS_9allocatorISG_EEFSE_jEEENS_22__allocator_destructorINSH_ISK_EEEEE5firstB8ue170006Ev, symObjAddr: 0x7A10, symBinAddr: 0x10000AEAC, symSize: 0x24 }
  - { offset: 0x652F4, size: 0x8, addend: 0x0, symName: __ZNKSt3__122__compressed_pair_elemIPNS_10__function6__funcIZN6parlay14ThreadSpecificINS3_8internal24intrusive_acquire_retireINS5_12hazptr_stackIPvE4NodeENS_14default_deleteISA_EELm1EE10ThreadDataEEC1EvEUlmE_NS_9allocatorISG_EEFSE_jEEELi0ELb0EE5__getB8ue170006Ev, symObjAddr: 0x7A34, symBinAddr: 0x10000AED0, symSize: 0x14 }
  - { offset: 0x6531A, size: 0x8, addend: 0x0, symName: __ZNKSt3__117__compressed_pairIZN6parlay14ThreadSpecificINS1_8internal24intrusive_acquire_retireINS3_12hazptr_stackIPvE4NodeENS_14default_deleteIS8_EELm1EE10ThreadDataEEC1EvEUlmE_NS_9allocatorISE_EEE5firstB8ue170006Ev, symObjAddr: 0x7A48, symBinAddr: 0x10000AEE4, symSize: 0x24 }
  - { offset: 0x65340, size: 0x8, addend: 0x0, symName: __ZNKSt3__122__compressed_pair_elemIZN6parlay14ThreadSpecificINS1_8internal24intrusive_acquire_retireINS3_12hazptr_stackIPvE4NodeENS_14default_deleteIS8_EELm1EE10ThreadDataEEC1EvEUlmE_Li0ELb1EE5__getB8ue170006Ev, symObjAddr: 0x7A6C, symBinAddr: 0x10000AF08, symSize: 0x14 }
  - { offset: 0x65366, size: 0x8, addend: 0x0, symName: __ZNSt3__110__function6__funcIZN6parlay14ThreadSpecificINS2_8internal24intrusive_acquire_retireINS4_12hazptr_stackIPvE4NodeENS_14default_deleteIS9_EELm1EE10ThreadDataEEC1EvEUlmE_NS_9allocatorISF_EEFSD_jEEC2B8ue170006ERKSF_OSH_, symObjAddr: 0x7A80, symBinAddr: 0x10000AF1C, symSize: 0x80 }
  - { offset: 0x653AE, size: 0x8, addend: 0x0, symName: __ZNSt3__110__function12__alloc_funcIZN6parlay14ThreadSpecificINS2_8internal24intrusive_acquire_retireINS4_12hazptr_stackIPvE4NodeENS_14default_deleteIS9_EELm1EE10ThreadDataEEC1EvEUlmE_NS_9allocatorISF_EEFSD_jEEC1B8ue170006ERKSF_OSH_, symObjAddr: 0x7B00, symBinAddr: 0x10000AF9C, symSize: 0x3C }
  - { offset: 0x653F4, size: 0x8, addend: 0x0, symName: __ZNSt3__110__function12__alloc_funcIZN6parlay14ThreadSpecificINS2_8internal24intrusive_acquire_retireINS4_12hazptr_stackIPvE4NodeENS_14default_deleteIS9_EELm1EE10ThreadDataEEC1EvEUlmE_NS_9allocatorISF_EEFSD_jEEC2B8ue170006ERKSF_OSH_, symObjAddr: 0x7B3C, symBinAddr: 0x10000AFD8, symSize: 0x5C }
  - { offset: 0x6543A, size: 0x8, addend: 0x0, symName: __ZNSt3__117__compressed_pairIZN6parlay14ThreadSpecificINS1_8internal24intrusive_acquire_retireINS3_12hazptr_stackIPvE4NodeENS_14default_deleteIS8_EELm1EE10ThreadDataEEC1EvEUlmE_NS_9allocatorISE_EEEC1B8ue170006IJRKSE_EJOSG_EEENS_21piecewise_construct_tENS_5tupleIJDpT_EEENSN_IJDpT0_EEE, symObjAddr: 0x7BC4, symBinAddr: 0x10000B060, symSize: 0x3C }
  - { offset: 0x654A4, size: 0x8, addend: 0x0, symName: __ZNSt3__15tupleIJRKZN6parlay14ThreadSpecificINS1_8internal24intrusive_acquire_retireINS3_12hazptr_stackIPvE4NodeENS_14default_deleteIS8_EELm1EE10ThreadDataEEC1EvEUlmE_EEC1B8ue170006INS_4_AndELi0EEESG_, symObjAddr: 0x7C00, symBinAddr: 0x10000B09C, symSize: 0x34 }
  - { offset: 0x654ED, size: 0x8, addend: 0x0, symName: __ZNSt3__15tupleIJRKZN6parlay14ThreadSpecificINS1_8internal24intrusive_acquire_retireINS3_12hazptr_stackIPvE4NodeENS_14default_deleteIS8_EELm1EE10ThreadDataEEC1EvEUlmE_EEC2B8ue170006INS_4_AndELi0EEESG_, symObjAddr: 0x7C34, symBinAddr: 0x10000B0D0, symSize: 0x34 }
  - { offset: 0x65536, size: 0x8, addend: 0x0, symName: __ZNSt3__112__tuple_implINS_15__tuple_indicesIJLm0EEEEJRKZN6parlay14ThreadSpecificINS3_8internal24intrusive_acquire_retireINS5_12hazptr_stackIPvE4NodeENS_14default_deleteISA_EELm1EE10ThreadDataEEC1EvEUlmE_EEC1B8ue170006IJLm0EEJSI_EJEJEJSI_EEENS1_IJXspT_EEEENS_13__tuple_typesIJDpT0_EEENS1_IJXspT1_EEEENSM_IJDpT2_EEEDpOT3_, symObjAddr: 0x7C68, symBinAddr: 0x10000B104, symSize: 0x34 }
  - { offset: 0x655C8, size: 0x8, addend: 0x0, symName: __ZNSt3__112__tuple_implINS_15__tuple_indicesIJLm0EEEEJRKZN6parlay14ThreadSpecificINS3_8internal24intrusive_acquire_retireINS5_12hazptr_stackIPvE4NodeENS_14default_deleteISA_EELm1EE10ThreadDataEEC1EvEUlmE_EEC2B8ue170006IJLm0EEJSI_EJEJEJSI_EEENS1_IJXspT_EEEENS_13__tuple_typesIJDpT0_EEENS1_IJXspT1_EEEENSM_IJDpT2_EEEDpOT3_, symObjAddr: 0x7C9C, symBinAddr: 0x10000B138, symSize: 0x34 }
  - { offset: 0x6565A, size: 0x8, addend: 0x0, symName: __ZNSt3__112__tuple_leafILm0ERKZN6parlay14ThreadSpecificINS1_8internal24intrusive_acquire_retireINS3_12hazptr_stackIPvE4NodeENS_14default_deleteIS8_EELm1EE10ThreadDataEEC1EvEUlmE_Lb0EEC2B8ue170006ISG_vEEOT_, symObjAddr: 0x7CD0, symBinAddr: 0x10000B16C, symSize: 0x20 }
  - { offset: 0x6569E, size: 0x8, addend: 0x0, symName: __ZNSt3__117__compressed_pairIZN6parlay14ThreadSpecificINS1_8internal24intrusive_acquire_retireINS3_12hazptr_stackIPvE4NodeENS_14default_deleteIS8_EELm1EE10ThreadDataEEC1EvEUlmE_NS_9allocatorISE_EEEC2B8ue170006IJRKSE_EJOSG_EEENS_21piecewise_construct_tENS_5tupleIJDpT_EEENSN_IJDpT0_EEE, symObjAddr: 0x7CF0, symBinAddr: 0x10000B18C, symSize: 0x54 }
  - { offset: 0x65708, size: 0x8, addend: 0x0, symName: __ZNSt3__122__compressed_pair_elemIZN6parlay14ThreadSpecificINS1_8internal24intrusive_acquire_retireINS3_12hazptr_stackIPvE4NodeENS_14default_deleteIS8_EELm1EE10ThreadDataEEC1EvEUlmE_Li0ELb1EEC2B8ue170006IJRKSE_EJLm0EEEENS_21piecewise_construct_tENS_5tupleIJDpT_EEENS_15__tuple_indicesIJXspT0_EEEE, symObjAddr: 0x7D44, symBinAddr: 0x10000B1E0, symSize: 0x38 }
  - { offset: 0x6576C, size: 0x8, addend: 0x0, symName: __ZNSt3__112__tuple_leafILm0ERKZN6parlay14ThreadSpecificINS1_8internal24intrusive_acquire_retireINS3_12hazptr_stackIPvE4NodeENS_14default_deleteIS8_EELm1EE10ThreadDataEEC1EvEUlmE_Lb0EE3getB8ue170006Ev, symObjAddr: 0x7DA0, symBinAddr: 0x10000B23C, symSize: 0x18 }
  - { offset: 0x65792, size: 0x8, addend: 0x0, symName: __ZNSt3__117__compressed_pairIPNS_10__function6__funcIZN6parlay14ThreadSpecificINS3_8internal24intrusive_acquire_retireINS5_12hazptr_stackIPvE4NodeENS_14default_deleteISA_EELm1EE10ThreadDataEEC1EvEUlmE_NS_9allocatorISG_EEFSE_jEEENS_22__allocator_destructorINSH_ISK_EEEEE5firstB8ue170006Ev, symObjAddr: 0x7DB8, symBinAddr: 0x10000B254, symSize: 0x24 }
  - { offset: 0x657B8, size: 0x8, addend: 0x0, symName: __ZNSt3__122__compressed_pair_elemIPNS_10__function6__funcIZN6parlay14ThreadSpecificINS3_8internal24intrusive_acquire_retireINS5_12hazptr_stackIPvE4NodeENS_14default_deleteISA_EELm1EE10ThreadDataEEC1EvEUlmE_NS_9allocatorISG_EEFSE_jEEELi0ELb0EE5__getB8ue170006Ev, symObjAddr: 0x7DDC, symBinAddr: 0x10000B278, symSize: 0x14 }
  - { offset: 0x657DE, size: 0x8, addend: 0x0, symName: __ZNSt3__110unique_ptrINS_10__function6__funcIZN6parlay14ThreadSpecificINS3_8internal24intrusive_acquire_retireINS5_12hazptr_stackIPvE4NodeENS_14default_deleteISA_EELm1EE10ThreadDataEEC1EvEUlmE_NS_9allocatorISG_EEFSE_jEEENS_22__allocator_destructorINSH_ISK_EEEEED2B8ue170006Ev, symObjAddr: 0x7DF0, symBinAddr: 0x10000B28C, symSize: 0x30 }
  - { offset: 0x65808, size: 0x8, addend: 0x0, symName: __ZNSt3__110unique_ptrINS_10__function6__funcIZN6parlay14ThreadSpecificINS3_8internal24intrusive_acquire_retireINS5_12hazptr_stackIPvE4NodeENS_14default_deleteISA_EELm1EE10ThreadDataEEC1EvEUlmE_NS_9allocatorISG_EEFSE_jEEENS_22__allocator_destructorINSH_ISK_EEEEE5resetB8ue170006EPSK_, symObjAddr: 0x7E20, symBinAddr: 0x10000B2BC, symSize: 0x78 }
  - { offset: 0x6584C, size: 0x8, addend: 0x0, symName: __ZNSt3__117__compressed_pairIPNS_10__function6__funcIZN6parlay14ThreadSpecificINS3_8internal24intrusive_acquire_retireINS5_12hazptr_stackIPvE4NodeENS_14default_deleteISA_EELm1EE10ThreadDataEEC1EvEUlmE_NS_9allocatorISG_EEFSE_jEEENS_22__allocator_destructorINSH_ISK_EEEEE6secondB8ue170006Ev, symObjAddr: 0x7E98, symBinAddr: 0x10000B334, symSize: 0x28 }
  - { offset: 0x65872, size: 0x8, addend: 0x0, symName: __ZNSt3__122__allocator_destructorINS_9allocatorINS_10__function6__funcIZN6parlay14ThreadSpecificINS4_8internal24intrusive_acquire_retireINS6_12hazptr_stackIPvE4NodeENS_14default_deleteISB_EELm1EE10ThreadDataEEC1EvEUlmE_NS1_ISH_EEFSF_jEEEEEEclB8ue170006EPSK_, symObjAddr: 0x7EC0, symBinAddr: 0x10000B35C, symSize: 0x34 }
  - { offset: 0x658A6, size: 0x8, addend: 0x0, symName: __ZNSt3__122__compressed_pair_elemINS_22__allocator_destructorINS_9allocatorINS_10__function6__funcIZN6parlay14ThreadSpecificINS5_8internal24intrusive_acquire_retireINS7_12hazptr_stackIPvE4NodeENS_14default_deleteISC_EELm1EE10ThreadDataEEC1EvEUlmE_NS2_ISI_EEFSG_jEEEEEEELi1ELb0EE5__getB8ue170006Ev, symObjAddr: 0x7EF4, symBinAddr: 0x10000B390, symSize: 0x14 }
  - { offset: 0x658CC, size: 0x8, addend: 0x0, symName: __ZNSt3__116allocator_traitsINS_9allocatorINS_10__function6__funcIZN6parlay14ThreadSpecificINS4_8internal24intrusive_acquire_retireINS6_12hazptr_stackIPvE4NodeENS_14default_deleteISB_EELm1EE10ThreadDataEEC1EvEUlmE_NS1_ISH_EEFSF_jEEEEEE10deallocateB8ue170006ERSL_PSK_m, symObjAddr: 0x7F08, symBinAddr: 0x10000B3A4, symSize: 0x34 }
  - { offset: 0x6590E, size: 0x8, addend: 0x0, symName: __ZNSt3__19allocatorINS_10__function6__funcIZN6parlay14ThreadSpecificINS3_8internal24intrusive_acquire_retireINS5_12hazptr_stackIPvE4NodeENS_14default_deleteISA_EELm1EE10ThreadDataEEC1EvEUlmE_NS0_ISG_EEFSE_jEEEE10deallocateB8ue170006EPSJ_m, symObjAddr: 0x7F3C, symBinAddr: 0x10000B3D8, symSize: 0x40 }
  - { offset: 0x65950, size: 0x8, addend: 0x0, symName: __ZNSt3__110__function6__funcIZN6parlay14ThreadSpecificINS2_8internal24intrusive_acquire_retireINS4_12hazptr_stackIPvE4NodeENS_14default_deleteIS9_EELm1EE10ThreadDataEEC1EvEUlmE_NS_9allocatorISF_EEFSD_jEEC1B8ue170006ERKSF_RKSH_, symObjAddr: 0x7F7C, symBinAddr: 0x10000B418, symSize: 0x3C }
  - { offset: 0x65998, size: 0x8, addend: 0x0, symName: __ZNSt3__110__function6__funcIZN6parlay14ThreadSpecificINS2_8internal24intrusive_acquire_retireINS4_12hazptr_stackIPvE4NodeENS_14default_deleteIS9_EELm1EE10ThreadDataEEC1EvEUlmE_NS_9allocatorISF_EEFSD_jEEC2B8ue170006ERKSF_RKSH_, symObjAddr: 0x7FB8, symBinAddr: 0x10000B454, symSize: 0x80 }
  - { offset: 0x659E0, size: 0x8, addend: 0x0, symName: __ZNSt3__110__function12__alloc_funcIZN6parlay14ThreadSpecificINS2_8internal24intrusive_acquire_retireINS4_12hazptr_stackIPvE4NodeENS_14default_deleteIS9_EELm1EE10ThreadDataEEC1EvEUlmE_NS_9allocatorISF_EEFSD_jEEC1B8ue170006ERKSF_RKSH_, symObjAddr: 0x8038, symBinAddr: 0x10000B4D4, symSize: 0x3C }
  - { offset: 0x65A26, size: 0x8, addend: 0x0, symName: __ZNSt3__110__function12__alloc_funcIZN6parlay14ThreadSpecificINS2_8internal24intrusive_acquire_retireINS4_12hazptr_stackIPvE4NodeENS_14default_deleteIS9_EELm1EE10ThreadDataEEC1EvEUlmE_NS_9allocatorISF_EEFSD_jEEC2B8ue170006ERKSF_RKSH_, symObjAddr: 0x8074, symBinAddr: 0x10000B510, symSize: 0x5C }
  - { offset: 0x65A6C, size: 0x8, addend: 0x0, symName: __ZNSt3__117__compressed_pairIZN6parlay14ThreadSpecificINS1_8internal24intrusive_acquire_retireINS3_12hazptr_stackIPvE4NodeENS_14default_deleteIS8_EELm1EE10ThreadDataEEC1EvEUlmE_NS_9allocatorISE_EEEC1B8ue170006IJRKSE_EJRKSG_EEENS_21piecewise_construct_tENS_5tupleIJDpT_EEENSO_IJDpT0_EEE, symObjAddr: 0x80FC, symBinAddr: 0x10000B598, symSize: 0x3C }
  - { offset: 0x65AD6, size: 0x8, addend: 0x0, symName: __ZNSt3__15tupleIJRKNS_9allocatorIZN6parlay14ThreadSpecificINS2_8internal24intrusive_acquire_retireINS4_12hazptr_stackIPvE4NodeENS_14default_deleteIS9_EELm1EE10ThreadDataEEC1EvEUlmE_EEEEC1B8ue170006INS_4_AndELi0EEESI_, symObjAddr: 0x8138, symBinAddr: 0x10000B5D4, symSize: 0x34 }
  - { offset: 0x65B1F, size: 0x8, addend: 0x0, symName: __ZNSt3__15tupleIJRKNS_9allocatorIZN6parlay14ThreadSpecificINS2_8internal24intrusive_acquire_retireINS4_12hazptr_stackIPvE4NodeENS_14default_deleteIS9_EELm1EE10ThreadDataEEC1EvEUlmE_EEEEC2B8ue170006INS_4_AndELi0EEESI_, symObjAddr: 0x816C, symBinAddr: 0x10000B608, symSize: 0x34 }
  - { offset: 0x65B68, size: 0x8, addend: 0x0, symName: __ZNSt3__112__tuple_implINS_15__tuple_indicesIJLm0EEEEJRKNS_9allocatorIZN6parlay14ThreadSpecificINS4_8internal24intrusive_acquire_retireINS6_12hazptr_stackIPvE4NodeENS_14default_deleteISB_EELm1EE10ThreadDataEEC1EvEUlmE_EEEEC1B8ue170006IJLm0EEJSK_EJEJEJSK_EEENS1_IJXspT_EEEENS_13__tuple_typesIJDpT0_EEENS1_IJXspT1_EEEENSO_IJDpT2_EEEDpOT3_, symObjAddr: 0x81A0, symBinAddr: 0x10000B63C, symSize: 0x34 }
  - { offset: 0x65BFA, size: 0x8, addend: 0x0, symName: __ZNSt3__112__tuple_implINS_15__tuple_indicesIJLm0EEEEJRKNS_9allocatorIZN6parlay14ThreadSpecificINS4_8internal24intrusive_acquire_retireINS6_12hazptr_stackIPvE4NodeENS_14default_deleteISB_EELm1EE10ThreadDataEEC1EvEUlmE_EEEEC2B8ue170006IJLm0EEJSK_EJEJEJSK_EEENS1_IJXspT_EEEENS_13__tuple_typesIJDpT0_EEENS1_IJXspT1_EEEENSO_IJDpT2_EEEDpOT3_, symObjAddr: 0x81D4, symBinAddr: 0x10000B670, symSize: 0x34 }
  - { offset: 0x65C8C, size: 0x8, addend: 0x0, symName: __ZNSt3__112__tuple_leafILm0ERKNS_9allocatorIZN6parlay14ThreadSpecificINS2_8internal24intrusive_acquire_retireINS4_12hazptr_stackIPvE4NodeENS_14default_deleteIS9_EELm1EE10ThreadDataEEC1EvEUlmE_EELb0EEC2B8ue170006ISI_vEEOT_, symObjAddr: 0x8208, symBinAddr: 0x10000B6A4, symSize: 0x20 }
  - { offset: 0x65CD0, size: 0x8, addend: 0x0, symName: __ZNSt3__117__compressed_pairIZN6parlay14ThreadSpecificINS1_8internal24intrusive_acquire_retireINS3_12hazptr_stackIPvE4NodeENS_14default_deleteIS8_EELm1EE10ThreadDataEEC1EvEUlmE_NS_9allocatorISE_EEEC2B8ue170006IJRKSE_EJRKSG_EEENS_21piecewise_construct_tENS_5tupleIJDpT_EEENSO_IJDpT0_EEE, symObjAddr: 0x8228, symBinAddr: 0x10000B6C4, symSize: 0x54 }
  - { offset: 0x65D3A, size: 0x8, addend: 0x0, symName: __ZNSt3__122__compressed_pair_elemINS_9allocatorIZN6parlay14ThreadSpecificINS2_8internal24intrusive_acquire_retireINS4_12hazptr_stackIPvE4NodeENS_14default_deleteIS9_EELm1EE10ThreadDataEEC1EvEUlmE_EELi1ELb1EEC2B8ue170006IJRKSG_EJLm0EEEENS_21piecewise_construct_tENS_5tupleIJDpT_EEENS_15__tuple_indicesIJXspT0_EEEE, symObjAddr: 0x827C, symBinAddr: 0x10000B718, symSize: 0x38 }
  - { offset: 0x65D9E, size: 0x8, addend: 0x0, symName: __ZNSt3__112__tuple_leafILm0ERKNS_9allocatorIZN6parlay14ThreadSpecificINS2_8internal24intrusive_acquire_retireINS4_12hazptr_stackIPvE4NodeENS_14default_deleteIS9_EELm1EE10ThreadDataEEC1EvEUlmE_EELb0EE3getB8ue170006Ev, symObjAddr: 0x82D8, symBinAddr: 0x10000B774, symSize: 0x18 }
  - { offset: 0x65DC4, size: 0x8, addend: 0x0, symName: __ZNSt3__110__function12__alloc_funcIZN6parlay14ThreadSpecificINS2_8internal24intrusive_acquire_retireINS4_12hazptr_stackIPvE4NodeENS_14default_deleteIS9_EELm1EE10ThreadDataEEC1EvEUlmE_NS_9allocatorISF_EEFSD_jEE7destroyB8ue170006Ev, symObjAddr: 0x82F0, symBinAddr: 0x10000B78C, symSize: 0x10 }
  - { offset: 0x65DEA, size: 0x8, addend: 0x0, symName: __ZNSt3__110__function12__alloc_funcIZN6parlay14ThreadSpecificINS2_8internal24intrusive_acquire_retireINS4_12hazptr_stackIPvE4NodeENS_14default_deleteIS9_EELm1EE10ThreadDataEEC1EvEUlmE_NS_9allocatorISF_EEFSD_jEEclB8ue170006EOj, symObjAddr: 0x8300, symBinAddr: 0x10000B79C, symSize: 0x3C }
  - { offset: 0x65E1E, size: 0x8, addend: 0x0, symName: __ZNSt3__128__invoke_void_return_wrapperIN6parlay8internal24intrusive_acquire_retireINS2_12hazptr_stackIPvE4NodeENS_14default_deleteIS7_EELm1EE10ThreadDataELb0EE6__callB8ue170006IJRZNS1_14ThreadSpecificISB_EC1EvEUlmE_jEEESB_DpOT_, symObjAddr: 0x833C, symBinAddr: 0x10000B7D8, symSize: 0x34 }
  - { offset: 0x65E61, size: 0x8, addend: 0x0, symName: __ZNSt3__117__compressed_pairIZN6parlay14ThreadSpecificINS1_8internal24intrusive_acquire_retireINS3_12hazptr_stackIPvE4NodeENS_14default_deleteIS8_EELm1EE10ThreadDataEEC1EvEUlmE_NS_9allocatorISE_EEE5firstB8ue170006Ev, symObjAddr: 0x8370, symBinAddr: 0x10000B80C, symSize: 0x24 }
  - { offset: 0x65E8C, size: 0x8, addend: 0x0, symName: __ZZN6parlay14ThreadSpecificINS_8internal24intrusive_acquire_retireINS1_12hazptr_stackIPvE4NodeENSt3__114default_deleteIS6_EELm1EE10ThreadDataEEC1EvENKUlmE_clEm, symObjAddr: 0x83D0, symBinAddr: 0x10000B86C, symSize: 0x58 }
  - { offset: 0x65EC0, size: 0x8, addend: 0x0, symName: __ZN6parlay8internal24intrusive_acquire_retireINS0_12hazptr_stackIPvE4NodeENSt3__114default_deleteIS5_EELm1EE11RetiredListC1Ev, symObjAddr: 0x8428, symBinAddr: 0x10000B8C4, symSize: 0x2C }
  - { offset: 0x65EEA, size: 0x8, addend: 0x0, symName: __ZN6parlay8internal24intrusive_acquire_retireINS0_12hazptr_stackIPvE4NodeENSt3__114default_deleteIS5_EELm1EE11RetiredListC2Ev, symObjAddr: 0x8454, symBinAddr: 0x10000B8F0, symSize: 0x1C }
  - { offset: 0x65F14, size: 0x8, addend: 0x0, symName: __ZNSt3__122__compressed_pair_elemIZN6parlay14ThreadSpecificINS1_8internal24intrusive_acquire_retireINS3_12hazptr_stackIPvE4NodeENS_14default_deleteIS8_EELm1EE10ThreadDataEEC1EvEUlmE_Li0ELb1EE5__getB8ue170006Ev, symObjAddr: 0x8470, symBinAddr: 0x10000B90C, symSize: 0x14 }
  - { offset: 0x65F6F, size: 0x8, addend: 0x0, symName: __ZNKSt9type_infoeqB8ue170006ERKS_, symObjAddr: 0x8484, symBinAddr: 0x10000B920, symSize: 0xDC }
  - { offset: 0x66006, size: 0x8, addend: 0x0, symName: __ZNSt27__type_info_implementations30__non_unique_arm_rtti_bit_impl21__is_type_name_uniqueB8ue170006Em, symObjAddr: 0x8560, symBinAddr: 0x10000B9FC, symSize: 0x20 }
  - { offset: 0x6602A, size: 0x8, addend: 0x0, symName: __ZNSt3__15mutexC2B8ue170006Ev, symObjAddr: 0x8580, symBinAddr: 0x10000BA1C, symSize: 0x44 }
  - { offset: 0x66054, size: 0x8, addend: 0x0, symName: __ZNSt3__15arrayINS_6atomicIPN6parlay8internal13UninitializedINS3_24intrusive_acquire_retireINS3_12hazptr_stackIPvE4NodeENS_14default_deleteIS9_EELm1EE10ThreadDataEEEEELm25EEixB8ue170006Em, symObjAddr: 0x8638, symBinAddr: 0x10000BAD4, symSize: 0x20 }
  - { offset: 0x66088, size: 0x8, addend: 0x0, symName: __ZNSt3__113__atomic_baseIPN6parlay8internal13UninitializedINS2_24intrusive_acquire_retireINS2_12hazptr_stackIPvE4NodeENS_14default_deleteIS8_EELm1EE10ThreadDataEEELb0EE5storeB8ue170006ESE_NS_12memory_orderE, symObjAddr: 0x8658, symBinAddr: 0x10000BAF4, symSize: 0x34 }
  - { offset: 0x660CA, size: 0x8, addend: 0x0, symName: __ZN6parlay8internal13UninitializedINS0_24intrusive_acquire_retireINS0_12hazptr_stackIPvE4NodeENSt3__114default_deleteIS6_EELm1EE10ThreadDataEEC1Ev, symObjAddr: 0x868C, symBinAddr: 0x10000BB28, symSize: 0x2C }
  - { offset: 0x660F4, size: 0x8, addend: 0x0, symName: __ZNSt3__15arrayINS_6atomicIPN6parlay8internal13UninitializedINS3_24intrusive_acquire_retireINS3_12hazptr_stackIPvE4NodeENS_14default_deleteIS9_EELm1EE10ThreadDataEEEEELm25EE5beginB8ue170006Ev, symObjAddr: 0x86EC, symBinAddr: 0x10000BB88, symSize: 0x24 }
  - { offset: 0x6611A, size: 0x8, addend: 0x0, symName: __ZNSt3__15arrayINS_6atomicIPN6parlay8internal13UninitializedINS3_24intrusive_acquire_retireINS3_12hazptr_stackIPvE4NodeENS_14default_deleteIS9_EELm1EE10ThreadDataEEEEELm25EE3endB8ue170006Ev, symObjAddr: 0x8710, symBinAddr: 0x10000BBAC, symSize: 0x28 }
  - { offset: 0x66140, size: 0x8, addend: 0x0, symName: __ZNKSt3__113__atomic_baseIPN6parlay8internal13UninitializedINS2_24intrusive_acquire_retireINS2_12hazptr_stackIPvE4NodeENS_14default_deleteIS8_EELm1EE10ThreadDataEEELb0EE4loadB8ue170006ENS_12memory_orderE, symObjAddr: 0x8738, symBinAddr: 0x10000BBD4, symSize: 0x2C }
  - { offset: 0x66174, size: 0x8, addend: 0x0, symName: __ZN6parlay8internal13UninitializedINS0_24intrusive_acquire_retireINS0_12hazptr_stackIPvE4NodeENSt3__114default_deleteIS6_EELm1EE10ThreadDataEE3getEv, symObjAddr: 0x8764, symBinAddr: 0x10000BC00, symSize: 0x14 }
  - { offset: 0x6619A, size: 0x8, addend: 0x0, symName: __ZNKSt3__18functionIFN6parlay8internal24intrusive_acquire_retireINS2_12hazptr_stackIPvE4NodeENS_14default_deleteIS7_EELm1EE10ThreadDataEjEEclEj, symObjAddr: 0x8778, symBinAddr: 0x10000BC14, symSize: 0x38 }
  - { offset: 0x661D1, size: 0x8, addend: 0x0, symName: __ZN6parlay8internal19ThreadListChunkDataC1Ej, symObjAddr: 0x87C8, symBinAddr: 0x10000BC64, symSize: 0x34 }
  - { offset: 0x66209, size: 0x8, addend: 0x0, symName: __ZN6parlay8internal12ThreadIdPool13ThreadIdOwnerC1ERS1_, symObjAddr: 0x8958, symBinAddr: 0x10000BDF4, symSize: 0x34 }
  - { offset: 0x66241, size: 0x8, addend: 0x0, symName: __ZN6parlay8internal12ThreadIdPool13ThreadIdOwnerD1Ev, symObjAddr: 0x898C, symBinAddr: 0x10000BE28, symSize: 0x2C }
  - { offset: 0x6626B, size: 0x8, addend: 0x0, symName: __ZNSt3__110shared_ptrIN6parlay8internal12ThreadIdPoolEED1B8ue170006Ev, symObjAddr: 0x89F8, symBinAddr: 0x10000BE94, symSize: 0x2C }
  - { offset: 0x66295, size: 0x8, addend: 0x0, symName: __ZNKSt3__110shared_ptrIN6parlay8internal12ThreadIdPoolEEdeB8ue170006Ev, symObjAddr: 0x8A24, symBinAddr: 0x10000BEC0, symSize: 0x18 }
  - { offset: 0x662BB, size: 0x8, addend: 0x0, symName: __ZNSt3__19allocatorIN6parlay8internal12ThreadIdPoolEEC1B8ue170006Ev, symObjAddr: 0x8AD4, symBinAddr: 0x10000BF70, symSize: 0x2C }
  - { offset: 0x66336, size: 0x8, addend: 0x0, symName: __ZNSt3__118__allocation_guardINS_9allocatorINS_20__shared_ptr_emplaceIN6parlay8internal12ThreadIdPoolENS1_IS5_EEEEEEEC1B8ue170006IS6_EET_m, symObjAddr: 0x8B00, symBinAddr: 0x10000BF9C, symSize: 0x34 }
  - { offset: 0x66385, size: 0x8, addend: 0x0, symName: __ZNKSt3__118__allocation_guardINS_9allocatorINS_20__shared_ptr_emplaceIN6parlay8internal12ThreadIdPoolENS1_IS5_EEEEEEE5__getB8ue170006Ev, symObjAddr: 0x8B34, symBinAddr: 0x10000BFD0, symSize: 0x18 }
  - { offset: 0x663B1, size: 0x8, addend: 0x0, symName: __ZNSt3__120__shared_ptr_emplaceIN6parlay8internal12ThreadIdPoolENS_9allocatorIS3_EEEC1B8ue170006IJNS3_19private_constructorEEEES5_DpOT_, symObjAddr: 0x8B4C, symBinAddr: 0x10000BFE8, symSize: 0x34 }
  - { offset: 0x66404, size: 0x8, addend: 0x0, symName: __ZNSt3__118__allocation_guardINS_9allocatorINS_20__shared_ptr_emplaceIN6parlay8internal12ThreadIdPoolENS1_IS5_EEEEEEE13__release_ptrB8ue170006Ev, symObjAddr: 0x8B80, symBinAddr: 0x10000C01C, symSize: 0x24 }
  - { offset: 0x66438, size: 0x8, addend: 0x0, symName: __ZNSt3__110shared_ptrIN6parlay8internal12ThreadIdPoolEE27__create_with_control_blockB8ue170006IS3_NS_20__shared_ptr_emplaceIS3_NS_9allocatorIS3_EEEEEES4_PT_PT0_, symObjAddr: 0x8BA4, symBinAddr: 0x10000C040, symSize: 0x98 }
  - { offset: 0x6648D, size: 0x8, addend: 0x0, symName: __ZNSt3__120__shared_ptr_emplaceIN6parlay8internal12ThreadIdPoolENS_9allocatorIS3_EEE10__get_elemB8ue170006Ev, symObjAddr: 0x8C3C, symBinAddr: 0x10000C0D8, symSize: 0x28 }
  - { offset: 0x664B3, size: 0x8, addend: 0x0, symName: __ZNSt3__118__allocation_guardINS_9allocatorINS_20__shared_ptr_emplaceIN6parlay8internal12ThreadIdPoolENS1_IS5_EEEEEEED1B8ue170006Ev, symObjAddr: 0x8C64, symBinAddr: 0x10000C100, symSize: 0x2C }
  - { offset: 0x664DD, size: 0x8, addend: 0x0, symName: __ZNSt3__118__allocation_guardINS_9allocatorINS_20__shared_ptr_emplaceIN6parlay8internal12ThreadIdPoolENS1_IS5_EEEEEEEC2B8ue170006IS6_EET_m, symObjAddr: 0x8C90, symBinAddr: 0x10000C12C, symSize: 0x50 }
  - { offset: 0x6652C, size: 0x8, addend: 0x0, symName: __ZNSt3__19allocatorINS_20__shared_ptr_emplaceIN6parlay8internal12ThreadIdPoolENS0_IS4_EEEEEC1B8ue170006IS4_EERKNS0_IT_EE, symObjAddr: 0x8CE0, symBinAddr: 0x10000C17C, symSize: 0x34 }
  - { offset: 0x66569, size: 0x8, addend: 0x0, symName: __ZNSt3__116allocator_traitsINS_9allocatorINS_20__shared_ptr_emplaceIN6parlay8internal12ThreadIdPoolENS1_IS5_EEEEEEE8allocateB8ue170006ERS8_m, symObjAddr: 0x8D14, symBinAddr: 0x10000C1B0, symSize: 0x2C }
  - { offset: 0x6659C, size: 0x8, addend: 0x0, symName: __ZNSt3__19allocatorINS_20__shared_ptr_emplaceIN6parlay8internal12ThreadIdPoolENS0_IS4_EEEEEC2B8ue170006IS4_EERKNS0_IT_EE, symObjAddr: 0x8D40, symBinAddr: 0x10000C1DC, symSize: 0x30 }
  - { offset: 0x665D9, size: 0x8, addend: 0x0, symName: __ZNSt3__116__non_trivial_ifILb1ENS_9allocatorINS_20__shared_ptr_emplaceIN6parlay8internal12ThreadIdPoolENS1_IS5_EEEEEEEC2B8ue170006Ev, symObjAddr: 0x8D70, symBinAddr: 0x10000C20C, symSize: 0x14 }
  - { offset: 0x66603, size: 0x8, addend: 0x0, symName: __ZNSt3__19allocatorINS_20__shared_ptr_emplaceIN6parlay8internal12ThreadIdPoolENS0_IS4_EEEEE8allocateB8ue170006Em, symObjAddr: 0x8D84, symBinAddr: 0x10000C220, symSize: 0x5C }
  - { offset: 0x66642, size: 0x8, addend: 0x0, symName: __ZNSt3__116allocator_traitsINS_9allocatorINS_20__shared_ptr_emplaceIN6parlay8internal12ThreadIdPoolENS1_IS5_EEEEEEE8max_sizeB8ue170006IS8_vEEmRKS8_, symObjAddr: 0x8DE0, symBinAddr: 0x10000C27C, symSize: 0x24 }
  - { offset: 0x66671, size: 0x8, addend: 0x0, symName: __ZNKSt3__19allocatorINS_20__shared_ptr_emplaceIN6parlay8internal12ThreadIdPoolENS0_IS4_EEEEE8max_sizeB8ue170006Ev, symObjAddr: 0x8E04, symBinAddr: 0x10000C2A0, symSize: 0x20 }
  - { offset: 0x66697, size: 0x8, addend: 0x0, symName: __ZNSt3__120__shared_ptr_emplaceIN6parlay8internal12ThreadIdPoolENS_9allocatorIS3_EEEC2B8ue170006IJNS3_19private_constructorEEEES5_DpOT_, symObjAddr: 0x8E24, symBinAddr: 0x10000C2C0, symSize: 0x88 }
  - { offset: 0x666EA, size: 0x8, addend: 0x0, symName: __ZNSt3__119__shared_weak_countC2B8ue170006El, symObjAddr: 0x8EAC, symBinAddr: 0x10000C348, symSize: 0x4C }
  - { offset: 0x66722, size: 0x8, addend: 0x0, symName: __ZNSt3__120__shared_ptr_emplaceIN6parlay8internal12ThreadIdPoolENS_9allocatorIS3_EEE8_StorageC1B8ue170006EOS5_, symObjAddr: 0x8EF8, symBinAddr: 0x10000C394, symSize: 0x34 }
  - { offset: 0x6675B, size: 0x8, addend: 0x0, symName: __ZN6parlay8internal12ThreadIdPoolC1ENS1_19private_constructorE, symObjAddr: 0x8F2C, symBinAddr: 0x10000C3C8, symSize: 0x2C }
  - { offset: 0x6678F, size: 0x8, addend: 0x0, symName: __ZNSt3__120__shared_ptr_emplaceIN6parlay8internal12ThreadIdPoolENS_9allocatorIS3_EEED1Ev, symObjAddr: 0x8F58, symBinAddr: 0x10000C3F4, symSize: 0x2C }
  - { offset: 0x667BC, size: 0x8, addend: 0x0, symName: __ZNSt3__120__shared_ptr_emplaceIN6parlay8internal12ThreadIdPoolENS_9allocatorIS3_EEED0Ev, symObjAddr: 0x8F84, symBinAddr: 0x10000C420, symSize: 0x30 }
  - { offset: 0x667E9, size: 0x8, addend: 0x0, symName: __ZNSt3__120__shared_ptr_emplaceIN6parlay8internal12ThreadIdPoolENS_9allocatorIS3_EEE16__on_zero_sharedEv, symObjAddr: 0x8FB4, symBinAddr: 0x10000C450, symSize: 0x28 }
  - { offset: 0x6680F, size: 0x8, addend: 0x0, symName: __ZNSt3__120__shared_ptr_emplaceIN6parlay8internal12ThreadIdPoolENS_9allocatorIS3_EEE21__on_zero_shared_weakEv, symObjAddr: 0x8FDC, symBinAddr: 0x10000C478, symSize: 0x5C }
  - { offset: 0x66850, size: 0x8, addend: 0x0, symName: __ZNSt3__114__shared_countC2B8ue170006El, symObjAddr: 0x9038, symBinAddr: 0x10000C4D4, symSize: 0x30 }
  - { offset: 0x66888, size: 0x8, addend: 0x0, symName: __ZNSt3__120__shared_ptr_emplaceIN6parlay8internal12ThreadIdPoolENS_9allocatorIS3_EEE8_StorageC2B8ue170006EOS5_, symObjAddr: 0x9068, symBinAddr: 0x10000C504, symSize: 0x30 }
  - { offset: 0x668C1, size: 0x8, addend: 0x0, symName: __ZNSt3__120__shared_ptr_emplaceIN6parlay8internal12ThreadIdPoolENS_9allocatorIS3_EEE8_Storage11__get_allocB8ue170006Ev, symObjAddr: 0x9098, symBinAddr: 0x10000C534, symSize: 0x3C }
  - { offset: 0x66914, size: 0x8, addend: 0x0, symName: __ZNSt3__117__compressed_pairINS_9allocatorIN6parlay8internal12ThreadIdPoolEEES4_E16__get_first_baseB8ue170006EPS6_, symObjAddr: 0x90D4, symBinAddr: 0x10000C570, symSize: 0x14 }
  - { offset: 0x66937, size: 0x8, addend: 0x0, symName: __ZN6parlay8internal12ThreadIdPoolC2ENS1_19private_constructorE, symObjAddr: 0x90E8, symBinAddr: 0x10000C584, symSize: 0x4C }
  - { offset: 0x6696B, size: 0x8, addend: 0x0, symName: __ZNSt3__123enable_shared_from_thisIN6parlay8internal12ThreadIdPoolEEC2B8ue170006Ev, symObjAddr: 0x9134, symBinAddr: 0x10000C5D0, symSize: 0x2C }
  - { offset: 0x66995, size: 0x8, addend: 0x0, symName: __ZNSt3__16atomicIPN6parlay8internal12ThreadIdPool8ThreadIdEEC1B8ue170006ES5_, symObjAddr: 0x9160, symBinAddr: 0x10000C5FC, symSize: 0x34 }
  - { offset: 0x669CD, size: 0x8, addend: 0x0, symName: __ZNSt3__18weak_ptrIN6parlay8internal12ThreadIdPoolEEC1Ev, symObjAddr: 0x9194, symBinAddr: 0x10000C630, symSize: 0x2C }
  - { offset: 0x669F9, size: 0x8, addend: 0x0, symName: __ZNSt3__18weak_ptrIN6parlay8internal12ThreadIdPoolEEC2Ev, symObjAddr: 0x91C0, symBinAddr: 0x10000C65C, symSize: 0x1C }
  - { offset: 0x66A25, size: 0x8, addend: 0x0, symName: __ZNSt3__16atomicIPN6parlay8internal12ThreadIdPool8ThreadIdEEC2B8ue170006ES5_, symObjAddr: 0x91DC, symBinAddr: 0x10000C678, symSize: 0x34 }
  - { offset: 0x66A5D, size: 0x8, addend: 0x0, symName: __ZNSt3__113__atomic_baseIPN6parlay8internal12ThreadIdPool8ThreadIdELb0EEC2B8ue170006ES5_, symObjAddr: 0x9210, symBinAddr: 0x10000C6AC, symSize: 0x34 }
  - { offset: 0x66A95, size: 0x8, addend: 0x0, symName: __ZNSt3__117__cxx_atomic_implIPN6parlay8internal12ThreadIdPool8ThreadIdENS_22__cxx_atomic_base_implIS5_EEEC1B8ue170006ES5_, symObjAddr: 0x9244, symBinAddr: 0x10000C6E0, symSize: 0x34 }
  - { offset: 0x66ACE, size: 0x8, addend: 0x0, symName: __ZNSt3__117__cxx_atomic_implIPN6parlay8internal12ThreadIdPool8ThreadIdENS_22__cxx_atomic_base_implIS5_EEEC2B8ue170006ES5_, symObjAddr: 0x9278, symBinAddr: 0x10000C714, symSize: 0x34 }
  - { offset: 0x66B07, size: 0x8, addend: 0x0, symName: __ZNSt3__122__cxx_atomic_base_implIPN6parlay8internal12ThreadIdPool8ThreadIdEEC2ES5_, symObjAddr: 0x92AC, symBinAddr: 0x10000C748, symSize: 0x20 }
  - { offset: 0x66B40, size: 0x8, addend: 0x0, symName: __ZNSt3__120__shared_ptr_emplaceIN6parlay8internal12ThreadIdPoolENS_9allocatorIS3_EEED2Ev, symObjAddr: 0x92CC, symBinAddr: 0x10000C768, symSize: 0x48 }
  - { offset: 0x66B6D, size: 0x8, addend: 0x0, symName: __ZNSt3__120__shared_ptr_emplaceIN6parlay8internal12ThreadIdPoolENS_9allocatorIS3_EEE8_StorageD1B8ue170006Ev, symObjAddr: 0x9314, symBinAddr: 0x10000C7B0, symSize: 0x2C }
  - { offset: 0x66B97, size: 0x8, addend: 0x0, symName: __ZNSt3__120__shared_ptr_emplaceIN6parlay8internal12ThreadIdPoolENS_9allocatorIS3_EEE8_StorageD2B8ue170006Ev, symObjAddr: 0x9340, symBinAddr: 0x10000C7DC, symSize: 0x2C }
  - { offset: 0x66BC1, size: 0x8, addend: 0x0, symName: __ZN6parlay8internal12ThreadIdPoolD1Ev, symObjAddr: 0x936C, symBinAddr: 0x10000C808, symSize: 0x2C }
  - { offset: 0x66BEB, size: 0x8, addend: 0x0, symName: __ZN6parlay8internal12ThreadIdPoolD2Ev, symObjAddr: 0x9398, symBinAddr: 0x10000C834, symSize: 0x108 }
  - { offset: 0x66C61, size: 0x8, addend: 0x0, symName: __ZNKSt3__113__atomic_baseIPN6parlay8internal12ThreadIdPool8ThreadIdELb0EE4loadB8ue170006ENS_12memory_orderE, symObjAddr: 0x94A0, symBinAddr: 0x10000C93C, symSize: 0x2C }
  - { offset: 0x66C95, size: 0x8, addend: 0x0, symName: __ZNKSt3__113__atomic_baseImLb0EE4loadB8ue170006ENS_12memory_orderE, symObjAddr: 0x9500, symBinAddr: 0x10000C99C, symSize: 0x2C }
  - { offset: 0x66CC9, size: 0x8, addend: 0x0, symName: __ZNSt3__123enable_shared_from_thisIN6parlay8internal12ThreadIdPoolEED2B8ue170006Ev, symObjAddr: 0x952C, symBinAddr: 0x10000C9C8, symSize: 0x2C }
  - { offset: 0x66CF3, size: 0x8, addend: 0x0, symName: __ZNSt3__18weak_ptrIN6parlay8internal12ThreadIdPoolEED1Ev, symObjAddr: 0x9658, symBinAddr: 0x10000CAF4, symSize: 0x2C }
  - { offset: 0x66D1F, size: 0x8, addend: 0x0, symName: __ZNSt3__18weak_ptrIN6parlay8internal12ThreadIdPoolEED2Ev, symObjAddr: 0x9684, symBinAddr: 0x10000CB20, symSize: 0x54 }
  - { offset: 0x66D4B, size: 0x8, addend: 0x0, symName: __ZNSt3__120__shared_ptr_emplaceIN6parlay8internal12ThreadIdPoolENS_9allocatorIS3_EEE11__get_allocB8ue170006Ev, symObjAddr: 0x96D8, symBinAddr: 0x10000CB74, symSize: 0x28 }
  - { offset: 0x66D71, size: 0x8, addend: 0x0, symName: __ZNSt3__116allocator_traitsINS_9allocatorINS_20__shared_ptr_emplaceIN6parlay8internal12ThreadIdPoolENS1_IS5_EEEEEEE10deallocateB8ue170006ERS8_PS7_m, symObjAddr: 0x9700, symBinAddr: 0x10000CB9C, symSize: 0x34 }
  - { offset: 0x66DB3, size: 0x8, addend: 0x0, symName: __ZNSt3__114pointer_traitsIPNS_20__shared_ptr_emplaceIN6parlay8internal12ThreadIdPoolENS_9allocatorIS4_EEEEE10pointer_toB8ue170006ERS7_, symObjAddr: 0x9734, symBinAddr: 0x10000CBD0, symSize: 0x14 }
  - { offset: 0x66DD6, size: 0x8, addend: 0x0, symName: __ZNSt3__19allocatorINS_20__shared_ptr_emplaceIN6parlay8internal12ThreadIdPoolENS0_IS4_EEEEE10deallocateB8ue170006EPS6_m, symObjAddr: 0x9748, symBinAddr: 0x10000CBE4, symSize: 0x44 }
  - { offset: 0x66E18, size: 0x8, addend: 0x0, symName: __ZNSt3__110shared_ptrIN6parlay8internal12ThreadIdPoolEEC1B8ue170006Ev, symObjAddr: 0x978C, symBinAddr: 0x10000CC28, symSize: 0x2C }
  - { offset: 0x66E42, size: 0x8, addend: 0x0, symName: __ZNSt3__110shared_ptrIN6parlay8internal12ThreadIdPoolEEC2B8ue170006Ev, symObjAddr: 0x9834, symBinAddr: 0x10000CCD0, symSize: 0x1C }
  - { offset: 0x66E6C, size: 0x8, addend: 0x0, symName: __ZNKSt3__18weak_ptrIN6parlay8internal12ThreadIdPoolEE7expiredB8ue170006Ev, symObjAddr: 0x9850, symBinAddr: 0x10000CCEC, symSize: 0x64 }
  - { offset: 0x66E92, size: 0x8, addend: 0x0, symName: __ZNSt3__110shared_ptrIN6parlay8internal12ThreadIdPoolEEC1B8ue170006IS3_EERKNS0_IT_EEPS3_, symObjAddr: 0x98B4, symBinAddr: 0x10000CD50, symSize: 0x3C }
  - { offset: 0x66EE3, size: 0x8, addend: 0x0, symName: __ZNSt3__18weak_ptrIN6parlay8internal12ThreadIdPoolEEaSIS3_EENS_9enable_ifIXsr17__compatible_withIT_S3_EE5valueERS4_E4typeERKNS_10shared_ptrIS7_EE, symObjAddr: 0x98F0, symBinAddr: 0x10000CD8C, symSize: 0x54 }
  - { offset: 0x66F23, size: 0x8, addend: 0x0, symName: __ZNKSt3__119__shared_weak_count9use_countB8ue170006Ev, symObjAddr: 0x9944, symBinAddr: 0x10000CDE0, symSize: 0x24 }
  - { offset: 0x66F49, size: 0x8, addend: 0x0, symName: __ZNKSt3__114__shared_count9use_countB8ue170006Ev, symObjAddr: 0x9968, symBinAddr: 0x10000CE04, symSize: 0x3C }
  - { offset: 0x66F6F, size: 0x8, addend: 0x0, symName: __ZNSt3__110shared_ptrIN6parlay8internal12ThreadIdPoolEEC2B8ue170006IS3_EERKNS0_IT_EEPS3_, symObjAddr: 0x99C4, symBinAddr: 0x10000CE60, symSize: 0x70 }
  - { offset: 0x66FC0, size: 0x8, addend: 0x0, symName: __ZNSt3__119__shared_weak_count12__add_sharedB8ue170006Ev, symObjAddr: 0x9A34, symBinAddr: 0x10000CED0, symSize: 0x24 }
  - { offset: 0x66FE6, size: 0x8, addend: 0x0, symName: __ZNSt3__114__shared_count12__add_sharedB8ue170006Ev, symObjAddr: 0x9A58, symBinAddr: 0x10000CEF4, symSize: 0x28 }
  - { offset: 0x67011, size: 0x8, addend: 0x0, symName: __ZNSt3__18weak_ptrIN6parlay8internal12ThreadIdPoolEEC1IS3_EERKNS_10shared_ptrIT_EENS_9enable_ifIXsr17__compatible_withIS7_S3_EE5valueEPNS_5__natEE4typeE, symObjAddr: 0x9AB0, symBinAddr: 0x10000CF4C, symSize: 0x3C }
  - { offset: 0x67060, size: 0x8, addend: 0x0, symName: __ZNSt3__18weak_ptrIN6parlay8internal12ThreadIdPoolEE4swapERS4_, symObjAddr: 0x9AEC, symBinAddr: 0x10000CF88, symSize: 0x44 }
  - { offset: 0x67097, size: 0x8, addend: 0x0, symName: __ZNSt3__18weak_ptrIN6parlay8internal12ThreadIdPoolEEC2IS3_EERKNS_10shared_ptrIT_EENS_9enable_ifIXsr17__compatible_withIS7_S3_EE5valueEPNS_5__natEE4typeE, symObjAddr: 0x9B30, symBinAddr: 0x10000CFCC, symSize: 0x74 }
  - { offset: 0x670E6, size: 0x8, addend: 0x0, symName: __ZNSt3__119__shared_weak_count10__add_weakB8ue170006Ev, symObjAddr: 0x9BA4, symBinAddr: 0x10000D040, symSize: 0x28 }
  - { offset: 0x6710C, size: 0x8, addend: 0x0, symName: __ZNSt3__120__shared_ptr_emplaceIN6parlay8internal12ThreadIdPoolENS_9allocatorIS3_EEE8_Storage10__get_elemB8ue170006Ev, symObjAddr: 0x9C44, symBinAddr: 0x10000D0E0, symSize: 0x3C }
  - { offset: 0x6715F, size: 0x8, addend: 0x0, symName: __ZNSt3__117__compressed_pairINS_9allocatorIN6parlay8internal12ThreadIdPoolEEES4_E17__get_second_baseB8ue170006EPS6_, symObjAddr: 0x9C80, symBinAddr: 0x10000D11C, symSize: 0x14 }
  - { offset: 0x67182, size: 0x8, addend: 0x0, symName: __ZNSt3__118__allocation_guardINS_9allocatorINS_20__shared_ptr_emplaceIN6parlay8internal12ThreadIdPoolENS1_IS5_EEEEEEED2B8ue170006Ev, symObjAddr: 0x9C94, symBinAddr: 0x10000D130, symSize: 0x2C }
  - { offset: 0x671AC, size: 0x8, addend: 0x0, symName: __ZNSt3__118__allocation_guardINS_9allocatorINS_20__shared_ptr_emplaceIN6parlay8internal12ThreadIdPoolENS1_IS5_EEEEEEE9__destroyB8ue170006Ev, symObjAddr: 0x9CC0, symBinAddr: 0x10000D15C, symSize: 0x4C }
  - { offset: 0x671D2, size: 0x8, addend: 0x0, symName: __ZNSt3__19allocatorIN6parlay8internal12ThreadIdPoolEEC2B8ue170006Ev, symObjAddr: 0x9D0C, symBinAddr: 0x10000D1A8, symSize: 0x2C }
  - { offset: 0x671FC, size: 0x8, addend: 0x0, symName: __ZNSt3__116__non_trivial_ifILb1ENS_9allocatorIN6parlay8internal12ThreadIdPoolEEEEC2B8ue170006Ev, symObjAddr: 0x9D38, symBinAddr: 0x10000D1D4, symSize: 0x14 }
  - { offset: 0x67226, size: 0x8, addend: 0x0, symName: __ZNSt3__110shared_ptrIN6parlay8internal12ThreadIdPoolEED2B8ue170006Ev, symObjAddr: 0x9D4C, symBinAddr: 0x10000D1E8, symSize: 0x54 }
  - { offset: 0x67250, size: 0x8, addend: 0x0, symName: __ZNSt3__119__shared_weak_count16__release_sharedB8ue170006Ev, symObjAddr: 0x9DA0, symBinAddr: 0x10000D23C, symSize: 0x3C }
  - { offset: 0x67276, size: 0x8, addend: 0x0, symName: __ZNSt3__114__shared_count16__release_sharedB8ue170006Ev, symObjAddr: 0x9DDC, symBinAddr: 0x10000D278, symSize: 0x7C }
  - { offset: 0x6729C, size: 0x8, addend: 0x0, symName: __ZN6parlay8internal12ThreadIdPool13ThreadIdOwnerC2ERS1_, symObjAddr: 0x9E88, symBinAddr: 0x10000D324, symSize: 0x80 }
  - { offset: 0x672D4, size: 0x8, addend: 0x0, symName: __ZNSt3__123enable_shared_from_thisIN6parlay8internal12ThreadIdPoolEE16shared_from_thisB8ue170006Ev, symObjAddr: 0x9F08, symBinAddr: 0x10000D3A4, symSize: 0x38 }
  - { offset: 0x672FA, size: 0x8, addend: 0x0, symName: __ZNKSt3__110shared_ptrIN6parlay8internal12ThreadIdPoolEEptB8ue170006Ev, symObjAddr: 0x9F40, symBinAddr: 0x10000D3DC, symSize: 0x18 }
  - { offset: 0x67320, size: 0x8, addend: 0x0, symName: __ZNSt3__110shared_ptrIN6parlay8internal12ThreadIdPoolEEC1B8ue170006IS3_vEERKNS_8weak_ptrIT_EE, symObjAddr: 0xA114, symBinAddr: 0x10000D5B0, symSize: 0x34 }
  - { offset: 0x67364, size: 0x8, addend: 0x0, symName: __ZNSt3__110shared_ptrIN6parlay8internal12ThreadIdPoolEEC2B8ue170006IS3_vEERKNS_8weak_ptrIT_EE, symObjAddr: 0xA148, symBinAddr: 0x10000D5E4, symSize: 0xA0 }
  - { offset: 0x673BD, size: 0x8, addend: 0x0, symName: __ZNSt3__112bad_weak_ptrC1B8ue170006Ev, symObjAddr: 0xA220, symBinAddr: 0x10000D6BC, symSize: 0x2C }
  - { offset: 0x673E7, size: 0x8, addend: 0x0, symName: __ZNSt3__112bad_weak_ptrC2B8ue170006Ev, symObjAddr: 0xA24C, symBinAddr: 0x10000D6E8, symSize: 0x3C }
  - { offset: 0x67411, size: 0x8, addend: 0x0, symName: __ZNSt9exceptionC2B8ue170006Ev, symObjAddr: 0xA288, symBinAddr: 0x10000D724, symSize: 0x24 }
  - { offset: 0x67457, size: 0x8, addend: 0x0, symName: __ZNSt3__110lock_guardINS_5mutexEEC1B8ue170006ERS1_, symObjAddr: 0xA2AC, symBinAddr: 0x10000D748, symSize: 0x34 }
  - { offset: 0x6748F, size: 0x8, addend: 0x0, symName: __ZNSt3__113__atomic_baseIPN6parlay8internal12ThreadIdPool8ThreadIdELb0EE21compare_exchange_weakB8ue170006ERS5_S5_NS_12memory_orderES8_, symObjAddr: 0xA2E0, symBinAddr: 0x10000D77C, symSize: 0x48 }
  - { offset: 0x674ED, size: 0x8, addend: 0x0, symName: __ZNSt3__110lock_guardINS_5mutexEED1B8ue170006Ev, symObjAddr: 0xA328, symBinAddr: 0x10000D7C4, symSize: 0x2C }
  - { offset: 0x67517, size: 0x8, addend: 0x0, symName: __ZNSt3__113__atomic_baseImLb1EE9fetch_addB8ue170006EmNS_12memory_orderE, symObjAddr: 0xA354, symBinAddr: 0x10000D7F0, symSize: 0x34 }
  - { offset: 0x67559, size: 0x8, addend: 0x0, symName: __ZN6parlay8internal12ThreadIdPool8ThreadIdC1Ej, symObjAddr: 0xA388, symBinAddr: 0x10000D824, symSize: 0x34 }
  - { offset: 0x67591, size: 0x8, addend: 0x0, symName: __ZNSt3__110lock_guardINS_5mutexEEC2B8ue170006ERS1_, symObjAddr: 0xA3BC, symBinAddr: 0x10000D858, symSize: 0x3C }
  - { offset: 0x675C9, size: 0x8, addend: 0x0, symName: __ZNSt3__110lock_guardINS_5mutexEED2B8ue170006Ev, symObjAddr: 0xAAC0, symBinAddr: 0x10000DF5C, symSize: 0x30 }
  - { offset: 0x675F3, size: 0x8, addend: 0x0, symName: __ZN6parlay8internal12ThreadIdPool8ThreadIdC2Ej, symObjAddr: 0xABCC, symBinAddr: 0x10000E068, symSize: 0x24 }
  - { offset: 0x6762B, size: 0x8, addend: 0x0, symName: __ZN6parlay8internal12ThreadIdPool13ThreadIdOwnerD2Ev, symObjAddr: 0xABF0, symBinAddr: 0x10000E08C, symSize: 0x48 }
  - { offset: 0x67655, size: 0x8, addend: 0x0, symName: __ZN6parlay8internal12ThreadIdPool10relinquishEPNS1_8ThreadIdE, symObjAddr: 0xAC38, symBinAddr: 0x10000E0D4, symSize: 0x6C }
  - { offset: 0x67689, size: 0x8, addend: 0x0, symName: __ZN6parlay8internal19ThreadListChunkDataC2Ej, symObjAddr: 0xACA4, symBinAddr: 0x10000E140, symSize: 0x70 }
  - { offset: 0x676C1, size: 0x8, addend: 0x0, symName: __ZN6parlay8internal19ThreadListChunkData16compute_chunk_idEj, symObjAddr: 0xAD14, symBinAddr: 0x10000E1B0, symSize: 0x60 }
  - { offset: 0x67700, size: 0x8, addend: 0x0, symName: __ZN6parlay8internal19ThreadListChunkData22compute_chunk_positionEjm, symObjAddr: 0xAD74, symBinAddr: 0x10000E210, symSize: 0xB0 }
  - { offset: 0x6774D, size: 0x8, addend: 0x0, symName: __ZN6parlay8internal13UninitializedINS0_24intrusive_acquire_retireINS0_12hazptr_stackIPvE4NodeENSt3__114default_deleteIS6_EELm1EE10ThreadDataEEC2Ev, symObjAddr: 0xAEA8, symBinAddr: 0x10000E344, symSize: 0x14 }
  - { offset: 0x67777, size: 0x8, addend: 0x0, symName: __ZNSt3__16atomicIPN6parlay8internal13UninitializedINS2_24intrusive_acquire_retireINS2_12hazptr_stackIPvE4NodeENS_14default_deleteIS8_EELm1EE10ThreadDataEEEEaSB8ue170006ESE_, symObjAddr: 0xAFC4, symBinAddr: 0x10000E460, symSize: 0x34 }
  - { offset: 0x677AB, size: 0x8, addend: 0x0, symName: __ZNSt3__15arrayINS_6atomicIPN6parlay8internal13UninitializedINS3_24intrusive_acquire_retireINS3_12hazptr_stackIPvE4NodeENS_14default_deleteIS9_EELm1EE10ThreadDataEEEEELm25EE4dataB8ue170006Ev, symObjAddr: 0xAFF8, symBinAddr: 0x10000E494, symSize: 0x14 }
  - { offset: 0x677D1, size: 0x8, addend: 0x0, symName: __ZNKSt3__110__function12__value_funcIFN6parlay8internal24intrusive_acquire_retireINS3_12hazptr_stackIPvE4NodeENS_14default_deleteIS8_EELm1EE10ThreadDataEjEEclB8ue170006EOj, symObjAddr: 0xB08C, symBinAddr: 0x10000E528, symSize: 0x64 }
  - { offset: 0x6780B, size: 0x8, addend: 0x0, symName: __ZNSt3__117bad_function_callC1Ev, symObjAddr: 0xB128, symBinAddr: 0x10000E5C4, symSize: 0x2C }
  - { offset: 0x67837, size: 0x8, addend: 0x0, symName: __ZNSt3__117bad_function_callD1Ev, symObjAddr: 0xB154, symBinAddr: 0x10000E5F0, symSize: 0x2C }
  - { offset: 0x67861, size: 0x8, addend: 0x0, symName: __ZNSt3__117bad_function_callC2Ev, symObjAddr: 0xB180, symBinAddr: 0x10000E61C, symSize: 0x3C }
  - { offset: 0x6788D, size: 0x8, addend: 0x0, symName: __ZNSt3__117bad_function_callD0Ev, symObjAddr: 0xB1BC, symBinAddr: 0x10000E658, symSize: 0x30 }
  - { offset: 0x678B7, size: 0x8, addend: 0x0, symName: __ZNSt3__117bad_function_callD2Ev, symObjAddr: 0xB1EC, symBinAddr: 0x10000E688, symSize: 0x2C }
  - { offset: 0x678E1, size: 0x8, addend: 0x0, symName: __ZNSt3__18functionIFN6parlay8internal24intrusive_acquire_retireINS2_12hazptr_stackIPvE4NodeENS_14default_deleteIS7_EELm1EE10ThreadDataEjEED2Ev, symObjAddr: 0xB218, symBinAddr: 0x10000E6B4, symSize: 0x2C }
  - { offset: 0x6790D, size: 0x8, addend: 0x0, symName: __ZNSt3__110__function12__value_funcIFN6parlay8internal24intrusive_acquire_retireINS3_12hazptr_stackIPvE4NodeENS_14default_deleteIS8_EELm1EE10ThreadDataEjEED1B8ue170006Ev, symObjAddr: 0xB244, symBinAddr: 0x10000E6E0, symSize: 0x2C }
  - { offset: 0x67937, size: 0x8, addend: 0x0, symName: __ZNSt3__110__function12__value_funcIFN6parlay8internal24intrusive_acquire_retireINS3_12hazptr_stackIPvE4NodeENS_14default_deleteIS8_EELm1EE10ThreadDataEjEED2B8ue170006Ev, symObjAddr: 0xB270, symBinAddr: 0x10000E70C, symSize: 0x90 }
  - { offset: 0x67961, size: 0x8, addend: 0x0, symName: __ZN6parlay8internal24intrusive_acquire_retireINS0_12hazptr_stackIPvE4NodeENSt3__114default_deleteIS5_EELm1EED2Ev, symObjAddr: 0xB300, symBinAddr: 0x10000E79C, symSize: 0x80 }
  - { offset: 0x67A01, size: 0x8, addend: 0x0, symName: __ZN6parlay14ThreadSpecificINS_8internal24intrusive_acquire_retireINS1_12hazptr_stackIPvE4NodeENSt3__114default_deleteIS6_EELm1EE10ThreadDataEE8for_eachIZNSA_D1EvEUlRT_E_EEvOSE_, symObjAddr: 0xB380, symBinAddr: 0x10000E81C, symSize: 0x180 }
  - { offset: 0x67AC7, size: 0x8, addend: 0x0, symName: __ZN6parlay14ThreadSpecificINS_8internal24intrusive_acquire_retireINS1_12hazptr_stackIPvE4NodeENSt3__114default_deleteIS6_EELm1EE10ThreadDataEE8for_eachIZNSA_D1EvEUlOT_E_EEvSF_, symObjAddr: 0xB500, symBinAddr: 0x10000E99C, symSize: 0x180 }
  - { offset: 0x67B82, size: 0x8, addend: 0x0, symName: __ZN6parlay14ThreadSpecificINS_8internal24intrusive_acquire_retireINS1_12hazptr_stackIPvE4NodeENSt3__114default_deleteIS6_EELm1EE10ThreadDataEED1Ev, symObjAddr: 0xB680, symBinAddr: 0x10000EB1C, symSize: 0x2C }
  - { offset: 0x67BAC, size: 0x8, addend: 0x0, symName: __ZN6parlay14ThreadSpecificINS_8internal24intrusive_acquire_retireINS1_12hazptr_stackIPvE4NodeENSt3__114default_deleteIS6_EELm1EE10ThreadDataEE14get_chunk_sizeEm, symObjAddr: 0xB6C0, symBinAddr: 0x10000EB5C, symSize: 0xA0 }
  - { offset: 0x67BD0, size: 0x8, addend: 0x0, symName: __ZNK6parlay14ThreadSpecificINS_8internal24intrusive_acquire_retireINS1_12hazptr_stackIPvE4NodeENSt3__114default_deleteIS6_EELm1EE10ThreadDataEE19ensure_chunk_existsEm, symObjAddr: 0xB760, symBinAddr: 0x10000EBFC, symSize: 0x1DC }
  - { offset: 0x67C60, size: 0x8, addend: 0x0, symName: __ZZN6parlay8internal24intrusive_acquire_retireINS0_12hazptr_stackIPvE4NodeENSt3__114default_deleteIS5_EELm1EED1EvENKUlRT_E_clINS9_10ThreadDataEEEDaSB_, symObjAddr: 0xB93C, symBinAddr: 0x10000EDD8, symSize: 0x20 }
  - { offset: 0x67CA1, size: 0x8, addend: 0x0, symName: __ZN6parlay8internal13UninitializedINS0_24intrusive_acquire_retireINS0_12hazptr_stackIPvE4NodeENSt3__114default_deleteIS6_EELm1EE10ThreadDataEEdeEv, symObjAddr: 0xB95C, symBinAddr: 0x10000EDF8, symSize: 0x14 }
  - { offset: 0x67CD1, size: 0x8, addend: 0x0, symName: __ZZN6parlay8internal24intrusive_acquire_retireINS0_12hazptr_stackIPvE4NodeENSt3__114default_deleteIS5_EELm1EED1EvENKUlOT_E_clIRNS9_10ThreadDataEEEDaSB_, symObjAddr: 0xB990, symBinAddr: 0x10000EE2C, symSize: 0x74 }
  - { offset: 0x67D38, size: 0x8, addend: 0x0, symName: __ZNK6parlay8internal24intrusive_acquire_retireINS0_12hazptr_stackIPvE4NodeENSt3__114default_deleteIS5_EELm1EE11RetiredList8get_sizeEv, symObjAddr: 0xBA04, symBinAddr: 0x10000EEA0, symSize: 0x18 }
  - { offset: 0x67D6A, size: 0x8, addend: 0x0, symName: __ZN6parlay8internal24intrusive_acquire_retireINS0_12hazptr_stackIPvE4NodeENSt3__114default_deleteIS5_EELm1EE11RetiredList7cleanupIZZNS9_D1EvENKUlOT_E_clIRNS9_10ThreadDataEEEDaSD_EUlSD_E_EEvSD_RS8_, symObjAddr: 0xBA1C, symBinAddr: 0x10000EEB8, symSize: 0x188 }
  - { offset: 0x67E21, size: 0x8, addend: 0x0, symName: __ZZZN6parlay8internal24intrusive_acquire_retireINS0_12hazptr_stackIPvE4NodeENSt3__114default_deleteIS5_EELm1EED1EvENKUlOT_E_clIRNS9_10ThreadDataEEEDaSB_ENKUlSB_E_clIRPS5_EESG_SB_, symObjAddr: 0xBBA4, symBinAddr: 0x10000F040, symSize: 0x1C }
  - { offset: 0x67E5E, size: 0x8, addend: 0x0, symName: __ZNKSt3__114default_deleteIN6parlay8internal12hazptr_stackIPvE4NodeEEclB8ue170006EPS6_, symObjAddr: 0xBC0C, symBinAddr: 0x10000F0A8, symSize: 0x44 }
  - { offset: 0x67E92, size: 0x8, addend: 0x0, symName: __ZN6parlay14ThreadSpecificINS_8internal24intrusive_acquire_retireINS1_12hazptr_stackIPvE4NodeENSt3__114default_deleteIS6_EELm1EE10ThreadDataEED2Ev, symObjAddr: 0xBC70, symBinAddr: 0x10000F10C, symSize: 0x11C }
  - { offset: 0x67F0D, size: 0x8, addend: 0x0, symName: __ZNKSt3__113__atomic_baseIPN6parlay8internal13UninitializedINS2_24intrusive_acquire_retireINS2_12hazptr_stackIPvE4NodeENS_14default_deleteIS8_EELm1EE10ThreadDataEEELb0EEcvSE_B8ue170006Ev, symObjAddr: 0xBD8C, symBinAddr: 0x10000F228, symSize: 0x28 }
  - { offset: 0x67F33, size: 0x8, addend: 0x0, symName: __ZN6parlay8internal13UninitializedINS0_24intrusive_acquire_retireINS0_12hazptr_stackIPvE4NodeENSt3__114default_deleteIS6_EELm1EE10ThreadDataEED1Ev, symObjAddr: 0xBDB4, symBinAddr: 0x10000F250, symSize: 0x2C }
  - { offset: 0x67F5D, size: 0x8, addend: 0x0, symName: __ZN6parlay8internal13UninitializedINS0_24intrusive_acquire_retireINS0_12hazptr_stackIPvE4NodeENSt3__114default_deleteIS6_EELm1EE10ThreadDataEED2Ev, symObjAddr: 0xBDE0, symBinAddr: 0x10000F27C, symSize: 0x2C }
  - { offset: 0x67F8C, size: 0x8, addend: 0x0, symName: __ZN6parlay8internal24intrusive_acquire_retireINS0_12hazptr_stackIPvE4NodeENSt3__114default_deleteIS5_EELm1EE10ThreadDataD1Ev, symObjAddr: 0xBE0C, symBinAddr: 0x10000F2A8, symSize: 0x2C }
  - { offset: 0x67FB8, size: 0x8, addend: 0x0, symName: __ZN6parlay8internal24intrusive_acquire_retireINS0_12hazptr_stackIPvE4NodeENSt3__114default_deleteIS5_EELm1EE10ThreadDataD2Ev, symObjAddr: 0xBE38, symBinAddr: 0x10000F2D4, symSize: 0x30 }
  - { offset: 0x67FE4, size: 0x8, addend: 0x0, symName: __ZN6parlay8internal24intrusive_acquire_retireINS0_12hazptr_stackIPvE4NodeENSt3__114default_deleteIS5_EELm1EE11RetiredListD1Ev, symObjAddr: 0xBE68, symBinAddr: 0x10000F304, symSize: 0x2C }
  - { offset: 0x6800E, size: 0x8, addend: 0x0, symName: __ZN6parlay8internal24intrusive_acquire_retireINS0_12hazptr_stackIPvE4NodeENSt3__114default_deleteIS5_EELm1EE11RetiredListD2Ev, symObjAddr: 0xBE94, symBinAddr: 0x10000F330, symSize: 0x90 }
  - { offset: 0x68038, size: 0x8, addend: 0x0, symName: __ZN6parlay8internal12hazptr_stackIPvED2Ev, symObjAddr: 0xBF24, symBinAddr: 0x10000F3C0, symSize: 0x8C }
  - { offset: 0x6808C, size: 0x8, addend: 0x0, symName: __ZNKSt3__113__atomic_baseIPN6parlay8internal12hazptr_stackIPvE4NodeELb0EE4loadB8ue170006ENS_12memory_orderE, symObjAddr: 0xBFB0, symBinAddr: 0x10000F44C, symSize: 0x2C }
  - { offset: 0x680C0, size: 0x8, addend: 0x0, symName: __ZNSt3__110unique_ptrIA_N6parlay8internal12hazptr_stackIPvEENS_14default_deleteIS6_EEEC2B8ue170006IPS5_Lb1EvvEET_, symObjAddr: 0xC05C, symBinAddr: 0x10000F4F8, symSize: 0x44 }
  - { offset: 0x68110, size: 0x8, addend: 0x0, symName: __ZNSt3__117__compressed_pairIPN6parlay8internal12hazptr_stackIPvEENS_14default_deleteIA_S5_EEEC1B8ue170006IRS6_NS_16__value_init_tagEEEOT_OT0_, symObjAddr: 0xC0A0, symBinAddr: 0x10000F53C, symSize: 0x3C }
  - { offset: 0x68168, size: 0x8, addend: 0x0, symName: __ZNSt3__117__compressed_pairIPN6parlay8internal12hazptr_stackIPvEENS_14default_deleteIA_S5_EEEC2B8ue170006IRS6_NS_16__value_init_tagEEEOT_OT0_, symObjAddr: 0xC0DC, symBinAddr: 0x10000F578, symSize: 0x40 }
  - { offset: 0x681C0, size: 0x8, addend: 0x0, symName: __ZNSt3__122__compressed_pair_elemIPN6parlay8internal12hazptr_stackIPvEELi0ELb0EEC2B8ue170006IRS6_vEEOT_, symObjAddr: 0xC11C, symBinAddr: 0x10000F5B8, symSize: 0x24 }
  - { offset: 0x68203, size: 0x8, addend: 0x0, symName: __ZNSt3__110unique_ptrIA_N6parlay8internal12hazptr_stackIPvEENS_14default_deleteIS6_EEE5resetB8ue170006IPS5_EENS_9enable_ifIXsr28_CheckArrayPointerConversionIT_EE5valueEvE4typeESD_, symObjAddr: 0xC140, symBinAddr: 0x10000F5DC, symSize: 0x78 }
  - { offset: 0x68250, size: 0x8, addend: 0x0, symName: __ZNSt3__110unique_ptrIA_N6parlay8internal12hazptr_stackIPvEENS_14default_deleteIS6_EEE7releaseB8ue170006Ev, symObjAddr: 0xC1B8, symBinAddr: 0x10000F654, symSize: 0x44 }
  - { offset: 0x68285, size: 0x8, addend: 0x0, symName: __ZNSt3__110unique_ptrIA_N6parlay8internal12hazptr_stackIPvEENS_14default_deleteIS6_EEE11get_deleterB8ue170006Ev, symObjAddr: 0xC1FC, symBinAddr: 0x10000F698, symSize: 0x24 }
  - { offset: 0x682AB, size: 0x8, addend: 0x0, symName: __ZNSt3__117__compressed_pairIPN6parlay8internal12hazptr_stackIPvEENS_14default_deleteIA_S5_EEE6secondB8ue170006Ev, symObjAddr: 0xC220, symBinAddr: 0x10000F6BC, symSize: 0x24 }
  - { offset: 0x682D1, size: 0x8, addend: 0x0, symName: __ZNSt3__117__compressed_pairIPN6parlay8internal12hazptr_stackIPvEENS_14default_deleteIA_S5_EEE5firstB8ue170006Ev, symObjAddr: 0xC244, symBinAddr: 0x10000F6E0, symSize: 0x24 }
  - { offset: 0x682FC, size: 0x8, addend: 0x0, symName: __ZNKSt3__114default_deleteIA_N6parlay8internal12hazptr_stackIPvEEEclB8ue170006IS5_EENS7_20_EnableIfConvertibleIT_E4typeEPSA_, symObjAddr: 0xC268, symBinAddr: 0x10000F704, symSize: 0x9C }
  - { offset: 0x68339, size: 0x8, addend: 0x0, symName: __ZNSt3__122__compressed_pair_elemIPN6parlay8internal12hazptr_stackIPvEELi0ELb0EE5__getB8ue170006Ev, symObjAddr: 0xC304, symBinAddr: 0x10000F7A0, symSize: 0x14 }
  - { offset: 0x6835F, size: 0x8, addend: 0x0, symName: __ZNSt3__122__compressed_pair_elemINS_14default_deleteIA_N6parlay8internal12hazptr_stackIPvEEEELi1ELb1EE5__getB8ue170006Ev, symObjAddr: 0xC318, symBinAddr: 0x10000F7B4, symSize: 0x14 }
  - { offset: 0x68385, size: 0x8, addend: 0x0, symName: __ZNSt3__110unique_ptrIA_N6parlay8internal12hazptr_stackIPvEENS_14default_deleteIS6_EEED2B8ue170006Ev, symObjAddr: 0xC32C, symBinAddr: 0x10000F7C8, symSize: 0x30 }
  - { offset: 0x683AF, size: 0x8, addend: 0x0, symName: __ZNSt3__110unique_ptrIA_N6parlay8internal12hazptr_stackIPvEENS_14default_deleteIS6_EEE5resetB8ue170006EDn, symObjAddr: 0xC35C, symBinAddr: 0x10000F7F8, symSize: 0x6C }
  - { offset: 0x683F5, size: 0x8, addend: 0x0, symName: __ZNSt3__110unique_ptrIA_N6parlay8internal15block_allocatorENS2_20unique_array_deleterIS3_EEEC1B8ue170006ILb1EvEEDnNS_16__dependent_typeINS_27__unique_ptr_deleter_sfinaeIS6_EEXT_EE20__good_rval_ref_typeE, symObjAddr: 0xC3C8, symBinAddr: 0x10000F864, symSize: 0x3C }
  - { offset: 0x68454, size: 0x8, addend: 0x0, symName: __ZZN6parlay8internal14pool_allocatorC1ERKNSt3__16vectorImNS2_9allocatorImEEEEENKUlmE_clEm, symObjAddr: 0xC404, symBinAddr: 0x10000F8A0, symSize: 0x5C }
  - { offset: 0x6848C, size: 0x8, addend: 0x0, symName: __ZNSt3__110unique_ptrIA_N6parlay8internal15block_allocatorENS2_20unique_array_deleterIS3_EEEC1B8ue170006IPS3_Lb1EvvEET_NS_16__dependent_typeINS_27__unique_ptr_deleter_sfinaeIS6_EEXT0_EE20__good_rval_ref_typeE, symObjAddr: 0xC460, symBinAddr: 0x10000F8FC, symSize: 0x3C }
  - { offset: 0x684EB, size: 0x8, addend: 0x0, symName: __ZNSt3__110unique_ptrIA_N6parlay8internal15block_allocatorENS2_20unique_array_deleterIS3_EEEC2B8ue170006ILb1EvEEDnNS_16__dependent_typeINS_27__unique_ptr_deleter_sfinaeIS6_EEXT_EE20__good_rval_ref_typeE, symObjAddr: 0xC49C, symBinAddr: 0x10000F938, symSize: 0x48 }
  - { offset: 0x6853B, size: 0x8, addend: 0x0, symName: __ZNSt3__117__compressed_pairIPN6parlay8internal15block_allocatorENS2_20unique_array_deleterIS3_EEEC1B8ue170006IDnS6_EEOT_OT0_, symObjAddr: 0xC4E4, symBinAddr: 0x10000F980, symSize: 0x3C }
  - { offset: 0x68593, size: 0x8, addend: 0x0, symName: __ZNSt3__117__compressed_pairIPN6parlay8internal15block_allocatorENS2_20unique_array_deleterIS3_EEEC2B8ue170006IDnS6_EEOT_OT0_, symObjAddr: 0xC520, symBinAddr: 0x10000F9BC, symSize: 0x48 }
  - { offset: 0x685EB, size: 0x8, addend: 0x0, symName: __ZNSt3__122__compressed_pair_elemIPN6parlay8internal15block_allocatorELi0ELb0EEC2B8ue170006IDnvEEOT_, symObjAddr: 0xC568, symBinAddr: 0x10000FA04, symSize: 0x1C }
  - { offset: 0x6862E, size: 0x8, addend: 0x0, symName: __ZNSt3__122__compressed_pair_elemIN6parlay8internal20unique_array_deleterINS2_15block_allocatorEEELi1ELb0EEC2B8ue170006IS5_vEEOT_, symObjAddr: 0xC584, symBinAddr: 0x10000FA20, symSize: 0x24 }
  - { offset: 0x68671, size: 0x8, addend: 0x0, symName: __ZN6parlay8internal15block_allocatorC1Emmmmm, symObjAddr: 0xC5A8, symBinAddr: 0x10000FA44, symSize: 0x54 }
  - { offset: 0x686E1, size: 0x8, addend: 0x0, symName: __ZN6parlay8internal15block_allocatorC2Emmmmm, symObjAddr: 0xC5FC, symBinAddr: 0x10000FA98, symSize: 0x1DC }
  - { offset: 0x68751, size: 0x8, addend: 0x0, symName: __ZN6parlay8internal12hazptr_stackIPSt4byteEC1Ev, symObjAddr: 0xC7D8, symBinAddr: 0x10000FC74, symSize: 0x2C }
  - { offset: 0x6877B, size: 0x8, addend: 0x0, symName: __ZN6parlay8internal12hazptr_stackIPNS0_15block_allocator5blockEEC1Ev, symObjAddr: 0xC804, symBinAddr: 0x10000FCA0, symSize: 0x2C }
  - { offset: 0x687A5, size: 0x8, addend: 0x0, symName: __ZN6parlay14ThreadSpecificINS_8internal15block_allocator10local_listEEC1Ev, symObjAddr: 0xC830, symBinAddr: 0x10000FCCC, symSize: 0x2C }
  - { offset: 0x687CF, size: 0x8, addend: 0x0, symName: __ZN6parlay14ThreadSpecificINS_8internal15block_allocator10local_listEED1Ev, symObjAddr: 0xC85C, symBinAddr: 0x10000FCF8, symSize: 0x2C }
  - { offset: 0x687F9, size: 0x8, addend: 0x0, symName: __ZN6parlay8internal12hazptr_stackIPNS0_15block_allocator5blockEED1Ev, symObjAddr: 0xC888, symBinAddr: 0x10000FD24, symSize: 0x2C }
  - { offset: 0x68823, size: 0x8, addend: 0x0, symName: __ZN6parlay8internal12hazptr_stackIPSt4byteED1Ev, symObjAddr: 0xC8B4, symBinAddr: 0x10000FD50, symSize: 0x2C }
  - { offset: 0x6884D, size: 0x8, addend: 0x0, symName: __ZN6parlay8internal12hazptr_stackIPSt4byteEC2Ev, symObjAddr: 0xC8E0, symBinAddr: 0x10000FD7C, symSize: 0x34 }
  - { offset: 0x68877, size: 0x8, addend: 0x0, symName: __ZNSt3__16atomicIPN6parlay8internal12hazptr_stackIPSt4byteE4NodeEEC1B8ue170006ES8_, symObjAddr: 0xC914, symBinAddr: 0x10000FDB0, symSize: 0x34 }
  - { offset: 0x688AF, size: 0x8, addend: 0x0, symName: __ZNSt3__16atomicIPN6parlay8internal12hazptr_stackIPSt4byteE4NodeEEC2B8ue170006ES8_, symObjAddr: 0xCA04, symBinAddr: 0x10000FEA0, symSize: 0x34 }
  - { offset: 0x688E7, size: 0x8, addend: 0x0, symName: __ZNSt3__113__atomic_baseIPN6parlay8internal12hazptr_stackIPSt4byteE4NodeELb0EEC2B8ue170006ES8_, symObjAddr: 0xCA38, symBinAddr: 0x10000FED4, symSize: 0x34 }
  - { offset: 0x6891F, size: 0x8, addend: 0x0, symName: __ZNSt3__117__cxx_atomic_implIPN6parlay8internal12hazptr_stackIPSt4byteE4NodeENS_22__cxx_atomic_base_implIS8_EEEC1B8ue170006ES8_, symObjAddr: 0xCA6C, symBinAddr: 0x10000FF08, symSize: 0x34 }
  - { offset: 0x68958, size: 0x8, addend: 0x0, symName: __ZNSt3__117__cxx_atomic_implIPN6parlay8internal12hazptr_stackIPSt4byteE4NodeENS_22__cxx_atomic_base_implIS8_EEEC2B8ue170006ES8_, symObjAddr: 0xCAA0, symBinAddr: 0x10000FF3C, symSize: 0x34 }
  - { offset: 0x68991, size: 0x8, addend: 0x0, symName: __ZNSt3__122__cxx_atomic_base_implIPN6parlay8internal12hazptr_stackIPSt4byteE4NodeEEC2ES8_, symObjAddr: 0xCAD4, symBinAddr: 0x10000FF70, symSize: 0x20 }
  - { offset: 0x689CA, size: 0x8, addend: 0x0, symName: __ZN6parlay8internal24intrusive_acquire_retireINS0_12hazptr_stackIPSt4byteE4NodeENSt3__114default_deleteIS6_EELm1EEC1ES9_, symObjAddr: 0xCAF4, symBinAddr: 0x10000FF90, symSize: 0x2C }
  - { offset: 0x68A02, size: 0x8, addend: 0x0, symName: __ZN6parlay8internal24intrusive_acquire_retireINS0_12hazptr_stackIPSt4byteE4NodeENSt3__114default_deleteIS6_EELm1EED1Ev, symObjAddr: 0xCB20, symBinAddr: 0x10000FFBC, symSize: 0x2C }
  - { offset: 0x68A2C, size: 0x8, addend: 0x0, symName: __ZN6parlay8internal24intrusive_acquire_retireINS0_12hazptr_stackIPSt4byteE4NodeENSt3__114default_deleteIS6_EELm1EEC2ES9_, symObjAddr: 0xCB4C, symBinAddr: 0x10000FFE8, symSize: 0x2C }
  - { offset: 0x68A64, size: 0x8, addend: 0x0, symName: __ZN6parlay14ThreadSpecificINS_8internal24intrusive_acquire_retireINS1_12hazptr_stackIPSt4byteE4NodeENSt3__114default_deleteIS7_EELm1EE10ThreadDataEEC1Ev, symObjAddr: 0xCB78, symBinAddr: 0x100010014, symSize: 0x2C }
  - { offset: 0x68A8E, size: 0x8, addend: 0x0, symName: __ZNSt3__18functionIFN6parlay8internal24intrusive_acquire_retireINS2_12hazptr_stackIPSt4byteE4NodeENS_14default_deleteIS8_EELm1EE10ThreadDataEjEEC1IZNS1_14ThreadSpecificISC_EC1EvEUlmE_vEET_, symObjAddr: 0xCC14, symBinAddr: 0x1000100B0, symSize: 0x2C }
  - { offset: 0x68AD4, size: 0x8, addend: 0x0, symName: __ZN6parlay14ThreadSpecificINS_8internal24intrusive_acquire_retireINS1_12hazptr_stackIPSt4byteE4NodeENSt3__114default_deleteIS7_EELm1EE10ThreadDataEE10initializeEv, symObjAddr: 0xCC40, symBinAddr: 0x1000100DC, symSize: 0x1B8 }
  - { offset: 0x68B26, size: 0x8, addend: 0x0, symName: __ZNSt3__18functionIFN6parlay8internal24intrusive_acquire_retireINS2_12hazptr_stackIPSt4byteE4NodeENS_14default_deleteIS8_EELm1EE10ThreadDataEjEED1Ev, symObjAddr: 0xCDF8, symBinAddr: 0x100010294, symSize: 0x2C }
  - { offset: 0x68B52, size: 0x8, addend: 0x0, symName: __ZNSt3__18functionIFN6parlay8internal24intrusive_acquire_retireINS2_12hazptr_stackIPSt4byteE4NodeENS_14default_deleteIS8_EELm1EE10ThreadDataEjEEC2IZNS1_14ThreadSpecificISC_EC1EvEUlmE_vEET_, symObjAddr: 0xCE24, symBinAddr: 0x1000102C0, symSize: 0x30 }
  - { offset: 0x68B98, size: 0x8, addend: 0x0, symName: __ZNSt3__110__function12__value_funcIFN6parlay8internal24intrusive_acquire_retireINS3_12hazptr_stackIPSt4byteE4NodeENS_14default_deleteIS9_EELm1EE10ThreadDataEjEEC1B8ue170006IZNS2_14ThreadSpecificISD_EC1EvEUlmE_vEEOT_, symObjAddr: 0xCE54, symBinAddr: 0x1000102F0, symSize: 0x50 }
  - { offset: 0x68BDC, size: 0x8, addend: 0x0, symName: __ZNSt3__19allocatorIZN6parlay14ThreadSpecificINS1_8internal24intrusive_acquire_retireINS3_12hazptr_stackIPSt4byteE4NodeENS_14default_deleteIS9_EELm1EE10ThreadDataEEC1EvEUlmE_EC1B8ue170006Ev, symObjAddr: 0xCEA4, symBinAddr: 0x100010340, symSize: 0x2C }
  - { offset: 0x68C06, size: 0x8, addend: 0x0, symName: __ZNSt3__110__function12__value_funcIFN6parlay8internal24intrusive_acquire_retireINS3_12hazptr_stackIPSt4byteE4NodeENS_14default_deleteIS9_EELm1EE10ThreadDataEjEEC1B8ue170006IZNS2_14ThreadSpecificISD_EC1EvEUlmE_NS_9allocatorISJ_EEEEOT_RKT0_, symObjAddr: 0xCED0, symBinAddr: 0x10001036C, symSize: 0x3C }
  - { offset: 0x68C60, size: 0x8, addend: 0x0, symName: __ZNSt3__19allocatorIZN6parlay14ThreadSpecificINS1_8internal24intrusive_acquire_retireINS3_12hazptr_stackIPSt4byteE4NodeENS_14default_deleteIS9_EELm1EE10ThreadDataEEC1EvEUlmE_EC2B8ue170006Ev, symObjAddr: 0xCF0C, symBinAddr: 0x1000103A8, symSize: 0x2C }
  - { offset: 0x68C8A, size: 0x8, addend: 0x0, symName: __ZNSt3__116__non_trivial_ifILb1ENS_9allocatorIZN6parlay14ThreadSpecificINS2_8internal24intrusive_acquire_retireINS4_12hazptr_stackIPSt4byteE4NodeENS_14default_deleteISA_EELm1EE10ThreadDataEEC1EvEUlmE_EEEC2B8ue170006Ev, symObjAddr: 0xCF38, symBinAddr: 0x1000103D4, symSize: 0x14 }
  - { offset: 0x68CB4, size: 0x8, addend: 0x0, symName: __ZNSt3__110__function12__value_funcIFN6parlay8internal24intrusive_acquire_retireINS3_12hazptr_stackIPSt4byteE4NodeENS_14default_deleteIS9_EELm1EE10ThreadDataEjEEC2B8ue170006IZNS2_14ThreadSpecificISD_EC1EvEUlmE_NS_9allocatorISJ_EEEEOT_RKT0_, symObjAddr: 0xCF4C, symBinAddr: 0x1000103E8, symSize: 0x94 }
  - { offset: 0x68D5C, size: 0x8, addend: 0x0, symName: __ZNSt3__19allocatorINS_10__function6__funcIZN6parlay14ThreadSpecificINS3_8internal24intrusive_acquire_retireINS5_12hazptr_stackIPSt4byteE4NodeENS_14default_deleteISB_EELm1EE10ThreadDataEEC1EvEUlmE_NS0_ISH_EEFSF_jEEEEC1B8ue170006ISH_EERKNS0_IT_EE, symObjAddr: 0xCFF8, symBinAddr: 0x100010494, symSize: 0x34 }
  - { offset: 0x68D9F, size: 0x8, addend: 0x0, symName: __ZNSt3__19allocatorIZN6parlay14ThreadSpecificINS1_8internal24intrusive_acquire_retireINS3_12hazptr_stackIPSt4byteE4NodeENS_14default_deleteIS9_EELm1EE10ThreadDataEEC1EvEUlmE_EC1B8ue170006INS_10__function6__funcISF_SG_FSD_jEEEEERKNS0_IT_EE, symObjAddr: 0xD02C, symBinAddr: 0x1000104C8, symSize: 0x34 }
  - { offset: 0x68DDC, size: 0x8, addend: 0x0, symName: __ZNSt3__110__function6__funcIZN6parlay14ThreadSpecificINS2_8internal24intrusive_acquire_retireINS4_12hazptr_stackIPSt4byteE4NodeENS_14default_deleteISA_EELm1EE10ThreadDataEEC1EvEUlmE_NS_9allocatorISG_EEFSE_jEEC1B8ue170006EOSG_OSI_, symObjAddr: 0xD060, symBinAddr: 0x1000104FC, symSize: 0x3C }
  - { offset: 0x68E24, size: 0x8, addend: 0x0, symName: __ZNSt3__19allocatorINS_10__function6__funcIZN6parlay14ThreadSpecificINS3_8internal24intrusive_acquire_retireINS5_12hazptr_stackIPSt4byteE4NodeENS_14default_deleteISB_EELm1EE10ThreadDataEEC1EvEUlmE_NS0_ISH_EEFSF_jEEEEC2B8ue170006ISH_EERKNS0_IT_EE, symObjAddr: 0xD09C, symBinAddr: 0x100010538, symSize: 0x30 }
  - { offset: 0x68E61, size: 0x8, addend: 0x0, symName: __ZNSt3__116__non_trivial_ifILb1ENS_9allocatorINS_10__function6__funcIZN6parlay14ThreadSpecificINS4_8internal24intrusive_acquire_retireINS6_12hazptr_stackIPSt4byteE4NodeENS_14default_deleteISC_EELm1EE10ThreadDataEEC1EvEUlmE_NS1_ISI_EEFSG_jEEEEEEC2B8ue170006Ev, symObjAddr: 0xD0CC, symBinAddr: 0x100010568, symSize: 0x14 }
  - { offset: 0x68E8B, size: 0x8, addend: 0x0, symName: __ZNSt3__19allocatorIZN6parlay14ThreadSpecificINS1_8internal24intrusive_acquire_retireINS3_12hazptr_stackIPSt4byteE4NodeENS_14default_deleteIS9_EELm1EE10ThreadDataEEC1EvEUlmE_EC2B8ue170006INS_10__function6__funcISF_SG_FSD_jEEEEERKNS0_IT_EE, symObjAddr: 0xD0E0, symBinAddr: 0x10001057C, symSize: 0x30 }
  - { offset: 0x68EC8, size: 0x8, addend: 0x0, symName: __ZNSt3__110__function6__funcIZN6parlay14ThreadSpecificINS2_8internal24intrusive_acquire_retireINS4_12hazptr_stackIPSt4byteE4NodeENS_14default_deleteISA_EELm1EE10ThreadDataEEC1EvEUlmE_NS_9allocatorISG_EEFSE_jEEC2B8ue170006EOSG_OSI_, symObjAddr: 0xD110, symBinAddr: 0x1000105AC, symSize: 0x80 }
  - { offset: 0x68F10, size: 0x8, addend: 0x0, symName: __ZNSt3__110__function6__baseIFN6parlay8internal24intrusive_acquire_retireINS3_12hazptr_stackIPSt4byteE4NodeENS_14default_deleteIS9_EELm1EE10ThreadDataEjEEC2B8ue170006Ev, symObjAddr: 0xD190, symBinAddr: 0x10001062C, symSize: 0x24 }
  - { offset: 0x68F3A, size: 0x8, addend: 0x0, symName: __ZNSt3__110__function12__alloc_funcIZN6parlay14ThreadSpecificINS2_8internal24intrusive_acquire_retireINS4_12hazptr_stackIPSt4byteE4NodeENS_14default_deleteISA_EELm1EE10ThreadDataEEC1EvEUlmE_NS_9allocatorISG_EEFSE_jEEC1B8ue170006EOSG_OSI_, symObjAddr: 0xD1B4, symBinAddr: 0x100010650, symSize: 0x3C }
  - { offset: 0x68F80, size: 0x8, addend: 0x0, symName: __ZNSt3__110__function6__baseIFN6parlay8internal24intrusive_acquire_retireINS3_12hazptr_stackIPSt4byteE4NodeENS_14default_deleteIS9_EELm1EE10ThreadDataEjEED2Ev, symObjAddr: 0xD1F0, symBinAddr: 0x10001068C, symSize: 0x14 }
  - { offset: 0x68FAA, size: 0x8, addend: 0x0, symName: __ZNSt3__110__function6__funcIZN6parlay14ThreadSpecificINS2_8internal24intrusive_acquire_retireINS4_12hazptr_stackIPSt4byteE4NodeENS_14default_deleteISA_EELm1EE10ThreadDataEEC1EvEUlmE_NS_9allocatorISG_EEFSE_jEED1Ev, symObjAddr: 0xD204, symBinAddr: 0x1000106A0, symSize: 0x2C }
  - { offset: 0x68FD7, size: 0x8, addend: 0x0, symName: __ZNSt3__110__function6__funcIZN6parlay14ThreadSpecificINS2_8internal24intrusive_acquire_retireINS4_12hazptr_stackIPSt4byteE4NodeENS_14default_deleteISA_EELm1EE10ThreadDataEEC1EvEUlmE_NS_9allocatorISG_EEFSE_jEED0Ev, symObjAddr: 0xD230, symBinAddr: 0x1000106CC, symSize: 0x30 }
  - { offset: 0x69004, size: 0x8, addend: 0x0, symName: __ZNKSt3__110__function6__funcIZN6parlay14ThreadSpecificINS2_8internal24intrusive_acquire_retireINS4_12hazptr_stackIPSt4byteE4NodeENS_14default_deleteISA_EELm1EE10ThreadDataEEC1EvEUlmE_NS_9allocatorISG_EEFSE_jEE7__cloneEv, symObjAddr: 0xD260, symBinAddr: 0x1000106FC, symSize: 0xFC }
  - { offset: 0x69056, size: 0x8, addend: 0x0, symName: __ZNKSt3__110__function6__funcIZN6parlay14ThreadSpecificINS2_8internal24intrusive_acquire_retireINS4_12hazptr_stackIPSt4byteE4NodeENS_14default_deleteISA_EELm1EE10ThreadDataEEC1EvEUlmE_NS_9allocatorISG_EEFSE_jEE7__cloneEPNS0_6__baseISJ_EE, symObjAddr: 0xD35C, symBinAddr: 0x1000107F8, symSize: 0x58 }
  - { offset: 0x6908D, size: 0x8, addend: 0x0, symName: __ZNSt3__110__function6__funcIZN6parlay14ThreadSpecificINS2_8internal24intrusive_acquire_retireINS4_12hazptr_stackIPSt4byteE4NodeENS_14default_deleteISA_EELm1EE10ThreadDataEEC1EvEUlmE_NS_9allocatorISG_EEFSE_jEE7destroyEv, symObjAddr: 0xD3B4, symBinAddr: 0x100010850, symSize: 0x28 }
  - { offset: 0x690B5, size: 0x8, addend: 0x0, symName: __ZNSt3__110__function6__funcIZN6parlay14ThreadSpecificINS2_8internal24intrusive_acquire_retireINS4_12hazptr_stackIPSt4byteE4NodeENS_14default_deleteISA_EELm1EE10ThreadDataEEC1EvEUlmE_NS_9allocatorISG_EEFSE_jEE18destroy_deallocateEv, symObjAddr: 0xD3DC, symBinAddr: 0x100010878, symSize: 0x58 }
  - { offset: 0x690F8, size: 0x8, addend: 0x0, symName: __ZNSt3__110__function6__funcIZN6parlay14ThreadSpecificINS2_8internal24intrusive_acquire_retireINS4_12hazptr_stackIPSt4byteE4NodeENS_14default_deleteISA_EELm1EE10ThreadDataEEC1EvEUlmE_NS_9allocatorISG_EEFSE_jEEclEOj, symObjAddr: 0xD434, symBinAddr: 0x1000108D0, symSize: 0x38 }
  - { offset: 0x6912F, size: 0x8, addend: 0x0, symName: __ZNKSt3__110__function6__funcIZN6parlay14ThreadSpecificINS2_8internal24intrusive_acquire_retireINS4_12hazptr_stackIPSt4byteE4NodeENS_14default_deleteISA_EELm1EE10ThreadDataEEC1EvEUlmE_NS_9allocatorISG_EEFSE_jEE6targetERKSt9type_info, symObjAddr: 0xD46C, symBinAddr: 0x100010908, symSize: 0x60 }
  - { offset: 0x69166, size: 0x8, addend: 0x0, symName: __ZNKSt3__110__function6__funcIZN6parlay14ThreadSpecificINS2_8internal24intrusive_acquire_retireINS4_12hazptr_stackIPSt4byteE4NodeENS_14default_deleteISA_EELm1EE10ThreadDataEEC1EvEUlmE_NS_9allocatorISG_EEFSE_jEE11target_typeEv, symObjAddr: 0xD4CC, symBinAddr: 0x100010968, symSize: 0x18 }
  - { offset: 0x6918E, size: 0x8, addend: 0x0, symName: __ZNSt3__110__function6__baseIFN6parlay8internal24intrusive_acquire_retireINS3_12hazptr_stackIPSt4byteE4NodeENS_14default_deleteIS9_EELm1EE10ThreadDataEjEED1Ev, symObjAddr: 0xD4E4, symBinAddr: 0x100010980, symSize: 0x14 }
  - { offset: 0x691B8, size: 0x8, addend: 0x0, symName: __ZNSt3__110__function6__baseIFN6parlay8internal24intrusive_acquire_retireINS3_12hazptr_stackIPSt4byteE4NodeENS_14default_deleteIS9_EELm1EE10ThreadDataEjEED0Ev, symObjAddr: 0xD4F8, symBinAddr: 0x100010994, symSize: 0xC }
  - { offset: 0x691E2, size: 0x8, addend: 0x0, symName: __ZNSt3__110__function12__alloc_funcIZN6parlay14ThreadSpecificINS2_8internal24intrusive_acquire_retireINS4_12hazptr_stackIPSt4byteE4NodeENS_14default_deleteISA_EELm1EE10ThreadDataEEC1EvEUlmE_NS_9allocatorISG_EEFSE_jEEC2B8ue170006EOSG_OSI_, symObjAddr: 0xD504, symBinAddr: 0x1000109A0, symSize: 0x5C }
  - { offset: 0x69228, size: 0x8, addend: 0x0, symName: __ZNSt3__117__compressed_pairIZN6parlay14ThreadSpecificINS1_8internal24intrusive_acquire_retireINS3_12hazptr_stackIPSt4byteE4NodeENS_14default_deleteIS9_EELm1EE10ThreadDataEEC1EvEUlmE_NS_9allocatorISF_EEEC1B8ue170006IJOSF_EJOSH_EEENS_21piecewise_construct_tENS_5tupleIJDpT_EEENSN_IJDpT0_EEE, symObjAddr: 0xD5B8, symBinAddr: 0x100010A54, symSize: 0x3C }
  - { offset: 0x69292, size: 0x8, addend: 0x0, symName: __ZNSt3__15tupleIJOZN6parlay14ThreadSpecificINS1_8internal24intrusive_acquire_retireINS3_12hazptr_stackIPSt4byteE4NodeENS_14default_deleteIS9_EELm1EE10ThreadDataEEC1EvEUlmE_EEC1B8ue170006IJSF_ELi0EEEDpOT_, symObjAddr: 0xD5F4, symBinAddr: 0x100010A90, symSize: 0x34 }
  - { offset: 0x692DC, size: 0x8, addend: 0x0, symName: __ZNSt3__15tupleIJOZN6parlay14ThreadSpecificINS1_8internal24intrusive_acquire_retireINS3_12hazptr_stackIPSt4byteE4NodeENS_14default_deleteIS9_EELm1EE10ThreadDataEEC1EvEUlmE_EEC2B8ue170006IJSF_ELi0EEEDpOT_, symObjAddr: 0xD628, symBinAddr: 0x100010AC4, symSize: 0x34 }
  - { offset: 0x69326, size: 0x8, addend: 0x0, symName: __ZNSt3__112__tuple_implINS_15__tuple_indicesIJLm0EEEEJOZN6parlay14ThreadSpecificINS3_8internal24intrusive_acquire_retireINS5_12hazptr_stackIPSt4byteE4NodeENS_14default_deleteISB_EELm1EE10ThreadDataEEC1EvEUlmE_EEC1B8ue170006IJLm0EEJSI_EJEJEJSH_EEENS1_IJXspT_EEEENS_13__tuple_typesIJDpT0_EEENS1_IJXspT1_EEEENSM_IJDpT2_EEEDpOT3_, symObjAddr: 0xD65C, symBinAddr: 0x100010AF8, symSize: 0x34 }
  - { offset: 0x693B8, size: 0x8, addend: 0x0, symName: __ZNSt3__112__tuple_implINS_15__tuple_indicesIJLm0EEEEJOZN6parlay14ThreadSpecificINS3_8internal24intrusive_acquire_retireINS5_12hazptr_stackIPSt4byteE4NodeENS_14default_deleteISB_EELm1EE10ThreadDataEEC1EvEUlmE_EEC2B8ue170006IJLm0EEJSI_EJEJEJSH_EEENS1_IJXspT_EEEENS_13__tuple_typesIJDpT0_EEENS1_IJXspT1_EEEENSM_IJDpT2_EEEDpOT3_, symObjAddr: 0xD690, symBinAddr: 0x100010B2C, symSize: 0x34 }
  - { offset: 0x6944A, size: 0x8, addend: 0x0, symName: __ZNSt3__112__tuple_leafILm0EOZN6parlay14ThreadSpecificINS1_8internal24intrusive_acquire_retireINS3_12hazptr_stackIPSt4byteE4NodeENS_14default_deleteIS9_EELm1EE10ThreadDataEEC1EvEUlmE_Lb0EEC2B8ue170006ISF_vEEOT_, symObjAddr: 0xD6C4, symBinAddr: 0x100010B60, symSize: 0x20 }
  - { offset: 0x6948E, size: 0x8, addend: 0x0, symName: __ZNSt3__15tupleIJONS_9allocatorIZN6parlay14ThreadSpecificINS2_8internal24intrusive_acquire_retireINS4_12hazptr_stackIPSt4byteE4NodeENS_14default_deleteISA_EELm1EE10ThreadDataEEC1EvEUlmE_EEEEC1B8ue170006IJSH_ELi0EEEDpOT_, symObjAddr: 0xD6E4, symBinAddr: 0x100010B80, symSize: 0x34 }
  - { offset: 0x694D8, size: 0x8, addend: 0x0, symName: __ZNSt3__15tupleIJONS_9allocatorIZN6parlay14ThreadSpecificINS2_8internal24intrusive_acquire_retireINS4_12hazptr_stackIPSt4byteE4NodeENS_14default_deleteISA_EELm1EE10ThreadDataEEC1EvEUlmE_EEEEC2B8ue170006IJSH_ELi0EEEDpOT_, symObjAddr: 0xD718, symBinAddr: 0x100010BB4, symSize: 0x34 }
  - { offset: 0x69522, size: 0x8, addend: 0x0, symName: __ZNSt3__112__tuple_implINS_15__tuple_indicesIJLm0EEEEJONS_9allocatorIZN6parlay14ThreadSpecificINS4_8internal24intrusive_acquire_retireINS6_12hazptr_stackIPSt4byteE4NodeENS_14default_deleteISC_EELm1EE10ThreadDataEEC1EvEUlmE_EEEEC1B8ue170006IJLm0EEJSK_EJEJEJSJ_EEENS1_IJXspT_EEEENS_13__tuple_typesIJDpT0_EEENS1_IJXspT1_EEEENSO_IJDpT2_EEEDpOT3_, symObjAddr: 0xD74C, symBinAddr: 0x100010BE8, symSize: 0x34 }
  - { offset: 0x695B4, size: 0x8, addend: 0x0, symName: __ZNSt3__112__tuple_implINS_15__tuple_indicesIJLm0EEEEJONS_9allocatorIZN6parlay14ThreadSpecificINS4_8internal24intrusive_acquire_retireINS6_12hazptr_stackIPSt4byteE4NodeENS_14default_deleteISC_EELm1EE10ThreadDataEEC1EvEUlmE_EEEEC2B8ue170006IJLm0EEJSK_EJEJEJSJ_EEENS1_IJXspT_EEEENS_13__tuple_typesIJDpT0_EEENS1_IJXspT1_EEEENSO_IJDpT2_EEEDpOT3_, symObjAddr: 0xD780, symBinAddr: 0x100010C1C, symSize: 0x34 }
  - { offset: 0x69646, size: 0x8, addend: 0x0, symName: __ZNSt3__112__tuple_leafILm0EONS_9allocatorIZN6parlay14ThreadSpecificINS2_8internal24intrusive_acquire_retireINS4_12hazptr_stackIPSt4byteE4NodeENS_14default_deleteISA_EELm1EE10ThreadDataEEC1EvEUlmE_EELb0EEC2B8ue170006ISH_vEEOT_, symObjAddr: 0xD7B4, symBinAddr: 0x100010C50, symSize: 0x20 }
  - { offset: 0x6968A, size: 0x8, addend: 0x0, symName: __ZNSt3__117__compressed_pairIZN6parlay14ThreadSpecificINS1_8internal24intrusive_acquire_retireINS3_12hazptr_stackIPSt4byteE4NodeENS_14default_deleteIS9_EELm1EE10ThreadDataEEC1EvEUlmE_NS_9allocatorISF_EEEC2B8ue170006IJOSF_EJOSH_EEENS_21piecewise_construct_tENS_5tupleIJDpT_EEENSN_IJDpT0_EEE, symObjAddr: 0xD7D4, symBinAddr: 0x100010C70, symSize: 0x54 }
  - { offset: 0x696F4, size: 0x8, addend: 0x0, symName: __ZNSt3__122__compressed_pair_elemIZN6parlay14ThreadSpecificINS1_8internal24intrusive_acquire_retireINS3_12hazptr_stackIPSt4byteE4NodeENS_14default_deleteIS9_EELm1EE10ThreadDataEEC1EvEUlmE_Li0ELb1EEC2B8ue170006IJOSF_EJLm0EEEENS_21piecewise_construct_tENS_5tupleIJDpT_EEENS_15__tuple_indicesIJXspT0_EEEE, symObjAddr: 0xD828, symBinAddr: 0x100010CC4, symSize: 0x38 }
  - { offset: 0x69758, size: 0x8, addend: 0x0, symName: __ZNSt3__122__compressed_pair_elemINS_9allocatorIZN6parlay14ThreadSpecificINS2_8internal24intrusive_acquire_retireINS4_12hazptr_stackIPSt4byteE4NodeENS_14default_deleteISA_EELm1EE10ThreadDataEEC1EvEUlmE_EELi1ELb1EEC2B8ue170006IJOSH_EJLm0EEEENS_21piecewise_construct_tENS_5tupleIJDpT_EEENS_15__tuple_indicesIJXspT0_EEEE, symObjAddr: 0xD860, symBinAddr: 0x100010CFC, symSize: 0x38 }
  - { offset: 0x697BC, size: 0x8, addend: 0x0, symName: __ZNSt3__112__tuple_leafILm0EOZN6parlay14ThreadSpecificINS1_8internal24intrusive_acquire_retireINS3_12hazptr_stackIPSt4byteE4NodeENS_14default_deleteIS9_EELm1EE10ThreadDataEEC1EvEUlmE_Lb0EE3getB8ue170006Ev, symObjAddr: 0xD8BC, symBinAddr: 0x100010D58, symSize: 0x18 }
  - { offset: 0x697E2, size: 0x8, addend: 0x0, symName: __ZNSt3__112__tuple_leafILm0EONS_9allocatorIZN6parlay14ThreadSpecificINS2_8internal24intrusive_acquire_retireINS4_12hazptr_stackIPSt4byteE4NodeENS_14default_deleteISA_EELm1EE10ThreadDataEEC1EvEUlmE_EELb0EE3getB8ue170006Ev, symObjAddr: 0xD8F8, symBinAddr: 0x100010D94, symSize: 0x18 }
  - { offset: 0x69808, size: 0x8, addend: 0x0, symName: __ZNSt3__110__function6__funcIZN6parlay14ThreadSpecificINS2_8internal24intrusive_acquire_retireINS4_12hazptr_stackIPSt4byteE4NodeENS_14default_deleteISA_EELm1EE10ThreadDataEEC1EvEUlmE_NS_9allocatorISG_EEFSE_jEED2Ev, symObjAddr: 0xD910, symBinAddr: 0x100010DAC, symSize: 0x2C }
  - { offset: 0x69835, size: 0x8, addend: 0x0, symName: __ZNKSt3__110__function12__alloc_funcIZN6parlay14ThreadSpecificINS2_8internal24intrusive_acquire_retireINS4_12hazptr_stackIPSt4byteE4NodeENS_14default_deleteISA_EELm1EE10ThreadDataEEC1EvEUlmE_NS_9allocatorISG_EEFSE_jEE15__get_allocatorB8ue170006Ev, symObjAddr: 0xD93C, symBinAddr: 0x100010DD8, symSize: 0x24 }
  - { offset: 0x6985B, size: 0x8, addend: 0x0, symName: __ZNSt3__19allocatorINS_10__function6__funcIZN6parlay14ThreadSpecificINS3_8internal24intrusive_acquire_retireINS5_12hazptr_stackIPSt4byteE4NodeENS_14default_deleteISB_EELm1EE10ThreadDataEEC1EvEUlmE_NS0_ISH_EEFSF_jEEEE8allocateB8ue170006Em, symObjAddr: 0xD960, symBinAddr: 0x100010DFC, symSize: 0x58 }
  - { offset: 0x698A0, size: 0x8, addend: 0x0, symName: __ZNSt3__122__allocator_destructorINS_9allocatorINS_10__function6__funcIZN6parlay14ThreadSpecificINS4_8internal24intrusive_acquire_retireINS6_12hazptr_stackIPSt4byteE4NodeENS_14default_deleteISC_EELm1EE10ThreadDataEEC1EvEUlmE_NS1_ISI_EEFSG_jEEEEEEC1B8ue170006ERSM_m, symObjAddr: 0xD9B8, symBinAddr: 0x100010E54, symSize: 0x3C }
  - { offset: 0x6997C, size: 0x8, addend: 0x0, symName: __ZNSt3__110unique_ptrINS_10__function6__funcIZN6parlay14ThreadSpecificINS3_8internal24intrusive_acquire_retireINS5_12hazptr_stackIPSt4byteE4NodeENS_14default_deleteISB_EELm1EE10ThreadDataEEC1EvEUlmE_NS_9allocatorISH_EEFSF_jEEENS_22__allocator_destructorINSI_ISL_EEEEEC1B8ue170006ILb1EvEEPSL_NS_16__dependent_typeINS_27__unique_ptr_deleter_sfinaeISO_EEXT_EE20__good_rval_ref_typeE, symObjAddr: 0xD9F4, symBinAddr: 0x100010E90, symSize: 0x3C }
  - { offset: 0x699CE, size: 0x8, addend: 0x0, symName: __ZNKSt3__110unique_ptrINS_10__function6__funcIZN6parlay14ThreadSpecificINS3_8internal24intrusive_acquire_retireINS5_12hazptr_stackIPSt4byteE4NodeENS_14default_deleteISB_EELm1EE10ThreadDataEEC1EvEUlmE_NS_9allocatorISH_EEFSF_jEEENS_22__allocator_destructorINSI_ISL_EEEEE3getB8ue170006Ev, symObjAddr: 0xDA30, symBinAddr: 0x100010ECC, symSize: 0x28 }
  - { offset: 0x699F4, size: 0x8, addend: 0x0, symName: __ZNKSt3__110__function12__alloc_funcIZN6parlay14ThreadSpecificINS2_8internal24intrusive_acquire_retireINS4_12hazptr_stackIPSt4byteE4NodeENS_14default_deleteISA_EELm1EE10ThreadDataEEC1EvEUlmE_NS_9allocatorISG_EEFSE_jEE8__targetB8ue170006Ev, symObjAddr: 0xDA58, symBinAddr: 0x100010EF4, symSize: 0x24 }
  - { offset: 0x69A1A, size: 0x8, addend: 0x0, symName: __ZNSt3__110__function6__funcIZN6parlay14ThreadSpecificINS2_8internal24intrusive_acquire_retireINS4_12hazptr_stackIPSt4byteE4NodeENS_14default_deleteISA_EELm1EE10ThreadDataEEC1EvEUlmE_NS_9allocatorISG_EEFSE_jEEC1B8ue170006ERKSG_OSI_, symObjAddr: 0xDA7C, symBinAddr: 0x100010F18, symSize: 0x3C }
  - { offset: 0x69A62, size: 0x8, addend: 0x0, symName: __ZNSt3__110unique_ptrINS_10__function6__funcIZN6parlay14ThreadSpecificINS3_8internal24intrusive_acquire_retireINS5_12hazptr_stackIPSt4byteE4NodeENS_14default_deleteISB_EELm1EE10ThreadDataEEC1EvEUlmE_NS_9allocatorISH_EEFSF_jEEENS_22__allocator_destructorINSI_ISL_EEEEE7releaseB8ue170006Ev, symObjAddr: 0xDAB8, symBinAddr: 0x100010F54, symSize: 0x44 }
  - { offset: 0x69A97, size: 0x8, addend: 0x0, symName: __ZNSt3__110unique_ptrINS_10__function6__funcIZN6parlay14ThreadSpecificINS3_8internal24intrusive_acquire_retireINS5_12hazptr_stackIPSt4byteE4NodeENS_14default_deleteISB_EELm1EE10ThreadDataEEC1EvEUlmE_NS_9allocatorISH_EEFSF_jEEENS_22__allocator_destructorINSI_ISL_EEEEED1B8ue170006Ev, symObjAddr: 0xDAFC, symBinAddr: 0x100010F98, symSize: 0x2C }
  - { offset: 0x69AC1, size: 0x8, addend: 0x0, symName: __ZNKSt3__117__compressed_pairIZN6parlay14ThreadSpecificINS1_8internal24intrusive_acquire_retireINS3_12hazptr_stackIPSt4byteE4NodeENS_14default_deleteIS9_EELm1EE10ThreadDataEEC1EvEUlmE_NS_9allocatorISF_EEE6secondB8ue170006Ev, symObjAddr: 0xDB28, symBinAddr: 0x100010FC4, symSize: 0x24 }
  - { offset: 0x69AE7, size: 0x8, addend: 0x0, symName: __ZNKSt3__122__compressed_pair_elemINS_9allocatorIZN6parlay14ThreadSpecificINS2_8internal24intrusive_acquire_retireINS4_12hazptr_stackIPSt4byteE4NodeENS_14default_deleteISA_EELm1EE10ThreadDataEEC1EvEUlmE_EELi1ELb1EE5__getB8ue170006Ev, symObjAddr: 0xDB4C, symBinAddr: 0x100010FE8, symSize: 0x14 }
  - { offset: 0x69B18, size: 0x8, addend: 0x0, symName: __ZNSt3__116allocator_traitsINS_9allocatorINS_10__function6__funcIZN6parlay14ThreadSpecificINS4_8internal24intrusive_acquire_retireINS6_12hazptr_stackIPSt4byteE4NodeENS_14default_deleteISC_EELm1EE10ThreadDataEEC1EvEUlmE_NS1_ISI_EEFSG_jEEEEEE8max_sizeB8ue170006ISM_vEEmRKSM_, symObjAddr: 0xDB60, symBinAddr: 0x100010FFC, symSize: 0x24 }
  - { offset: 0x69B47, size: 0x8, addend: 0x0, symName: __ZNKSt3__19allocatorINS_10__function6__funcIZN6parlay14ThreadSpecificINS3_8internal24intrusive_acquire_retireINS5_12hazptr_stackIPSt4byteE4NodeENS_14default_deleteISB_EELm1EE10ThreadDataEEC1EvEUlmE_NS0_ISH_EEFSF_jEEEE8max_sizeB8ue170006Ev, symObjAddr: 0xDB84, symBinAddr: 0x100011020, symSize: 0x14 }
  - { offset: 0x69B6D, size: 0x8, addend: 0x0, symName: __ZNSt3__122__allocator_destructorINS_9allocatorINS_10__function6__funcIZN6parlay14ThreadSpecificINS4_8internal24intrusive_acquire_retireINS6_12hazptr_stackIPSt4byteE4NodeENS_14default_deleteISC_EELm1EE10ThreadDataEEC1EvEUlmE_NS1_ISI_EEFSG_jEEEEEEC2B8ue170006ERSM_m, symObjAddr: 0xDB98, symBinAddr: 0x100011034, symSize: 0x2C }
  - { offset: 0x69BB3, size: 0x8, addend: 0x0, symName: __ZNSt3__110unique_ptrINS_10__function6__funcIZN6parlay14ThreadSpecificINS3_8internal24intrusive_acquire_retireINS5_12hazptr_stackIPSt4byteE4NodeENS_14default_deleteISB_EELm1EE10ThreadDataEEC1EvEUlmE_NS_9allocatorISH_EEFSF_jEEENS_22__allocator_destructorINSI_ISL_EEEEEC2B8ue170006ILb1EvEEPSL_NS_16__dependent_typeINS_27__unique_ptr_deleter_sfinaeISO_EEXT_EE20__good_rval_ref_typeE, symObjAddr: 0xDBC4, symBinAddr: 0x100011060, symSize: 0x48 }
  - { offset: 0x69C05, size: 0x8, addend: 0x0, symName: __ZNSt3__117__compressed_pairIPNS_10__function6__funcIZN6parlay14ThreadSpecificINS3_8internal24intrusive_acquire_retireINS5_12hazptr_stackIPSt4byteE4NodeENS_14default_deleteISB_EELm1EE10ThreadDataEEC1EvEUlmE_NS_9allocatorISH_EEFSF_jEEENS_22__allocator_destructorINSI_ISL_EEEEEC1B8ue170006IRSM_SP_EEOT_OT0_, symObjAddr: 0xDC0C, symBinAddr: 0x1000110A8, symSize: 0x3C }
  - { offset: 0x69C5D, size: 0x8, addend: 0x0, symName: __ZNSt3__117__compressed_pairIPNS_10__function6__funcIZN6parlay14ThreadSpecificINS3_8internal24intrusive_acquire_retireINS5_12hazptr_stackIPSt4byteE4NodeENS_14default_deleteISB_EELm1EE10ThreadDataEEC1EvEUlmE_NS_9allocatorISH_EEFSF_jEEENS_22__allocator_destructorINSI_ISL_EEEEEC2B8ue170006IRSM_SP_EEOT_OT0_, symObjAddr: 0xDC48, symBinAddr: 0x1000110E4, symSize: 0x48 }
  - { offset: 0x69CB5, size: 0x8, addend: 0x0, symName: __ZNSt3__122__compressed_pair_elemIPNS_10__function6__funcIZN6parlay14ThreadSpecificINS3_8internal24intrusive_acquire_retireINS5_12hazptr_stackIPSt4byteE4NodeENS_14default_deleteISB_EELm1EE10ThreadDataEEC1EvEUlmE_NS_9allocatorISH_EEFSF_jEEELi0ELb0EEC2B8ue170006IRSM_vEEOT_, symObjAddr: 0xDC90, symBinAddr: 0x10001112C, symSize: 0x24 }
  - { offset: 0x69CF8, size: 0x8, addend: 0x0, symName: __ZNSt3__122__compressed_pair_elemINS_22__allocator_destructorINS_9allocatorINS_10__function6__funcIZN6parlay14ThreadSpecificINS5_8internal24intrusive_acquire_retireINS7_12hazptr_stackIPSt4byteE4NodeENS_14default_deleteISD_EELm1EE10ThreadDataEEC1EvEUlmE_NS2_ISJ_EEFSH_jEEEEEEELi1ELb0EEC2B8ue170006ISO_vEEOT_, symObjAddr: 0xDCB4, symBinAddr: 0x100011150, symSize: 0x24 }
  - { offset: 0x69D3B, size: 0x8, addend: 0x0, symName: __ZNKSt3__117__compressed_pairIPNS_10__function6__funcIZN6parlay14ThreadSpecificINS3_8internal24intrusive_acquire_retireINS5_12hazptr_stackIPSt4byteE4NodeENS_14default_deleteISB_EELm1EE10ThreadDataEEC1EvEUlmE_NS_9allocatorISH_EEFSF_jEEENS_22__allocator_destructorINSI_ISL_EEEEE5firstB8ue170006Ev, symObjAddr: 0xDCD8, symBinAddr: 0x100011174, symSize: 0x24 }
  - { offset: 0x69D61, size: 0x8, addend: 0x0, symName: __ZNKSt3__122__compressed_pair_elemIPNS_10__function6__funcIZN6parlay14ThreadSpecificINS3_8internal24intrusive_acquire_retireINS5_12hazptr_stackIPSt4byteE4NodeENS_14default_deleteISB_EELm1EE10ThreadDataEEC1EvEUlmE_NS_9allocatorISH_EEFSF_jEEELi0ELb0EE5__getB8ue170006Ev, symObjAddr: 0xDCFC, symBinAddr: 0x100011198, symSize: 0x14 }
  - { offset: 0x69D87, size: 0x8, addend: 0x0, symName: __ZNKSt3__117__compressed_pairIZN6parlay14ThreadSpecificINS1_8internal24intrusive_acquire_retireINS3_12hazptr_stackIPSt4byteE4NodeENS_14default_deleteIS9_EELm1EE10ThreadDataEEC1EvEUlmE_NS_9allocatorISF_EEE5firstB8ue170006Ev, symObjAddr: 0xDD10, symBinAddr: 0x1000111AC, symSize: 0x24 }
  - { offset: 0x69DAD, size: 0x8, addend: 0x0, symName: __ZNKSt3__122__compressed_pair_elemIZN6parlay14ThreadSpecificINS1_8internal24intrusive_acquire_retireINS3_12hazptr_stackIPSt4byteE4NodeENS_14default_deleteIS9_EELm1EE10ThreadDataEEC1EvEUlmE_Li0ELb1EE5__getB8ue170006Ev, symObjAddr: 0xDD34, symBinAddr: 0x1000111D0, symSize: 0x14 }
  - { offset: 0x69DD3, size: 0x8, addend: 0x0, symName: __ZNSt3__110__function6__funcIZN6parlay14ThreadSpecificINS2_8internal24intrusive_acquire_retireINS4_12hazptr_stackIPSt4byteE4NodeENS_14default_deleteISA_EELm1EE10ThreadDataEEC1EvEUlmE_NS_9allocatorISG_EEFSE_jEEC2B8ue170006ERKSG_OSI_, symObjAddr: 0xDD48, symBinAddr: 0x1000111E4, symSize: 0x80 }
  - { offset: 0x69E1B, size: 0x8, addend: 0x0, symName: __ZNSt3__110__function12__alloc_funcIZN6parlay14ThreadSpecificINS2_8internal24intrusive_acquire_retireINS4_12hazptr_stackIPSt4byteE4NodeENS_14default_deleteISA_EELm1EE10ThreadDataEEC1EvEUlmE_NS_9allocatorISG_EEFSE_jEEC1B8ue170006ERKSG_OSI_, symObjAddr: 0xDDC8, symBinAddr: 0x100011264, symSize: 0x3C }
  - { offset: 0x69E61, size: 0x8, addend: 0x0, symName: __ZNSt3__110__function12__alloc_funcIZN6parlay14ThreadSpecificINS2_8internal24intrusive_acquire_retireINS4_12hazptr_stackIPSt4byteE4NodeENS_14default_deleteISA_EELm1EE10ThreadDataEEC1EvEUlmE_NS_9allocatorISG_EEFSE_jEEC2B8ue170006ERKSG_OSI_, symObjAddr: 0xDE04, symBinAddr: 0x1000112A0, symSize: 0x5C }
  - { offset: 0x69EA7, size: 0x8, addend: 0x0, symName: __ZNSt3__117__compressed_pairIZN6parlay14ThreadSpecificINS1_8internal24intrusive_acquire_retireINS3_12hazptr_stackIPSt4byteE4NodeENS_14default_deleteIS9_EELm1EE10ThreadDataEEC1EvEUlmE_NS_9allocatorISF_EEEC1B8ue170006IJRKSF_EJOSH_EEENS_21piecewise_construct_tENS_5tupleIJDpT_EEENSO_IJDpT0_EEE, symObjAddr: 0xDE8C, symBinAddr: 0x100011328, symSize: 0x3C }
  - { offset: 0x69F11, size: 0x8, addend: 0x0, symName: __ZNSt3__15tupleIJRKZN6parlay14ThreadSpecificINS1_8internal24intrusive_acquire_retireINS3_12hazptr_stackIPSt4byteE4NodeENS_14default_deleteIS9_EELm1EE10ThreadDataEEC1EvEUlmE_EEC1B8ue170006INS_4_AndELi0EEESH_, symObjAddr: 0xDEC8, symBinAddr: 0x100011364, symSize: 0x34 }
  - { offset: 0x69F5A, size: 0x8, addend: 0x0, symName: __ZNSt3__15tupleIJRKZN6parlay14ThreadSpecificINS1_8internal24intrusive_acquire_retireINS3_12hazptr_stackIPSt4byteE4NodeENS_14default_deleteIS9_EELm1EE10ThreadDataEEC1EvEUlmE_EEC2B8ue170006INS_4_AndELi0EEESH_, symObjAddr: 0xDEFC, symBinAddr: 0x100011398, symSize: 0x34 }
  - { offset: 0x69FA3, size: 0x8, addend: 0x0, symName: __ZNSt3__112__tuple_implINS_15__tuple_indicesIJLm0EEEEJRKZN6parlay14ThreadSpecificINS3_8internal24intrusive_acquire_retireINS5_12hazptr_stackIPSt4byteE4NodeENS_14default_deleteISB_EELm1EE10ThreadDataEEC1EvEUlmE_EEC1B8ue170006IJLm0EEJSJ_EJEJEJSJ_EEENS1_IJXspT_EEEENS_13__tuple_typesIJDpT0_EEENS1_IJXspT1_EEEENSN_IJDpT2_EEEDpOT3_, symObjAddr: 0xDF30, symBinAddr: 0x1000113CC, symSize: 0x34 }
  - { offset: 0x6A035, size: 0x8, addend: 0x0, symName: __ZNSt3__112__tuple_implINS_15__tuple_indicesIJLm0EEEEJRKZN6parlay14ThreadSpecificINS3_8internal24intrusive_acquire_retireINS5_12hazptr_stackIPSt4byteE4NodeENS_14default_deleteISB_EELm1EE10ThreadDataEEC1EvEUlmE_EEC2B8ue170006IJLm0EEJSJ_EJEJEJSJ_EEENS1_IJXspT_EEEENS_13__tuple_typesIJDpT0_EEENS1_IJXspT1_EEEENSN_IJDpT2_EEEDpOT3_, symObjAddr: 0xDF64, symBinAddr: 0x100011400, symSize: 0x34 }
  - { offset: 0x6A0C7, size: 0x8, addend: 0x0, symName: __ZNSt3__112__tuple_leafILm0ERKZN6parlay14ThreadSpecificINS1_8internal24intrusive_acquire_retireINS3_12hazptr_stackIPSt4byteE4NodeENS_14default_deleteIS9_EELm1EE10ThreadDataEEC1EvEUlmE_Lb0EEC2B8ue170006ISH_vEEOT_, symObjAddr: 0xDF98, symBinAddr: 0x100011434, symSize: 0x20 }
  - { offset: 0x6A10B, size: 0x8, addend: 0x0, symName: __ZNSt3__117__compressed_pairIZN6parlay14ThreadSpecificINS1_8internal24intrusive_acquire_retireINS3_12hazptr_stackIPSt4byteE4NodeENS_14default_deleteIS9_EELm1EE10ThreadDataEEC1EvEUlmE_NS_9allocatorISF_EEEC2B8ue170006IJRKSF_EJOSH_EEENS_21piecewise_construct_tENS_5tupleIJDpT_EEENSO_IJDpT0_EEE, symObjAddr: 0xDFB8, symBinAddr: 0x100011454, symSize: 0x54 }
  - { offset: 0x6A175, size: 0x8, addend: 0x0, symName: __ZNSt3__122__compressed_pair_elemIZN6parlay14ThreadSpecificINS1_8internal24intrusive_acquire_retireINS3_12hazptr_stackIPSt4byteE4NodeENS_14default_deleteIS9_EELm1EE10ThreadDataEEC1EvEUlmE_Li0ELb1EEC2B8ue170006IJRKSF_EJLm0EEEENS_21piecewise_construct_tENS_5tupleIJDpT_EEENS_15__tuple_indicesIJXspT0_EEEE, symObjAddr: 0xE00C, symBinAddr: 0x1000114A8, symSize: 0x38 }
  - { offset: 0x6A1D9, size: 0x8, addend: 0x0, symName: __ZNSt3__112__tuple_leafILm0ERKZN6parlay14ThreadSpecificINS1_8internal24intrusive_acquire_retireINS3_12hazptr_stackIPSt4byteE4NodeENS_14default_deleteIS9_EELm1EE10ThreadDataEEC1EvEUlmE_Lb0EE3getB8ue170006Ev, symObjAddr: 0xE068, symBinAddr: 0x100011504, symSize: 0x18 }
  - { offset: 0x6A1FF, size: 0x8, addend: 0x0, symName: __ZNSt3__117__compressed_pairIPNS_10__function6__funcIZN6parlay14ThreadSpecificINS3_8internal24intrusive_acquire_retireINS5_12hazptr_stackIPSt4byteE4NodeENS_14default_deleteISB_EELm1EE10ThreadDataEEC1EvEUlmE_NS_9allocatorISH_EEFSF_jEEENS_22__allocator_destructorINSI_ISL_EEEEE5firstB8ue170006Ev, symObjAddr: 0xE080, symBinAddr: 0x10001151C, symSize: 0x24 }
  - { offset: 0x6A225, size: 0x8, addend: 0x0, symName: __ZNSt3__122__compressed_pair_elemIPNS_10__function6__funcIZN6parlay14ThreadSpecificINS3_8internal24intrusive_acquire_retireINS5_12hazptr_stackIPSt4byteE4NodeENS_14default_deleteISB_EELm1EE10ThreadDataEEC1EvEUlmE_NS_9allocatorISH_EEFSF_jEEELi0ELb0EE5__getB8ue170006Ev, symObjAddr: 0xE0A4, symBinAddr: 0x100011540, symSize: 0x14 }
  - { offset: 0x6A24B, size: 0x8, addend: 0x0, symName: __ZNSt3__110unique_ptrINS_10__function6__funcIZN6parlay14ThreadSpecificINS3_8internal24intrusive_acquire_retireINS5_12hazptr_stackIPSt4byteE4NodeENS_14default_deleteISB_EELm1EE10ThreadDataEEC1EvEUlmE_NS_9allocatorISH_EEFSF_jEEENS_22__allocator_destructorINSI_ISL_EEEEED2B8ue170006Ev, symObjAddr: 0xE0B8, symBinAddr: 0x100011554, symSize: 0x30 }
  - { offset: 0x6A275, size: 0x8, addend: 0x0, symName: __ZNSt3__110unique_ptrINS_10__function6__funcIZN6parlay14ThreadSpecificINS3_8internal24intrusive_acquire_retireINS5_12hazptr_stackIPSt4byteE4NodeENS_14default_deleteISB_EELm1EE10ThreadDataEEC1EvEUlmE_NS_9allocatorISH_EEFSF_jEEENS_22__allocator_destructorINSI_ISL_EEEEE5resetB8ue170006EPSL_, symObjAddr: 0xE0E8, symBinAddr: 0x100011584, symSize: 0x78 }
  - { offset: 0x6A2B9, size: 0x8, addend: 0x0, symName: __ZNSt3__117__compressed_pairIPNS_10__function6__funcIZN6parlay14ThreadSpecificINS3_8internal24intrusive_acquire_retireINS5_12hazptr_stackIPSt4byteE4NodeENS_14default_deleteISB_EELm1EE10ThreadDataEEC1EvEUlmE_NS_9allocatorISH_EEFSF_jEEENS_22__allocator_destructorINSI_ISL_EEEEE6secondB8ue170006Ev, symObjAddr: 0xE160, symBinAddr: 0x1000115FC, symSize: 0x28 }
  - { offset: 0x6A2DF, size: 0x8, addend: 0x0, symName: __ZNSt3__122__allocator_destructorINS_9allocatorINS_10__function6__funcIZN6parlay14ThreadSpecificINS4_8internal24intrusive_acquire_retireINS6_12hazptr_stackIPSt4byteE4NodeENS_14default_deleteISC_EELm1EE10ThreadDataEEC1EvEUlmE_NS1_ISI_EEFSG_jEEEEEEclB8ue170006EPSL_, symObjAddr: 0xE188, symBinAddr: 0x100011624, symSize: 0x34 }
  - { offset: 0x6A313, size: 0x8, addend: 0x0, symName: __ZNSt3__122__compressed_pair_elemINS_22__allocator_destructorINS_9allocatorINS_10__function6__funcIZN6parlay14ThreadSpecificINS5_8internal24intrusive_acquire_retireINS7_12hazptr_stackIPSt4byteE4NodeENS_14default_deleteISD_EELm1EE10ThreadDataEEC1EvEUlmE_NS2_ISJ_EEFSH_jEEEEEEELi1ELb0EE5__getB8ue170006Ev, symObjAddr: 0xE1BC, symBinAddr: 0x100011658, symSize: 0x14 }
  - { offset: 0x6A339, size: 0x8, addend: 0x0, symName: __ZNSt3__116allocator_traitsINS_9allocatorINS_10__function6__funcIZN6parlay14ThreadSpecificINS4_8internal24intrusive_acquire_retireINS6_12hazptr_stackIPSt4byteE4NodeENS_14default_deleteISC_EELm1EE10ThreadDataEEC1EvEUlmE_NS1_ISI_EEFSG_jEEEEEE10deallocateB8ue170006ERSM_PSL_m, symObjAddr: 0xE1D0, symBinAddr: 0x10001166C, symSize: 0x34 }
  - { offset: 0x6A37B, size: 0x8, addend: 0x0, symName: __ZNSt3__19allocatorINS_10__function6__funcIZN6parlay14ThreadSpecificINS3_8internal24intrusive_acquire_retireINS5_12hazptr_stackIPSt4byteE4NodeENS_14default_deleteISB_EELm1EE10ThreadDataEEC1EvEUlmE_NS0_ISH_EEFSF_jEEEE10deallocateB8ue170006EPSK_m, symObjAddr: 0xE204, symBinAddr: 0x1000116A0, symSize: 0x40 }
  - { offset: 0x6A3BD, size: 0x8, addend: 0x0, symName: __ZNSt3__110__function6__funcIZN6parlay14ThreadSpecificINS2_8internal24intrusive_acquire_retireINS4_12hazptr_stackIPSt4byteE4NodeENS_14default_deleteISA_EELm1EE10ThreadDataEEC1EvEUlmE_NS_9allocatorISG_EEFSE_jEEC1B8ue170006ERKSG_RKSI_, symObjAddr: 0xE244, symBinAddr: 0x1000116E0, symSize: 0x3C }
  - { offset: 0x6A405, size: 0x8, addend: 0x0, symName: __ZNSt3__110__function6__funcIZN6parlay14ThreadSpecificINS2_8internal24intrusive_acquire_retireINS4_12hazptr_stackIPSt4byteE4NodeENS_14default_deleteISA_EELm1EE10ThreadDataEEC1EvEUlmE_NS_9allocatorISG_EEFSE_jEEC2B8ue170006ERKSG_RKSI_, symObjAddr: 0xE280, symBinAddr: 0x10001171C, symSize: 0x80 }
  - { offset: 0x6A44D, size: 0x8, addend: 0x0, symName: __ZNSt3__110__function12__alloc_funcIZN6parlay14ThreadSpecificINS2_8internal24intrusive_acquire_retireINS4_12hazptr_stackIPSt4byteE4NodeENS_14default_deleteISA_EELm1EE10ThreadDataEEC1EvEUlmE_NS_9allocatorISG_EEFSE_jEEC1B8ue170006ERKSG_RKSI_, symObjAddr: 0xE300, symBinAddr: 0x10001179C, symSize: 0x3C }
  - { offset: 0x6A493, size: 0x8, addend: 0x0, symName: __ZNSt3__110__function12__alloc_funcIZN6parlay14ThreadSpecificINS2_8internal24intrusive_acquire_retireINS4_12hazptr_stackIPSt4byteE4NodeENS_14default_deleteISA_EELm1EE10ThreadDataEEC1EvEUlmE_NS_9allocatorISG_EEFSE_jEEC2B8ue170006ERKSG_RKSI_, symObjAddr: 0xE33C, symBinAddr: 0x1000117D8, symSize: 0x5C }
  - { offset: 0x6A4D9, size: 0x8, addend: 0x0, symName: __ZNSt3__117__compressed_pairIZN6parlay14ThreadSpecificINS1_8internal24intrusive_acquire_retireINS3_12hazptr_stackIPSt4byteE4NodeENS_14default_deleteIS9_EELm1EE10ThreadDataEEC1EvEUlmE_NS_9allocatorISF_EEEC1B8ue170006IJRKSF_EJRKSH_EEENS_21piecewise_construct_tENS_5tupleIJDpT_EEENSP_IJDpT0_EEE, symObjAddr: 0xE3C4, symBinAddr: 0x100011860, symSize: 0x3C }
  - { offset: 0x6A543, size: 0x8, addend: 0x0, symName: __ZNSt3__15tupleIJRKNS_9allocatorIZN6parlay14ThreadSpecificINS2_8internal24intrusive_acquire_retireINS4_12hazptr_stackIPSt4byteE4NodeENS_14default_deleteISA_EELm1EE10ThreadDataEEC1EvEUlmE_EEEEC1B8ue170006INS_4_AndELi0EEESJ_, symObjAddr: 0xE400, symBinAddr: 0x10001189C, symSize: 0x34 }
  - { offset: 0x6A58C, size: 0x8, addend: 0x0, symName: __ZNSt3__15tupleIJRKNS_9allocatorIZN6parlay14ThreadSpecificINS2_8internal24intrusive_acquire_retireINS4_12hazptr_stackIPSt4byteE4NodeENS_14default_deleteISA_EELm1EE10ThreadDataEEC1EvEUlmE_EEEEC2B8ue170006INS_4_AndELi0EEESJ_, symObjAddr: 0xE434, symBinAddr: 0x1000118D0, symSize: 0x34 }
  - { offset: 0x6A5D5, size: 0x8, addend: 0x0, symName: __ZNSt3__112__tuple_implINS_15__tuple_indicesIJLm0EEEEJRKNS_9allocatorIZN6parlay14ThreadSpecificINS4_8internal24intrusive_acquire_retireINS6_12hazptr_stackIPSt4byteE4NodeENS_14default_deleteISC_EELm1EE10ThreadDataEEC1EvEUlmE_EEEEC1B8ue170006IJLm0EEJSL_EJEJEJSL_EEENS1_IJXspT_EEEENS_13__tuple_typesIJDpT0_EEENS1_IJXspT1_EEEENSP_IJDpT2_EEEDpOT3_, symObjAddr: 0xE468, symBinAddr: 0x100011904, symSize: 0x34 }
  - { offset: 0x6A667, size: 0x8, addend: 0x0, symName: __ZNSt3__112__tuple_implINS_15__tuple_indicesIJLm0EEEEJRKNS_9allocatorIZN6parlay14ThreadSpecificINS4_8internal24intrusive_acquire_retireINS6_12hazptr_stackIPSt4byteE4NodeENS_14default_deleteISC_EELm1EE10ThreadDataEEC1EvEUlmE_EEEEC2B8ue170006IJLm0EEJSL_EJEJEJSL_EEENS1_IJXspT_EEEENS_13__tuple_typesIJDpT0_EEENS1_IJXspT1_EEEENSP_IJDpT2_EEEDpOT3_, symObjAddr: 0xE49C, symBinAddr: 0x100011938, symSize: 0x34 }
  - { offset: 0x6A6F9, size: 0x8, addend: 0x0, symName: __ZNSt3__112__tuple_leafILm0ERKNS_9allocatorIZN6parlay14ThreadSpecificINS2_8internal24intrusive_acquire_retireINS4_12hazptr_stackIPSt4byteE4NodeENS_14default_deleteISA_EELm1EE10ThreadDataEEC1EvEUlmE_EELb0EEC2B8ue170006ISJ_vEEOT_, symObjAddr: 0xE4D0, symBinAddr: 0x10001196C, symSize: 0x20 }
  - { offset: 0x6A73D, size: 0x8, addend: 0x0, symName: __ZNSt3__117__compressed_pairIZN6parlay14ThreadSpecificINS1_8internal24intrusive_acquire_retireINS3_12hazptr_stackIPSt4byteE4NodeENS_14default_deleteIS9_EELm1EE10ThreadDataEEC1EvEUlmE_NS_9allocatorISF_EEEC2B8ue170006IJRKSF_EJRKSH_EEENS_21piecewise_construct_tENS_5tupleIJDpT_EEENSP_IJDpT0_EEE, symObjAddr: 0xE4F0, symBinAddr: 0x10001198C, symSize: 0x54 }
  - { offset: 0x6A7A7, size: 0x8, addend: 0x0, symName: __ZNSt3__122__compressed_pair_elemINS_9allocatorIZN6parlay14ThreadSpecificINS2_8internal24intrusive_acquire_retireINS4_12hazptr_stackIPSt4byteE4NodeENS_14default_deleteISA_EELm1EE10ThreadDataEEC1EvEUlmE_EELi1ELb1EEC2B8ue170006IJRKSH_EJLm0EEEENS_21piecewise_construct_tENS_5tupleIJDpT_EEENS_15__tuple_indicesIJXspT0_EEEE, symObjAddr: 0xE544, symBinAddr: 0x1000119E0, symSize: 0x38 }
  - { offset: 0x6A80B, size: 0x8, addend: 0x0, symName: __ZNSt3__112__tuple_leafILm0ERKNS_9allocatorIZN6parlay14ThreadSpecificINS2_8internal24intrusive_acquire_retireINS4_12hazptr_stackIPSt4byteE4NodeENS_14default_deleteISA_EELm1EE10ThreadDataEEC1EvEUlmE_EELb0EE3getB8ue170006Ev, symObjAddr: 0xE5A0, symBinAddr: 0x100011A3C, symSize: 0x18 }
  - { offset: 0x6A831, size: 0x8, addend: 0x0, symName: __ZNSt3__110__function12__alloc_funcIZN6parlay14ThreadSpecificINS2_8internal24intrusive_acquire_retireINS4_12hazptr_stackIPSt4byteE4NodeENS_14default_deleteISA_EELm1EE10ThreadDataEEC1EvEUlmE_NS_9allocatorISG_EEFSE_jEE7destroyB8ue170006Ev, symObjAddr: 0xE5B8, symBinAddr: 0x100011A54, symSize: 0x10 }
  - { offset: 0x6A857, size: 0x8, addend: 0x0, symName: __ZNSt3__110__function12__alloc_funcIZN6parlay14ThreadSpecificINS2_8internal24intrusive_acquire_retireINS4_12hazptr_stackIPSt4byteE4NodeENS_14default_deleteISA_EELm1EE10ThreadDataEEC1EvEUlmE_NS_9allocatorISG_EEFSE_jEEclB8ue170006EOj, symObjAddr: 0xE5C8, symBinAddr: 0x100011A64, symSize: 0x3C }
  - { offset: 0x6A88B, size: 0x8, addend: 0x0, symName: __ZNSt3__128__invoke_void_return_wrapperIN6parlay8internal24intrusive_acquire_retireINS2_12hazptr_stackIPSt4byteE4NodeENS_14default_deleteIS8_EELm1EE10ThreadDataELb0EE6__callB8ue170006IJRZNS1_14ThreadSpecificISC_EC1EvEUlmE_jEEESC_DpOT_, symObjAddr: 0xE604, symBinAddr: 0x100011AA0, symSize: 0x34 }
  - { offset: 0x6A8CE, size: 0x8, addend: 0x0, symName: __ZNSt3__117__compressed_pairIZN6parlay14ThreadSpecificINS1_8internal24intrusive_acquire_retireINS3_12hazptr_stackIPSt4byteE4NodeENS_14default_deleteIS9_EELm1EE10ThreadDataEEC1EvEUlmE_NS_9allocatorISF_EEE5firstB8ue170006Ev, symObjAddr: 0xE638, symBinAddr: 0x100011AD4, symSize: 0x24 }
  - { offset: 0x6A8F9, size: 0x8, addend: 0x0, symName: __ZZN6parlay14ThreadSpecificINS_8internal24intrusive_acquire_retireINS1_12hazptr_stackIPSt4byteE4NodeENSt3__114default_deleteIS7_EELm1EE10ThreadDataEEC1EvENKUlmE_clEm, symObjAddr: 0xE698, symBinAddr: 0x100011B34, symSize: 0x58 }
  - { offset: 0x6A92D, size: 0x8, addend: 0x0, symName: __ZN6parlay8internal24intrusive_acquire_retireINS0_12hazptr_stackIPSt4byteE4NodeENSt3__114default_deleteIS6_EELm1EE11RetiredListC1Ev, symObjAddr: 0xE6F0, symBinAddr: 0x100011B8C, symSize: 0x2C }
  - { offset: 0x6A957, size: 0x8, addend: 0x0, symName: __ZN6parlay8internal24intrusive_acquire_retireINS0_12hazptr_stackIPSt4byteE4NodeENSt3__114default_deleteIS6_EELm1EE11RetiredListC2Ev, symObjAddr: 0xE71C, symBinAddr: 0x100011BB8, symSize: 0x1C }
  - { offset: 0x6A981, size: 0x8, addend: 0x0, symName: __ZNSt3__122__compressed_pair_elemIZN6parlay14ThreadSpecificINS1_8internal24intrusive_acquire_retireINS3_12hazptr_stackIPSt4byteE4NodeENS_14default_deleteIS9_EELm1EE10ThreadDataEEC1EvEUlmE_Li0ELb1EE5__getB8ue170006Ev, symObjAddr: 0xE738, symBinAddr: 0x100011BD4, symSize: 0x14 }
  - { offset: 0x6A9A7, size: 0x8, addend: 0x0, symName: __ZNSt3__15arrayINS_6atomicIPN6parlay8internal13UninitializedINS3_24intrusive_acquire_retireINS3_12hazptr_stackIPSt4byteE4NodeENS_14default_deleteISA_EELm1EE10ThreadDataEEEEELm25EEixB8ue170006Em, symObjAddr: 0xE74C, symBinAddr: 0x100011BE8, symSize: 0x20 }
  - { offset: 0x6A9DB, size: 0x8, addend: 0x0, symName: __ZNSt3__113__atomic_baseIPN6parlay8internal13UninitializedINS2_24intrusive_acquire_retireINS2_12hazptr_stackIPSt4byteE4NodeENS_14default_deleteIS9_EELm1EE10ThreadDataEEELb0EE5storeB8ue170006ESF_NS_12memory_orderE, symObjAddr: 0xE76C, symBinAddr: 0x100011C08, symSize: 0x34 }
  - { offset: 0x6AA1D, size: 0x8, addend: 0x0, symName: __ZN6parlay8internal13UninitializedINS0_24intrusive_acquire_retireINS0_12hazptr_stackIPSt4byteE4NodeENSt3__114default_deleteIS7_EELm1EE10ThreadDataEEC1Ev, symObjAddr: 0xE7A0, symBinAddr: 0x100011C3C, symSize: 0x2C }
  - { offset: 0x6AA47, size: 0x8, addend: 0x0, symName: __ZNSt3__15arrayINS_6atomicIPN6parlay8internal13UninitializedINS3_24intrusive_acquire_retireINS3_12hazptr_stackIPSt4byteE4NodeENS_14default_deleteISA_EELm1EE10ThreadDataEEEEELm25EE5beginB8ue170006Ev, symObjAddr: 0xE800, symBinAddr: 0x100011C9C, symSize: 0x24 }
  - { offset: 0x6AA6D, size: 0x8, addend: 0x0, symName: __ZNSt3__15arrayINS_6atomicIPN6parlay8internal13UninitializedINS3_24intrusive_acquire_retireINS3_12hazptr_stackIPSt4byteE4NodeENS_14default_deleteISA_EELm1EE10ThreadDataEEEEELm25EE3endB8ue170006Ev, symObjAddr: 0xE824, symBinAddr: 0x100011CC0, symSize: 0x28 }
  - { offset: 0x6AA93, size: 0x8, addend: 0x0, symName: __ZNKSt3__113__atomic_baseIPN6parlay8internal13UninitializedINS2_24intrusive_acquire_retireINS2_12hazptr_stackIPSt4byteE4NodeENS_14default_deleteIS9_EELm1EE10ThreadDataEEELb0EE4loadB8ue170006ENS_12memory_orderE, symObjAddr: 0xE84C, symBinAddr: 0x100011CE8, symSize: 0x2C }
  - { offset: 0x6AAC7, size: 0x8, addend: 0x0, symName: __ZN6parlay8internal13UninitializedINS0_24intrusive_acquire_retireINS0_12hazptr_stackIPSt4byteE4NodeENSt3__114default_deleteIS7_EELm1EE10ThreadDataEE3getEv, symObjAddr: 0xE878, symBinAddr: 0x100011D14, symSize: 0x14 }
  - { offset: 0x6AAED, size: 0x8, addend: 0x0, symName: __ZNKSt3__18functionIFN6parlay8internal24intrusive_acquire_retireINS2_12hazptr_stackIPSt4byteE4NodeENS_14default_deleteIS8_EELm1EE10ThreadDataEjEEclEj, symObjAddr: 0xE88C, symBinAddr: 0x100011D28, symSize: 0x38 }
  - { offset: 0x6AB24, size: 0x8, addend: 0x0, symName: __ZN6parlay8internal13UninitializedINS0_24intrusive_acquire_retireINS0_12hazptr_stackIPSt4byteE4NodeENSt3__114default_deleteIS7_EELm1EE10ThreadDataEEC2Ev, symObjAddr: 0xE948, symBinAddr: 0x100011DE4, symSize: 0x14 }
  - { offset: 0x6AB4E, size: 0x8, addend: 0x0, symName: __ZNSt3__16atomicIPN6parlay8internal13UninitializedINS2_24intrusive_acquire_retireINS2_12hazptr_stackIPSt4byteE4NodeENS_14default_deleteIS9_EELm1EE10ThreadDataEEEEaSB8ue170006ESF_, symObjAddr: 0xEA50, symBinAddr: 0x100011EEC, symSize: 0x34 }
  - { offset: 0x6AB82, size: 0x8, addend: 0x0, symName: __ZNSt3__15arrayINS_6atomicIPN6parlay8internal13UninitializedINS3_24intrusive_acquire_retireINS3_12hazptr_stackIPSt4byteE4NodeENS_14default_deleteISA_EELm1EE10ThreadDataEEEEELm25EE4dataB8ue170006Ev, symObjAddr: 0xEA84, symBinAddr: 0x100011F20, symSize: 0x14 }
  - { offset: 0x6ABA8, size: 0x8, addend: 0x0, symName: __ZNKSt3__110__function12__value_funcIFN6parlay8internal24intrusive_acquire_retireINS3_12hazptr_stackIPSt4byteE4NodeENS_14default_deleteIS9_EELm1EE10ThreadDataEjEEclB8ue170006EOj, symObjAddr: 0xEB18, symBinAddr: 0x100011FB4, symSize: 0x64 }
  - { offset: 0x6ABDD, size: 0x8, addend: 0x0, symName: __ZNSt3__18functionIFN6parlay8internal24intrusive_acquire_retireINS2_12hazptr_stackIPSt4byteE4NodeENS_14default_deleteIS8_EELm1EE10ThreadDataEjEED2Ev, symObjAddr: 0xEB7C, symBinAddr: 0x100012018, symSize: 0x2C }
  - { offset: 0x6AC09, size: 0x8, addend: 0x0, symName: __ZNSt3__110__function12__value_funcIFN6parlay8internal24intrusive_acquire_retireINS3_12hazptr_stackIPSt4byteE4NodeENS_14default_deleteIS9_EELm1EE10ThreadDataEjEED1B8ue170006Ev, symObjAddr: 0xEBA8, symBinAddr: 0x100012044, symSize: 0x2C }
  - { offset: 0x6AC33, size: 0x8, addend: 0x0, symName: __ZNSt3__110__function12__value_funcIFN6parlay8internal24intrusive_acquire_retireINS3_12hazptr_stackIPSt4byteE4NodeENS_14default_deleteIS9_EELm1EE10ThreadDataEjEED2B8ue170006Ev, symObjAddr: 0xEBD4, symBinAddr: 0x100012070, symSize: 0x90 }
  - { offset: 0x6AC5D, size: 0x8, addend: 0x0, symName: __ZN6parlay8internal24intrusive_acquire_retireINS0_12hazptr_stackIPSt4byteE4NodeENSt3__114default_deleteIS6_EELm1EED2Ev, symObjAddr: 0xEC64, symBinAddr: 0x100012100, symSize: 0x80 }
  - { offset: 0x6ACFD, size: 0x8, addend: 0x0, symName: __ZN6parlay14ThreadSpecificINS_8internal24intrusive_acquire_retireINS1_12hazptr_stackIPSt4byteE4NodeENSt3__114default_deleteIS7_EELm1EE10ThreadDataEE8for_eachIZNSB_D1EvEUlRT_E_EEvOSF_, symObjAddr: 0xECE4, symBinAddr: 0x100012180, symSize: 0x180 }
  - { offset: 0x6ADC3, size: 0x8, addend: 0x0, symName: __ZN6parlay14ThreadSpecificINS_8internal24intrusive_acquire_retireINS1_12hazptr_stackIPSt4byteE4NodeENSt3__114default_deleteIS7_EELm1EE10ThreadDataEE8for_eachIZNSB_D1EvEUlOT_E_EEvSG_, symObjAddr: 0xEE64, symBinAddr: 0x100012300, symSize: 0x180 }
  - { offset: 0x6AE7E, size: 0x8, addend: 0x0, symName: __ZN6parlay14ThreadSpecificINS_8internal24intrusive_acquire_retireINS1_12hazptr_stackIPSt4byteE4NodeENSt3__114default_deleteIS7_EELm1EE10ThreadDataEED1Ev, symObjAddr: 0xEFE4, symBinAddr: 0x100012480, symSize: 0x2C }
  - { offset: 0x6AEA8, size: 0x8, addend: 0x0, symName: __ZN6parlay14ThreadSpecificINS_8internal24intrusive_acquire_retireINS1_12hazptr_stackIPSt4byteE4NodeENSt3__114default_deleteIS7_EELm1EE10ThreadDataEE14get_chunk_sizeEm, symObjAddr: 0xF010, symBinAddr: 0x1000124AC, symSize: 0xA0 }
  - { offset: 0x6AECC, size: 0x8, addend: 0x0, symName: __ZNK6parlay14ThreadSpecificINS_8internal24intrusive_acquire_retireINS1_12hazptr_stackIPSt4byteE4NodeENSt3__114default_deleteIS7_EELm1EE10ThreadDataEE19ensure_chunk_existsEm, symObjAddr: 0xF0B0, symBinAddr: 0x10001254C, symSize: 0x1DC }
  - { offset: 0x6AF5C, size: 0x8, addend: 0x0, symName: __ZZN6parlay8internal24intrusive_acquire_retireINS0_12hazptr_stackIPSt4byteE4NodeENSt3__114default_deleteIS6_EELm1EED1EvENKUlRT_E_clINSA_10ThreadDataEEEDaSC_, symObjAddr: 0xF28C, symBinAddr: 0x100012728, symSize: 0x20 }
  - { offset: 0x6AF9D, size: 0x8, addend: 0x0, symName: __ZN6parlay8internal13UninitializedINS0_24intrusive_acquire_retireINS0_12hazptr_stackIPSt4byteE4NodeENSt3__114default_deleteIS7_EELm1EE10ThreadDataEEdeEv, symObjAddr: 0xF2AC, symBinAddr: 0x100012748, symSize: 0x14 }
  - { offset: 0x6AFCD, size: 0x8, addend: 0x0, symName: __ZZN6parlay8internal24intrusive_acquire_retireINS0_12hazptr_stackIPSt4byteE4NodeENSt3__114default_deleteIS6_EELm1EED1EvENKUlOT_E_clIRNSA_10ThreadDataEEEDaSC_, symObjAddr: 0xF2C0, symBinAddr: 0x10001275C, symSize: 0x74 }
  - { offset: 0x6B034, size: 0x8, addend: 0x0, symName: __ZNK6parlay8internal24intrusive_acquire_retireINS0_12hazptr_stackIPSt4byteE4NodeENSt3__114default_deleteIS6_EELm1EE11RetiredList8get_sizeEv, symObjAddr: 0xF334, symBinAddr: 0x1000127D0, symSize: 0x18 }
  - { offset: 0x6B066, size: 0x8, addend: 0x0, symName: __ZN6parlay8internal24intrusive_acquire_retireINS0_12hazptr_stackIPSt4byteE4NodeENSt3__114default_deleteIS6_EELm1EE11RetiredList7cleanupIZZNSA_D1EvENKUlOT_E_clIRNSA_10ThreadDataEEEDaSE_EUlSE_E_EEvSE_RS9_, symObjAddr: 0xF34C, symBinAddr: 0x1000127E8, symSize: 0x188 }
  - { offset: 0x6B11D, size: 0x8, addend: 0x0, symName: __ZZZN6parlay8internal24intrusive_acquire_retireINS0_12hazptr_stackIPSt4byteE4NodeENSt3__114default_deleteIS6_EELm1EED1EvENKUlOT_E_clIRNSA_10ThreadDataEEEDaSC_ENKUlSC_E_clIRPS6_EESH_SC_, symObjAddr: 0xF4D4, symBinAddr: 0x100012970, symSize: 0x1C }
  - { offset: 0x6B15A, size: 0x8, addend: 0x0, symName: __ZNKSt3__114default_deleteIN6parlay8internal12hazptr_stackIPSt4byteE4NodeEEclB8ue170006EPS7_, symObjAddr: 0xF53C, symBinAddr: 0x1000129D8, symSize: 0x44 }
  - { offset: 0x6B18E, size: 0x8, addend: 0x0, symName: __ZN6parlay14ThreadSpecificINS_8internal24intrusive_acquire_retireINS1_12hazptr_stackIPSt4byteE4NodeENSt3__114default_deleteIS7_EELm1EE10ThreadDataEED2Ev, symObjAddr: 0xF5A0, symBinAddr: 0x100012A3C, symSize: 0x11C }
  - { offset: 0x6B209, size: 0x8, addend: 0x0, symName: __ZNKSt3__113__atomic_baseIPN6parlay8internal13UninitializedINS2_24intrusive_acquire_retireINS2_12hazptr_stackIPSt4byteE4NodeENS_14default_deleteIS9_EELm1EE10ThreadDataEEELb0EEcvSF_B8ue170006Ev, symObjAddr: 0xF6BC, symBinAddr: 0x100012B58, symSize: 0x28 }
  - { offset: 0x6B22F, size: 0x8, addend: 0x0, symName: __ZN6parlay8internal13UninitializedINS0_24intrusive_acquire_retireINS0_12hazptr_stackIPSt4byteE4NodeENSt3__114default_deleteIS7_EELm1EE10ThreadDataEED1Ev, symObjAddr: 0xF6E4, symBinAddr: 0x100012B80, symSize: 0x2C }
  - { offset: 0x6B259, size: 0x8, addend: 0x0, symName: __ZN6parlay8internal13UninitializedINS0_24intrusive_acquire_retireINS0_12hazptr_stackIPSt4byteE4NodeENSt3__114default_deleteIS7_EELm1EE10ThreadDataEED2Ev, symObjAddr: 0xF710, symBinAddr: 0x100012BAC, symSize: 0x2C }
  - { offset: 0x6B288, size: 0x8, addend: 0x0, symName: __ZN6parlay8internal24intrusive_acquire_retireINS0_12hazptr_stackIPSt4byteE4NodeENSt3__114default_deleteIS6_EELm1EE10ThreadDataD1Ev, symObjAddr: 0xF73C, symBinAddr: 0x100012BD8, symSize: 0x2C }
  - { offset: 0x6B2B4, size: 0x8, addend: 0x0, symName: __ZN6parlay8internal24intrusive_acquire_retireINS0_12hazptr_stackIPSt4byteE4NodeENSt3__114default_deleteIS6_EELm1EE10ThreadDataD2Ev, symObjAddr: 0xF768, symBinAddr: 0x100012C04, symSize: 0x30 }
  - { offset: 0x6B2E0, size: 0x8, addend: 0x0, symName: __ZN6parlay8internal24intrusive_acquire_retireINS0_12hazptr_stackIPSt4byteE4NodeENSt3__114default_deleteIS6_EELm1EE11RetiredListD1Ev, symObjAddr: 0xF798, symBinAddr: 0x100012C34, symSize: 0x2C }
  - { offset: 0x6B30A, size: 0x8, addend: 0x0, symName: __ZN6parlay8internal24intrusive_acquire_retireINS0_12hazptr_stackIPSt4byteE4NodeENSt3__114default_deleteIS6_EELm1EE11RetiredListD2Ev, symObjAddr: 0xF7C4, symBinAddr: 0x100012C60, symSize: 0x90 }
  - { offset: 0x6B334, size: 0x8, addend: 0x0, symName: __ZN6parlay8internal12hazptr_stackIPNS0_15block_allocator5blockEEC2Ev, symObjAddr: 0xF854, symBinAddr: 0x100012CF0, symSize: 0x34 }
  - { offset: 0x6B35E, size: 0x8, addend: 0x0, symName: __ZNSt3__16atomicIPN6parlay8internal12hazptr_stackIPNS2_15block_allocator5blockEE4NodeEEC1B8ue170006ES9_, symObjAddr: 0xF888, symBinAddr: 0x100012D24, symSize: 0x34 }
  - { offset: 0x6B396, size: 0x8, addend: 0x0, symName: __ZNSt3__16atomicIPN6parlay8internal12hazptr_stackIPNS2_15block_allocator5blockEE4NodeEEC2B8ue170006ES9_, symObjAddr: 0xF978, symBinAddr: 0x100012E14, symSize: 0x34 }
  - { offset: 0x6B3CE, size: 0x8, addend: 0x0, symName: __ZNSt3__113__atomic_baseIPN6parlay8internal12hazptr_stackIPNS2_15block_allocator5blockEE4NodeELb0EEC2B8ue170006ES9_, symObjAddr: 0xF9AC, symBinAddr: 0x100012E48, symSize: 0x34 }
  - { offset: 0x6B406, size: 0x8, addend: 0x0, symName: __ZNSt3__117__cxx_atomic_implIPN6parlay8internal12hazptr_stackIPNS2_15block_allocator5blockEE4NodeENS_22__cxx_atomic_base_implIS9_EEEC1B8ue170006ES9_, symObjAddr: 0xF9E0, symBinAddr: 0x100012E7C, symSize: 0x34 }
  - { offset: 0x6B43F, size: 0x8, addend: 0x0, symName: __ZNSt3__117__cxx_atomic_implIPN6parlay8internal12hazptr_stackIPNS2_15block_allocator5blockEE4NodeENS_22__cxx_atomic_base_implIS9_EEEC2B8ue170006ES9_, symObjAddr: 0xFA14, symBinAddr: 0x100012EB0, symSize: 0x34 }
  - { offset: 0x6B478, size: 0x8, addend: 0x0, symName: __ZNSt3__122__cxx_atomic_base_implIPN6parlay8internal12hazptr_stackIPNS2_15block_allocator5blockEE4NodeEEC2ES9_, symObjAddr: 0xFA48, symBinAddr: 0x100012EE4, symSize: 0x20 }
  - { offset: 0x6B4B1, size: 0x8, addend: 0x0, symName: __ZN6parlay8internal24intrusive_acquire_retireINS0_12hazptr_stackIPNS0_15block_allocator5blockEE4NodeENSt3__114default_deleteIS7_EELm1EEC1ESA_, symObjAddr: 0xFA68, symBinAddr: 0x100012F04, symSize: 0x2C }
  - { offset: 0x6B4E9, size: 0x8, addend: 0x0, symName: __ZN6parlay8internal24intrusive_acquire_retireINS0_12hazptr_stackIPNS0_15block_allocator5blockEE4NodeENSt3__114default_deleteIS7_EELm1EED1Ev, symObjAddr: 0xFA94, symBinAddr: 0x100012F30, symSize: 0x2C }
  - { offset: 0x6B513, size: 0x8, addend: 0x0, symName: __ZN6parlay8internal24intrusive_acquire_retireINS0_12hazptr_stackIPNS0_15block_allocator5blockEE4NodeENSt3__114default_deleteIS7_EELm1EEC2ESA_, symObjAddr: 0xFAC0, symBinAddr: 0x100012F5C, symSize: 0x2C }
  - { offset: 0x6B54B, size: 0x8, addend: 0x0, symName: __ZN6parlay14ThreadSpecificINS_8internal24intrusive_acquire_retireINS1_12hazptr_stackIPNS1_15block_allocator5blockEE4NodeENSt3__114default_deleteIS8_EELm1EE10ThreadDataEEC1Ev, symObjAddr: 0xFAEC, symBinAddr: 0x100012F88, symSize: 0x2C }
  - { offset: 0x6B575, size: 0x8, addend: 0x0, symName: __ZNSt3__18functionIFN6parlay8internal24intrusive_acquire_retireINS2_12hazptr_stackIPNS2_15block_allocator5blockEE4NodeENS_14default_deleteIS9_EELm1EE10ThreadDataEjEEC1IZNS1_14ThreadSpecificISD_EC1EvEUlmE_vEET_, symObjAddr: 0xFB88, symBinAddr: 0x100013024, symSize: 0x2C }
  - { offset: 0x6B5BB, size: 0x8, addend: 0x0, symName: __ZN6parlay14ThreadSpecificINS_8internal24intrusive_acquire_retireINS1_12hazptr_stackIPNS1_15block_allocator5blockEE4NodeENSt3__114default_deleteIS8_EELm1EE10ThreadDataEE10initializeEv, symObjAddr: 0xFBB4, symBinAddr: 0x100013050, symSize: 0x1B8 }
  - { offset: 0x6B60D, size: 0x8, addend: 0x0, symName: __ZNSt3__18functionIFN6parlay8internal24intrusive_acquire_retireINS2_12hazptr_stackIPNS2_15block_allocator5blockEE4NodeENS_14default_deleteIS9_EELm1EE10ThreadDataEjEED1Ev, symObjAddr: 0xFD6C, symBinAddr: 0x100013208, symSize: 0x2C }
  - { offset: 0x6B639, size: 0x8, addend: 0x0, symName: __ZNSt3__18functionIFN6parlay8internal24intrusive_acquire_retireINS2_12hazptr_stackIPNS2_15block_allocator5blockEE4NodeENS_14default_deleteIS9_EELm1EE10ThreadDataEjEEC2IZNS1_14ThreadSpecificISD_EC1EvEUlmE_vEET_, symObjAddr: 0xFD98, symBinAddr: 0x100013234, symSize: 0x30 }
  - { offset: 0x6B67F, size: 0x8, addend: 0x0, symName: __ZNSt3__110__function12__value_funcIFN6parlay8internal24intrusive_acquire_retireINS3_12hazptr_stackIPNS3_15block_allocator5blockEE4NodeENS_14default_deleteISA_EELm1EE10ThreadDataEjEEC1B8ue170006IZNS2_14ThreadSpecificISE_EC1EvEUlmE_vEEOT_, symObjAddr: 0xFDC8, symBinAddr: 0x100013264, symSize: 0x50 }
  - { offset: 0x6B6C3, size: 0x8, addend: 0x0, symName: __ZNSt3__19allocatorIZN6parlay14ThreadSpecificINS1_8internal24intrusive_acquire_retireINS3_12hazptr_stackIPNS3_15block_allocator5blockEE4NodeENS_14default_deleteISA_EELm1EE10ThreadDataEEC1EvEUlmE_EC1B8ue170006Ev, symObjAddr: 0xFE18, symBinAddr: 0x1000132B4, symSize: 0x2C }
  - { offset: 0x6B6ED, size: 0x8, addend: 0x0, symName: __ZNSt3__110__function12__value_funcIFN6parlay8internal24intrusive_acquire_retireINS3_12hazptr_stackIPNS3_15block_allocator5blockEE4NodeENS_14default_deleteISA_EELm1EE10ThreadDataEjEEC1B8ue170006IZNS2_14ThreadSpecificISE_EC1EvEUlmE_NS_9allocatorISK_EEEEOT_RKT0_, symObjAddr: 0xFE44, symBinAddr: 0x1000132E0, symSize: 0x3C }
  - { offset: 0x6B747, size: 0x8, addend: 0x0, symName: __ZNSt3__19allocatorIZN6parlay14ThreadSpecificINS1_8internal24intrusive_acquire_retireINS3_12hazptr_stackIPNS3_15block_allocator5blockEE4NodeENS_14default_deleteISA_EELm1EE10ThreadDataEEC1EvEUlmE_EC2B8ue170006Ev, symObjAddr: 0xFE80, symBinAddr: 0x10001331C, symSize: 0x2C }
  - { offset: 0x6B771, size: 0x8, addend: 0x0, symName: __ZNSt3__116__non_trivial_ifILb1ENS_9allocatorIZN6parlay14ThreadSpecificINS2_8internal24intrusive_acquire_retireINS4_12hazptr_stackIPNS4_15block_allocator5blockEE4NodeENS_14default_deleteISB_EELm1EE10ThreadDataEEC1EvEUlmE_EEEC2B8ue170006Ev, symObjAddr: 0xFEAC, symBinAddr: 0x100013348, symSize: 0x14 }
  - { offset: 0x6B79B, size: 0x8, addend: 0x0, symName: __ZNSt3__110__function12__value_funcIFN6parlay8internal24intrusive_acquire_retireINS3_12hazptr_stackIPNS3_15block_allocator5blockEE4NodeENS_14default_deleteISA_EELm1EE10ThreadDataEjEEC2B8ue170006IZNS2_14ThreadSpecificISE_EC1EvEUlmE_NS_9allocatorISK_EEEEOT_RKT0_, symObjAddr: 0xFEC0, symBinAddr: 0x10001335C, symSize: 0x94 }
  - { offset: 0x6B843, size: 0x8, addend: 0x0, symName: __ZNSt3__19allocatorINS_10__function6__funcIZN6parlay14ThreadSpecificINS3_8internal24intrusive_acquire_retireINS5_12hazptr_stackIPNS5_15block_allocator5blockEE4NodeENS_14default_deleteISC_EELm1EE10ThreadDataEEC1EvEUlmE_NS0_ISI_EEFSG_jEEEEC1B8ue170006ISI_EERKNS0_IT_EE, symObjAddr: 0xFF6C, symBinAddr: 0x100013408, symSize: 0x34 }
  - { offset: 0x6B886, size: 0x8, addend: 0x0, symName: __ZNSt3__19allocatorIZN6parlay14ThreadSpecificINS1_8internal24intrusive_acquire_retireINS3_12hazptr_stackIPNS3_15block_allocator5blockEE4NodeENS_14default_deleteISA_EELm1EE10ThreadDataEEC1EvEUlmE_EC1B8ue170006INS_10__function6__funcISG_SH_FSE_jEEEEERKNS0_IT_EE, symObjAddr: 0xFFA0, symBinAddr: 0x10001343C, symSize: 0x34 }
  - { offset: 0x6B8C3, size: 0x8, addend: 0x0, symName: __ZNSt3__110__function6__funcIZN6parlay14ThreadSpecificINS2_8internal24intrusive_acquire_retireINS4_12hazptr_stackIPNS4_15block_allocator5blockEE4NodeENS_14default_deleteISB_EELm1EE10ThreadDataEEC1EvEUlmE_NS_9allocatorISH_EEFSF_jEEC1B8ue170006EOSH_OSJ_, symObjAddr: 0xFFD4, symBinAddr: 0x100013470, symSize: 0x3C }
  - { offset: 0x6B90B, size: 0x8, addend: 0x0, symName: __ZNSt3__19allocatorINS_10__function6__funcIZN6parlay14ThreadSpecificINS3_8internal24intrusive_acquire_retireINS5_12hazptr_stackIPNS5_15block_allocator5blockEE4NodeENS_14default_deleteISC_EELm1EE10ThreadDataEEC1EvEUlmE_NS0_ISI_EEFSG_jEEEEC2B8ue170006ISI_EERKNS0_IT_EE, symObjAddr: 0x10010, symBinAddr: 0x1000134AC, symSize: 0x30 }
  - { offset: 0x6B948, size: 0x8, addend: 0x0, symName: __ZNSt3__116__non_trivial_ifILb1ENS_9allocatorINS_10__function6__funcIZN6parlay14ThreadSpecificINS4_8internal24intrusive_acquire_retireINS6_12hazptr_stackIPNS6_15block_allocator5blockEE4NodeENS_14default_deleteISD_EELm1EE10ThreadDataEEC1EvEUlmE_NS1_ISJ_EEFSH_jEEEEEEC2B8ue170006Ev, symObjAddr: 0x10040, symBinAddr: 0x1000134DC, symSize: 0x14 }
  - { offset: 0x6B972, size: 0x8, addend: 0x0, symName: __ZNSt3__19allocatorIZN6parlay14ThreadSpecificINS1_8internal24intrusive_acquire_retireINS3_12hazptr_stackIPNS3_15block_allocator5blockEE4NodeENS_14default_deleteISA_EELm1EE10ThreadDataEEC1EvEUlmE_EC2B8ue170006INS_10__function6__funcISG_SH_FSE_jEEEEERKNS0_IT_EE, symObjAddr: 0x10054, symBinAddr: 0x1000134F0, symSize: 0x30 }
  - { offset: 0x6B9AF, size: 0x8, addend: 0x0, symName: __ZNSt3__110__function6__funcIZN6parlay14ThreadSpecificINS2_8internal24intrusive_acquire_retireINS4_12hazptr_stackIPNS4_15block_allocator5blockEE4NodeENS_14default_deleteISB_EELm1EE10ThreadDataEEC1EvEUlmE_NS_9allocatorISH_EEFSF_jEEC2B8ue170006EOSH_OSJ_, symObjAddr: 0x10084, symBinAddr: 0x100013520, symSize: 0x80 }
  - { offset: 0x6B9F7, size: 0x8, addend: 0x0, symName: __ZNSt3__110__function6__baseIFN6parlay8internal24intrusive_acquire_retireINS3_12hazptr_stackIPNS3_15block_allocator5blockEE4NodeENS_14default_deleteISA_EELm1EE10ThreadDataEjEEC2B8ue170006Ev, symObjAddr: 0x10104, symBinAddr: 0x1000135A0, symSize: 0x24 }
  - { offset: 0x6BA21, size: 0x8, addend: 0x0, symName: __ZNSt3__110__function12__alloc_funcIZN6parlay14ThreadSpecificINS2_8internal24intrusive_acquire_retireINS4_12hazptr_stackIPNS4_15block_allocator5blockEE4NodeENS_14default_deleteISB_EELm1EE10ThreadDataEEC1EvEUlmE_NS_9allocatorISH_EEFSF_jEEC1B8ue170006EOSH_OSJ_, symObjAddr: 0x10128, symBinAddr: 0x1000135C4, symSize: 0x3C }
  - { offset: 0x6BA67, size: 0x8, addend: 0x0, symName: __ZNSt3__110__function6__baseIFN6parlay8internal24intrusive_acquire_retireINS3_12hazptr_stackIPNS3_15block_allocator5blockEE4NodeENS_14default_deleteISA_EELm1EE10ThreadDataEjEED2Ev, symObjAddr: 0x10164, symBinAddr: 0x100013600, symSize: 0x14 }
  - { offset: 0x6BA91, size: 0x8, addend: 0x0, symName: __ZNSt3__110__function6__funcIZN6parlay14ThreadSpecificINS2_8internal24intrusive_acquire_retireINS4_12hazptr_stackIPNS4_15block_allocator5blockEE4NodeENS_14default_deleteISB_EELm1EE10ThreadDataEEC1EvEUlmE_NS_9allocatorISH_EEFSF_jEED1Ev, symObjAddr: 0x10178, symBinAddr: 0x100013614, symSize: 0x2C }
  - { offset: 0x6BABE, size: 0x8, addend: 0x0, symName: __ZNSt3__110__function6__funcIZN6parlay14ThreadSpecificINS2_8internal24intrusive_acquire_retireINS4_12hazptr_stackIPNS4_15block_allocator5blockEE4NodeENS_14default_deleteISB_EELm1EE10ThreadDataEEC1EvEUlmE_NS_9allocatorISH_EEFSF_jEED0Ev, symObjAddr: 0x101A4, symBinAddr: 0x100013640, symSize: 0x30 }
  - { offset: 0x6BAEB, size: 0x8, addend: 0x0, symName: __ZNKSt3__110__function6__funcIZN6parlay14ThreadSpecificINS2_8internal24intrusive_acquire_retireINS4_12hazptr_stackIPNS4_15block_allocator5blockEE4NodeENS_14default_deleteISB_EELm1EE10ThreadDataEEC1EvEUlmE_NS_9allocatorISH_EEFSF_jEE7__cloneEv, symObjAddr: 0x101D4, symBinAddr: 0x100013670, symSize: 0xFC }
  - { offset: 0x6BB3D, size: 0x8, addend: 0x0, symName: __ZNKSt3__110__function6__funcIZN6parlay14ThreadSpecificINS2_8internal24intrusive_acquire_retireINS4_12hazptr_stackIPNS4_15block_allocator5blockEE4NodeENS_14default_deleteISB_EELm1EE10ThreadDataEEC1EvEUlmE_NS_9allocatorISH_EEFSF_jEE7__cloneEPNS0_6__baseISK_EE, symObjAddr: 0x102D0, symBinAddr: 0x10001376C, symSize: 0x58 }
  - { offset: 0x6BB74, size: 0x8, addend: 0x0, symName: __ZNSt3__110__function6__funcIZN6parlay14ThreadSpecificINS2_8internal24intrusive_acquire_retireINS4_12hazptr_stackIPNS4_15block_allocator5blockEE4NodeENS_14default_deleteISB_EELm1EE10ThreadDataEEC1EvEUlmE_NS_9allocatorISH_EEFSF_jEE7destroyEv, symObjAddr: 0x10328, symBinAddr: 0x1000137C4, symSize: 0x28 }
  - { offset: 0x6BB9C, size: 0x8, addend: 0x0, symName: __ZNSt3__110__function6__funcIZN6parlay14ThreadSpecificINS2_8internal24intrusive_acquire_retireINS4_12hazptr_stackIPNS4_15block_allocator5blockEE4NodeENS_14default_deleteISB_EELm1EE10ThreadDataEEC1EvEUlmE_NS_9allocatorISH_EEFSF_jEE18destroy_deallocateEv, symObjAddr: 0x10350, symBinAddr: 0x1000137EC, symSize: 0x58 }
  - { offset: 0x6BBDF, size: 0x8, addend: 0x0, symName: __ZNSt3__110__function6__funcIZN6parlay14ThreadSpecificINS2_8internal24intrusive_acquire_retireINS4_12hazptr_stackIPNS4_15block_allocator5blockEE4NodeENS_14default_deleteISB_EELm1EE10ThreadDataEEC1EvEUlmE_NS_9allocatorISH_EEFSF_jEEclEOj, symObjAddr: 0x103A8, symBinAddr: 0x100013844, symSize: 0x38 }
  - { offset: 0x6BC16, size: 0x8, addend: 0x0, symName: __ZNKSt3__110__function6__funcIZN6parlay14ThreadSpecificINS2_8internal24intrusive_acquire_retireINS4_12hazptr_stackIPNS4_15block_allocator5blockEE4NodeENS_14default_deleteISB_EELm1EE10ThreadDataEEC1EvEUlmE_NS_9allocatorISH_EEFSF_jEE6targetERKSt9type_info, symObjAddr: 0x103E0, symBinAddr: 0x10001387C, symSize: 0x60 }
  - { offset: 0x6BC4D, size: 0x8, addend: 0x0, symName: __ZNKSt3__110__function6__funcIZN6parlay14ThreadSpecificINS2_8internal24intrusive_acquire_retireINS4_12hazptr_stackIPNS4_15block_allocator5blockEE4NodeENS_14default_deleteISB_EELm1EE10ThreadDataEEC1EvEUlmE_NS_9allocatorISH_EEFSF_jEE11target_typeEv, symObjAddr: 0x10440, symBinAddr: 0x1000138DC, symSize: 0x18 }
  - { offset: 0x6BC75, size: 0x8, addend: 0x0, symName: __ZNSt3__110__function6__baseIFN6parlay8internal24intrusive_acquire_retireINS3_12hazptr_stackIPNS3_15block_allocator5blockEE4NodeENS_14default_deleteISA_EELm1EE10ThreadDataEjEED1Ev, symObjAddr: 0x10458, symBinAddr: 0x1000138F4, symSize: 0x14 }
  - { offset: 0x6BC9F, size: 0x8, addend: 0x0, symName: __ZNSt3__110__function6__baseIFN6parlay8internal24intrusive_acquire_retireINS3_12hazptr_stackIPNS3_15block_allocator5blockEE4NodeENS_14default_deleteISA_EELm1EE10ThreadDataEjEED0Ev, symObjAddr: 0x1046C, symBinAddr: 0x100013908, symSize: 0xC }
  - { offset: 0x6BCC9, size: 0x8, addend: 0x0, symName: __ZNSt3__110__function12__alloc_funcIZN6parlay14ThreadSpecificINS2_8internal24intrusive_acquire_retireINS4_12hazptr_stackIPNS4_15block_allocator5blockEE4NodeENS_14default_deleteISB_EELm1EE10ThreadDataEEC1EvEUlmE_NS_9allocatorISH_EEFSF_jEEC2B8ue170006EOSH_OSJ_, symObjAddr: 0x10478, symBinAddr: 0x100013914, symSize: 0x5C }
  - { offset: 0x6BD0F, size: 0x8, addend: 0x0, symName: __ZNSt3__117__compressed_pairIZN6parlay14ThreadSpecificINS1_8internal24intrusive_acquire_retireINS3_12hazptr_stackIPNS3_15block_allocator5blockEE4NodeENS_14default_deleteISA_EELm1EE10ThreadDataEEC1EvEUlmE_NS_9allocatorISG_EEEC1B8ue170006IJOSG_EJOSI_EEENS_21piecewise_construct_tENS_5tupleIJDpT_EEENSO_IJDpT0_EEE, symObjAddr: 0x1052C, symBinAddr: 0x1000139C8, symSize: 0x3C }
  - { offset: 0x6BD79, size: 0x8, addend: 0x0, symName: __ZNSt3__15tupleIJOZN6parlay14ThreadSpecificINS1_8internal24intrusive_acquire_retireINS3_12hazptr_stackIPNS3_15block_allocator5blockEE4NodeENS_14default_deleteISA_EELm1EE10ThreadDataEEC1EvEUlmE_EEC1B8ue170006IJSG_ELi0EEEDpOT_, symObjAddr: 0x10568, symBinAddr: 0x100013A04, symSize: 0x34 }
  - { offset: 0x6BDC3, size: 0x8, addend: 0x0, symName: __ZNSt3__15tupleIJOZN6parlay14ThreadSpecificINS1_8internal24intrusive_acquire_retireINS3_12hazptr_stackIPNS3_15block_allocator5blockEE4NodeENS_14default_deleteISA_EELm1EE10ThreadDataEEC1EvEUlmE_EEC2B8ue170006IJSG_ELi0EEEDpOT_, symObjAddr: 0x1059C, symBinAddr: 0x100013A38, symSize: 0x34 }
  - { offset: 0x6BE0D, size: 0x8, addend: 0x0, symName: __ZNSt3__112__tuple_implINS_15__tuple_indicesIJLm0EEEEJOZN6parlay14ThreadSpecificINS3_8internal24intrusive_acquire_retireINS5_12hazptr_stackIPNS5_15block_allocator5blockEE4NodeENS_14default_deleteISC_EELm1EE10ThreadDataEEC1EvEUlmE_EEC1B8ue170006IJLm0EEJSJ_EJEJEJSI_EEENS1_IJXspT_EEEENS_13__tuple_typesIJDpT0_EEENS1_IJXspT1_EEEENSN_IJDpT2_EEEDpOT3_, symObjAddr: 0x105D0, symBinAddr: 0x100013A6C, symSize: 0x34 }
  - { offset: 0x6BE9F, size: 0x8, addend: 0x0, symName: __ZNSt3__112__tuple_implINS_15__tuple_indicesIJLm0EEEEJOZN6parlay14ThreadSpecificINS3_8internal24intrusive_acquire_retireINS5_12hazptr_stackIPNS5_15block_allocator5blockEE4NodeENS_14default_deleteISC_EELm1EE10ThreadDataEEC1EvEUlmE_EEC2B8ue170006IJLm0EEJSJ_EJEJEJSI_EEENS1_IJXspT_EEEENS_13__tuple_typesIJDpT0_EEENS1_IJXspT1_EEEENSN_IJDpT2_EEEDpOT3_, symObjAddr: 0x10604, symBinAddr: 0x100013AA0, symSize: 0x34 }
  - { offset: 0x6BF31, size: 0x8, addend: 0x0, symName: __ZNSt3__112__tuple_leafILm0EOZN6parlay14ThreadSpecificINS1_8internal24intrusive_acquire_retireINS3_12hazptr_stackIPNS3_15block_allocator5blockEE4NodeENS_14default_deleteISA_EELm1EE10ThreadDataEEC1EvEUlmE_Lb0EEC2B8ue170006ISG_vEEOT_, symObjAddr: 0x10638, symBinAddr: 0x100013AD4, symSize: 0x20 }
  - { offset: 0x6BF75, size: 0x8, addend: 0x0, symName: __ZNSt3__15tupleIJONS_9allocatorIZN6parlay14ThreadSpecificINS2_8internal24intrusive_acquire_retireINS4_12hazptr_stackIPNS4_15block_allocator5blockEE4NodeENS_14default_deleteISB_EELm1EE10ThreadDataEEC1EvEUlmE_EEEEC1B8ue170006IJSI_ELi0EEEDpOT_, symObjAddr: 0x10658, symBinAddr: 0x100013AF4, symSize: 0x34 }
  - { offset: 0x6BFBF, size: 0x8, addend: 0x0, symName: __ZNSt3__15tupleIJONS_9allocatorIZN6parlay14ThreadSpecificINS2_8internal24intrusive_acquire_retireINS4_12hazptr_stackIPNS4_15block_allocator5blockEE4NodeENS_14default_deleteISB_EELm1EE10ThreadDataEEC1EvEUlmE_EEEEC2B8ue170006IJSI_ELi0EEEDpOT_, symObjAddr: 0x1068C, symBinAddr: 0x100013B28, symSize: 0x34 }
  - { offset: 0x6C009, size: 0x8, addend: 0x0, symName: __ZNSt3__112__tuple_implINS_15__tuple_indicesIJLm0EEEEJONS_9allocatorIZN6parlay14ThreadSpecificINS4_8internal24intrusive_acquire_retireINS6_12hazptr_stackIPNS6_15block_allocator5blockEE4NodeENS_14default_deleteISD_EELm1EE10ThreadDataEEC1EvEUlmE_EEEEC1B8ue170006IJLm0EEJSL_EJEJEJSK_EEENS1_IJXspT_EEEENS_13__tuple_typesIJDpT0_EEENS1_IJXspT1_EEEENSP_IJDpT2_EEEDpOT3_, symObjAddr: 0x106C0, symBinAddr: 0x100013B5C, symSize: 0x34 }
  - { offset: 0x6C09B, size: 0x8, addend: 0x0, symName: __ZNSt3__112__tuple_implINS_15__tuple_indicesIJLm0EEEEJONS_9allocatorIZN6parlay14ThreadSpecificINS4_8internal24intrusive_acquire_retireINS6_12hazptr_stackIPNS6_15block_allocator5blockEE4NodeENS_14default_deleteISD_EELm1EE10ThreadDataEEC1EvEUlmE_EEEEC2B8ue170006IJLm0EEJSL_EJEJEJSK_EEENS1_IJXspT_EEEENS_13__tuple_typesIJDpT0_EEENS1_IJXspT1_EEEENSP_IJDpT2_EEEDpOT3_, symObjAddr: 0x106F4, symBinAddr: 0x100013B90, symSize: 0x34 }
  - { offset: 0x6C12D, size: 0x8, addend: 0x0, symName: __ZNSt3__112__tuple_leafILm0EONS_9allocatorIZN6parlay14ThreadSpecificINS2_8internal24intrusive_acquire_retireINS4_12hazptr_stackIPNS4_15block_allocator5blockEE4NodeENS_14default_deleteISB_EELm1EE10ThreadDataEEC1EvEUlmE_EELb0EEC2B8ue170006ISI_vEEOT_, symObjAddr: 0x10728, symBinAddr: 0x100013BC4, symSize: 0x20 }
  - { offset: 0x6C171, size: 0x8, addend: 0x0, symName: __ZNSt3__117__compressed_pairIZN6parlay14ThreadSpecificINS1_8internal24intrusive_acquire_retireINS3_12hazptr_stackIPNS3_15block_allocator5blockEE4NodeENS_14default_deleteISA_EELm1EE10ThreadDataEEC1EvEUlmE_NS_9allocatorISG_EEEC2B8ue170006IJOSG_EJOSI_EEENS_21piecewise_construct_tENS_5tupleIJDpT_EEENSO_IJDpT0_EEE, symObjAddr: 0x10748, symBinAddr: 0x100013BE4, symSize: 0x54 }
  - { offset: 0x6C1DB, size: 0x8, addend: 0x0, symName: __ZNSt3__122__compressed_pair_elemIZN6parlay14ThreadSpecificINS1_8internal24intrusive_acquire_retireINS3_12hazptr_stackIPNS3_15block_allocator5blockEE4NodeENS_14default_deleteISA_EELm1EE10ThreadDataEEC1EvEUlmE_Li0ELb1EEC2B8ue170006IJOSG_EJLm0EEEENS_21piecewise_construct_tENS_5tupleIJDpT_EEENS_15__tuple_indicesIJXspT0_EEEE, symObjAddr: 0x1079C, symBinAddr: 0x100013C38, symSize: 0x38 }
  - { offset: 0x6C23F, size: 0x8, addend: 0x0, symName: __ZNSt3__122__compressed_pair_elemINS_9allocatorIZN6parlay14ThreadSpecificINS2_8internal24intrusive_acquire_retireINS4_12hazptr_stackIPNS4_15block_allocator5blockEE4NodeENS_14default_deleteISB_EELm1EE10ThreadDataEEC1EvEUlmE_EELi1ELb1EEC2B8ue170006IJOSI_EJLm0EEEENS_21piecewise_construct_tENS_5tupleIJDpT_EEENS_15__tuple_indicesIJXspT0_EEEE, symObjAddr: 0x107D4, symBinAddr: 0x100013C70, symSize: 0x38 }
  - { offset: 0x6C2A3, size: 0x8, addend: 0x0, symName: __ZNSt3__112__tuple_leafILm0EOZN6parlay14ThreadSpecificINS1_8internal24intrusive_acquire_retireINS3_12hazptr_stackIPNS3_15block_allocator5blockEE4NodeENS_14default_deleteISA_EELm1EE10ThreadDataEEC1EvEUlmE_Lb0EE3getB8ue170006Ev, symObjAddr: 0x10830, symBinAddr: 0x100013CCC, symSize: 0x18 }
  - { offset: 0x6C2C9, size: 0x8, addend: 0x0, symName: __ZNSt3__112__tuple_leafILm0EONS_9allocatorIZN6parlay14ThreadSpecificINS2_8internal24intrusive_acquire_retireINS4_12hazptr_stackIPNS4_15block_allocator5blockEE4NodeENS_14default_deleteISB_EELm1EE10ThreadDataEEC1EvEUlmE_EELb0EE3getB8ue170006Ev, symObjAddr: 0x1086C, symBinAddr: 0x100013D08, symSize: 0x18 }
  - { offset: 0x6C2EF, size: 0x8, addend: 0x0, symName: __ZNSt3__110__function6__funcIZN6parlay14ThreadSpecificINS2_8internal24intrusive_acquire_retireINS4_12hazptr_stackIPNS4_15block_allocator5blockEE4NodeENS_14default_deleteISB_EELm1EE10ThreadDataEEC1EvEUlmE_NS_9allocatorISH_EEFSF_jEED2Ev, symObjAddr: 0x10884, symBinAddr: 0x100013D20, symSize: 0x2C }
  - { offset: 0x6C31C, size: 0x8, addend: 0x0, symName: __ZNKSt3__110__function12__alloc_funcIZN6parlay14ThreadSpecificINS2_8internal24intrusive_acquire_retireINS4_12hazptr_stackIPNS4_15block_allocator5blockEE4NodeENS_14default_deleteISB_EELm1EE10ThreadDataEEC1EvEUlmE_NS_9allocatorISH_EEFSF_jEE15__get_allocatorB8ue170006Ev, symObjAddr: 0x108B0, symBinAddr: 0x100013D4C, symSize: 0x24 }
  - { offset: 0x6C342, size: 0x8, addend: 0x0, symName: __ZNSt3__19allocatorINS_10__function6__funcIZN6parlay14ThreadSpecificINS3_8internal24intrusive_acquire_retireINS5_12hazptr_stackIPNS5_15block_allocator5blockEE4NodeENS_14default_deleteISC_EELm1EE10ThreadDataEEC1EvEUlmE_NS0_ISI_EEFSG_jEEEE8allocateB8ue170006Em, symObjAddr: 0x108D4, symBinAddr: 0x100013D70, symSize: 0x58 }
  - { offset: 0x6C387, size: 0x8, addend: 0x0, symName: __ZNSt3__122__allocator_destructorINS_9allocatorINS_10__function6__funcIZN6parlay14ThreadSpecificINS4_8internal24intrusive_acquire_retireINS6_12hazptr_stackIPNS6_15block_allocator5blockEE4NodeENS_14default_deleteISD_EELm1EE10ThreadDataEEC1EvEUlmE_NS1_ISJ_EEFSH_jEEEEEEC1B8ue170006ERSN_m, symObjAddr: 0x1092C, symBinAddr: 0x100013DC8, symSize: 0x3C }
  - { offset: 0x6C463, size: 0x8, addend: 0x0, symName: __ZNSt3__110unique_ptrINS_10__function6__funcIZN6parlay14ThreadSpecificINS3_8internal24intrusive_acquire_retireINS5_12hazptr_stackIPNS5_15block_allocator5blockEE4NodeENS_14default_deleteISC_EELm1EE10ThreadDataEEC1EvEUlmE_NS_9allocatorISI_EEFSG_jEEENS_22__allocator_destructorINSJ_ISM_EEEEEC1B8ue170006ILb1EvEEPSM_NS_16__dependent_typeINS_27__unique_ptr_deleter_sfinaeISP_EEXT_EE20__good_rval_ref_typeE, symObjAddr: 0x10968, symBinAddr: 0x100013E04, symSize: 0x3C }
  - { offset: 0x6C4B5, size: 0x8, addend: 0x0, symName: __ZNKSt3__110unique_ptrINS_10__function6__funcIZN6parlay14ThreadSpecificINS3_8internal24intrusive_acquire_retireINS5_12hazptr_stackIPNS5_15block_allocator5blockEE4NodeENS_14default_deleteISC_EELm1EE10ThreadDataEEC1EvEUlmE_NS_9allocatorISI_EEFSG_jEEENS_22__allocator_destructorINSJ_ISM_EEEEE3getB8ue170006Ev, symObjAddr: 0x109A4, symBinAddr: 0x100013E40, symSize: 0x28 }
  - { offset: 0x6C4DB, size: 0x8, addend: 0x0, symName: __ZNKSt3__110__function12__alloc_funcIZN6parlay14ThreadSpecificINS2_8internal24intrusive_acquire_retireINS4_12hazptr_stackIPNS4_15block_allocator5blockEE4NodeENS_14default_deleteISB_EELm1EE10ThreadDataEEC1EvEUlmE_NS_9allocatorISH_EEFSF_jEE8__targetB8ue170006Ev, symObjAddr: 0x109CC, symBinAddr: 0x100013E68, symSize: 0x24 }
  - { offset: 0x6C501, size: 0x8, addend: 0x0, symName: __ZNSt3__110__function6__funcIZN6parlay14ThreadSpecificINS2_8internal24intrusive_acquire_retireINS4_12hazptr_stackIPNS4_15block_allocator5blockEE4NodeENS_14default_deleteISB_EELm1EE10ThreadDataEEC1EvEUlmE_NS_9allocatorISH_EEFSF_jEEC1B8ue170006ERKSH_OSJ_, symObjAddr: 0x109F0, symBinAddr: 0x100013E8C, symSize: 0x3C }
  - { offset: 0x6C549, size: 0x8, addend: 0x0, symName: __ZNSt3__110unique_ptrINS_10__function6__funcIZN6parlay14ThreadSpecificINS3_8internal24intrusive_acquire_retireINS5_12hazptr_stackIPNS5_15block_allocator5blockEE4NodeENS_14default_deleteISC_EELm1EE10ThreadDataEEC1EvEUlmE_NS_9allocatorISI_EEFSG_jEEENS_22__allocator_destructorINSJ_ISM_EEEEE7releaseB8ue170006Ev, symObjAddr: 0x10A2C, symBinAddr: 0x100013EC8, symSize: 0x44 }
  - { offset: 0x6C57E, size: 0x8, addend: 0x0, symName: __ZNSt3__110unique_ptrINS_10__function6__funcIZN6parlay14ThreadSpecificINS3_8internal24intrusive_acquire_retireINS5_12hazptr_stackIPNS5_15block_allocator5blockEE4NodeENS_14default_deleteISC_EELm1EE10ThreadDataEEC1EvEUlmE_NS_9allocatorISI_EEFSG_jEEENS_22__allocator_destructorINSJ_ISM_EEEEED1B8ue170006Ev, symObjAddr: 0x10A70, symBinAddr: 0x100013F0C, symSize: 0x2C }
  - { offset: 0x6C5A8, size: 0x8, addend: 0x0, symName: __ZNKSt3__117__compressed_pairIZN6parlay14ThreadSpecificINS1_8internal24intrusive_acquire_retireINS3_12hazptr_stackIPNS3_15block_allocator5blockEE4NodeENS_14default_deleteISA_EELm1EE10ThreadDataEEC1EvEUlmE_NS_9allocatorISG_EEE6secondB8ue170006Ev, symObjAddr: 0x10A9C, symBinAddr: 0x100013F38, symSize: 0x24 }
  - { offset: 0x6C5CE, size: 0x8, addend: 0x0, symName: __ZNKSt3__122__compressed_pair_elemINS_9allocatorIZN6parlay14ThreadSpecificINS2_8internal24intrusive_acquire_retireINS4_12hazptr_stackIPNS4_15block_allocator5blockEE4NodeENS_14default_deleteISB_EELm1EE10ThreadDataEEC1EvEUlmE_EELi1ELb1EE5__getB8ue170006Ev, symObjAddr: 0x10AC0, symBinAddr: 0x100013F5C, symSize: 0x14 }
  - { offset: 0x6C5FF, size: 0x8, addend: 0x0, symName: __ZNSt3__116allocator_traitsINS_9allocatorINS_10__function6__funcIZN6parlay14ThreadSpecificINS4_8internal24intrusive_acquire_retireINS6_12hazptr_stackIPNS6_15block_allocator5blockEE4NodeENS_14default_deleteISD_EELm1EE10ThreadDataEEC1EvEUlmE_NS1_ISJ_EEFSH_jEEEEEE8max_sizeB8ue170006ISN_vEEmRKSN_, symObjAddr: 0x10AD4, symBinAddr: 0x100013F70, symSize: 0x24 }
  - { offset: 0x6C62E, size: 0x8, addend: 0x0, symName: __ZNKSt3__19allocatorINS_10__function6__funcIZN6parlay14ThreadSpecificINS3_8internal24intrusive_acquire_retireINS5_12hazptr_stackIPNS5_15block_allocator5blockEE4NodeENS_14default_deleteISC_EELm1EE10ThreadDataEEC1EvEUlmE_NS0_ISI_EEFSG_jEEEE8max_sizeB8ue170006Ev, symObjAddr: 0x10AF8, symBinAddr: 0x100013F94, symSize: 0x14 }
  - { offset: 0x6C654, size: 0x8, addend: 0x0, symName: __ZNSt3__122__allocator_destructorINS_9allocatorINS_10__function6__funcIZN6parlay14ThreadSpecificINS4_8internal24intrusive_acquire_retireINS6_12hazptr_stackIPNS6_15block_allocator5blockEE4NodeENS_14default_deleteISD_EELm1EE10ThreadDataEEC1EvEUlmE_NS1_ISJ_EEFSH_jEEEEEEC2B8ue170006ERSN_m, symObjAddr: 0x10B0C, symBinAddr: 0x100013FA8, symSize: 0x2C }
  - { offset: 0x6C69A, size: 0x8, addend: 0x0, symName: __ZNSt3__110unique_ptrINS_10__function6__funcIZN6parlay14ThreadSpecificINS3_8internal24intrusive_acquire_retireINS5_12hazptr_stackIPNS5_15block_allocator5blockEE4NodeENS_14default_deleteISC_EELm1EE10ThreadDataEEC1EvEUlmE_NS_9allocatorISI_EEFSG_jEEENS_22__allocator_destructorINSJ_ISM_EEEEEC2B8ue170006ILb1EvEEPSM_NS_16__dependent_typeINS_27__unique_ptr_deleter_sfinaeISP_EEXT_EE20__good_rval_ref_typeE, symObjAddr: 0x10B38, symBinAddr: 0x100013FD4, symSize: 0x48 }
  - { offset: 0x6C6EC, size: 0x8, addend: 0x0, symName: __ZNSt3__117__compressed_pairIPNS_10__function6__funcIZN6parlay14ThreadSpecificINS3_8internal24intrusive_acquire_retireINS5_12hazptr_stackIPNS5_15block_allocator5blockEE4NodeENS_14default_deleteISC_EELm1EE10ThreadDataEEC1EvEUlmE_NS_9allocatorISI_EEFSG_jEEENS_22__allocator_destructorINSJ_ISM_EEEEEC1B8ue170006IRSN_SQ_EEOT_OT0_, symObjAddr: 0x10B80, symBinAddr: 0x10001401C, symSize: 0x3C }
  - { offset: 0x6C744, size: 0x8, addend: 0x0, symName: __ZNSt3__117__compressed_pairIPNS_10__function6__funcIZN6parlay14ThreadSpecificINS3_8internal24intrusive_acquire_retireINS5_12hazptr_stackIPNS5_15block_allocator5blockEE4NodeENS_14default_deleteISC_EELm1EE10ThreadDataEEC1EvEUlmE_NS_9allocatorISI_EEFSG_jEEENS_22__allocator_destructorINSJ_ISM_EEEEEC2B8ue170006IRSN_SQ_EEOT_OT0_, symObjAddr: 0x10BBC, symBinAddr: 0x100014058, symSize: 0x48 }
  - { offset: 0x6C79C, size: 0x8, addend: 0x0, symName: __ZNSt3__122__compressed_pair_elemIPNS_10__function6__funcIZN6parlay14ThreadSpecificINS3_8internal24intrusive_acquire_retireINS5_12hazptr_stackIPNS5_15block_allocator5blockEE4NodeENS_14default_deleteISC_EELm1EE10ThreadDataEEC1EvEUlmE_NS_9allocatorISI_EEFSG_jEEELi0ELb0EEC2B8ue170006IRSN_vEEOT_, symObjAddr: 0x10C04, symBinAddr: 0x1000140A0, symSize: 0x24 }
  - { offset: 0x6C7DF, size: 0x8, addend: 0x0, symName: __ZNSt3__122__compressed_pair_elemINS_22__allocator_destructorINS_9allocatorINS_10__function6__funcIZN6parlay14ThreadSpecificINS5_8internal24intrusive_acquire_retireINS7_12hazptr_stackIPNS7_15block_allocator5blockEE4NodeENS_14default_deleteISE_EELm1EE10ThreadDataEEC1EvEUlmE_NS2_ISK_EEFSI_jEEEEEEELi1ELb0EEC2B8ue170006ISP_vEEOT_, symObjAddr: 0x10C28, symBinAddr: 0x1000140C4, symSize: 0x24 }
  - { offset: 0x6C822, size: 0x8, addend: 0x0, symName: __ZNKSt3__117__compressed_pairIPNS_10__function6__funcIZN6parlay14ThreadSpecificINS3_8internal24intrusive_acquire_retireINS5_12hazptr_stackIPNS5_15block_allocator5blockEE4NodeENS_14default_deleteISC_EELm1EE10ThreadDataEEC1EvEUlmE_NS_9allocatorISI_EEFSG_jEEENS_22__allocator_destructorINSJ_ISM_EEEEE5firstB8ue170006Ev, symObjAddr: 0x10C4C, symBinAddr: 0x1000140E8, symSize: 0x24 }
  - { offset: 0x6C848, size: 0x8, addend: 0x0, symName: __ZNKSt3__122__compressed_pair_elemIPNS_10__function6__funcIZN6parlay14ThreadSpecificINS3_8internal24intrusive_acquire_retireINS5_12hazptr_stackIPNS5_15block_allocator5blockEE4NodeENS_14default_deleteISC_EELm1EE10ThreadDataEEC1EvEUlmE_NS_9allocatorISI_EEFSG_jEEELi0ELb0EE5__getB8ue170006Ev, symObjAddr: 0x10C70, symBinAddr: 0x10001410C, symSize: 0x14 }
  - { offset: 0x6C86E, size: 0x8, addend: 0x0, symName: __ZNKSt3__117__compressed_pairIZN6parlay14ThreadSpecificINS1_8internal24intrusive_acquire_retireINS3_12hazptr_stackIPNS3_15block_allocator5blockEE4NodeENS_14default_deleteISA_EELm1EE10ThreadDataEEC1EvEUlmE_NS_9allocatorISG_EEE5firstB8ue170006Ev, symObjAddr: 0x10C84, symBinAddr: 0x100014120, symSize: 0x24 }
  - { offset: 0x6C894, size: 0x8, addend: 0x0, symName: __ZNKSt3__122__compressed_pair_elemIZN6parlay14ThreadSpecificINS1_8internal24intrusive_acquire_retireINS3_12hazptr_stackIPNS3_15block_allocator5blockEE4NodeENS_14default_deleteISA_EELm1EE10ThreadDataEEC1EvEUlmE_Li0ELb1EE5__getB8ue170006Ev, symObjAddr: 0x10CA8, symBinAddr: 0x100014144, symSize: 0x14 }
  - { offset: 0x6C8BA, size: 0x8, addend: 0x0, symName: __ZNSt3__110__function6__funcIZN6parlay14ThreadSpecificINS2_8internal24intrusive_acquire_retireINS4_12hazptr_stackIPNS4_15block_allocator5blockEE4NodeENS_14default_deleteISB_EELm1EE10ThreadDataEEC1EvEUlmE_NS_9allocatorISH_EEFSF_jEEC2B8ue170006ERKSH_OSJ_, symObjAddr: 0x10CBC, symBinAddr: 0x100014158, symSize: 0x80 }
  - { offset: 0x6C902, size: 0x8, addend: 0x0, symName: __ZNSt3__110__function12__alloc_funcIZN6parlay14ThreadSpecificINS2_8internal24intrusive_acquire_retireINS4_12hazptr_stackIPNS4_15block_allocator5blockEE4NodeENS_14default_deleteISB_EELm1EE10ThreadDataEEC1EvEUlmE_NS_9allocatorISH_EEFSF_jEEC1B8ue170006ERKSH_OSJ_, symObjAddr: 0x10D3C, symBinAddr: 0x1000141D8, symSize: 0x3C }
  - { offset: 0x6C948, size: 0x8, addend: 0x0, symName: __ZNSt3__110__function12__alloc_funcIZN6parlay14ThreadSpecificINS2_8internal24intrusive_acquire_retireINS4_12hazptr_stackIPNS4_15block_allocator5blockEE4NodeENS_14default_deleteISB_EELm1EE10ThreadDataEEC1EvEUlmE_NS_9allocatorISH_EEFSF_jEEC2B8ue170006ERKSH_OSJ_, symObjAddr: 0x10D78, symBinAddr: 0x100014214, symSize: 0x5C }
  - { offset: 0x6C98E, size: 0x8, addend: 0x0, symName: __ZNSt3__117__compressed_pairIZN6parlay14ThreadSpecificINS1_8internal24intrusive_acquire_retireINS3_12hazptr_stackIPNS3_15block_allocator5blockEE4NodeENS_14default_deleteISA_EELm1EE10ThreadDataEEC1EvEUlmE_NS_9allocatorISG_EEEC1B8ue170006IJRKSG_EJOSI_EEENS_21piecewise_construct_tENS_5tupleIJDpT_EEENSP_IJDpT0_EEE, symObjAddr: 0x10E00, symBinAddr: 0x10001429C, symSize: 0x3C }
  - { offset: 0x6C9F8, size: 0x8, addend: 0x0, symName: __ZNSt3__15tupleIJRKZN6parlay14ThreadSpecificINS1_8internal24intrusive_acquire_retireINS3_12hazptr_stackIPNS3_15block_allocator5blockEE4NodeENS_14default_deleteISA_EELm1EE10ThreadDataEEC1EvEUlmE_EEC1B8ue170006INS_4_AndELi0EEESI_, symObjAddr: 0x10E3C, symBinAddr: 0x1000142D8, symSize: 0x34 }
  - { offset: 0x6CA41, size: 0x8, addend: 0x0, symName: __ZNSt3__15tupleIJRKZN6parlay14ThreadSpecificINS1_8internal24intrusive_acquire_retireINS3_12hazptr_stackIPNS3_15block_allocator5blockEE4NodeENS_14default_deleteISA_EELm1EE10ThreadDataEEC1EvEUlmE_EEC2B8ue170006INS_4_AndELi0EEESI_, symObjAddr: 0x10E70, symBinAddr: 0x10001430C, symSize: 0x34 }
  - { offset: 0x6CA8A, size: 0x8, addend: 0x0, symName: __ZNSt3__112__tuple_implINS_15__tuple_indicesIJLm0EEEEJRKZN6parlay14ThreadSpecificINS3_8internal24intrusive_acquire_retireINS5_12hazptr_stackIPNS5_15block_allocator5blockEE4NodeENS_14default_deleteISC_EELm1EE10ThreadDataEEC1EvEUlmE_EEC1B8ue170006IJLm0EEJSK_EJEJEJSK_EEENS1_IJXspT_EEEENS_13__tuple_typesIJDpT0_EEENS1_IJXspT1_EEEENSO_IJDpT2_EEEDpOT3_, symObjAddr: 0x10EA4, symBinAddr: 0x100014340, symSize: 0x34 }
  - { offset: 0x6CB1C, size: 0x8, addend: 0x0, symName: __ZNSt3__112__tuple_implINS_15__tuple_indicesIJLm0EEEEJRKZN6parlay14ThreadSpecificINS3_8internal24intrusive_acquire_retireINS5_12hazptr_stackIPNS5_15block_allocator5blockEE4NodeENS_14default_deleteISC_EELm1EE10ThreadDataEEC1EvEUlmE_EEC2B8ue170006IJLm0EEJSK_EJEJEJSK_EEENS1_IJXspT_EEEENS_13__tuple_typesIJDpT0_EEENS1_IJXspT1_EEEENSO_IJDpT2_EEEDpOT3_, symObjAddr: 0x10ED8, symBinAddr: 0x100014374, symSize: 0x34 }
  - { offset: 0x6CBAE, size: 0x8, addend: 0x0, symName: __ZNSt3__112__tuple_leafILm0ERKZN6parlay14ThreadSpecificINS1_8internal24intrusive_acquire_retireINS3_12hazptr_stackIPNS3_15block_allocator5blockEE4NodeENS_14default_deleteISA_EELm1EE10ThreadDataEEC1EvEUlmE_Lb0EEC2B8ue170006ISI_vEEOT_, symObjAddr: 0x10F0C, symBinAddr: 0x1000143A8, symSize: 0x20 }
  - { offset: 0x6CBF2, size: 0x8, addend: 0x0, symName: __ZNSt3__117__compressed_pairIZN6parlay14ThreadSpecificINS1_8internal24intrusive_acquire_retireINS3_12hazptr_stackIPNS3_15block_allocator5blockEE4NodeENS_14default_deleteISA_EELm1EE10ThreadDataEEC1EvEUlmE_NS_9allocatorISG_EEEC2B8ue170006IJRKSG_EJOSI_EEENS_21piecewise_construct_tENS_5tupleIJDpT_EEENSP_IJDpT0_EEE, symObjAddr: 0x10F2C, symBinAddr: 0x1000143C8, symSize: 0x54 }
  - { offset: 0x6CC5C, size: 0x8, addend: 0x0, symName: __ZNSt3__122__compressed_pair_elemIZN6parlay14ThreadSpecificINS1_8internal24intrusive_acquire_retireINS3_12hazptr_stackIPNS3_15block_allocator5blockEE4NodeENS_14default_deleteISA_EELm1EE10ThreadDataEEC1EvEUlmE_Li0ELb1EEC2B8ue170006IJRKSG_EJLm0EEEENS_21piecewise_construct_tENS_5tupleIJDpT_EEENS_15__tuple_indicesIJXspT0_EEEE, symObjAddr: 0x10F80, symBinAddr: 0x10001441C, symSize: 0x38 }
  - { offset: 0x6CCC0, size: 0x8, addend: 0x0, symName: __ZNSt3__112__tuple_leafILm0ERKZN6parlay14ThreadSpecificINS1_8internal24intrusive_acquire_retireINS3_12hazptr_stackIPNS3_15block_allocator5blockEE4NodeENS_14default_deleteISA_EELm1EE10ThreadDataEEC1EvEUlmE_Lb0EE3getB8ue170006Ev, symObjAddr: 0x10FDC, symBinAddr: 0x100014478, symSize: 0x18 }
  - { offset: 0x6CCE6, size: 0x8, addend: 0x0, symName: __ZNSt3__117__compressed_pairIPNS_10__function6__funcIZN6parlay14ThreadSpecificINS3_8internal24intrusive_acquire_retireINS5_12hazptr_stackIPNS5_15block_allocator5blockEE4NodeENS_14default_deleteISC_EELm1EE10ThreadDataEEC1EvEUlmE_NS_9allocatorISI_EEFSG_jEEENS_22__allocator_destructorINSJ_ISM_EEEEE5firstB8ue170006Ev, symObjAddr: 0x10FF4, symBinAddr: 0x100014490, symSize: 0x24 }
  - { offset: 0x6CD0C, size: 0x8, addend: 0x0, symName: __ZNSt3__122__compressed_pair_elemIPNS_10__function6__funcIZN6parlay14ThreadSpecificINS3_8internal24intrusive_acquire_retireINS5_12hazptr_stackIPNS5_15block_allocator5blockEE4NodeENS_14default_deleteISC_EELm1EE10ThreadDataEEC1EvEUlmE_NS_9allocatorISI_EEFSG_jEEELi0ELb0EE5__getB8ue170006Ev, symObjAddr: 0x11018, symBinAddr: 0x1000144B4, symSize: 0x14 }
  - { offset: 0x6CD32, size: 0x8, addend: 0x0, symName: __ZNSt3__110unique_ptrINS_10__function6__funcIZN6parlay14ThreadSpecificINS3_8internal24intrusive_acquire_retireINS5_12hazptr_stackIPNS5_15block_allocator5blockEE4NodeENS_14default_deleteISC_EELm1EE10ThreadDataEEC1EvEUlmE_NS_9allocatorISI_EEFSG_jEEENS_22__allocator_destructorINSJ_ISM_EEEEED2B8ue170006Ev, symObjAddr: 0x1102C, symBinAddr: 0x1000144C8, symSize: 0x30 }
  - { offset: 0x6CD5C, size: 0x8, addend: 0x0, symName: __ZNSt3__110unique_ptrINS_10__function6__funcIZN6parlay14ThreadSpecificINS3_8internal24intrusive_acquire_retireINS5_12hazptr_stackIPNS5_15block_allocator5blockEE4NodeENS_14default_deleteISC_EELm1EE10ThreadDataEEC1EvEUlmE_NS_9allocatorISI_EEFSG_jEEENS_22__allocator_destructorINSJ_ISM_EEEEE5resetB8ue170006EPSM_, symObjAddr: 0x1105C, symBinAddr: 0x1000144F8, symSize: 0x78 }
  - { offset: 0x6CDA0, size: 0x8, addend: 0x0, symName: __ZNSt3__117__compressed_pairIPNS_10__function6__funcIZN6parlay14ThreadSpecificINS3_8internal24intrusive_acquire_retireINS5_12hazptr_stackIPNS5_15block_allocator5blockEE4NodeENS_14default_deleteISC_EELm1EE10ThreadDataEEC1EvEUlmE_NS_9allocatorISI_EEFSG_jEEENS_22__allocator_destructorINSJ_ISM_EEEEE6secondB8ue170006Ev, symObjAddr: 0x110D4, symBinAddr: 0x100014570, symSize: 0x28 }
  - { offset: 0x6CDC6, size: 0x8, addend: 0x0, symName: __ZNSt3__122__allocator_destructorINS_9allocatorINS_10__function6__funcIZN6parlay14ThreadSpecificINS4_8internal24intrusive_acquire_retireINS6_12hazptr_stackIPNS6_15block_allocator5blockEE4NodeENS_14default_deleteISD_EELm1EE10ThreadDataEEC1EvEUlmE_NS1_ISJ_EEFSH_jEEEEEEclB8ue170006EPSM_, symObjAddr: 0x110FC, symBinAddr: 0x100014598, symSize: 0x34 }
  - { offset: 0x6CDFA, size: 0x8, addend: 0x0, symName: __ZNSt3__122__compressed_pair_elemINS_22__allocator_destructorINS_9allocatorINS_10__function6__funcIZN6parlay14ThreadSpecificINS5_8internal24intrusive_acquire_retireINS7_12hazptr_stackIPNS7_15block_allocator5blockEE4NodeENS_14default_deleteISE_EELm1EE10ThreadDataEEC1EvEUlmE_NS2_ISK_EEFSI_jEEEEEEELi1ELb0EE5__getB8ue170006Ev, symObjAddr: 0x11130, symBinAddr: 0x1000145CC, symSize: 0x14 }
  - { offset: 0x6CE20, size: 0x8, addend: 0x0, symName: __ZNSt3__116allocator_traitsINS_9allocatorINS_10__function6__funcIZN6parlay14ThreadSpecificINS4_8internal24intrusive_acquire_retireINS6_12hazptr_stackIPNS6_15block_allocator5blockEE4NodeENS_14default_deleteISD_EELm1EE10ThreadDataEEC1EvEUlmE_NS1_ISJ_EEFSH_jEEEEEE10deallocateB8ue170006ERSN_PSM_m, symObjAddr: 0x11144, symBinAddr: 0x1000145E0, symSize: 0x34 }
  - { offset: 0x6CE62, size: 0x8, addend: 0x0, symName: __ZNSt3__19allocatorINS_10__function6__funcIZN6parlay14ThreadSpecificINS3_8internal24intrusive_acquire_retireINS5_12hazptr_stackIPNS5_15block_allocator5blockEE4NodeENS_14default_deleteISC_EELm1EE10ThreadDataEEC1EvEUlmE_NS0_ISI_EEFSG_jEEEE10deallocateB8ue170006EPSL_m, symObjAddr: 0x11178, symBinAddr: 0x100014614, symSize: 0x40 }
  - { offset: 0x6CEA4, size: 0x8, addend: 0x0, symName: __ZNSt3__110__function6__funcIZN6parlay14ThreadSpecificINS2_8internal24intrusive_acquire_retireINS4_12hazptr_stackIPNS4_15block_allocator5blockEE4NodeENS_14default_deleteISB_EELm1EE10ThreadDataEEC1EvEUlmE_NS_9allocatorISH_EEFSF_jEEC1B8ue170006ERKSH_RKSJ_, symObjAddr: 0x111B8, symBinAddr: 0x100014654, symSize: 0x3C }
  - { offset: 0x6CEEC, size: 0x8, addend: 0x0, symName: __ZNSt3__110__function6__funcIZN6parlay14ThreadSpecificINS2_8internal24intrusive_acquire_retireINS4_12hazptr_stackIPNS4_15block_allocator5blockEE4NodeENS_14default_deleteISB_EELm1EE10ThreadDataEEC1EvEUlmE_NS_9allocatorISH_EEFSF_jEEC2B8ue170006ERKSH_RKSJ_, symObjAddr: 0x111F4, symBinAddr: 0x100014690, symSize: 0x80 }
  - { offset: 0x6CF34, size: 0x8, addend: 0x0, symName: __ZNSt3__110__function12__alloc_funcIZN6parlay14ThreadSpecificINS2_8internal24intrusive_acquire_retireINS4_12hazptr_stackIPNS4_15block_allocator5blockEE4NodeENS_14default_deleteISB_EELm1EE10ThreadDataEEC1EvEUlmE_NS_9allocatorISH_EEFSF_jEEC1B8ue170006ERKSH_RKSJ_, symObjAddr: 0x11274, symBinAddr: 0x100014710, symSize: 0x3C }
  - { offset: 0x6CF7A, size: 0x8, addend: 0x0, symName: __ZNSt3__110__function12__alloc_funcIZN6parlay14ThreadSpecificINS2_8internal24intrusive_acquire_retireINS4_12hazptr_stackIPNS4_15block_allocator5blockEE4NodeENS_14default_deleteISB_EELm1EE10ThreadDataEEC1EvEUlmE_NS_9allocatorISH_EEFSF_jEEC2B8ue170006ERKSH_RKSJ_, symObjAddr: 0x112B0, symBinAddr: 0x10001474C, symSize: 0x5C }
  - { offset: 0x6CFC0, size: 0x8, addend: 0x0, symName: __ZNSt3__117__compressed_pairIZN6parlay14ThreadSpecificINS1_8internal24intrusive_acquire_retireINS3_12hazptr_stackIPNS3_15block_allocator5blockEE4NodeENS_14default_deleteISA_EELm1EE10ThreadDataEEC1EvEUlmE_NS_9allocatorISG_EEEC1B8ue170006IJRKSG_EJRKSI_EEENS_21piecewise_construct_tENS_5tupleIJDpT_EEENSQ_IJDpT0_EEE, symObjAddr: 0x11338, symBinAddr: 0x1000147D4, symSize: 0x3C }
  - { offset: 0x6D02A, size: 0x8, addend: 0x0, symName: __ZNSt3__15tupleIJRKNS_9allocatorIZN6parlay14ThreadSpecificINS2_8internal24intrusive_acquire_retireINS4_12hazptr_stackIPNS4_15block_allocator5blockEE4NodeENS_14default_deleteISB_EELm1EE10ThreadDataEEC1EvEUlmE_EEEEC1B8ue170006INS_4_AndELi0EEESK_, symObjAddr: 0x11374, symBinAddr: 0x100014810, symSize: 0x34 }
  - { offset: 0x6D073, size: 0x8, addend: 0x0, symName: __ZNSt3__15tupleIJRKNS_9allocatorIZN6parlay14ThreadSpecificINS2_8internal24intrusive_acquire_retireINS4_12hazptr_stackIPNS4_15block_allocator5blockEE4NodeENS_14default_deleteISB_EELm1EE10ThreadDataEEC1EvEUlmE_EEEEC2B8ue170006INS_4_AndELi0EEESK_, symObjAddr: 0x113A8, symBinAddr: 0x100014844, symSize: 0x34 }
  - { offset: 0x6D0BC, size: 0x8, addend: 0x0, symName: __ZNSt3__112__tuple_implINS_15__tuple_indicesIJLm0EEEEJRKNS_9allocatorIZN6parlay14ThreadSpecificINS4_8internal24intrusive_acquire_retireINS6_12hazptr_stackIPNS6_15block_allocator5blockEE4NodeENS_14default_deleteISD_EELm1EE10ThreadDataEEC1EvEUlmE_EEEEC1B8ue170006IJLm0EEJSM_EJEJEJSM_EEENS1_IJXspT_EEEENS_13__tuple_typesIJDpT0_EEENS1_IJXspT1_EEEENSQ_IJDpT2_EEEDpOT3_, symObjAddr: 0x113DC, symBinAddr: 0x100014878, symSize: 0x34 }
  - { offset: 0x6D14E, size: 0x8, addend: 0x0, symName: __ZNSt3__112__tuple_implINS_15__tuple_indicesIJLm0EEEEJRKNS_9allocatorIZN6parlay14ThreadSpecificINS4_8internal24intrusive_acquire_retireINS6_12hazptr_stackIPNS6_15block_allocator5blockEE4NodeENS_14default_deleteISD_EELm1EE10ThreadDataEEC1EvEUlmE_EEEEC2B8ue170006IJLm0EEJSM_EJEJEJSM_EEENS1_IJXspT_EEEENS_13__tuple_typesIJDpT0_EEENS1_IJXspT1_EEEENSQ_IJDpT2_EEEDpOT3_, symObjAddr: 0x11410, symBinAddr: 0x1000148AC, symSize: 0x34 }
  - { offset: 0x6D1E0, size: 0x8, addend: 0x0, symName: __ZNSt3__112__tuple_leafILm0ERKNS_9allocatorIZN6parlay14ThreadSpecificINS2_8internal24intrusive_acquire_retireINS4_12hazptr_stackIPNS4_15block_allocator5blockEE4NodeENS_14default_deleteISB_EELm1EE10ThreadDataEEC1EvEUlmE_EELb0EEC2B8ue170006ISK_vEEOT_, symObjAddr: 0x11444, symBinAddr: 0x1000148E0, symSize: 0x20 }
  - { offset: 0x6D224, size: 0x8, addend: 0x0, symName: __ZNSt3__117__compressed_pairIZN6parlay14ThreadSpecificINS1_8internal24intrusive_acquire_retireINS3_12hazptr_stackIPNS3_15block_allocator5blockEE4NodeENS_14default_deleteISA_EELm1EE10ThreadDataEEC1EvEUlmE_NS_9allocatorISG_EEEC2B8ue170006IJRKSG_EJRKSI_EEENS_21piecewise_construct_tENS_5tupleIJDpT_EEENSQ_IJDpT0_EEE, symObjAddr: 0x11464, symBinAddr: 0x100014900, symSize: 0x54 }
  - { offset: 0x6D28E, size: 0x8, addend: 0x0, symName: __ZNSt3__122__compressed_pair_elemINS_9allocatorIZN6parlay14ThreadSpecificINS2_8internal24intrusive_acquire_retireINS4_12hazptr_stackIPNS4_15block_allocator5blockEE4NodeENS_14default_deleteISB_EELm1EE10ThreadDataEEC1EvEUlmE_EELi1ELb1EEC2B8ue170006IJRKSI_EJLm0EEEENS_21piecewise_construct_tENS_5tupleIJDpT_EEENS_15__tuple_indicesIJXspT0_EEEE, symObjAddr: 0x114B8, symBinAddr: 0x100014954, symSize: 0x38 }
  - { offset: 0x6D2F2, size: 0x8, addend: 0x0, symName: __ZNSt3__112__tuple_leafILm0ERKNS_9allocatorIZN6parlay14ThreadSpecificINS2_8internal24intrusive_acquire_retireINS4_12hazptr_stackIPNS4_15block_allocator5blockEE4NodeENS_14default_deleteISB_EELm1EE10ThreadDataEEC1EvEUlmE_EELb0EE3getB8ue170006Ev, symObjAddr: 0x11514, symBinAddr: 0x1000149B0, symSize: 0x18 }
  - { offset: 0x6D318, size: 0x8, addend: 0x0, symName: __ZNSt3__110__function12__alloc_funcIZN6parlay14ThreadSpecificINS2_8internal24intrusive_acquire_retireINS4_12hazptr_stackIPNS4_15block_allocator5blockEE4NodeENS_14default_deleteISB_EELm1EE10ThreadDataEEC1EvEUlmE_NS_9allocatorISH_EEFSF_jEE7destroyB8ue170006Ev, symObjAddr: 0x1152C, symBinAddr: 0x1000149C8, symSize: 0x10 }
  - { offset: 0x6D33E, size: 0x8, addend: 0x0, symName: __ZNSt3__110__function12__alloc_funcIZN6parlay14ThreadSpecificINS2_8internal24intrusive_acquire_retireINS4_12hazptr_stackIPNS4_15block_allocator5blockEE4NodeENS_14default_deleteISB_EELm1EE10ThreadDataEEC1EvEUlmE_NS_9allocatorISH_EEFSF_jEEclB8ue170006EOj, symObjAddr: 0x1153C, symBinAddr: 0x1000149D8, symSize: 0x3C }
  - { offset: 0x6D372, size: 0x8, addend: 0x0, symName: __ZNSt3__128__invoke_void_return_wrapperIN6parlay8internal24intrusive_acquire_retireINS2_12hazptr_stackIPNS2_15block_allocator5blockEE4NodeENS_14default_deleteIS9_EELm1EE10ThreadDataELb0EE6__callB8ue170006IJRZNS1_14ThreadSpecificISD_EC1EvEUlmE_jEEESD_DpOT_, symObjAddr: 0x11578, symBinAddr: 0x100014A14, symSize: 0x34 }
  - { offset: 0x6D3B5, size: 0x8, addend: 0x0, symName: __ZNSt3__117__compressed_pairIZN6parlay14ThreadSpecificINS1_8internal24intrusive_acquire_retireINS3_12hazptr_stackIPNS3_15block_allocator5blockEE4NodeENS_14default_deleteISA_EELm1EE10ThreadDataEEC1EvEUlmE_NS_9allocatorISG_EEE5firstB8ue170006Ev, symObjAddr: 0x115AC, symBinAddr: 0x100014A48, symSize: 0x24 }
  - { offset: 0x6D3E0, size: 0x8, addend: 0x0, symName: __ZZN6parlay14ThreadSpecificINS_8internal24intrusive_acquire_retireINS1_12hazptr_stackIPNS1_15block_allocator5blockEE4NodeENSt3__114default_deleteIS8_EELm1EE10ThreadDataEEC1EvENKUlmE_clEm, symObjAddr: 0x1160C, symBinAddr: 0x100014AA8, symSize: 0x58 }
  - { offset: 0x6D414, size: 0x8, addend: 0x0, symName: __ZN6parlay8internal24intrusive_acquire_retireINS0_12hazptr_stackIPNS0_15block_allocator5blockEE4NodeENSt3__114default_deleteIS7_EELm1EE11RetiredListC1Ev, symObjAddr: 0x11664, symBinAddr: 0x100014B00, symSize: 0x2C }
  - { offset: 0x6D43E, size: 0x8, addend: 0x0, symName: __ZN6parlay8internal24intrusive_acquire_retireINS0_12hazptr_stackIPNS0_15block_allocator5blockEE4NodeENSt3__114default_deleteIS7_EELm1EE11RetiredListC2Ev, symObjAddr: 0x11690, symBinAddr: 0x100014B2C, symSize: 0x1C }
  - { offset: 0x6D468, size: 0x8, addend: 0x0, symName: __ZNSt3__122__compressed_pair_elemIZN6parlay14ThreadSpecificINS1_8internal24intrusive_acquire_retireINS3_12hazptr_stackIPNS3_15block_allocator5blockEE4NodeENS_14default_deleteISA_EELm1EE10ThreadDataEEC1EvEUlmE_Li0ELb1EE5__getB8ue170006Ev, symObjAddr: 0x116AC, symBinAddr: 0x100014B48, symSize: 0x14 }
  - { offset: 0x6D48E, size: 0x8, addend: 0x0, symName: __ZNSt3__15arrayINS_6atomicIPN6parlay8internal13UninitializedINS3_24intrusive_acquire_retireINS3_12hazptr_stackIPNS3_15block_allocator5blockEE4NodeENS_14default_deleteISB_EELm1EE10ThreadDataEEEEELm25EEixB8ue170006Em, symObjAddr: 0x116C0, symBinAddr: 0x100014B5C, symSize: 0x20 }
  - { offset: 0x6D4C2, size: 0x8, addend: 0x0, symName: __ZNSt3__113__atomic_baseIPN6parlay8internal13UninitializedINS2_24intrusive_acquire_retireINS2_12hazptr_stackIPNS2_15block_allocator5blockEE4NodeENS_14default_deleteISA_EELm1EE10ThreadDataEEELb0EE5storeB8ue170006ESG_NS_12memory_orderE, symObjAddr: 0x116E0, symBinAddr: 0x100014B7C, symSize: 0x34 }
  - { offset: 0x6D504, size: 0x8, addend: 0x0, symName: __ZN6parlay8internal13UninitializedINS0_24intrusive_acquire_retireINS0_12hazptr_stackIPNS0_15block_allocator5blockEE4NodeENSt3__114default_deleteIS8_EELm1EE10ThreadDataEEC1Ev, symObjAddr: 0x11714, symBinAddr: 0x100014BB0, symSize: 0x2C }
  - { offset: 0x6D52E, size: 0x8, addend: 0x0, symName: __ZNSt3__15arrayINS_6atomicIPN6parlay8internal13UninitializedINS3_24intrusive_acquire_retireINS3_12hazptr_stackIPNS3_15block_allocator5blockEE4NodeENS_14default_deleteISB_EELm1EE10ThreadDataEEEEELm25EE5beginB8ue170006Ev, symObjAddr: 0x11774, symBinAddr: 0x100014C10, symSize: 0x24 }
  - { offset: 0x6D554, size: 0x8, addend: 0x0, symName: __ZNSt3__15arrayINS_6atomicIPN6parlay8internal13UninitializedINS3_24intrusive_acquire_retireINS3_12hazptr_stackIPNS3_15block_allocator5blockEE4NodeENS_14default_deleteISB_EELm1EE10ThreadDataEEEEELm25EE3endB8ue170006Ev, symObjAddr: 0x11798, symBinAddr: 0x100014C34, symSize: 0x28 }
  - { offset: 0x6D57A, size: 0x8, addend: 0x0, symName: __ZNKSt3__113__atomic_baseIPN6parlay8internal13UninitializedINS2_24intrusive_acquire_retireINS2_12hazptr_stackIPNS2_15block_allocator5blockEE4NodeENS_14default_deleteISA_EELm1EE10ThreadDataEEELb0EE4loadB8ue170006ENS_12memory_orderE, symObjAddr: 0x117C0, symBinAddr: 0x100014C5C, symSize: 0x2C }
  - { offset: 0x6D5AE, size: 0x8, addend: 0x0, symName: __ZN6parlay8internal13UninitializedINS0_24intrusive_acquire_retireINS0_12hazptr_stackIPNS0_15block_allocator5blockEE4NodeENSt3__114default_deleteIS8_EELm1EE10ThreadDataEE3getEv, symObjAddr: 0x117EC, symBinAddr: 0x100014C88, symSize: 0x14 }
  - { offset: 0x6D5D4, size: 0x8, addend: 0x0, symName: __ZNKSt3__18functionIFN6parlay8internal24intrusive_acquire_retireINS2_12hazptr_stackIPNS2_15block_allocator5blockEE4NodeENS_14default_deleteIS9_EELm1EE10ThreadDataEjEEclEj, symObjAddr: 0x11800, symBinAddr: 0x100014C9C, symSize: 0x38 }
  - { offset: 0x6D60B, size: 0x8, addend: 0x0, symName: __ZN6parlay8internal13UninitializedINS0_24intrusive_acquire_retireINS0_12hazptr_stackIPNS0_15block_allocator5blockEE4NodeENSt3__114default_deleteIS8_EELm1EE10ThreadDataEEC2Ev, symObjAddr: 0x118BC, symBinAddr: 0x100014D58, symSize: 0x14 }
  - { offset: 0x6D635, size: 0x8, addend: 0x0, symName: __ZNSt3__16atomicIPN6parlay8internal13UninitializedINS2_24intrusive_acquire_retireINS2_12hazptr_stackIPNS2_15block_allocator5blockEE4NodeENS_14default_deleteISA_EELm1EE10ThreadDataEEEEaSB8ue170006ESG_, symObjAddr: 0x119C4, symBinAddr: 0x100014E60, symSize: 0x34 }
  - { offset: 0x6D669, size: 0x8, addend: 0x0, symName: __ZNSt3__15arrayINS_6atomicIPN6parlay8internal13UninitializedINS3_24intrusive_acquire_retireINS3_12hazptr_stackIPNS3_15block_allocator5blockEE4NodeENS_14default_deleteISB_EELm1EE10ThreadDataEEEEELm25EE4dataB8ue170006Ev, symObjAddr: 0x119F8, symBinAddr: 0x100014E94, symSize: 0x14 }
  - { offset: 0x6D68F, size: 0x8, addend: 0x0, symName: __ZNKSt3__110__function12__value_funcIFN6parlay8internal24intrusive_acquire_retireINS3_12hazptr_stackIPNS3_15block_allocator5blockEE4NodeENS_14default_deleteISA_EELm1EE10ThreadDataEjEEclB8ue170006EOj, symObjAddr: 0x11A8C, symBinAddr: 0x100014F28, symSize: 0x64 }
  - { offset: 0x6D6C4, size: 0x8, addend: 0x0, symName: __ZNSt3__18functionIFN6parlay8internal24intrusive_acquire_retireINS2_12hazptr_stackIPNS2_15block_allocator5blockEE4NodeENS_14default_deleteIS9_EELm1EE10ThreadDataEjEED2Ev, symObjAddr: 0x11AF0, symBinAddr: 0x100014F8C, symSize: 0x2C }
  - { offset: 0x6D6F0, size: 0x8, addend: 0x0, symName: __ZNSt3__110__function12__value_funcIFN6parlay8internal24intrusive_acquire_retireINS3_12hazptr_stackIPNS3_15block_allocator5blockEE4NodeENS_14default_deleteISA_EELm1EE10ThreadDataEjEED1B8ue170006Ev, symObjAddr: 0x11B1C, symBinAddr: 0x100014FB8, symSize: 0x2C }
  - { offset: 0x6D71A, size: 0x8, addend: 0x0, symName: __ZNSt3__110__function12__value_funcIFN6parlay8internal24intrusive_acquire_retireINS3_12hazptr_stackIPNS3_15block_allocator5blockEE4NodeENS_14default_deleteISA_EELm1EE10ThreadDataEjEED2B8ue170006Ev, symObjAddr: 0x11B48, symBinAddr: 0x100014FE4, symSize: 0x90 }
  - { offset: 0x6D744, size: 0x8, addend: 0x0, symName: __ZN6parlay8internal24intrusive_acquire_retireINS0_12hazptr_stackIPNS0_15block_allocator5blockEE4NodeENSt3__114default_deleteIS7_EELm1EED2Ev, symObjAddr: 0x11BD8, symBinAddr: 0x100015074, symSize: 0x80 }
  - { offset: 0x6D7E4, size: 0x8, addend: 0x0, symName: __ZN6parlay14ThreadSpecificINS_8internal24intrusive_acquire_retireINS1_12hazptr_stackIPNS1_15block_allocator5blockEE4NodeENSt3__114default_deleteIS8_EELm1EE10ThreadDataEE8for_eachIZNSC_D1EvEUlRT_E_EEvOSG_, symObjAddr: 0x11C58, symBinAddr: 0x1000150F4, symSize: 0x180 }
  - { offset: 0x6D8AA, size: 0x8, addend: 0x0, symName: __ZN6parlay14ThreadSpecificINS_8internal24intrusive_acquire_retireINS1_12hazptr_stackIPNS1_15block_allocator5blockEE4NodeENSt3__114default_deleteIS8_EELm1EE10ThreadDataEE8for_eachIZNSC_D1EvEUlOT_E_EEvSH_, symObjAddr: 0x11DD8, symBinAddr: 0x100015274, symSize: 0x180 }
  - { offset: 0x6D965, size: 0x8, addend: 0x0, symName: __ZN6parlay14ThreadSpecificINS_8internal24intrusive_acquire_retireINS1_12hazptr_stackIPNS1_15block_allocator5blockEE4NodeENSt3__114default_deleteIS8_EELm1EE10ThreadDataEED1Ev, symObjAddr: 0x11F58, symBinAddr: 0x1000153F4, symSize: 0x2C }
  - { offset: 0x6D98F, size: 0x8, addend: 0x0, symName: __ZN6parlay14ThreadSpecificINS_8internal24intrusive_acquire_retireINS1_12hazptr_stackIPNS1_15block_allocator5blockEE4NodeENSt3__114default_deleteIS8_EELm1EE10ThreadDataEE14get_chunk_sizeEm, symObjAddr: 0x11F84, symBinAddr: 0x100015420, symSize: 0xA0 }
  - { offset: 0x6D9B3, size: 0x8, addend: 0x0, symName: __ZNK6parlay14ThreadSpecificINS_8internal24intrusive_acquire_retireINS1_12hazptr_stackIPNS1_15block_allocator5blockEE4NodeENSt3__114default_deleteIS8_EELm1EE10ThreadDataEE19ensure_chunk_existsEm, symObjAddr: 0x12024, symBinAddr: 0x1000154C0, symSize: 0x1DC }
  - { offset: 0x6DA43, size: 0x8, addend: 0x0, symName: __ZZN6parlay8internal24intrusive_acquire_retireINS0_12hazptr_stackIPNS0_15block_allocator5blockEE4NodeENSt3__114default_deleteIS7_EELm1EED1EvENKUlRT_E_clINSB_10ThreadDataEEEDaSD_, symObjAddr: 0x12200, symBinAddr: 0x10001569C, symSize: 0x20 }
  - { offset: 0x6DA84, size: 0x8, addend: 0x0, symName: __ZN6parlay8internal13UninitializedINS0_24intrusive_acquire_retireINS0_12hazptr_stackIPNS0_15block_allocator5blockEE4NodeENSt3__114default_deleteIS8_EELm1EE10ThreadDataEEdeEv, symObjAddr: 0x12220, symBinAddr: 0x1000156BC, symSize: 0x14 }
  - { offset: 0x6DAB4, size: 0x8, addend: 0x0, symName: __ZZN6parlay8internal24intrusive_acquire_retireINS0_12hazptr_stackIPNS0_15block_allocator5blockEE4NodeENSt3__114default_deleteIS7_EELm1EED1EvENKUlOT_E_clIRNSB_10ThreadDataEEEDaSD_, symObjAddr: 0x12234, symBinAddr: 0x1000156D0, symSize: 0x74 }
  - { offset: 0x6DB1B, size: 0x8, addend: 0x0, symName: __ZNK6parlay8internal24intrusive_acquire_retireINS0_12hazptr_stackIPNS0_15block_allocator5blockEE4NodeENSt3__114default_deleteIS7_EELm1EE11RetiredList8get_sizeEv, symObjAddr: 0x122A8, symBinAddr: 0x100015744, symSize: 0x18 }
  - { offset: 0x6DB4D, size: 0x8, addend: 0x0, symName: __ZN6parlay8internal24intrusive_acquire_retireINS0_12hazptr_stackIPNS0_15block_allocator5blockEE4NodeENSt3__114default_deleteIS7_EELm1EE11RetiredList7cleanupIZZNSB_D1EvENKUlOT_E_clIRNSB_10ThreadDataEEEDaSF_EUlSF_E_EEvSF_RSA_, symObjAddr: 0x122C0, symBinAddr: 0x10001575C, symSize: 0x188 }
  - { offset: 0x6DC04, size: 0x8, addend: 0x0, symName: __ZZZN6parlay8internal24intrusive_acquire_retireINS0_12hazptr_stackIPNS0_15block_allocator5blockEE4NodeENSt3__114default_deleteIS7_EELm1EED1EvENKUlOT_E_clIRNSB_10ThreadDataEEEDaSD_ENKUlSD_E_clIRPS7_EESI_SD_, symObjAddr: 0x12448, symBinAddr: 0x1000158E4, symSize: 0x1C }
  - { offset: 0x6DC41, size: 0x8, addend: 0x0, symName: __ZNKSt3__114default_deleteIN6parlay8internal12hazptr_stackIPNS2_15block_allocator5blockEE4NodeEEclB8ue170006EPS8_, symObjAddr: 0x124B0, symBinAddr: 0x10001594C, symSize: 0x44 }
  - { offset: 0x6DC75, size: 0x8, addend: 0x0, symName: __ZN6parlay14ThreadSpecificINS_8internal24intrusive_acquire_retireINS1_12hazptr_stackIPNS1_15block_allocator5blockEE4NodeENSt3__114default_deleteIS8_EELm1EE10ThreadDataEED2Ev, symObjAddr: 0x12514, symBinAddr: 0x1000159B0, symSize: 0x11C }
  - { offset: 0x6DCF0, size: 0x8, addend: 0x0, symName: __ZNKSt3__113__atomic_baseIPN6parlay8internal13UninitializedINS2_24intrusive_acquire_retireINS2_12hazptr_stackIPNS2_15block_allocator5blockEE4NodeENS_14default_deleteISA_EELm1EE10ThreadDataEEELb0EEcvSG_B8ue170006Ev, symObjAddr: 0x12630, symBinAddr: 0x100015ACC, symSize: 0x28 }
  - { offset: 0x6DD16, size: 0x8, addend: 0x0, symName: __ZN6parlay8internal13UninitializedINS0_24intrusive_acquire_retireINS0_12hazptr_stackIPNS0_15block_allocator5blockEE4NodeENSt3__114default_deleteIS8_EELm1EE10ThreadDataEED1Ev, symObjAddr: 0x12658, symBinAddr: 0x100015AF4, symSize: 0x2C }
  - { offset: 0x6DD40, size: 0x8, addend: 0x0, symName: __ZN6parlay8internal13UninitializedINS0_24intrusive_acquire_retireINS0_12hazptr_stackIPNS0_15block_allocator5blockEE4NodeENSt3__114default_deleteIS8_EELm1EE10ThreadDataEED2Ev, symObjAddr: 0x12684, symBinAddr: 0x100015B20, symSize: 0x2C }
  - { offset: 0x6DD6F, size: 0x8, addend: 0x0, symName: __ZN6parlay8internal24intrusive_acquire_retireINS0_12hazptr_stackIPNS0_15block_allocator5blockEE4NodeENSt3__114default_deleteIS7_EELm1EE10ThreadDataD1Ev, symObjAddr: 0x126B0, symBinAddr: 0x100015B4C, symSize: 0x2C }
  - { offset: 0x6DD9B, size: 0x8, addend: 0x0, symName: __ZN6parlay8internal24intrusive_acquire_retireINS0_12hazptr_stackIPNS0_15block_allocator5blockEE4NodeENSt3__114default_deleteIS7_EELm1EE10ThreadDataD2Ev, symObjAddr: 0x126DC, symBinAddr: 0x100015B78, symSize: 0x30 }
  - { offset: 0x6DDC7, size: 0x8, addend: 0x0, symName: __ZN6parlay8internal24intrusive_acquire_retireINS0_12hazptr_stackIPNS0_15block_allocator5blockEE4NodeENSt3__114default_deleteIS7_EELm1EE11RetiredListD1Ev, symObjAddr: 0x1270C, symBinAddr: 0x100015BA8, symSize: 0x2C }
  - { offset: 0x6DDF1, size: 0x8, addend: 0x0, symName: __ZN6parlay8internal24intrusive_acquire_retireINS0_12hazptr_stackIPNS0_15block_allocator5blockEE4NodeENSt3__114default_deleteIS7_EELm1EE11RetiredListD2Ev, symObjAddr: 0x12738, symBinAddr: 0x100015BD4, symSize: 0x90 }
  - { offset: 0x6DE1B, size: 0x8, addend: 0x0, symName: __ZNSt3__18functionIFN6parlay8internal15block_allocator10local_listEjEEC1IZNS1_14ThreadSpecificIS4_EC1EvEUlmE_vEET_, symObjAddr: 0x12838, symBinAddr: 0x100015CD4, symSize: 0x2C }
  - { offset: 0x6DE61, size: 0x8, addend: 0x0, symName: __ZN6parlay14ThreadSpecificINS_8internal15block_allocator10local_listEE10initializeEv, symObjAddr: 0x12864, symBinAddr: 0x100015D00, symSize: 0x1B8 }
  - { offset: 0x6DEB3, size: 0x8, addend: 0x0, symName: __ZNSt3__18functionIFN6parlay8internal15block_allocator10local_listEjEED1Ev, symObjAddr: 0x12A1C, symBinAddr: 0x100015EB8, symSize: 0x2C }
  - { offset: 0x6DEDF, size: 0x8, addend: 0x0, symName: __ZNSt3__18functionIFN6parlay8internal15block_allocator10local_listEjEEC2IZNS1_14ThreadSpecificIS4_EC1EvEUlmE_vEET_, symObjAddr: 0x12A48, symBinAddr: 0x100015EE4, symSize: 0x30 }
  - { offset: 0x6DF25, size: 0x8, addend: 0x0, symName: __ZNSt3__110__function12__value_funcIFN6parlay8internal15block_allocator10local_listEjEEC1B8ue170006IZNS2_14ThreadSpecificIS5_EC1EvEUlmE_vEEOT_, symObjAddr: 0x12A78, symBinAddr: 0x100015F14, symSize: 0x50 }
  - { offset: 0x6DF69, size: 0x8, addend: 0x0, symName: __ZNSt3__19allocatorIZN6parlay14ThreadSpecificINS1_8internal15block_allocator10local_listEEC1EvEUlmE_EC1B8ue170006Ev, symObjAddr: 0x12AC8, symBinAddr: 0x100015F64, symSize: 0x2C }
  - { offset: 0x6DF93, size: 0x8, addend: 0x0, symName: __ZNSt3__110__function12__value_funcIFN6parlay8internal15block_allocator10local_listEjEEC1B8ue170006IZNS2_14ThreadSpecificIS5_EC1EvEUlmE_NS_9allocatorISB_EEEEOT_RKT0_, symObjAddr: 0x12AF4, symBinAddr: 0x100015F90, symSize: 0x3C }
  - { offset: 0x6DFED, size: 0x8, addend: 0x0, symName: __ZNSt3__19allocatorIZN6parlay14ThreadSpecificINS1_8internal15block_allocator10local_listEEC1EvEUlmE_EC2B8ue170006Ev, symObjAddr: 0x12B30, symBinAddr: 0x100015FCC, symSize: 0x2C }
  - { offset: 0x6E017, size: 0x8, addend: 0x0, symName: __ZNSt3__116__non_trivial_ifILb1ENS_9allocatorIZN6parlay14ThreadSpecificINS2_8internal15block_allocator10local_listEEC1EvEUlmE_EEEC2B8ue170006Ev, symObjAddr: 0x12B5C, symBinAddr: 0x100015FF8, symSize: 0x14 }
  - { offset: 0x6E041, size: 0x8, addend: 0x0, symName: __ZNSt3__110__function12__value_funcIFN6parlay8internal15block_allocator10local_listEjEEC2B8ue170006IZNS2_14ThreadSpecificIS5_EC1EvEUlmE_NS_9allocatorISB_EEEEOT_RKT0_, symObjAddr: 0x12B70, symBinAddr: 0x10001600C, symSize: 0x94 }
  - { offset: 0x6E0E9, size: 0x8, addend: 0x0, symName: __ZNSt3__19allocatorINS_10__function6__funcIZN6parlay14ThreadSpecificINS3_8internal15block_allocator10local_listEEC1EvEUlmE_NS0_IS9_EEFS7_jEEEEC1B8ue170006IS9_EERKNS0_IT_EE, symObjAddr: 0x12C1C, symBinAddr: 0x1000160B8, symSize: 0x34 }
  - { offset: 0x6E12C, size: 0x8, addend: 0x0, symName: __ZNSt3__19allocatorIZN6parlay14ThreadSpecificINS1_8internal15block_allocator10local_listEEC1EvEUlmE_EC1B8ue170006INS_10__function6__funcIS7_S8_FS5_jEEEEERKNS0_IT_EE, symObjAddr: 0x12C50, symBinAddr: 0x1000160EC, symSize: 0x34 }
  - { offset: 0x6E169, size: 0x8, addend: 0x0, symName: __ZNSt3__110__function6__funcIZN6parlay14ThreadSpecificINS2_8internal15block_allocator10local_listEEC1EvEUlmE_NS_9allocatorIS8_EEFS6_jEEC1B8ue170006EOS8_OSA_, symObjAddr: 0x12C84, symBinAddr: 0x100016120, symSize: 0x3C }
  - { offset: 0x6E1B1, size: 0x8, addend: 0x0, symName: __ZNSt3__19allocatorINS_10__function6__funcIZN6parlay14ThreadSpecificINS3_8internal15block_allocator10local_listEEC1EvEUlmE_NS0_IS9_EEFS7_jEEEEC2B8ue170006IS9_EERKNS0_IT_EE, symObjAddr: 0x12CC0, symBinAddr: 0x10001615C, symSize: 0x30 }
  - { offset: 0x6E1EE, size: 0x8, addend: 0x0, symName: __ZNSt3__116__non_trivial_ifILb1ENS_9allocatorINS_10__function6__funcIZN6parlay14ThreadSpecificINS4_8internal15block_allocator10local_listEEC1EvEUlmE_NS1_ISA_EEFS8_jEEEEEEC2B8ue170006Ev, symObjAddr: 0x12CF0, symBinAddr: 0x10001618C, symSize: 0x14 }
  - { offset: 0x6E218, size: 0x8, addend: 0x0, symName: __ZNSt3__19allocatorIZN6parlay14ThreadSpecificINS1_8internal15block_allocator10local_listEEC1EvEUlmE_EC2B8ue170006INS_10__function6__funcIS7_S8_FS5_jEEEEERKNS0_IT_EE, symObjAddr: 0x12D04, symBinAddr: 0x1000161A0, symSize: 0x30 }
  - { offset: 0x6E255, size: 0x8, addend: 0x0, symName: __ZNSt3__110__function6__funcIZN6parlay14ThreadSpecificINS2_8internal15block_allocator10local_listEEC1EvEUlmE_NS_9allocatorIS8_EEFS6_jEEC2B8ue170006EOS8_OSA_, symObjAddr: 0x12D34, symBinAddr: 0x1000161D0, symSize: 0x80 }
  - { offset: 0x6E29D, size: 0x8, addend: 0x0, symName: __ZNSt3__110__function6__baseIFN6parlay8internal15block_allocator10local_listEjEEC2B8ue170006Ev, symObjAddr: 0x12DB4, symBinAddr: 0x100016250, symSize: 0x24 }
  - { offset: 0x6E2C7, size: 0x8, addend: 0x0, symName: __ZNSt3__110__function12__alloc_funcIZN6parlay14ThreadSpecificINS2_8internal15block_allocator10local_listEEC1EvEUlmE_NS_9allocatorIS8_EEFS6_jEEC1B8ue170006EOS8_OSA_, symObjAddr: 0x12DD8, symBinAddr: 0x100016274, symSize: 0x3C }
  - { offset: 0x6E30D, size: 0x8, addend: 0x0, symName: __ZNSt3__110__function6__baseIFN6parlay8internal15block_allocator10local_listEjEED2Ev, symObjAddr: 0x12E14, symBinAddr: 0x1000162B0, symSize: 0x14 }
  - { offset: 0x6E337, size: 0x8, addend: 0x0, symName: __ZNSt3__110__function6__funcIZN6parlay14ThreadSpecificINS2_8internal15block_allocator10local_listEEC1EvEUlmE_NS_9allocatorIS8_EEFS6_jEED1Ev, symObjAddr: 0x12E28, symBinAddr: 0x1000162C4, symSize: 0x2C }
  - { offset: 0x6E364, size: 0x8, addend: 0x0, symName: __ZNSt3__110__function6__funcIZN6parlay14ThreadSpecificINS2_8internal15block_allocator10local_listEEC1EvEUlmE_NS_9allocatorIS8_EEFS6_jEED0Ev, symObjAddr: 0x12E54, symBinAddr: 0x1000162F0, symSize: 0x30 }
  - { offset: 0x6E391, size: 0x8, addend: 0x0, symName: __ZNKSt3__110__function6__funcIZN6parlay14ThreadSpecificINS2_8internal15block_allocator10local_listEEC1EvEUlmE_NS_9allocatorIS8_EEFS6_jEE7__cloneEv, symObjAddr: 0x12E84, symBinAddr: 0x100016320, symSize: 0xFC }
  - { offset: 0x6E3E3, size: 0x8, addend: 0x0, symName: __ZNKSt3__110__function6__funcIZN6parlay14ThreadSpecificINS2_8internal15block_allocator10local_listEEC1EvEUlmE_NS_9allocatorIS8_EEFS6_jEE7__cloneEPNS0_6__baseISB_EE, symObjAddr: 0x12F80, symBinAddr: 0x10001641C, symSize: 0x58 }
  - { offset: 0x6E41A, size: 0x8, addend: 0x0, symName: __ZNSt3__110__function6__funcIZN6parlay14ThreadSpecificINS2_8internal15block_allocator10local_listEEC1EvEUlmE_NS_9allocatorIS8_EEFS6_jEE7destroyEv, symObjAddr: 0x12FD8, symBinAddr: 0x100016474, symSize: 0x28 }
  - { offset: 0x6E442, size: 0x8, addend: 0x0, symName: __ZNSt3__110__function6__funcIZN6parlay14ThreadSpecificINS2_8internal15block_allocator10local_listEEC1EvEUlmE_NS_9allocatorIS8_EEFS6_jEE18destroy_deallocateEv, symObjAddr: 0x13000, symBinAddr: 0x10001649C, symSize: 0x58 }
  - { offset: 0x6E485, size: 0x8, addend: 0x0, symName: __ZNSt3__110__function6__funcIZN6parlay14ThreadSpecificINS2_8internal15block_allocator10local_listEEC1EvEUlmE_NS_9allocatorIS8_EEFS6_jEEclEOj, symObjAddr: 0x13058, symBinAddr: 0x1000164F4, symSize: 0x30 }
  - { offset: 0x6E4BC, size: 0x8, addend: 0x0, symName: __ZNKSt3__110__function6__funcIZN6parlay14ThreadSpecificINS2_8internal15block_allocator10local_listEEC1EvEUlmE_NS_9allocatorIS8_EEFS6_jEE6targetERKSt9type_info, symObjAddr: 0x13088, symBinAddr: 0x100016524, symSize: 0x60 }
  - { offset: 0x6E4F3, size: 0x8, addend: 0x0, symName: __ZNKSt3__110__function6__funcIZN6parlay14ThreadSpecificINS2_8internal15block_allocator10local_listEEC1EvEUlmE_NS_9allocatorIS8_EEFS6_jEE11target_typeEv, symObjAddr: 0x130E8, symBinAddr: 0x100016584, symSize: 0x18 }
  - { offset: 0x6E51B, size: 0x8, addend: 0x0, symName: __ZNSt3__110__function6__baseIFN6parlay8internal15block_allocator10local_listEjEED1Ev, symObjAddr: 0x13100, symBinAddr: 0x10001659C, symSize: 0x14 }
  - { offset: 0x6E545, size: 0x8, addend: 0x0, symName: __ZNSt3__110__function6__baseIFN6parlay8internal15block_allocator10local_listEjEED0Ev, symObjAddr: 0x13114, symBinAddr: 0x1000165B0, symSize: 0xC }
  - { offset: 0x6E56F, size: 0x8, addend: 0x0, symName: __ZNSt3__110__function12__alloc_funcIZN6parlay14ThreadSpecificINS2_8internal15block_allocator10local_listEEC1EvEUlmE_NS_9allocatorIS8_EEFS6_jEEC2B8ue170006EOS8_OSA_, symObjAddr: 0x13120, symBinAddr: 0x1000165BC, symSize: 0x5C }
  - { offset: 0x6E5B5, size: 0x8, addend: 0x0, symName: __ZNSt3__117__compressed_pairIZN6parlay14ThreadSpecificINS1_8internal15block_allocator10local_listEEC1EvEUlmE_NS_9allocatorIS7_EEEC1B8ue170006IJOS7_EJOS9_EEENS_21piecewise_construct_tENS_5tupleIJDpT_EEENSF_IJDpT0_EEE, symObjAddr: 0x131D4, symBinAddr: 0x100016670, symSize: 0x3C }
  - { offset: 0x6E61F, size: 0x8, addend: 0x0, symName: __ZNSt3__15tupleIJOZN6parlay14ThreadSpecificINS1_8internal15block_allocator10local_listEEC1EvEUlmE_EEC1B8ue170006IJS7_ELi0EEEDpOT_, symObjAddr: 0x13210, symBinAddr: 0x1000166AC, symSize: 0x34 }
  - { offset: 0x6E669, size: 0x8, addend: 0x0, symName: __ZNSt3__15tupleIJOZN6parlay14ThreadSpecificINS1_8internal15block_allocator10local_listEEC1EvEUlmE_EEC2B8ue170006IJS7_ELi0EEEDpOT_, symObjAddr: 0x13244, symBinAddr: 0x1000166E0, symSize: 0x34 }
  - { offset: 0x6E6B3, size: 0x8, addend: 0x0, symName: __ZNSt3__112__tuple_implINS_15__tuple_indicesIJLm0EEEEJOZN6parlay14ThreadSpecificINS3_8internal15block_allocator10local_listEEC1EvEUlmE_EEC1B8ue170006IJLm0EEJSA_EJEJEJS9_EEENS1_IJXspT_EEEENS_13__tuple_typesIJDpT0_EEENS1_IJXspT1_EEEENSE_IJDpT2_EEEDpOT3_, symObjAddr: 0x13278, symBinAddr: 0x100016714, symSize: 0x34 }
  - { offset: 0x6E745, size: 0x8, addend: 0x0, symName: __ZNSt3__112__tuple_implINS_15__tuple_indicesIJLm0EEEEJOZN6parlay14ThreadSpecificINS3_8internal15block_allocator10local_listEEC1EvEUlmE_EEC2B8ue170006IJLm0EEJSA_EJEJEJS9_EEENS1_IJXspT_EEEENS_13__tuple_typesIJDpT0_EEENS1_IJXspT1_EEEENSE_IJDpT2_EEEDpOT3_, symObjAddr: 0x132AC, symBinAddr: 0x100016748, symSize: 0x34 }
  - { offset: 0x6E7D7, size: 0x8, addend: 0x0, symName: __ZNSt3__112__tuple_leafILm0EOZN6parlay14ThreadSpecificINS1_8internal15block_allocator10local_listEEC1EvEUlmE_Lb0EEC2B8ue170006IS7_vEEOT_, symObjAddr: 0x132E0, symBinAddr: 0x10001677C, symSize: 0x20 }
  - { offset: 0x6E81B, size: 0x8, addend: 0x0, symName: __ZNSt3__15tupleIJONS_9allocatorIZN6parlay14ThreadSpecificINS2_8internal15block_allocator10local_listEEC1EvEUlmE_EEEEC1B8ue170006IJS9_ELi0EEEDpOT_, symObjAddr: 0x13300, symBinAddr: 0x10001679C, symSize: 0x34 }
  - { offset: 0x6E865, size: 0x8, addend: 0x0, symName: __ZNSt3__15tupleIJONS_9allocatorIZN6parlay14ThreadSpecificINS2_8internal15block_allocator10local_listEEC1EvEUlmE_EEEEC2B8ue170006IJS9_ELi0EEEDpOT_, symObjAddr: 0x13334, symBinAddr: 0x1000167D0, symSize: 0x34 }
  - { offset: 0x6E8AF, size: 0x8, addend: 0x0, symName: __ZNSt3__112__tuple_implINS_15__tuple_indicesIJLm0EEEEJONS_9allocatorIZN6parlay14ThreadSpecificINS4_8internal15block_allocator10local_listEEC1EvEUlmE_EEEEC1B8ue170006IJLm0EEJSC_EJEJEJSB_EEENS1_IJXspT_EEEENS_13__tuple_typesIJDpT0_EEENS1_IJXspT1_EEEENSG_IJDpT2_EEEDpOT3_, symObjAddr: 0x13368, symBinAddr: 0x100016804, symSize: 0x34 }
  - { offset: 0x6E941, size: 0x8, addend: 0x0, symName: __ZNSt3__112__tuple_implINS_15__tuple_indicesIJLm0EEEEJONS_9allocatorIZN6parlay14ThreadSpecificINS4_8internal15block_allocator10local_listEEC1EvEUlmE_EEEEC2B8ue170006IJLm0EEJSC_EJEJEJSB_EEENS1_IJXspT_EEEENS_13__tuple_typesIJDpT0_EEENS1_IJXspT1_EEEENSG_IJDpT2_EEEDpOT3_, symObjAddr: 0x1339C, symBinAddr: 0x100016838, symSize: 0x34 }
  - { offset: 0x6E9D3, size: 0x8, addend: 0x0, symName: __ZNSt3__112__tuple_leafILm0EONS_9allocatorIZN6parlay14ThreadSpecificINS2_8internal15block_allocator10local_listEEC1EvEUlmE_EELb0EEC2B8ue170006IS9_vEEOT_, symObjAddr: 0x133D0, symBinAddr: 0x10001686C, symSize: 0x20 }
  - { offset: 0x6EA17, size: 0x8, addend: 0x0, symName: __ZNSt3__117__compressed_pairIZN6parlay14ThreadSpecificINS1_8internal15block_allocator10local_listEEC1EvEUlmE_NS_9allocatorIS7_EEEC2B8ue170006IJOS7_EJOS9_EEENS_21piecewise_construct_tENS_5tupleIJDpT_EEENSF_IJDpT0_EEE, symObjAddr: 0x133F0, symBinAddr: 0x10001688C, symSize: 0x54 }
  - { offset: 0x6EA81, size: 0x8, addend: 0x0, symName: __ZNSt3__122__compressed_pair_elemIZN6parlay14ThreadSpecificINS1_8internal15block_allocator10local_listEEC1EvEUlmE_Li0ELb1EEC2B8ue170006IJOS7_EJLm0EEEENS_21piecewise_construct_tENS_5tupleIJDpT_EEENS_15__tuple_indicesIJXspT0_EEEE, symObjAddr: 0x13444, symBinAddr: 0x1000168E0, symSize: 0x38 }
  - { offset: 0x6EAE5, size: 0x8, addend: 0x0, symName: __ZNSt3__122__compressed_pair_elemINS_9allocatorIZN6parlay14ThreadSpecificINS2_8internal15block_allocator10local_listEEC1EvEUlmE_EELi1ELb1EEC2B8ue170006IJOS9_EJLm0EEEENS_21piecewise_construct_tENS_5tupleIJDpT_EEENS_15__tuple_indicesIJXspT0_EEEE, symObjAddr: 0x1347C, symBinAddr: 0x100016918, symSize: 0x38 }
  - { offset: 0x6EB49, size: 0x8, addend: 0x0, symName: __ZNSt3__112__tuple_leafILm0EOZN6parlay14ThreadSpecificINS1_8internal15block_allocator10local_listEEC1EvEUlmE_Lb0EE3getB8ue170006Ev, symObjAddr: 0x134D8, symBinAddr: 0x100016974, symSize: 0x18 }
  - { offset: 0x6EB6F, size: 0x8, addend: 0x0, symName: __ZNSt3__112__tuple_leafILm0EONS_9allocatorIZN6parlay14ThreadSpecificINS2_8internal15block_allocator10local_listEEC1EvEUlmE_EELb0EE3getB8ue170006Ev, symObjAddr: 0x13514, symBinAddr: 0x1000169B0, symSize: 0x18 }
  - { offset: 0x6EB95, size: 0x8, addend: 0x0, symName: __ZNSt3__110__function6__funcIZN6parlay14ThreadSpecificINS2_8internal15block_allocator10local_listEEC1EvEUlmE_NS_9allocatorIS8_EEFS6_jEED2Ev, symObjAddr: 0x1352C, symBinAddr: 0x1000169C8, symSize: 0x2C }
  - { offset: 0x6EBC2, size: 0x8, addend: 0x0, symName: __ZNKSt3__110__function12__alloc_funcIZN6parlay14ThreadSpecificINS2_8internal15block_allocator10local_listEEC1EvEUlmE_NS_9allocatorIS8_EEFS6_jEE15__get_allocatorB8ue170006Ev, symObjAddr: 0x13558, symBinAddr: 0x1000169F4, symSize: 0x24 }
  - { offset: 0x6EBE8, size: 0x8, addend: 0x0, symName: __ZNSt3__19allocatorINS_10__function6__funcIZN6parlay14ThreadSpecificINS3_8internal15block_allocator10local_listEEC1EvEUlmE_NS0_IS9_EEFS7_jEEEE8allocateB8ue170006Em, symObjAddr: 0x1357C, symBinAddr: 0x100016A18, symSize: 0x58 }
  - { offset: 0x6EC2D, size: 0x8, addend: 0x0, symName: __ZNSt3__122__allocator_destructorINS_9allocatorINS_10__function6__funcIZN6parlay14ThreadSpecificINS4_8internal15block_allocator10local_listEEC1EvEUlmE_NS1_ISA_EEFS8_jEEEEEEC1B8ue170006ERSE_m, symObjAddr: 0x135D4, symBinAddr: 0x100016A70, symSize: 0x3C }
  - { offset: 0x6ED09, size: 0x8, addend: 0x0, symName: __ZNSt3__110unique_ptrINS_10__function6__funcIZN6parlay14ThreadSpecificINS3_8internal15block_allocator10local_listEEC1EvEUlmE_NS_9allocatorIS9_EEFS7_jEEENS_22__allocator_destructorINSA_ISD_EEEEEC1B8ue170006ILb1EvEEPSD_NS_16__dependent_typeINS_27__unique_ptr_deleter_sfinaeISG_EEXT_EE20__good_rval_ref_typeE, symObjAddr: 0x13610, symBinAddr: 0x100016AAC, symSize: 0x3C }
  - { offset: 0x6ED5B, size: 0x8, addend: 0x0, symName: __ZNKSt3__110unique_ptrINS_10__function6__funcIZN6parlay14ThreadSpecificINS3_8internal15block_allocator10local_listEEC1EvEUlmE_NS_9allocatorIS9_EEFS7_jEEENS_22__allocator_destructorINSA_ISD_EEEEE3getB8ue170006Ev, symObjAddr: 0x1364C, symBinAddr: 0x100016AE8, symSize: 0x28 }
  - { offset: 0x6ED81, size: 0x8, addend: 0x0, symName: __ZNKSt3__110__function12__alloc_funcIZN6parlay14ThreadSpecificINS2_8internal15block_allocator10local_listEEC1EvEUlmE_NS_9allocatorIS8_EEFS6_jEE8__targetB8ue170006Ev, symObjAddr: 0x13674, symBinAddr: 0x100016B10, symSize: 0x24 }
  - { offset: 0x6EDA7, size: 0x8, addend: 0x0, symName: __ZNSt3__110__function6__funcIZN6parlay14ThreadSpecificINS2_8internal15block_allocator10local_listEEC1EvEUlmE_NS_9allocatorIS8_EEFS6_jEEC1B8ue170006ERKS8_OSA_, symObjAddr: 0x13698, symBinAddr: 0x100016B34, symSize: 0x3C }
  - { offset: 0x6EDEF, size: 0x8, addend: 0x0, symName: __ZNSt3__110unique_ptrINS_10__function6__funcIZN6parlay14ThreadSpecificINS3_8internal15block_allocator10local_listEEC1EvEUlmE_NS_9allocatorIS9_EEFS7_jEEENS_22__allocator_destructorINSA_ISD_EEEEE7releaseB8ue170006Ev, symObjAddr: 0x136D4, symBinAddr: 0x100016B70, symSize: 0x44 }
  - { offset: 0x6EE24, size: 0x8, addend: 0x0, symName: __ZNSt3__110unique_ptrINS_10__function6__funcIZN6parlay14ThreadSpecificINS3_8internal15block_allocator10local_listEEC1EvEUlmE_NS_9allocatorIS9_EEFS7_jEEENS_22__allocator_destructorINSA_ISD_EEEEED1B8ue170006Ev, symObjAddr: 0x13718, symBinAddr: 0x100016BB4, symSize: 0x2C }
  - { offset: 0x6EE4E, size: 0x8, addend: 0x0, symName: __ZNKSt3__117__compressed_pairIZN6parlay14ThreadSpecificINS1_8internal15block_allocator10local_listEEC1EvEUlmE_NS_9allocatorIS7_EEE6secondB8ue170006Ev, symObjAddr: 0x13744, symBinAddr: 0x100016BE0, symSize: 0x24 }
  - { offset: 0x6EE74, size: 0x8, addend: 0x0, symName: __ZNKSt3__122__compressed_pair_elemINS_9allocatorIZN6parlay14ThreadSpecificINS2_8internal15block_allocator10local_listEEC1EvEUlmE_EELi1ELb1EE5__getB8ue170006Ev, symObjAddr: 0x13768, symBinAddr: 0x100016C04, symSize: 0x14 }
  - { offset: 0x6EEA5, size: 0x8, addend: 0x0, symName: __ZNSt3__116allocator_traitsINS_9allocatorINS_10__function6__funcIZN6parlay14ThreadSpecificINS4_8internal15block_allocator10local_listEEC1EvEUlmE_NS1_ISA_EEFS8_jEEEEEE8max_sizeB8ue170006ISE_vEEmRKSE_, symObjAddr: 0x1377C, symBinAddr: 0x100016C18, symSize: 0x24 }
  - { offset: 0x6EED4, size: 0x8, addend: 0x0, symName: __ZNKSt3__19allocatorINS_10__function6__funcIZN6parlay14ThreadSpecificINS3_8internal15block_allocator10local_listEEC1EvEUlmE_NS0_IS9_EEFS7_jEEEE8max_sizeB8ue170006Ev, symObjAddr: 0x137A0, symBinAddr: 0x100016C3C, symSize: 0x14 }
  - { offset: 0x6EEFA, size: 0x8, addend: 0x0, symName: __ZNSt3__122__allocator_destructorINS_9allocatorINS_10__function6__funcIZN6parlay14ThreadSpecificINS4_8internal15block_allocator10local_listEEC1EvEUlmE_NS1_ISA_EEFS8_jEEEEEEC2B8ue170006ERSE_m, symObjAddr: 0x137B4, symBinAddr: 0x100016C50, symSize: 0x2C }
  - { offset: 0x6EF40, size: 0x8, addend: 0x0, symName: __ZNSt3__110unique_ptrINS_10__function6__funcIZN6parlay14ThreadSpecificINS3_8internal15block_allocator10local_listEEC1EvEUlmE_NS_9allocatorIS9_EEFS7_jEEENS_22__allocator_destructorINSA_ISD_EEEEEC2B8ue170006ILb1EvEEPSD_NS_16__dependent_typeINS_27__unique_ptr_deleter_sfinaeISG_EEXT_EE20__good_rval_ref_typeE, symObjAddr: 0x137E0, symBinAddr: 0x100016C7C, symSize: 0x48 }
  - { offset: 0x6EF92, size: 0x8, addend: 0x0, symName: __ZNSt3__117__compressed_pairIPNS_10__function6__funcIZN6parlay14ThreadSpecificINS3_8internal15block_allocator10local_listEEC1EvEUlmE_NS_9allocatorIS9_EEFS7_jEEENS_22__allocator_destructorINSA_ISD_EEEEEC1B8ue170006IRSE_SH_EEOT_OT0_, symObjAddr: 0x13828, symBinAddr: 0x100016CC4, symSize: 0x3C }
  - { offset: 0x6EFEA, size: 0x8, addend: 0x0, symName: __ZNSt3__117__compressed_pairIPNS_10__function6__funcIZN6parlay14ThreadSpecificINS3_8internal15block_allocator10local_listEEC1EvEUlmE_NS_9allocatorIS9_EEFS7_jEEENS_22__allocator_destructorINSA_ISD_EEEEEC2B8ue170006IRSE_SH_EEOT_OT0_, symObjAddr: 0x13864, symBinAddr: 0x100016D00, symSize: 0x48 }
  - { offset: 0x6F042, size: 0x8, addend: 0x0, symName: __ZNSt3__122__compressed_pair_elemIPNS_10__function6__funcIZN6parlay14ThreadSpecificINS3_8internal15block_allocator10local_listEEC1EvEUlmE_NS_9allocatorIS9_EEFS7_jEEELi0ELb0EEC2B8ue170006IRSE_vEEOT_, symObjAddr: 0x138AC, symBinAddr: 0x100016D48, symSize: 0x24 }
  - { offset: 0x6F085, size: 0x8, addend: 0x0, symName: __ZNSt3__122__compressed_pair_elemINS_22__allocator_destructorINS_9allocatorINS_10__function6__funcIZN6parlay14ThreadSpecificINS5_8internal15block_allocator10local_listEEC1EvEUlmE_NS2_ISB_EEFS9_jEEEEEEELi1ELb0EEC2B8ue170006ISG_vEEOT_, symObjAddr: 0x138D0, symBinAddr: 0x100016D6C, symSize: 0x24 }
  - { offset: 0x6F0C8, size: 0x8, addend: 0x0, symName: __ZNKSt3__117__compressed_pairIPNS_10__function6__funcIZN6parlay14ThreadSpecificINS3_8internal15block_allocator10local_listEEC1EvEUlmE_NS_9allocatorIS9_EEFS7_jEEENS_22__allocator_destructorINSA_ISD_EEEEE5firstB8ue170006Ev, symObjAddr: 0x138F4, symBinAddr: 0x100016D90, symSize: 0x24 }
  - { offset: 0x6F0EE, size: 0x8, addend: 0x0, symName: __ZNKSt3__122__compressed_pair_elemIPNS_10__function6__funcIZN6parlay14ThreadSpecificINS3_8internal15block_allocator10local_listEEC1EvEUlmE_NS_9allocatorIS9_EEFS7_jEEELi0ELb0EE5__getB8ue170006Ev, symObjAddr: 0x13918, symBinAddr: 0x100016DB4, symSize: 0x14 }
  - { offset: 0x6F114, size: 0x8, addend: 0x0, symName: __ZNKSt3__117__compressed_pairIZN6parlay14ThreadSpecificINS1_8internal15block_allocator10local_listEEC1EvEUlmE_NS_9allocatorIS7_EEE5firstB8ue170006Ev, symObjAddr: 0x1392C, symBinAddr: 0x100016DC8, symSize: 0x24 }
  - { offset: 0x6F13A, size: 0x8, addend: 0x0, symName: __ZNKSt3__122__compressed_pair_elemIZN6parlay14ThreadSpecificINS1_8internal15block_allocator10local_listEEC1EvEUlmE_Li0ELb1EE5__getB8ue170006Ev, symObjAddr: 0x13950, symBinAddr: 0x100016DEC, symSize: 0x14 }
  - { offset: 0x6F160, size: 0x8, addend: 0x0, symName: __ZNSt3__110__function6__funcIZN6parlay14ThreadSpecificINS2_8internal15block_allocator10local_listEEC1EvEUlmE_NS_9allocatorIS8_EEFS6_jEEC2B8ue170006ERKS8_OSA_, symObjAddr: 0x13964, symBinAddr: 0x100016E00, symSize: 0x80 }
  - { offset: 0x6F1A8, size: 0x8, addend: 0x0, symName: __ZNSt3__110__function12__alloc_funcIZN6parlay14ThreadSpecificINS2_8internal15block_allocator10local_listEEC1EvEUlmE_NS_9allocatorIS8_EEFS6_jEEC1B8ue170006ERKS8_OSA_, symObjAddr: 0x139E4, symBinAddr: 0x100016E80, symSize: 0x3C }
  - { offset: 0x6F1EE, size: 0x8, addend: 0x0, symName: __ZNSt3__110__function12__alloc_funcIZN6parlay14ThreadSpecificINS2_8internal15block_allocator10local_listEEC1EvEUlmE_NS_9allocatorIS8_EEFS6_jEEC2B8ue170006ERKS8_OSA_, symObjAddr: 0x13A20, symBinAddr: 0x100016EBC, symSize: 0x5C }
  - { offset: 0x6F234, size: 0x8, addend: 0x0, symName: __ZNSt3__117__compressed_pairIZN6parlay14ThreadSpecificINS1_8internal15block_allocator10local_listEEC1EvEUlmE_NS_9allocatorIS7_EEEC1B8ue170006IJRKS7_EJOS9_EEENS_21piecewise_construct_tENS_5tupleIJDpT_EEENSG_IJDpT0_EEE, symObjAddr: 0x13AA8, symBinAddr: 0x100016F44, symSize: 0x3C }
  - { offset: 0x6F29E, size: 0x8, addend: 0x0, symName: __ZNSt3__15tupleIJRKZN6parlay14ThreadSpecificINS1_8internal15block_allocator10local_listEEC1EvEUlmE_EEC1B8ue170006INS_4_AndELi0EEES9_, symObjAddr: 0x13AE4, symBinAddr: 0x100016F80, symSize: 0x34 }
  - { offset: 0x6F2E7, size: 0x8, addend: 0x0, symName: __ZNSt3__15tupleIJRKZN6parlay14ThreadSpecificINS1_8internal15block_allocator10local_listEEC1EvEUlmE_EEC2B8ue170006INS_4_AndELi0EEES9_, symObjAddr: 0x13B18, symBinAddr: 0x100016FB4, symSize: 0x34 }
  - { offset: 0x6F330, size: 0x8, addend: 0x0, symName: __ZNSt3__112__tuple_implINS_15__tuple_indicesIJLm0EEEEJRKZN6parlay14ThreadSpecificINS3_8internal15block_allocator10local_listEEC1EvEUlmE_EEC1B8ue170006IJLm0EEJSB_EJEJEJSB_EEENS1_IJXspT_EEEENS_13__tuple_typesIJDpT0_EEENS1_IJXspT1_EEEENSF_IJDpT2_EEEDpOT3_, symObjAddr: 0x13B4C, symBinAddr: 0x100016FE8, symSize: 0x34 }
  - { offset: 0x6F3C2, size: 0x8, addend: 0x0, symName: __ZNSt3__112__tuple_implINS_15__tuple_indicesIJLm0EEEEJRKZN6parlay14ThreadSpecificINS3_8internal15block_allocator10local_listEEC1EvEUlmE_EEC2B8ue170006IJLm0EEJSB_EJEJEJSB_EEENS1_IJXspT_EEEENS_13__tuple_typesIJDpT0_EEENS1_IJXspT1_EEEENSF_IJDpT2_EEEDpOT3_, symObjAddr: 0x13B80, symBinAddr: 0x10001701C, symSize: 0x34 }
  - { offset: 0x6F454, size: 0x8, addend: 0x0, symName: __ZNSt3__112__tuple_leafILm0ERKZN6parlay14ThreadSpecificINS1_8internal15block_allocator10local_listEEC1EvEUlmE_Lb0EEC2B8ue170006IS9_vEEOT_, symObjAddr: 0x13BB4, symBinAddr: 0x100017050, symSize: 0x20 }
  - { offset: 0x6F498, size: 0x8, addend: 0x0, symName: __ZNSt3__117__compressed_pairIZN6parlay14ThreadSpecificINS1_8internal15block_allocator10local_listEEC1EvEUlmE_NS_9allocatorIS7_EEEC2B8ue170006IJRKS7_EJOS9_EEENS_21piecewise_construct_tENS_5tupleIJDpT_EEENSG_IJDpT0_EEE, symObjAddr: 0x13BD4, symBinAddr: 0x100017070, symSize: 0x54 }
  - { offset: 0x6F502, size: 0x8, addend: 0x0, symName: __ZNSt3__122__compressed_pair_elemIZN6parlay14ThreadSpecificINS1_8internal15block_allocator10local_listEEC1EvEUlmE_Li0ELb1EEC2B8ue170006IJRKS7_EJLm0EEEENS_21piecewise_construct_tENS_5tupleIJDpT_EEENS_15__tuple_indicesIJXspT0_EEEE, symObjAddr: 0x13C28, symBinAddr: 0x1000170C4, symSize: 0x38 }
  - { offset: 0x6F566, size: 0x8, addend: 0x0, symName: __ZNSt3__112__tuple_leafILm0ERKZN6parlay14ThreadSpecificINS1_8internal15block_allocator10local_listEEC1EvEUlmE_Lb0EE3getB8ue170006Ev, symObjAddr: 0x13C84, symBinAddr: 0x100017120, symSize: 0x18 }
  - { offset: 0x6F58C, size: 0x8, addend: 0x0, symName: __ZNSt3__117__compressed_pairIPNS_10__function6__funcIZN6parlay14ThreadSpecificINS3_8internal15block_allocator10local_listEEC1EvEUlmE_NS_9allocatorIS9_EEFS7_jEEENS_22__allocator_destructorINSA_ISD_EEEEE5firstB8ue170006Ev, symObjAddr: 0x13C9C, symBinAddr: 0x100017138, symSize: 0x24 }
  - { offset: 0x6F5B2, size: 0x8, addend: 0x0, symName: __ZNSt3__122__compressed_pair_elemIPNS_10__function6__funcIZN6parlay14ThreadSpecificINS3_8internal15block_allocator10local_listEEC1EvEUlmE_NS_9allocatorIS9_EEFS7_jEEELi0ELb0EE5__getB8ue170006Ev, symObjAddr: 0x13CC0, symBinAddr: 0x10001715C, symSize: 0x14 }
  - { offset: 0x6F5D8, size: 0x8, addend: 0x0, symName: __ZNSt3__110unique_ptrINS_10__function6__funcIZN6parlay14ThreadSpecificINS3_8internal15block_allocator10local_listEEC1EvEUlmE_NS_9allocatorIS9_EEFS7_jEEENS_22__allocator_destructorINSA_ISD_EEEEED2B8ue170006Ev, symObjAddr: 0x13CD4, symBinAddr: 0x100017170, symSize: 0x30 }
  - { offset: 0x6F602, size: 0x8, addend: 0x0, symName: __ZNSt3__110unique_ptrINS_10__function6__funcIZN6parlay14ThreadSpecificINS3_8internal15block_allocator10local_listEEC1EvEUlmE_NS_9allocatorIS9_EEFS7_jEEENS_22__allocator_destructorINSA_ISD_EEEEE5resetB8ue170006EPSD_, symObjAddr: 0x13D04, symBinAddr: 0x1000171A0, symSize: 0x78 }
  - { offset: 0x6F646, size: 0x8, addend: 0x0, symName: __ZNSt3__117__compressed_pairIPNS_10__function6__funcIZN6parlay14ThreadSpecificINS3_8internal15block_allocator10local_listEEC1EvEUlmE_NS_9allocatorIS9_EEFS7_jEEENS_22__allocator_destructorINSA_ISD_EEEEE6secondB8ue170006Ev, symObjAddr: 0x13D7C, symBinAddr: 0x100017218, symSize: 0x28 }
  - { offset: 0x6F66C, size: 0x8, addend: 0x0, symName: __ZNSt3__122__allocator_destructorINS_9allocatorINS_10__function6__funcIZN6parlay14ThreadSpecificINS4_8internal15block_allocator10local_listEEC1EvEUlmE_NS1_ISA_EEFS8_jEEEEEEclB8ue170006EPSD_, symObjAddr: 0x13DA4, symBinAddr: 0x100017240, symSize: 0x34 }
  - { offset: 0x6F6A0, size: 0x8, addend: 0x0, symName: __ZNSt3__122__compressed_pair_elemINS_22__allocator_destructorINS_9allocatorINS_10__function6__funcIZN6parlay14ThreadSpecificINS5_8internal15block_allocator10local_listEEC1EvEUlmE_NS2_ISB_EEFS9_jEEEEEEELi1ELb0EE5__getB8ue170006Ev, symObjAddr: 0x13DD8, symBinAddr: 0x100017274, symSize: 0x14 }
  - { offset: 0x6F6C6, size: 0x8, addend: 0x0, symName: __ZNSt3__116allocator_traitsINS_9allocatorINS_10__function6__funcIZN6parlay14ThreadSpecificINS4_8internal15block_allocator10local_listEEC1EvEUlmE_NS1_ISA_EEFS8_jEEEEEE10deallocateB8ue170006ERSE_PSD_m, symObjAddr: 0x13DEC, symBinAddr: 0x100017288, symSize: 0x34 }
  - { offset: 0x6F708, size: 0x8, addend: 0x0, symName: __ZNSt3__19allocatorINS_10__function6__funcIZN6parlay14ThreadSpecificINS3_8internal15block_allocator10local_listEEC1EvEUlmE_NS0_IS9_EEFS7_jEEEE10deallocateB8ue170006EPSC_m, symObjAddr: 0x13E20, symBinAddr: 0x1000172BC, symSize: 0x40 }
  - { offset: 0x6F74A, size: 0x8, addend: 0x0, symName: __ZNSt3__110__function6__funcIZN6parlay14ThreadSpecificINS2_8internal15block_allocator10local_listEEC1EvEUlmE_NS_9allocatorIS8_EEFS6_jEEC1B8ue170006ERKS8_RKSA_, symObjAddr: 0x13E60, symBinAddr: 0x1000172FC, symSize: 0x3C }
  - { offset: 0x6F792, size: 0x8, addend: 0x0, symName: __ZNSt3__110__function6__funcIZN6parlay14ThreadSpecificINS2_8internal15block_allocator10local_listEEC1EvEUlmE_NS_9allocatorIS8_EEFS6_jEEC2B8ue170006ERKS8_RKSA_, symObjAddr: 0x13E9C, symBinAddr: 0x100017338, symSize: 0x80 }
  - { offset: 0x6F7DA, size: 0x8, addend: 0x0, symName: __ZNSt3__110__function12__alloc_funcIZN6parlay14ThreadSpecificINS2_8internal15block_allocator10local_listEEC1EvEUlmE_NS_9allocatorIS8_EEFS6_jEEC1B8ue170006ERKS8_RKSA_, symObjAddr: 0x13F1C, symBinAddr: 0x1000173B8, symSize: 0x3C }
  - { offset: 0x6F820, size: 0x8, addend: 0x0, symName: __ZNSt3__110__function12__alloc_funcIZN6parlay14ThreadSpecificINS2_8internal15block_allocator10local_listEEC1EvEUlmE_NS_9allocatorIS8_EEFS6_jEEC2B8ue170006ERKS8_RKSA_, symObjAddr: 0x13F58, symBinAddr: 0x1000173F4, symSize: 0x5C }
  - { offset: 0x6F866, size: 0x8, addend: 0x0, symName: __ZNSt3__117__compressed_pairIZN6parlay14ThreadSpecificINS1_8internal15block_allocator10local_listEEC1EvEUlmE_NS_9allocatorIS7_EEEC1B8ue170006IJRKS7_EJRKS9_EEENS_21piecewise_construct_tENS_5tupleIJDpT_EEENSH_IJDpT0_EEE, symObjAddr: 0x13FE0, symBinAddr: 0x10001747C, symSize: 0x3C }
  - { offset: 0x6F8D0, size: 0x8, addend: 0x0, symName: __ZNSt3__15tupleIJRKNS_9allocatorIZN6parlay14ThreadSpecificINS2_8internal15block_allocator10local_listEEC1EvEUlmE_EEEEC1B8ue170006INS_4_AndELi0EEESB_, symObjAddr: 0x1401C, symBinAddr: 0x1000174B8, symSize: 0x34 }
  - { offset: 0x6F919, size: 0x8, addend: 0x0, symName: __ZNSt3__15tupleIJRKNS_9allocatorIZN6parlay14ThreadSpecificINS2_8internal15block_allocator10local_listEEC1EvEUlmE_EEEEC2B8ue170006INS_4_AndELi0EEESB_, symObjAddr: 0x14050, symBinAddr: 0x1000174EC, symSize: 0x34 }
  - { offset: 0x6F962, size: 0x8, addend: 0x0, symName: __ZNSt3__112__tuple_implINS_15__tuple_indicesIJLm0EEEEJRKNS_9allocatorIZN6parlay14ThreadSpecificINS4_8internal15block_allocator10local_listEEC1EvEUlmE_EEEEC1B8ue170006IJLm0EEJSD_EJEJEJSD_EEENS1_IJXspT_EEEENS_13__tuple_typesIJDpT0_EEENS1_IJXspT1_EEEENSH_IJDpT2_EEEDpOT3_, symObjAddr: 0x14084, symBinAddr: 0x100017520, symSize: 0x34 }
  - { offset: 0x6F9F4, size: 0x8, addend: 0x0, symName: __ZNSt3__112__tuple_implINS_15__tuple_indicesIJLm0EEEEJRKNS_9allocatorIZN6parlay14ThreadSpecificINS4_8internal15block_allocator10local_listEEC1EvEUlmE_EEEEC2B8ue170006IJLm0EEJSD_EJEJEJSD_EEENS1_IJXspT_EEEENS_13__tuple_typesIJDpT0_EEENS1_IJXspT1_EEEENSH_IJDpT2_EEEDpOT3_, symObjAddr: 0x140B8, symBinAddr: 0x100017554, symSize: 0x34 }
  - { offset: 0x6FA86, size: 0x8, addend: 0x0, symName: __ZNSt3__112__tuple_leafILm0ERKNS_9allocatorIZN6parlay14ThreadSpecificINS2_8internal15block_allocator10local_listEEC1EvEUlmE_EELb0EEC2B8ue170006ISB_vEEOT_, symObjAddr: 0x140EC, symBinAddr: 0x100017588, symSize: 0x20 }
  - { offset: 0x6FACA, size: 0x8, addend: 0x0, symName: __ZNSt3__117__compressed_pairIZN6parlay14ThreadSpecificINS1_8internal15block_allocator10local_listEEC1EvEUlmE_NS_9allocatorIS7_EEEC2B8ue170006IJRKS7_EJRKS9_EEENS_21piecewise_construct_tENS_5tupleIJDpT_EEENSH_IJDpT0_EEE, symObjAddr: 0x1410C, symBinAddr: 0x1000175A8, symSize: 0x54 }
  - { offset: 0x6FB34, size: 0x8, addend: 0x0, symName: __ZNSt3__122__compressed_pair_elemINS_9allocatorIZN6parlay14ThreadSpecificINS2_8internal15block_allocator10local_listEEC1EvEUlmE_EELi1ELb1EEC2B8ue170006IJRKS9_EJLm0EEEENS_21piecewise_construct_tENS_5tupleIJDpT_EEENS_15__tuple_indicesIJXspT0_EEEE, symObjAddr: 0x14160, symBinAddr: 0x1000175FC, symSize: 0x38 }
  - { offset: 0x6FB98, size: 0x8, addend: 0x0, symName: __ZNSt3__112__tuple_leafILm0ERKNS_9allocatorIZN6parlay14ThreadSpecificINS2_8internal15block_allocator10local_listEEC1EvEUlmE_EELb0EE3getB8ue170006Ev, symObjAddr: 0x141BC, symBinAddr: 0x100017658, symSize: 0x18 }
  - { offset: 0x6FBBE, size: 0x8, addend: 0x0, symName: __ZNSt3__110__function12__alloc_funcIZN6parlay14ThreadSpecificINS2_8internal15block_allocator10local_listEEC1EvEUlmE_NS_9allocatorIS8_EEFS6_jEE7destroyB8ue170006Ev, symObjAddr: 0x141D4, symBinAddr: 0x100017670, symSize: 0x10 }
  - { offset: 0x6FBE4, size: 0x8, addend: 0x0, symName: __ZNSt3__110__function12__alloc_funcIZN6parlay14ThreadSpecificINS2_8internal15block_allocator10local_listEEC1EvEUlmE_NS_9allocatorIS8_EEFS6_jEEclB8ue170006EOj, symObjAddr: 0x141E4, symBinAddr: 0x100017680, symSize: 0x38 }
  - { offset: 0x6FC18, size: 0x8, addend: 0x0, symName: __ZNSt3__128__invoke_void_return_wrapperIN6parlay8internal15block_allocator10local_listELb0EE6__callB8ue170006IJRZNS1_14ThreadSpecificIS4_EC1EvEUlmE_jEEES4_DpOT_, symObjAddr: 0x1421C, symBinAddr: 0x1000176B8, symSize: 0x2C }
  - { offset: 0x6FC5B, size: 0x8, addend: 0x0, symName: __ZNSt3__117__compressed_pairIZN6parlay14ThreadSpecificINS1_8internal15block_allocator10local_listEEC1EvEUlmE_NS_9allocatorIS7_EEE5firstB8ue170006Ev, symObjAddr: 0x14248, symBinAddr: 0x1000176E4, symSize: 0x24 }
  - { offset: 0x6FC86, size: 0x8, addend: 0x0, symName: __ZZN6parlay14ThreadSpecificINS_8internal15block_allocator10local_listEEC1EvENKUlmE_clEm, symObjAddr: 0x142A0, symBinAddr: 0x10001773C, symSize: 0x30 }
  - { offset: 0x6FCBA, size: 0x8, addend: 0x0, symName: __ZN6parlay8internal15block_allocator10local_listC1Ev, symObjAddr: 0x142D0, symBinAddr: 0x10001776C, symSize: 0x2C }
  - { offset: 0x6FCE4, size: 0x8, addend: 0x0, symName: __ZN6parlay8internal15block_allocator10local_listC2Ev, symObjAddr: 0x142FC, symBinAddr: 0x100017798, symSize: 0x20 }
  - { offset: 0x6FD0E, size: 0x8, addend: 0x0, symName: __ZNSt3__122__compressed_pair_elemIZN6parlay14ThreadSpecificINS1_8internal15block_allocator10local_listEEC1EvEUlmE_Li0ELb1EE5__getB8ue170006Ev, symObjAddr: 0x1431C, symBinAddr: 0x1000177B8, symSize: 0x14 }
  - { offset: 0x6FD34, size: 0x8, addend: 0x0, symName: __ZNSt3__15arrayINS_6atomicIPN6parlay8internal13UninitializedINS3_15block_allocator10local_listEEEEELm25EEixB8ue170006Em, symObjAddr: 0x14330, symBinAddr: 0x1000177CC, symSize: 0x20 }
  - { offset: 0x6FD68, size: 0x8, addend: 0x0, symName: __ZNSt3__113__atomic_baseIPN6parlay8internal13UninitializedINS2_15block_allocator10local_listEEELb0EE5storeB8ue170006ES7_NS_12memory_orderE, symObjAddr: 0x14350, symBinAddr: 0x1000177EC, symSize: 0x34 }
  - { offset: 0x6FDAA, size: 0x8, addend: 0x0, symName: __ZN6parlay8internal13UninitializedINS0_15block_allocator10local_listEEC1Ev, symObjAddr: 0x14384, symBinAddr: 0x100017820, symSize: 0x2C }
  - { offset: 0x6FDD4, size: 0x8, addend: 0x0, symName: __ZNSt3__15arrayINS_6atomicIPN6parlay8internal13UninitializedINS3_15block_allocator10local_listEEEEELm25EE5beginB8ue170006Ev, symObjAddr: 0x143E4, symBinAddr: 0x100017880, symSize: 0x24 }
  - { offset: 0x6FDFA, size: 0x8, addend: 0x0, symName: __ZNSt3__15arrayINS_6atomicIPN6parlay8internal13UninitializedINS3_15block_allocator10local_listEEEEELm25EE3endB8ue170006Ev, symObjAddr: 0x14408, symBinAddr: 0x1000178A4, symSize: 0x28 }
  - { offset: 0x6FE20, size: 0x8, addend: 0x0, symName: __ZNKSt3__113__atomic_baseIPN6parlay8internal13UninitializedINS2_15block_allocator10local_listEEELb0EE4loadB8ue170006ENS_12memory_orderE, symObjAddr: 0x14430, symBinAddr: 0x1000178CC, symSize: 0x2C }
  - { offset: 0x6FE54, size: 0x8, addend: 0x0, symName: __ZN6parlay8internal13UninitializedINS0_15block_allocator10local_listEE3getEv, symObjAddr: 0x1445C, symBinAddr: 0x1000178F8, symSize: 0x14 }
  - { offset: 0x6FE7A, size: 0x8, addend: 0x0, symName: __ZNKSt3__18functionIFN6parlay8internal15block_allocator10local_listEjEEclEj, symObjAddr: 0x14470, symBinAddr: 0x10001790C, symSize: 0x30 }
  - { offset: 0x6FEB1, size: 0x8, addend: 0x0, symName: __ZN6parlay8internal13UninitializedINS0_15block_allocator10local_listEEC2Ev, symObjAddr: 0x14524, symBinAddr: 0x1000179C0, symSize: 0x14 }
  - { offset: 0x6FEDB, size: 0x8, addend: 0x0, symName: __ZNSt3__16atomicIPN6parlay8internal13UninitializedINS2_15block_allocator10local_listEEEEaSB8ue170006ES7_, symObjAddr: 0x1462C, symBinAddr: 0x100017AC8, symSize: 0x34 }
  - { offset: 0x6FF0F, size: 0x8, addend: 0x0, symName: __ZNSt3__15arrayINS_6atomicIPN6parlay8internal13UninitializedINS3_15block_allocator10local_listEEEEELm25EE4dataB8ue170006Ev, symObjAddr: 0x14660, symBinAddr: 0x100017AFC, symSize: 0x14 }
  - { offset: 0x6FF35, size: 0x8, addend: 0x0, symName: __ZNKSt3__110__function12__value_funcIFN6parlay8internal15block_allocator10local_listEjEEclB8ue170006EOj, symObjAddr: 0x146F4, symBinAddr: 0x100017B90, symSize: 0x60 }
  - { offset: 0x6FF6A, size: 0x8, addend: 0x0, symName: __ZNSt3__18functionIFN6parlay8internal15block_allocator10local_listEjEED2Ev, symObjAddr: 0x14754, symBinAddr: 0x100017BF0, symSize: 0x2C }
  - { offset: 0x6FF96, size: 0x8, addend: 0x0, symName: __ZNSt3__110__function12__value_funcIFN6parlay8internal15block_allocator10local_listEjEED1B8ue170006Ev, symObjAddr: 0x14780, symBinAddr: 0x100017C1C, symSize: 0x2C }
  - { offset: 0x6FFC0, size: 0x8, addend: 0x0, symName: __ZNSt3__110__function12__value_funcIFN6parlay8internal15block_allocator10local_listEjEED2B8ue170006Ev, symObjAddr: 0x147AC, symBinAddr: 0x100017C48, symSize: 0x90 }
  - { offset: 0x6FFEA, size: 0x8, addend: 0x0, symName: __ZN6parlay14ThreadSpecificINS_8internal15block_allocator10local_listEED2Ev, symObjAddr: 0x1483C, symBinAddr: 0x100017CD8, symSize: 0x11C }
  - { offset: 0x70065, size: 0x8, addend: 0x0, symName: __ZNKSt3__113__atomic_baseIPN6parlay8internal13UninitializedINS2_15block_allocator10local_listEEELb0EEcvS7_B8ue170006Ev, symObjAddr: 0x14958, symBinAddr: 0x100017DF4, symSize: 0x28 }
  - { offset: 0x7008B, size: 0x8, addend: 0x0, symName: __ZN6parlay8internal13UninitializedINS0_15block_allocator10local_listEED1Ev, symObjAddr: 0x14980, symBinAddr: 0x100017E1C, symSize: 0x2C }
  - { offset: 0x700B5, size: 0x8, addend: 0x0, symName: __ZN6parlay8internal13UninitializedINS0_15block_allocator10local_listEED2Ev, symObjAddr: 0x149AC, symBinAddr: 0x100017E48, symSize: 0x14 }
  - { offset: 0x700DF, size: 0x8, addend: 0x0, symName: __ZN6parlay8internal12hazptr_stackIPNS0_15block_allocator5blockEED2Ev, symObjAddr: 0x149C0, symBinAddr: 0x100017E5C, symSize: 0x8C }
  - { offset: 0x70133, size: 0x8, addend: 0x0, symName: __ZNKSt3__113__atomic_baseIPN6parlay8internal12hazptr_stackIPNS2_15block_allocator5blockEE4NodeELb0EE4loadB8ue170006ENS_12memory_orderE, symObjAddr: 0x14A4C, symBinAddr: 0x100017EE8, symSize: 0x2C }
  - { offset: 0x70167, size: 0x8, addend: 0x0, symName: __ZN6parlay8internal12hazptr_stackIPSt4byteED2Ev, symObjAddr: 0x14AF8, symBinAddr: 0x100017F94, symSize: 0x8C }
  - { offset: 0x701BB, size: 0x8, addend: 0x0, symName: __ZNKSt3__113__atomic_baseIPN6parlay8internal12hazptr_stackIPSt4byteE4NodeELb0EE4loadB8ue170006ENS_12memory_orderE, symObjAddr: 0x14B84, symBinAddr: 0x100018020, symSize: 0x2C }
  - { offset: 0x701EF, size: 0x8, addend: 0x0, symName: __ZNSt3__110unique_ptrIA_N6parlay8internal15block_allocatorENS2_20unique_array_deleterIS3_EEEC2B8ue170006IPS3_Lb1EvvEET_NS_16__dependent_typeINS_27__unique_ptr_deleter_sfinaeIS6_EEXT0_EE20__good_rval_ref_typeE, symObjAddr: 0x14C30, symBinAddr: 0x1000180CC, symSize: 0x48 }
  - { offset: 0x7024E, size: 0x8, addend: 0x0, symName: __ZNSt3__117__compressed_pairIPN6parlay8internal15block_allocatorENS2_20unique_array_deleterIS3_EEEC1B8ue170006IRS4_S6_EEOT_OT0_, symObjAddr: 0x14C78, symBinAddr: 0x100018114, symSize: 0x3C }
  - { offset: 0x702A6, size: 0x8, addend: 0x0, symName: __ZNSt3__117__compressed_pairIPN6parlay8internal15block_allocatorENS2_20unique_array_deleterIS3_EEEC2B8ue170006IRS4_S6_EEOT_OT0_, symObjAddr: 0x14CB4, symBinAddr: 0x100018150, symSize: 0x48 }
  - { offset: 0x702FE, size: 0x8, addend: 0x0, symName: __ZNSt3__122__compressed_pair_elemIPN6parlay8internal15block_allocatorELi0ELb0EEC2B8ue170006IRS4_vEEOT_, symObjAddr: 0x14CFC, symBinAddr: 0x100018198, symSize: 0x24 }
  - { offset: 0x70341, size: 0x8, addend: 0x0, symName: __ZNSt3__110unique_ptrIA_N6parlay8internal15block_allocatorENS2_20unique_array_deleterIS3_EEE5resetB8ue170006IPS3_EENS_9enable_ifIXsr28_CheckArrayPointerConversionIT_EE5valueEvE4typeESB_, symObjAddr: 0x14D20, symBinAddr: 0x1000181BC, symSize: 0x80 }
  - { offset: 0x7038E, size: 0x8, addend: 0x0, symName: __ZNSt3__110unique_ptrIA_N6parlay8internal15block_allocatorENS2_20unique_array_deleterIS3_EEE7releaseB8ue170006Ev, symObjAddr: 0x14DA0, symBinAddr: 0x10001823C, symSize: 0x44 }
  - { offset: 0x703C3, size: 0x8, addend: 0x0, symName: __ZNSt3__110unique_ptrIA_N6parlay8internal15block_allocatorENS2_20unique_array_deleterIS3_EEE11get_deleterB8ue170006Ev, symObjAddr: 0x14DE4, symBinAddr: 0x100018280, symSize: 0x24 }
  - { offset: 0x703E9, size: 0x8, addend: 0x0, symName: __ZNSt3__117__compressed_pairIPN6parlay8internal15block_allocatorENS2_20unique_array_deleterIS3_EEE6secondB8ue170006Ev, symObjAddr: 0x14E08, symBinAddr: 0x1000182A4, symSize: 0x28 }
  - { offset: 0x7040F, size: 0x8, addend: 0x0, symName: __ZNSt3__117__compressed_pairIPN6parlay8internal15block_allocatorENS2_20unique_array_deleterIS3_EEE5firstB8ue170006Ev, symObjAddr: 0x14E30, symBinAddr: 0x1000182CC, symSize: 0x24 }
  - { offset: 0x70435, size: 0x8, addend: 0x0, symName: __ZN6parlay8internal20unique_array_deleterINS0_15block_allocatorEEclEPS2_, symObjAddr: 0x14E54, symBinAddr: 0x1000182F0, symSize: 0x9C }
  - { offset: 0x70487, size: 0x8, addend: 0x0, symName: __ZNSt3__122__compressed_pair_elemIPN6parlay8internal15block_allocatorELi0ELb0EE5__getB8ue170006Ev, symObjAddr: 0x14EF0, symBinAddr: 0x10001838C, symSize: 0x14 }
  - { offset: 0x704AD, size: 0x8, addend: 0x0, symName: __ZN6parlay8internal15block_allocatorD1Ev, symObjAddr: 0x14F04, symBinAddr: 0x1000183A0, symSize: 0x2C }
  - { offset: 0x704D7, size: 0x8, addend: 0x0, symName: __ZN6parlay8internal15block_allocatorD2Ev, symObjAddr: 0x14F30, symBinAddr: 0x1000183CC, symSize: 0x94 }
  - { offset: 0x70515, size: 0x8, addend: 0x0, symName: __ZN6parlay8internal15block_allocator5clearEv, symObjAddr: 0x14FC4, symBinAddr: 0x100018460, symSize: 0xF0 }
  - { offset: 0x70579, size: 0x8, addend: 0x0, symName: __ZN6parlay8internal15block_allocator15num_used_blocksEv, symObjAddr: 0x150B4, symBinAddr: 0x100018550, symSize: 0x68 }
  - { offset: 0x705E1, size: 0x8, addend: 0x0, symName: __ZN6parlay14ThreadSpecificINS_8internal15block_allocator10local_listEE8for_eachIZNS2_5clearEvEUlOT_E_EEvS7_, symObjAddr: 0x1511C, symBinAddr: 0x1000185B8, symSize: 0x180 }
  - { offset: 0x7069C, size: 0x8, addend: 0x0, symName: __ZNSt3__18optionalIPSt4byteEC1B8ue170006Ev, symObjAddr: 0x1529C, symBinAddr: 0x100018738, symSize: 0x2C }
  - { offset: 0x706C6, size: 0x8, addend: 0x0, symName: __ZN6parlay8internal12hazptr_stackIPSt4byteE3popEv, symObjAddr: 0x152C8, symBinAddr: 0x100018764, symSize: 0xAC }
  - { offset: 0x70708, size: 0x8, addend: 0x0, symName: __ZNKSt3__18optionalIPSt4byteEcvbB8ue170006Ev, symObjAddr: 0x15374, symBinAddr: 0x100018810, symSize: 0x28 }
  - { offset: 0x7072E, size: 0x8, addend: 0x0, symName: __ZNRSt3__18optionalIPSt4byteEdeB8ue170006Ev, symObjAddr: 0x1539C, symBinAddr: 0x100018838, symSize: 0x24 }
  - { offset: 0x70754, size: 0x8, addend: 0x0, symName: __ZN6parlay8internal12hazptr_stackIPNS0_15block_allocator5blockEE5clearEv, symObjAddr: 0x153C0, symBinAddr: 0x10001885C, symSize: 0x50 }
  - { offset: 0x7077A, size: 0x8, addend: 0x0, symName: __ZNSt3__113__atomic_baseImLb0EE5storeB8ue170006EmNS_12memory_orderE, symObjAddr: 0x15410, symBinAddr: 0x1000188AC, symSize: 0x34 }
  - { offset: 0x707BC, size: 0x8, addend: 0x0, symName: __ZNK6parlay8internal12hazptr_stackIPNS0_15block_allocator5blockEE4sizeEv, symObjAddr: 0x15444, symBinAddr: 0x1000188E0, symSize: 0xA4 }
  - { offset: 0x70804, size: 0x8, addend: 0x0, symName: __ZN6parlay14ThreadSpecificINS_8internal15block_allocator10local_listEE8for_eachIZNS2_15num_used_blocksEvEUlOT_E_EEvS7_, symObjAddr: 0x154E8, symBinAddr: 0x100018984, symSize: 0x180 }
  - { offset: 0x708BF, size: 0x8, addend: 0x0, symName: __ZN6parlay8internal24intrusive_acquire_retireINS0_12hazptr_stackIPNS0_15block_allocator5blockEE4NodeENSt3__114default_deleteIS7_EELm1EE7acquireIPS7_EET_RKNS8_6atomicISE_EE, symObjAddr: 0x15668, symBinAddr: 0x100018B04, symSize: 0x84 }
  - { offset: 0x70918, size: 0x8, addend: 0x0, symName: __ZN6parlay8internal24intrusive_acquire_retireINS0_12hazptr_stackIPNS0_15block_allocator5blockEE4NodeENSt3__114default_deleteIS7_EELm1EE7releaseEv, symObjAddr: 0x156EC, symBinAddr: 0x100018B88, symSize: 0x30 }
  - { offset: 0x7093E, size: 0x8, addend: 0x0, symName: __ZN6parlay14ThreadSpecificINS_8internal24intrusive_acquire_retireINS1_12hazptr_stackIPNS1_15block_allocator5blockEE4NodeENSt3__114default_deleteIS8_EELm1EE10ThreadDataEEptEv, symObjAddr: 0x1571C, symBinAddr: 0x100018BB8, symSize: 0x24 }
  - { offset: 0x70964, size: 0x8, addend: 0x0, symName: __ZNSt3__113__atomic_baseIPN6parlay8internal12hazptr_stackIPNS2_15block_allocator5blockEE4NodeELb0EE5storeB8ue170006ES9_NS_12memory_orderE, symObjAddr: 0x15740, symBinAddr: 0x100018BDC, symSize: 0x34 }
  - { offset: 0x709A6, size: 0x8, addend: 0x0, symName: __ZN6parlay14ThreadSpecificINS_8internal24intrusive_acquire_retireINS1_12hazptr_stackIPNS1_15block_allocator5blockEE4NodeENSt3__114default_deleteIS8_EELm1EE10ThreadDataEE3getEv, symObjAddr: 0x15774, symBinAddr: 0x100018C10, symSize: 0x4C }
  - { offset: 0x709DA, size: 0x8, addend: 0x0, symName: __ZN6parlay14ThreadSpecificINS_8internal24intrusive_acquire_retireINS1_12hazptr_stackIPNS1_15block_allocator5blockEE4NodeENSt3__114default_deleteIS8_EELm1EE10ThreadDataEE12get_by_indexEmm, symObjAddr: 0x157C0, symBinAddr: 0x100018C5C, symSize: 0x88 }
  - { offset: 0x70A1E, size: 0x8, addend: 0x0, symName: __ZN6parlay14ThreadSpecificINS_8internal24intrusive_acquire_retireINS1_12hazptr_stackIPNS1_15block_allocator5blockEE4NodeENSt3__114default_deleteIS8_EELm1EE10ThreadDataEE20get_by_index_nocheckEmm, symObjAddr: 0x15848, symBinAddr: 0x100018CE4, symSize: 0x98 }
  - { offset: 0x70A62, size: 0x8, addend: 0x0, symName: __ZN6parlay14ThreadSpecificINS_8internal15block_allocator10local_listEE14get_chunk_sizeEm, symObjAddr: 0x15964, symBinAddr: 0x100018E00, symSize: 0xA0 }
  - { offset: 0x70A86, size: 0x8, addend: 0x0, symName: __ZNK6parlay14ThreadSpecificINS_8internal15block_allocator10local_listEE19ensure_chunk_existsEm, symObjAddr: 0x15A04, symBinAddr: 0x100018EA0, symSize: 0x1DC }
  - { offset: 0x70B16, size: 0x8, addend: 0x0, symName: __ZZN6parlay8internal15block_allocator15num_used_blocksEvENKUlOT_E_clIRNS1_10local_listEEEDaS3_, symObjAddr: 0x15BE0, symBinAddr: 0x10001907C, symSize: 0x30 }
  - { offset: 0x70B57, size: 0x8, addend: 0x0, symName: __ZN6parlay8internal13UninitializedINS0_15block_allocator10local_listEEdeEv, symObjAddr: 0x15C10, symBinAddr: 0x1000190AC, symSize: 0x14 }
  - { offset: 0x70B87, size: 0x8, addend: 0x0, symName: __ZZN6parlay8internal15block_allocator5clearEvENKUlOT_E_clIRNS1_10local_listEEEDaS3_, symObjAddr: 0x15C24, symBinAddr: 0x1000190C0, symSize: 0x1C }
  - { offset: 0x70BC8, size: 0x8, addend: 0x0, symName: __ZNSt3__18optionalIPSt4byteEC2B8ue170006Ev, symObjAddr: 0x15C40, symBinAddr: 0x1000190DC, symSize: 0x2C }
  - { offset: 0x70BF7, size: 0x8, addend: 0x0, symName: __ZNSt3__127__optional_move_assign_baseIPSt4byteLb1EEC2Ev, symObjAddr: 0x15C6C, symBinAddr: 0x100019108, symSize: 0x2C }
  - { offset: 0x70C29, size: 0x8, addend: 0x0, symName: __ZNSt3__127__optional_copy_assign_baseIPSt4byteLb1EEC2Ev, symObjAddr: 0x15C98, symBinAddr: 0x100019134, symSize: 0x2C }
  - { offset: 0x70C5B, size: 0x8, addend: 0x0, symName: __ZNSt3__120__optional_move_baseIPSt4byteLb1EEC2Ev, symObjAddr: 0x15CC4, symBinAddr: 0x100019160, symSize: 0x2C }
  - { offset: 0x70C8D, size: 0x8, addend: 0x0, symName: __ZNSt3__120__optional_copy_baseIPSt4byteLb1EEC2Ev, symObjAddr: 0x15CF0, symBinAddr: 0x10001918C, symSize: 0x2C }
  - { offset: 0x70CBA, size: 0x8, addend: 0x0, symName: __ZNSt3__123__optional_storage_baseIPSt4byteLb0EEC2Ev, symObjAddr: 0x15D1C, symBinAddr: 0x1000191B8, symSize: 0x2C }
  - { offset: 0x70CE7, size: 0x8, addend: 0x0, symName: __ZNSt3__124__optional_destruct_baseIPSt4byteLb1EEC2B8ue170006Ev, symObjAddr: 0x15D48, symBinAddr: 0x1000191E4, symSize: 0x1C }
  - { offset: 0x70D11, size: 0x8, addend: 0x0, symName: __ZN6parlay8internal24intrusive_acquire_retireINS0_12hazptr_stackIPSt4byteE4NodeENSt3__114default_deleteIS6_EELm1EE7acquireIPS6_EET_RKNS7_6atomicISD_EE, symObjAddr: 0x15D64, symBinAddr: 0x100019200, symSize: 0x84 }
  - { offset: 0x70D6A, size: 0x8, addend: 0x0, symName: __ZNSt3__113__atomic_baseIPN6parlay8internal12hazptr_stackIPSt4byteE4NodeELb0EE21compare_exchange_weakB8ue170006ERS8_S8_NS_12memory_orderE, symObjAddr: 0x15DE8, symBinAddr: 0x100019284, symSize: 0x44 }
  - { offset: 0x70DBA, size: 0x8, addend: 0x0, symName: __ZN6parlay8internal24intrusive_acquire_retireINS0_12hazptr_stackIPSt4byteE4NodeENSt3__114default_deleteIS6_EELm1EE6retireIPS6_EEvT_, symObjAddr: 0x15E5C, symBinAddr: 0x1000192F8, symSize: 0x44 }
  - { offset: 0x70DF7, size: 0x8, addend: 0x0, symName: __ZN6parlay8internal24intrusive_acquire_retireINS0_12hazptr_stackIPSt4byteE4NodeENSt3__114default_deleteIS6_EELm1EE7releaseEv, symObjAddr: 0x15EA0, symBinAddr: 0x10001933C, symSize: 0x30 }
  - { offset: 0x70E1D, size: 0x8, addend: 0x0, symName: __ZN6parlay14ThreadSpecificINS_8internal24intrusive_acquire_retireINS1_12hazptr_stackIPSt4byteE4NodeENSt3__114default_deleteIS7_EELm1EE10ThreadDataEEptEv, symObjAddr: 0x15ED0, symBinAddr: 0x10001936C, symSize: 0x24 }
  - { offset: 0x70E43, size: 0x8, addend: 0x0, symName: __ZNSt3__113__atomic_baseIPN6parlay8internal12hazptr_stackIPSt4byteE4NodeELb0EE5storeB8ue170006ES8_NS_12memory_orderE, symObjAddr: 0x15EF4, symBinAddr: 0x100019390, symSize: 0x34 }
  - { offset: 0x70E85, size: 0x8, addend: 0x0, symName: __ZN6parlay14ThreadSpecificINS_8internal24intrusive_acquire_retireINS1_12hazptr_stackIPSt4byteE4NodeENSt3__114default_deleteIS7_EELm1EE10ThreadDataEE3getEv, symObjAddr: 0x15F28, symBinAddr: 0x1000193C4, symSize: 0x4C }
  - { offset: 0x70EB9, size: 0x8, addend: 0x0, symName: __ZN6parlay14ThreadSpecificINS_8internal24intrusive_acquire_retireINS1_12hazptr_stackIPSt4byteE4NodeENSt3__114default_deleteIS7_EELm1EE10ThreadDataEE12get_by_indexEmm, symObjAddr: 0x15F74, symBinAddr: 0x100019410, symSize: 0x88 }
  - { offset: 0x70EFD, size: 0x8, addend: 0x0, symName: __ZN6parlay14ThreadSpecificINS_8internal24intrusive_acquire_retireINS1_12hazptr_stackIPSt4byteE4NodeENSt3__114default_deleteIS7_EELm1EE10ThreadDataEE20get_by_index_nocheckEmm, symObjAddr: 0x15FFC, symBinAddr: 0x100019498, symSize: 0x98 }
  - { offset: 0x70F47, size: 0x8, addend: 0x0, symName: __ZNSt3__18optionalIPSt4byteEC1B8ue170006IS2_Li0EEEOT_, symObjAddr: 0x1676C, symBinAddr: 0x100019C08, symSize: 0x34 }
  - { offset: 0x70F8F, size: 0x8, addend: 0x0, symName: __ZNSt3__18optionalIPSt4byteEC2B8ue170006IS2_Li0EEEOT_, symObjAddr: 0x167A0, symBinAddr: 0x100019C3C, symSize: 0x34 }
  - { offset: 0x70FD7, size: 0x8, addend: 0x0, symName: __ZNSt3__127__optional_move_assign_baseIPSt4byteLb1EECI2NS_24__optional_destruct_baseIS2_Lb1EEEIJS2_EEENS_10in_place_tEDpOT_, symObjAddr: 0x167D4, symBinAddr: 0x100019C70, symSize: 0x34 }
  - { offset: 0x71016, size: 0x8, addend: 0x0, symName: __ZNSt3__127__optional_copy_assign_baseIPSt4byteLb1EECI2NS_24__optional_destruct_baseIS2_Lb1EEEIJS2_EEENS_10in_place_tEDpOT_, symObjAddr: 0x16808, symBinAddr: 0x100019CA4, symSize: 0x34 }
  - { offset: 0x71055, size: 0x8, addend: 0x0, symName: __ZNSt3__120__optional_move_baseIPSt4byteLb1EECI2NS_24__optional_destruct_baseIS2_Lb1EEEIJS2_EEENS_10in_place_tEDpOT_, symObjAddr: 0x1683C, symBinAddr: 0x100019CD8, symSize: 0x34 }
  - { offset: 0x71094, size: 0x8, addend: 0x0, symName: __ZNSt3__120__optional_copy_baseIPSt4byteLb1EECI2NS_24__optional_destruct_baseIS2_Lb1EEEIJS2_EEENS_10in_place_tEDpOT_, symObjAddr: 0x16870, symBinAddr: 0x100019D0C, symSize: 0x34 }
  - { offset: 0x710D3, size: 0x8, addend: 0x0, symName: __ZNSt3__123__optional_storage_baseIPSt4byteLb0EECI2NS_24__optional_destruct_baseIS2_Lb1EEEIJS2_EEENS_10in_place_tEDpOT_, symObjAddr: 0x168A4, symBinAddr: 0x100019D40, symSize: 0x34 }
  - { offset: 0x71112, size: 0x8, addend: 0x0, symName: __ZNSt3__124__optional_destruct_baseIPSt4byteLb1EEC2B8ue170006IJS2_EEENS_10in_place_tEDpOT_, symObjAddr: 0x168D8, symBinAddr: 0x100019D74, symSize: 0x2C }
  - { offset: 0x71161, size: 0x8, addend: 0x0, symName: __ZN6parlay8internal24intrusive_acquire_retireINS0_12hazptr_stackIPSt4byteE4NodeENSt3__114default_deleteIS6_EELm1EE11RetiredList4pushEPS6_, symObjAddr: 0x16904, symBinAddr: 0x100019DA0, symSize: 0x58 }
  - { offset: 0x71195, size: 0x8, addend: 0x0, symName: __ZN6parlay8internal24intrusive_acquire_retireINS0_12hazptr_stackIPSt4byteE4NodeENSt3__114default_deleteIS6_EELm1EE18work_toward_ejectsEm, symObjAddr: 0x1695C, symBinAddr: 0x100019DF8, symSize: 0x1AC }
  - { offset: 0x71378, size: 0x8, addend: 0x0, symName: __ZNSt3__113unordered_setIPN6parlay8internal12hazptr_stackIPSt4byteE4NodeENS_4hashIS8_EENS_8equal_toIS8_EENS_9allocatorIS8_EEEC1B8ue170006Ev, symObjAddr: 0x16B3C, symBinAddr: 0x100019FD8, symSize: 0x2C }
  - { offset: 0x713A8, size: 0x8, addend: 0x0, symName: __ZN6parlay8internal24intrusive_acquire_retireINS0_12hazptr_stackIPSt4byteE4NodeENSt3__114default_deleteIS6_EELm1EE10scan_slotsIZNSA_18work_toward_ejectsEmEUlPS6_E_EEvOT_, symObjAddr: 0x16B68, symBinAddr: 0x10001A004, symSize: 0x44 }
  - { offset: 0x71419, size: 0x8, addend: 0x0, symName: __ZN6parlay8internal24intrusive_acquire_retireINS0_12hazptr_stackIPSt4byteE4NodeENSt3__114default_deleteIS6_EELm1EE11RetiredList7cleanupIZNSA_18work_toward_ejectsEmEUlPS6_E0_EEvOT_RS9_, symObjAddr: 0x16BAC, symBinAddr: 0x10001A048, symSize: 0x18C }
  - { offset: 0x714C6, size: 0x8, addend: 0x0, symName: __ZNSt3__113unordered_setIPN6parlay8internal12hazptr_stackIPSt4byteE4NodeENS_4hashIS8_EENS_8equal_toIS8_EENS_9allocatorIS8_EEED1B8ue170006Ev, symObjAddr: 0x16D38, symBinAddr: 0x10001A1D4, symSize: 0x2C }
  - { offset: 0x714F0, size: 0x8, addend: 0x0, symName: __ZNSt3__113unordered_setIPN6parlay8internal12hazptr_stackIPSt4byteE4NodeENS_4hashIS8_EENS_8equal_toIS8_EENS_9allocatorIS8_EEEC2B8ue170006Ev, symObjAddr: 0x16D64, symBinAddr: 0x10001A200, symSize: 0x2C }
  - { offset: 0x7151A, size: 0x8, addend: 0x0, symName: __ZNSt3__112__hash_tableIPN6parlay8internal12hazptr_stackIPSt4byteE4NodeENS_4hashIS8_EENS_8equal_toIS8_EENS_9allocatorIS8_EEEC1Ev, symObjAddr: 0x16D90, symBinAddr: 0x10001A22C, symSize: 0x2C }
  - { offset: 0x71546, size: 0x8, addend: 0x0, symName: __ZNSt3__112__hash_tableIPN6parlay8internal12hazptr_stackIPSt4byteE4NodeENS_4hashIS8_EENS_8equal_toIS8_EENS_9allocatorIS8_EEEC2Ev, symObjAddr: 0x16DBC, symBinAddr: 0x10001A258, symSize: 0x7C }
  - { offset: 0x71572, size: 0x8, addend: 0x0, symName: __ZNSt3__110unique_ptrIA_PNS_16__hash_node_baseIPNS_11__hash_nodeIPN6parlay8internal12hazptr_stackIPSt4byteE4NodeEPvEEEENS_25__bucket_list_deallocatorINS_9allocatorISF_EEEEEC1B8ue170006ILb1EvEEv, symObjAddr: 0x16E38, symBinAddr: 0x10001A2D4, symSize: 0x2C }
  - { offset: 0x715A8, size: 0x8, addend: 0x0, symName: __ZNSt3__117__compressed_pairINS_16__hash_node_baseIPNS_11__hash_nodeIPN6parlay8internal12hazptr_stackIPSt4byteE4NodeEPvEEEENS_9allocatorISC_EEEC1B8ue170006ILb1EvEEv, symObjAddr: 0x16E64, symBinAddr: 0x10001A300, symSize: 0x2C }
  - { offset: 0x715E4, size: 0x8, addend: 0x0, symName: __ZNSt3__117__compressed_pairImNS_4hashIPN6parlay8internal12hazptr_stackIPSt4byteE4NodeEEEEC1B8ue170006IiNS_18__default_init_tagEEEOT_OT0_, symObjAddr: 0x16E90, symBinAddr: 0x10001A32C, symSize: 0x3C }
  - { offset: 0x71642, size: 0x8, addend: 0x0, symName: __ZNSt3__117__compressed_pairIfNS_8equal_toIPN6parlay8internal12hazptr_stackIPSt4byteE4NodeEEEEC1B8ue170006IfNS_18__default_init_tagEEEOT_OT0_, symObjAddr: 0x16ECC, symBinAddr: 0x10001A368, symSize: 0x3C }
  - { offset: 0x7169A, size: 0x8, addend: 0x0, symName: __ZNSt3__110unique_ptrIA_PNS_16__hash_node_baseIPNS_11__hash_nodeIPN6parlay8internal12hazptr_stackIPSt4byteE4NodeEPvEEEENS_25__bucket_list_deallocatorINS_9allocatorISF_EEEEEC2B8ue170006ILb1EvEEv, symObjAddr: 0x16F08, symBinAddr: 0x10001A3A4, symSize: 0x3C }
  - { offset: 0x716D0, size: 0x8, addend: 0x0, symName: __ZNSt3__117__compressed_pairIPPNS_16__hash_node_baseIPNS_11__hash_nodeIPN6parlay8internal12hazptr_stackIPSt4byteE4NodeEPvEEEENS_25__bucket_list_deallocatorINS_9allocatorISF_EEEEEC1B8ue170006INS_16__value_init_tagESN_EEOT_OT0_, symObjAddr: 0x16F44, symBinAddr: 0x10001A3E0, symSize: 0x3C }
  - { offset: 0x71728, size: 0x8, addend: 0x0, symName: __ZNSt3__117__compressed_pairIPPNS_16__hash_node_baseIPNS_11__hash_nodeIPN6parlay8internal12hazptr_stackIPSt4byteE4NodeEPvEEEENS_25__bucket_list_deallocatorINS_9allocatorISF_EEEEEC2B8ue170006INS_16__value_init_tagESN_EEOT_OT0_, symObjAddr: 0x16F80, symBinAddr: 0x10001A41C, symSize: 0x40 }
  - { offset: 0x71780, size: 0x8, addend: 0x0, symName: __ZNSt3__122__compressed_pair_elemIPPNS_16__hash_node_baseIPNS_11__hash_nodeIPN6parlay8internal12hazptr_stackIPSt4byteE4NodeEPvEEEELi0ELb0EEC2B8ue170006ENS_16__value_init_tagE, symObjAddr: 0x16FC0, symBinAddr: 0x10001A45C, symSize: 0x18 }
  - { offset: 0x717B4, size: 0x8, addend: 0x0, symName: __ZNSt3__122__compressed_pair_elemINS_25__bucket_list_deallocatorINS_9allocatorIPNS_16__hash_node_baseIPNS_11__hash_nodeIPN6parlay8internal12hazptr_stackIPSt4byteE4NodeEPvEEEEEEEELi1ELb0EEC2B8ue170006ENS_16__value_init_tagE, symObjAddr: 0x16FD8, symBinAddr: 0x10001A474, symSize: 0x2C }
  - { offset: 0x717E8, size: 0x8, addend: 0x0, symName: __ZNSt3__125__bucket_list_deallocatorINS_9allocatorIPNS_16__hash_node_baseIPNS_11__hash_nodeIPN6parlay8internal12hazptr_stackIPSt4byteE4NodeEPvEEEEEEEC1B8ue170006Ev, symObjAddr: 0x17004, symBinAddr: 0x10001A4A0, symSize: 0x2C }
  - { offset: 0x71812, size: 0x8, addend: 0x0, symName: __ZNSt3__125__bucket_list_deallocatorINS_9allocatorIPNS_16__hash_node_baseIPNS_11__hash_nodeIPN6parlay8internal12hazptr_stackIPSt4byteE4NodeEPvEEEEEEEC2B8ue170006Ev, symObjAddr: 0x17030, symBinAddr: 0x10001A4CC, symSize: 0x40 }
  - { offset: 0x7183C, size: 0x8, addend: 0x0, symName: __ZNSt3__117__compressed_pairImNS_9allocatorIPNS_16__hash_node_baseIPNS_11__hash_nodeIPN6parlay8internal12hazptr_stackIPSt4byteE4NodeEPvEEEEEEEC1B8ue170006IiNS_18__default_init_tagEEEOT_OT0_, symObjAddr: 0x17070, symBinAddr: 0x10001A50C, symSize: 0x3C }
  - { offset: 0x71894, size: 0x8, addend: 0x0, symName: __ZNSt3__117__compressed_pairImNS_9allocatorIPNS_16__hash_node_baseIPNS_11__hash_nodeIPN6parlay8internal12hazptr_stackIPSt4byteE4NodeEPvEEEEEEEC2B8ue170006IiNS_18__default_init_tagEEEOT_OT0_, symObjAddr: 0x170AC, symBinAddr: 0x10001A548, symSize: 0x40 }
  - { offset: 0x718EC, size: 0x8, addend: 0x0, symName: __ZNSt3__122__compressed_pair_elemImLi0ELb0EEC2B8ue170006IivEEOT_, symObjAddr: 0x170EC, symBinAddr: 0x10001A588, symSize: 0x24 }
  - { offset: 0x7192F, size: 0x8, addend: 0x0, symName: __ZNSt3__122__compressed_pair_elemINS_9allocatorIPNS_16__hash_node_baseIPNS_11__hash_nodeIPN6parlay8internal12hazptr_stackIPSt4byteE4NodeEPvEEEEEELi1ELb1EEC2B8ue170006ENS_18__default_init_tagE, symObjAddr: 0x17110, symBinAddr: 0x10001A5AC, symSize: 0x2C }
  - { offset: 0x71963, size: 0x8, addend: 0x0, symName: __ZNSt3__19allocatorIPNS_16__hash_node_baseIPNS_11__hash_nodeIPN6parlay8internal12hazptr_stackIPSt4byteE4NodeEPvEEEEEC2B8ue170006Ev, symObjAddr: 0x1713C, symBinAddr: 0x10001A5D8, symSize: 0x2C }
  - { offset: 0x7198D, size: 0x8, addend: 0x0, symName: __ZNSt3__116__non_trivial_ifILb1ENS_9allocatorIPNS_16__hash_node_baseIPNS_11__hash_nodeIPN6parlay8internal12hazptr_stackIPSt4byteE4NodeEPvEEEEEEEC2B8ue170006Ev, symObjAddr: 0x17168, symBinAddr: 0x10001A604, symSize: 0x14 }
  - { offset: 0x719B7, size: 0x8, addend: 0x0, symName: __ZNSt3__117__compressed_pairINS_16__hash_node_baseIPNS_11__hash_nodeIPN6parlay8internal12hazptr_stackIPSt4byteE4NodeEPvEEEENS_9allocatorISC_EEEC2B8ue170006ILb1EvEEv, symObjAddr: 0x1717C, symBinAddr: 0x10001A618, symSize: 0x34 }
  - { offset: 0x719ED, size: 0x8, addend: 0x0, symName: __ZNSt3__122__compressed_pair_elemINS_16__hash_node_baseIPNS_11__hash_nodeIPN6parlay8internal12hazptr_stackIPSt4byteE4NodeEPvEEEELi0ELb0EEC2B8ue170006ENS_16__value_init_tagE, symObjAddr: 0x171B0, symBinAddr: 0x10001A64C, symSize: 0x2C }
  - { offset: 0x71A21, size: 0x8, addend: 0x0, symName: __ZNSt3__122__compressed_pair_elemINS_9allocatorINS_11__hash_nodeIPN6parlay8internal12hazptr_stackIPSt4byteE4NodeEPvEEEELi1ELb1EEC2B8ue170006ENS_16__value_init_tagE, symObjAddr: 0x171DC, symBinAddr: 0x10001A678, symSize: 0x2C }
  - { offset: 0x71A55, size: 0x8, addend: 0x0, symName: __ZNSt3__116__hash_node_baseIPNS_11__hash_nodeIPN6parlay8internal12hazptr_stackIPSt4byteE4NodeEPvEEEC1B8ue170006Ev, symObjAddr: 0x17208, symBinAddr: 0x10001A6A4, symSize: 0x2C }
  - { offset: 0x71A7F, size: 0x8, addend: 0x0, symName: __ZNSt3__116__hash_node_baseIPNS_11__hash_nodeIPN6parlay8internal12hazptr_stackIPSt4byteE4NodeEPvEEEC2B8ue170006Ev, symObjAddr: 0x17234, symBinAddr: 0x10001A6D0, symSize: 0x18 }
  - { offset: 0x71AA9, size: 0x8, addend: 0x0, symName: __ZNSt3__19allocatorINS_11__hash_nodeIPN6parlay8internal12hazptr_stackIPSt4byteE4NodeEPvEEEC2B8ue170006Ev, symObjAddr: 0x1724C, symBinAddr: 0x10001A6E8, symSize: 0x2C }
  - { offset: 0x71AD3, size: 0x8, addend: 0x0, symName: __ZNSt3__116__non_trivial_ifILb1ENS_9allocatorINS_11__hash_nodeIPN6parlay8internal12hazptr_stackIPSt4byteE4NodeEPvEEEEEC2B8ue170006Ev, symObjAddr: 0x17278, symBinAddr: 0x10001A714, symSize: 0x14 }
  - { offset: 0x71AFD, size: 0x8, addend: 0x0, symName: __ZNSt3__117__compressed_pairImNS_4hashIPN6parlay8internal12hazptr_stackIPSt4byteE4NodeEEEEC2B8ue170006IiNS_18__default_init_tagEEEOT_OT0_, symObjAddr: 0x1728C, symBinAddr: 0x10001A728, symSize: 0x40 }
  - { offset: 0x71B55, size: 0x8, addend: 0x0, symName: __ZNSt3__122__compressed_pair_elemINS_4hashIPN6parlay8internal12hazptr_stackIPSt4byteE4NodeEEELi1ELb1EEC2B8ue170006ENS_18__default_init_tagE, symObjAddr: 0x172CC, symBinAddr: 0x10001A768, symSize: 0x14 }
  - { offset: 0x71B89, size: 0x8, addend: 0x0, symName: __ZNSt3__117__compressed_pairIfNS_8equal_toIPN6parlay8internal12hazptr_stackIPSt4byteE4NodeEEEEC2B8ue170006IfNS_18__default_init_tagEEEOT_OT0_, symObjAddr: 0x172E0, symBinAddr: 0x10001A77C, symSize: 0x40 }
  - { offset: 0x71BE1, size: 0x8, addend: 0x0, symName: __ZNSt3__122__compressed_pair_elemIfLi0ELb0EEC2B8ue170006IfvEEOT_, symObjAddr: 0x17320, symBinAddr: 0x10001A7BC, symSize: 0x24 }
  - { offset: 0x71C24, size: 0x8, addend: 0x0, symName: __ZNSt3__122__compressed_pair_elemINS_8equal_toIPN6parlay8internal12hazptr_stackIPSt4byteE4NodeEEELi1ELb1EEC2B8ue170006ENS_18__default_init_tagE, symObjAddr: 0x17344, symBinAddr: 0x10001A7E0, symSize: 0x14 }
  - { offset: 0x71C64, size: 0x8, addend: 0x0, symName: __ZN6parlay14ThreadSpecificINS_8internal24intrusive_acquire_retireINS1_12hazptr_stackIPSt4byteE4NodeENSt3__114default_deleteIS7_EELm1EE10ThreadDataEE8for_eachIZNSB_10scan_slotsIZNSB_18work_toward_ejectsEmEUlPS7_E_EEvOT_EUlSJ_E_EEvSJ_, symObjAddr: 0x1737C, symBinAddr: 0x10001A818, symSize: 0x180 }
  - { offset: 0x71D29, size: 0x8, addend: 0x0, symName: __ZZN6parlay8internal24intrusive_acquire_retireINS0_12hazptr_stackIPSt4byteE4NodeENSt3__114default_deleteIS6_EELm1EE10scan_slotsIZNSA_18work_toward_ejectsEmEUlPS6_E_EEvOT_ENKUlSF_E_clIRNSA_10ThreadDataEEEDaSF_, symObjAddr: 0x17578, symBinAddr: 0x10001AA14, symSize: 0x60 }
  - { offset: 0x71D82, size: 0x8, addend: 0x0, symName: __ZZN6parlay8internal24intrusive_acquire_retireINS0_12hazptr_stackIPSt4byteE4NodeENSt3__114default_deleteIS6_EELm1EE18work_toward_ejectsEmENKUlPS6_E_clESB_, symObjAddr: 0x175D8, symBinAddr: 0x10001AA74, symSize: 0x3C }
  - { offset: 0x71DBA, size: 0x8, addend: 0x0, symName: __ZNSt3__113unordered_setIPN6parlay8internal12hazptr_stackIPSt4byteE4NodeENS_4hashIS8_EENS_8equal_toIS8_EENS_9allocatorIS8_EEE6insertB8ue170006ERKS8_, symObjAddr: 0x17614, symBinAddr: 0x10001AAB0, symSize: 0x4C }
  - { offset: 0x71DEF, size: 0x8, addend: 0x0, symName: __ZNSt3__112__hash_tableIPN6parlay8internal12hazptr_stackIPSt4byteE4NodeENS_4hashIS8_EENS_8equal_toIS8_EENS_9allocatorIS8_EEE15__insert_uniqueB8ue170006ERKS8_, symObjAddr: 0x17660, symBinAddr: 0x10001AAFC, symSize: 0x50 }
  - { offset: 0x71E24, size: 0x8, addend: 0x0, symName: __ZNSt3__14pairINS_21__hash_const_iteratorIPNS_11__hash_nodeIPN6parlay8internal12hazptr_stackIPSt4byteE4NodeEPvEEEEbEC1B8ue170006INS_15__hash_iteratorISD_EEbLSB_0EEEONS0_IT_T0_EE, symObjAddr: 0x176B0, symBinAddr: 0x10001AB4C, symSize: 0x34 }
  - { offset: 0x71E76, size: 0x8, addend: 0x0, symName: __ZNSt3__112__hash_tableIPN6parlay8internal12hazptr_stackIPSt4byteE4NodeENS_4hashIS8_EENS_8equal_toIS8_EENS_9allocatorIS8_EEE25__emplace_unique_key_argsIS8_JRKS8_EEENS_4pairINS_15__hash_iteratorIPNS_11__hash_nodeIS8_PvEEEEbEERKT_DpOT0_, symObjAddr: 0x176E4, symBinAddr: 0x10001AB80, symSize: 0x4DC }
  - { offset: 0x71F56, size: 0x8, addend: 0x0, symName: __ZNSt3__122__hash_key_value_typesIPN6parlay8internal12hazptr_stackIPSt4byteE4NodeEE9__get_keyB8ue170006ERKS8_, symObjAddr: 0x17BC0, symBinAddr: 0x10001B05C, symSize: 0x14 }
  - { offset: 0x71F79, size: 0x8, addend: 0x0, symName: __ZNSt3__112__hash_tableIPN6parlay8internal12hazptr_stackIPSt4byteE4NodeENS_4hashIS8_EENS_8equal_toIS8_EENS_9allocatorIS8_EEE13hash_functionB8ue170006Ev, symObjAddr: 0x17BD4, symBinAddr: 0x10001B070, symSize: 0x28 }
  - { offset: 0x71F9F, size: 0x8, addend: 0x0, symName: __ZNKSt3__14hashIPN6parlay8internal12hazptr_stackIPSt4byteE4NodeEEclB8ue170006ES8_, symObjAddr: 0x17BFC, symBinAddr: 0x10001B098, symSize: 0x48 }
  - { offset: 0x72005, size: 0x8, addend: 0x0, symName: __ZNKSt3__112__hash_tableIPN6parlay8internal12hazptr_stackIPSt4byteE4NodeENS_4hashIS8_EENS_8equal_toIS8_EENS_9allocatorIS8_EEE12bucket_countB8ue170006Ev, symObjAddr: 0x17C44, symBinAddr: 0x10001B0E0, symSize: 0x28 }
  - { offset: 0x7202B, size: 0x8, addend: 0x0, symName: __ZNKSt3__110unique_ptrIA_PNS_16__hash_node_baseIPNS_11__hash_nodeIPN6parlay8internal12hazptr_stackIPSt4byteE4NodeEPvEEEENS_25__bucket_list_deallocatorINS_9allocatorISF_EEEEEixB8ue170006Em, symObjAddr: 0x17D04, symBinAddr: 0x10001B1A0, symSize: 0x34 }
  - { offset: 0x72060, size: 0x8, addend: 0x0, symName: __ZNKSt3__116__hash_node_baseIPNS_11__hash_nodeIPN6parlay8internal12hazptr_stackIPSt4byteE4NodeEPvEEE6__hashB8ue170006Ev, symObjAddr: 0x17D38, symBinAddr: 0x10001B1D4, symSize: 0x18 }
  - { offset: 0x72086, size: 0x8, addend: 0x0, symName: __ZNSt3__112__hash_tableIPN6parlay8internal12hazptr_stackIPSt4byteE4NodeENS_4hashIS8_EENS_8equal_toIS8_EENS_9allocatorIS8_EEE6key_eqB8ue170006Ev, symObjAddr: 0x17D50, symBinAddr: 0x10001B1EC, symSize: 0x28 }
  - { offset: 0x720AC, size: 0x8, addend: 0x0, symName: __ZNKSt3__18equal_toIPN6parlay8internal12hazptr_stackIPSt4byteE4NodeEEclB8ue170006ERKS8_SB_, symObjAddr: 0x17D78, symBinAddr: 0x10001B214, symSize: 0x34 }
  - { offset: 0x720F0, size: 0x8, addend: 0x0, symName: __ZNSt3__116__hash_node_baseIPNS_11__hash_nodeIPN6parlay8internal12hazptr_stackIPSt4byteE4NodeEPvEEE8__upcastB8ue170006Ev, symObjAddr: 0x17DAC, symBinAddr: 0x10001B248, symSize: 0x24 }
  - { offset: 0x72116, size: 0x8, addend: 0x0, symName: __ZNSt3__112__hash_tableIPN6parlay8internal12hazptr_stackIPSt4byteE4NodeENS_4hashIS8_EENS_8equal_toIS8_EENS_9allocatorIS8_EEE21__construct_node_hashIRKS8_JEEENS_10unique_ptrINS_11__hash_nodeIS8_PvEENS_22__hash_node_destructorINSD_ISM_EEEEEEmOT_DpOT0_, symObjAddr: 0x17DD0, symBinAddr: 0x10001B26C, symSize: 0x140 }
  - { offset: 0x72189, size: 0x8, addend: 0x0, symName: __ZNSt3__112__hash_tableIPN6parlay8internal12hazptr_stackIPSt4byteE4NodeENS_4hashIS8_EENS_8equal_toIS8_EENS_9allocatorIS8_EEE4sizeB8ue170006Ev, symObjAddr: 0x17F10, symBinAddr: 0x10001B3AC, symSize: 0x28 }
  - { offset: 0x721AF, size: 0x8, addend: 0x0, symName: __ZNSt3__112__hash_tableIPN6parlay8internal12hazptr_stackIPSt4byteE4NodeENS_4hashIS8_EENS_8equal_toIS8_EENS_9allocatorIS8_EEE15max_load_factorB8ue170006Ev, symObjAddr: 0x17F38, symBinAddr: 0x10001B3D4, symSize: 0x28 }
  - { offset: 0x721D5, size: 0x8, addend: 0x0, symName: __ZNSt3__112__hash_tableIPN6parlay8internal12hazptr_stackIPSt4byteE4NodeENS_4hashIS8_EENS_8equal_toIS8_EENS_9allocatorIS8_EEE15__rehash_uniqueB8ue170006Em, symObjAddr: 0x17F60, symBinAddr: 0x10001B3FC, symSize: 0x2C }
  - { offset: 0x7220A, size: 0x8, addend: 0x0, symName: __Z4ceilB8ue170006f, symObjAddr: 0x17FDC, symBinAddr: 0x10001B478, symSize: 0x18 }
  - { offset: 0x72239, size: 0x8, addend: 0x0, symName: __ZNSt3__117__compressed_pairINS_16__hash_node_baseIPNS_11__hash_nodeIPN6parlay8internal12hazptr_stackIPSt4byteE4NodeEPvEEEENS_9allocatorISC_EEE5firstB8ue170006Ev, symObjAddr: 0x17FF4, symBinAddr: 0x10001B490, symSize: 0x24 }
  - { offset: 0x7225F, size: 0x8, addend: 0x0, symName: __ZNSt3__116__hash_node_baseIPNS_11__hash_nodeIPN6parlay8internal12hazptr_stackIPSt4byteE4NodeEPvEEE5__ptrB8ue170006Ev, symObjAddr: 0x18018, symBinAddr: 0x10001B4B4, symSize: 0x24 }
  - { offset: 0x72285, size: 0x8, addend: 0x0, symName: __ZNKSt3__110unique_ptrINS_11__hash_nodeIPN6parlay8internal12hazptr_stackIPSt4byteE4NodeEPvEENS_22__hash_node_destructorINS_9allocatorISB_EEEEEptB8ue170006Ev, symObjAddr: 0x1803C, symBinAddr: 0x10001B4D8, symSize: 0x28 }
  - { offset: 0x722AB, size: 0x8, addend: 0x0, symName: __ZNKSt3__110unique_ptrINS_11__hash_nodeIPN6parlay8internal12hazptr_stackIPSt4byteE4NodeEPvEENS_22__hash_node_destructorINS_9allocatorISB_EEEEE3getB8ue170006Ev, symObjAddr: 0x18064, symBinAddr: 0x10001B500, symSize: 0x28 }
  - { offset: 0x722D1, size: 0x8, addend: 0x0, symName: __ZNSt3__110unique_ptrINS_11__hash_nodeIPN6parlay8internal12hazptr_stackIPSt4byteE4NodeEPvEENS_22__hash_node_destructorINS_9allocatorISB_EEEEE7releaseB8ue170006Ev, symObjAddr: 0x1808C, symBinAddr: 0x10001B528, symSize: 0x44 }
  - { offset: 0x72306, size: 0x8, addend: 0x0, symName: __ZNSt3__110unique_ptrINS_11__hash_nodeIPN6parlay8internal12hazptr_stackIPSt4byteE4NodeEPvEENS_22__hash_node_destructorINS_9allocatorISB_EEEEED1B8ue170006Ev, symObjAddr: 0x180D0, symBinAddr: 0x10001B56C, symSize: 0x2C }
  - { offset: 0x72330, size: 0x8, addend: 0x0, symName: __ZNSt3__115__hash_iteratorIPNS_11__hash_nodeIPN6parlay8internal12hazptr_stackIPSt4byteE4NodeEPvEEEC1B8ue170006EPNS_16__hash_node_baseISC_EE, symObjAddr: 0x180FC, symBinAddr: 0x10001B598, symSize: 0x34 }
  - { offset: 0x7236F, size: 0x8, addend: 0x0, symName: __ZNSt3__14pairINS_15__hash_iteratorIPNS_11__hash_nodeIPN6parlay8internal12hazptr_stackIPSt4byteE4NodeEPvEEEEbEC1B8ue170006ISE_RbLSB_0EEEOT_OT0_, symObjAddr: 0x18130, symBinAddr: 0x10001B5CC, symSize: 0x3C }
  - { offset: 0x723CE, size: 0x8, addend: 0x0, symName: __ZNSt3__117__compressed_pairImNS_4hashIPN6parlay8internal12hazptr_stackIPSt4byteE4NodeEEEE6secondB8ue170006Ev, symObjAddr: 0x1816C, symBinAddr: 0x10001B608, symSize: 0x24 }
  - { offset: 0x723F4, size: 0x8, addend: 0x0, symName: __ZNSt3__122__compressed_pair_elemINS_4hashIPN6parlay8internal12hazptr_stackIPSt4byteE4NodeEEELi1ELb1EE5__getB8ue170006Ev, symObjAddr: 0x18190, symBinAddr: 0x10001B62C, symSize: 0x14 }
  - { offset: 0x7241A, size: 0x8, addend: 0x0, symName: __ZNKSt3__121__murmur2_or_cityhashImLm64EEclB8ue170006EPKvm, symObjAddr: 0x181A4, symBinAddr: 0x10001B640, symSize: 0x410 }
  - { offset: 0x724B4, size: 0x8, addend: 0x0, symName: __ZNSt3__121__murmur2_or_cityhashImLm64EE18__hash_len_0_to_16B8ue170006EPKcm, symObjAddr: 0x185B4, symBinAddr: 0x10001BA50, symSize: 0x1C8 }
  - { offset: 0x7258D, size: 0x8, addend: 0x0, symName: __ZNSt3__121__murmur2_or_cityhashImLm64EE19__hash_len_17_to_32B8ue170006EPKcm, symObjAddr: 0x1877C, symBinAddr: 0x10001BC18, symSize: 0x130 }
  - { offset: 0x725F6, size: 0x8, addend: 0x0, symName: __ZNSt3__121__murmur2_or_cityhashImLm64EE19__hash_len_33_to_64B8ue170006EPKcm, symObjAddr: 0x188AC, symBinAddr: 0x10001BD48, symSize: 0x2B8 }
  - { offset: 0x726AB, size: 0x8, addend: 0x0, symName: __ZNSt3__121__murmur2_or_cityhashImLm64EE13__hash_len_16B8ue170006Emm, symObjAddr: 0x18B84, symBinAddr: 0x10001C020, symSize: 0x80 }
  - { offset: 0x72706, size: 0x8, addend: 0x0, symName: __ZNSt3__121__murmur2_or_cityhashImLm64EE29__weak_hash_len_32_with_seedsB8ue170006EPKcmm, symObjAddr: 0x18C04, symBinAddr: 0x10001C0A0, symSize: 0x88 }
  - { offset: 0x72745, size: 0x8, addend: 0x0, symName: __ZNSt3__121__murmur2_or_cityhashImLm64EE8__rotateB8ue170006Emi, symObjAddr: 0x18C8C, symBinAddr: 0x10001C128, symSize: 0x64 }
  - { offset: 0x72776, size: 0x8, addend: 0x0, symName: __ZNSt3__14pairImmEaSB8ue170006EOS1_, symObjAddr: 0x18CF0, symBinAddr: 0x10001C18C, symSize: 0x30 }
  - { offset: 0x727AB, size: 0x8, addend: 0x0, symName: __ZNSt3__121__murmur2_or_cityhashImLm64EE11__shift_mixB8ue170006Em, symObjAddr: 0x18D5C, symBinAddr: 0x10001C1F8, symSize: 0x1C }
  - { offset: 0x727CE, size: 0x8, addend: 0x0, symName: __ZNSt3__121__murmur2_or_cityhashImLm64EE22__rotate_by_at_least_1B8ue170006Emi, symObjAddr: 0x18D78, symBinAddr: 0x10001C214, symSize: 0x38 }
  - { offset: 0x727FF, size: 0x8, addend: 0x0, symName: __ZNSt3__121__murmur2_or_cityhashImLm64EE29__weak_hash_len_32_with_seedsB8ue170006Emmmmmm, symObjAddr: 0x18DD0, symBinAddr: 0x10001C26C, symSize: 0xD8 }
  - { offset: 0x72876, size: 0x8, addend: 0x0, symName: __ZNSt3__14pairImmEC1B8ue170006ImmLPv0EEEOT_OT0_, symObjAddr: 0x18EA8, symBinAddr: 0x10001C344, symSize: 0x3C }
  - { offset: 0x728D5, size: 0x8, addend: 0x0, symName: __ZNSt3__14pairImmEC2B8ue170006ImmLPv0EEEOT_OT0_, symObjAddr: 0x18EE4, symBinAddr: 0x10001C380, symSize: 0x34 }
  - { offset: 0x72934, size: 0x8, addend: 0x0, symName: __ZNKSt3__110unique_ptrIA_PNS_16__hash_node_baseIPNS_11__hash_nodeIPN6parlay8internal12hazptr_stackIPSt4byteE4NodeEPvEEEENS_25__bucket_list_deallocatorINS_9allocatorISF_EEEEE11get_deleterB8ue170006Ev, symObjAddr: 0x18F18, symBinAddr: 0x10001C3B4, symSize: 0x24 }
